
tests/asm-sodor/build/emulator/riscv-v2_sll.bin:     file format elf32-littleriscv


Disassembly of section .text:

02000000 <_start>:
 2000000:	f0400013 	move	a12,ra
 2000004:	16c0017b 	mfpcr	s0,cr27

02000008 <inf0>:
 2000008:	000400e3 	bne	zero,s0,2000008 <inf0>
 200000c:	d000017b 	mfpcr	a8,cr0
 2000010:	d6807e93 	srl	a8,a8,0x1f
 2000014:	d800017b 	mfpcr	a9,cr0
 2000018:	dec07293 	srl	a9,a9,0x1c
 200001c:	dec01f93 	and	a9,a9,7
 2000020:	dec00413 	add	a9,a9,1
 2000024:	003410e3 	bne	zero,a8,200002c <set_schedule>
 2000028:	d6c00013 	move	a8,a9

0200002c <set_schedule>:
 200002c:	103ffc13 	li	s0,-1
 2000030:	1e800013 	move	s1,a8
 2000034:	18fffc13 	add	s1,s1,-1
 2000038:	10801093 	sll	s0,s0,0x4
 200003c:	00061863 	beq	zero,s1,2000048 <set_schedule+0x1c>
 2000040:	10803b13 	or	s0,s0,14
 2000044:	fffffc67 	j	2000034 <set_schedule+0x8>
 2000048:	058401fb 	mtpcr	zero,s0,cr22
 200004c:	10000013 	li	s0,0
 2000050:	05c401fb 	mtpcr	zero,s0,cr23
 2000054:	00000013 	nop
 2000058:	00000013 	nop
 200005c:	00000013 	nop
 2000060:	00000013 	nop
 2000064:	064001fb 	mtpcr	zero,zero,cr25

02000068 <test_2>:
 2000068:	08000413 	li	ra,1
 200006c:	10000013 	li	s0,0
 2000070:	184400b3 	sll	s1,ra,s0
 2000074:	e8000413 	li	a11,1
 2000078:	e0000813 	li	a10,2
 200007c:	28fa78e3 	bne	s1,a11,20005b8 <fail>

02000080 <test_3>:
 2000080:	08000413 	li	ra,1
 2000084:	10000413 	li	s0,1
 2000088:	184400b3 	sll	s1,ra,s0
 200008c:	e8000813 	li	a11,2
 2000090:	e0000c13 	li	a10,3
 2000094:	28fa48e3 	bne	s1,a11,20005b8 <fail>

02000098 <test_4>:
 2000098:	08000413 	li	ra,1
 200009c:	10001c13 	li	s0,7
 20000a0:	184400b3 	sll	s1,ra,s0
 20000a4:	e8020013 	li	a11,128
 20000a8:	e0001013 	li	a10,4
 20000ac:	28fa18e3 	bne	s1,a11,20005b8 <fail>

020000b0 <test_5>:
 20000b0:	08000413 	li	ra,1
 20000b4:	10003813 	li	s0,14
 20000b8:	184400b3 	sll	s1,ra,s0
 20000bc:	e8000237 	lui	a11,0x4
 20000c0:	e0001413 	li	a10,5
 20000c4:	20fbe8e3 	bne	s1,a11,20005b8 <fail>

020000c8 <test_6>:
 20000c8:	08000413 	li	ra,1
 20000cc:	10007c13 	li	s0,31
 20000d0:	184400b3 	sll	s1,ra,s0
 20000d4:	ec000037 	lui	a11,0x80000
 20000d8:	e0001813 	li	a10,6
 20000dc:	20fbb8e3 	bne	s1,a11,20005b8 <fail>

020000e0 <test_7>:
 20000e0:	083ffc13 	li	ra,-1
 20000e4:	10000013 	li	s0,0
 20000e8:	184400b3 	sll	s1,ra,s0
 20000ec:	e83ffc13 	li	a11,-1
 20000f0:	e0001c13 	li	a10,7
 20000f4:	20fb88e3 	bne	s1,a11,20005b8 <fail>

020000f8 <test_8>:
 20000f8:	083ffc13 	li	ra,-1
 20000fc:	10000413 	li	s0,1
 2000100:	184400b3 	sll	s1,ra,s0
 2000104:	e83ff813 	li	a11,-2
 2000108:	e0002013 	li	a10,8
 200010c:	20fb58e3 	bne	s1,a11,20005b8 <fail>

02000110 <test_9>:
 2000110:	083ffc13 	li	ra,-1
 2000114:	10001c13 	li	s0,7
 2000118:	184400b3 	sll	s1,ra,s0
 200011c:	e83e0013 	li	a11,-128
 2000120:	e0002413 	li	a10,9
 2000124:	20fb28e3 	bne	s1,a11,20005b8 <fail>

02000128 <test_10>:
 2000128:	083ffc13 	li	ra,-1
 200012c:	10003813 	li	s0,14
 2000130:	184400b3 	sll	s1,ra,s0
 2000134:	effffe37 	lui	a11,0xffffc
 2000138:	e0002813 	li	a10,10
 200013c:	20faf8e3 	bne	s1,a11,20005b8 <fail>

02000140 <test_11>:
 2000140:	083ffc13 	li	ra,-1
 2000144:	10007c13 	li	s0,31
 2000148:	184400b3 	sll	s1,ra,s0
 200014c:	ec000037 	lui	a11,0x80000
 2000150:	e0002c13 	li	a10,11
 2000154:	20fac8e3 	bne	s1,a11,20005b8 <fail>

02000158 <test_12>:
 2000158:	09090937 	lui	ra,0x21212
 200015c:	08448413 	add	ra,ra,289
 2000160:	10000013 	li	s0,0
 2000164:	184400b3 	sll	s1,ra,s0
 2000168:	e9090937 	lui	a11,0x21212
 200016c:	ef448413 	add	a11,a11,289
 2000170:	e0003013 	li	a10,12
 2000174:	20fa88e3 	bne	s1,a11,20005b8 <fail>

02000178 <test_13>:
 2000178:	09090937 	lui	ra,0x21212
 200017c:	08448413 	add	ra,ra,289
 2000180:	10000413 	li	s0,1
 2000184:	184400b3 	sll	s1,ra,s0
 2000188:	ea121237 	lui	a11,0x42424
 200018c:	ef490813 	add	a11,a11,578
 2000190:	e0003413 	li	a10,13
 2000194:	20fa48e3 	bne	s1,a11,20005b8 <fail>

02000198 <test_14>:
 2000198:	09090937 	lui	ra,0x21212
 200019c:	08448413 	add	ra,ra,289
 20001a0:	10001c13 	li	s0,7
 20001a4:	184400b3 	sll	s1,ra,s0
 20001a8:	ec8484b7 	lui	a11,0x90909
 20001ac:	ef420013 	add	a11,a11,128
 20001b0:	e0003813 	li	a10,14
 20001b4:	20fa08e3 	bne	s1,a11,20005b8 <fail>

020001b8 <test_15>:
 20001b8:	09090937 	lui	ra,0x21212
 20001bc:	08448413 	add	ra,ra,289
 20001c0:	10003813 	li	s0,14
 20001c4:	184400b3 	sll	s1,ra,s0
 20001c8:	ea424237 	lui	a11,0x48484
 20001cc:	e0003c13 	li	a10,15
 20001d0:	18fbd0e3 	bne	s1,a11,20005b8 <fail>

020001d4 <test_16>:
 20001d4:	09090937 	lui	ra,0x21212
 20001d8:	08448413 	add	ra,ra,289
 20001dc:	10007c13 	li	s0,31
 20001e0:	184400b3 	sll	s1,ra,s0
 20001e4:	ec000037 	lui	a11,0x80000
 20001e8:	e0004013 	li	a10,16
 20001ec:	18fb98e3 	bne	s1,a11,20005b8 <fail>

020001f0 <test_17>:
 20001f0:	09090937 	lui	ra,0x21212
 20001f4:	08448413 	add	ra,ra,289
 20001f8:	103f8013 	li	s0,-32
 20001fc:	184400b3 	sll	s1,ra,s0
 2000200:	e9090937 	lui	a11,0x21212
 2000204:	ef448413 	add	a11,a11,289
 2000208:	e0004413 	li	a10,17
 200020c:	18fb58e3 	bne	s1,a11,20005b8 <fail>

02000210 <test_18>:
 2000210:	09090937 	lui	ra,0x21212
 2000214:	08448413 	add	ra,ra,289
 2000218:	103f8413 	li	s0,-31
 200021c:	184400b3 	sll	s1,ra,s0
 2000220:	ea121237 	lui	a11,0x42424
 2000224:	ef490813 	add	a11,a11,578
 2000228:	e0004813 	li	a10,18
 200022c:	18fb18e3 	bne	s1,a11,20005b8 <fail>

02000230 <test_19>:
 2000230:	09090937 	lui	ra,0x21212
 2000234:	08448413 	add	ra,ra,289
 2000238:	103f9c13 	li	s0,-25
 200023c:	184400b3 	sll	s1,ra,s0
 2000240:	ec8484b7 	lui	a11,0x90909
 2000244:	ef420013 	add	a11,a11,128
 2000248:	e0004c13 	li	a10,19
 200024c:	18fad8e3 	bne	s1,a11,20005b8 <fail>

02000250 <test_20>:
 2000250:	09090937 	lui	ra,0x21212
 2000254:	08448413 	add	ra,ra,289
 2000258:	103fb813 	li	s0,-18
 200025c:	184400b3 	sll	s1,ra,s0
 2000260:	ea424237 	lui	a11,0x48484
 2000264:	e0005013 	li	a10,20
 2000268:	18faa0e3 	bne	s1,a11,20005b8 <fail>

0200026c <test_21>:
 200026c:	09090937 	lui	ra,0x21212
 2000270:	08448413 	add	ra,ra,289
 2000274:	103ffc13 	li	s0,-1
 2000278:	184400b3 	sll	s1,ra,s0
 200027c:	ec000037 	lui	a11,0x80000
 2000280:	e0005413 	li	a10,21
 2000284:	18fa68e3 	bne	s1,a11,20005b8 <fail>

02000288 <test_22>:
 2000288:	08000413 	li	ra,1
 200028c:	10001c13 	li	s0,7
 2000290:	084400b3 	sll	ra,ra,s0
 2000294:	e8020013 	li	a11,128
 2000298:	e0005813 	li	a10,22
 200029c:	187a38e3 	bne	ra,a11,20005b8 <fail>

020002a0 <test_23>:
 20002a0:	08000413 	li	ra,1
 20002a4:	10003813 	li	s0,14
 20002a8:	104400b3 	sll	s0,ra,s0
 20002ac:	e8000237 	lui	a11,0x4
 20002b0:	e0005c13 	li	a10,23
 20002b4:	18ba08e3 	bne	s0,a11,20005b8 <fail>

020002b8 <test_24>:
 20002b8:	08000c13 	li	ra,3
 20002bc:	084200b3 	sll	ra,ra,ra
 20002c0:	e8006013 	li	a11,24
 20002c4:	e0006013 	li	a10,24
 20002c8:	107be0e3 	bne	ra,a11,20005b8 <fail>

020002cc <test_25>:
 20002cc:	20000013 	li	s2,0
 20002d0:	08000413 	li	ra,1
 20002d4:	10001c13 	li	s0,7
 20002d8:	184400b3 	sll	s1,ra,s0
 20002dc:	30c00013 	move	s4,s1
 20002e0:	21000413 	add	s2,s2,1
 20002e4:	28000813 	li	s3,2
 20002e8:	f90bd0e3 	bne	s2,s3,20002d0 <test_25+0x4>
 20002ec:	e8020013 	li	a11,128
 20002f0:	e0006413 	li	a10,25
 20002f4:	11bb88e3 	bne	s4,a11,20005b8 <fail>

020002f8 <test_26>:
 20002f8:	20000013 	li	s2,0
 20002fc:	08000413 	li	ra,1
 2000300:	10003813 	li	s0,14
 2000304:	184400b3 	sll	s1,ra,s0
 2000308:	00000013 	nop
 200030c:	30c00013 	move	s4,s1
 2000310:	21000413 	add	s2,s2,1
 2000314:	28000813 	li	s3,2
 2000318:	f90bc8e3 	bne	s2,s3,20002fc <test_26+0x4>
 200031c:	e8000237 	lui	a11,0x4
 2000320:	e0006813 	li	a10,26
 2000324:	11bb28e3 	bne	s4,a11,20005b8 <fail>

02000328 <test_27>:
 2000328:	20000013 	li	s2,0
 200032c:	08000413 	li	ra,1
 2000330:	10007c13 	li	s0,31
 2000334:	184400b3 	sll	s1,ra,s0
 2000338:	00000013 	nop
 200033c:	00000013 	nop
 2000340:	30c00013 	move	s4,s1
 2000344:	21000413 	add	s2,s2,1
 2000348:	28000813 	li	s3,2
 200034c:	f90bc0e3 	bne	s2,s3,200032c <test_27+0x4>
 2000350:	ec000037 	lui	a11,0x80000
 2000354:	e0006c13 	li	a10,27
 2000358:	11bac0e3 	bne	s4,a11,20005b8 <fail>

0200035c <test_28>:
 200035c:	20000013 	li	s2,0
 2000360:	08000413 	li	ra,1
 2000364:	10001c13 	li	s0,7
 2000368:	184400b3 	sll	s1,ra,s0
 200036c:	21000413 	add	s2,s2,1
 2000370:	28000813 	li	s3,2
 2000374:	f90bd8e3 	bne	s2,s3,2000360 <test_28+0x4>
 2000378:	e8020013 	li	a11,128
 200037c:	e0007013 	li	a10,28
 2000380:	10fa70e3 	bne	s1,a11,20005b8 <fail>

02000384 <test_29>:
 2000384:	20000013 	li	s2,0
 2000388:	08000413 	li	ra,1
 200038c:	10003813 	li	s0,14
 2000390:	00000013 	nop
 2000394:	184400b3 	sll	s1,ra,s0
 2000398:	21000413 	add	s2,s2,1
 200039c:	28000813 	li	s3,2
 20003a0:	f90bd0e3 	bne	s2,s3,2000388 <test_29+0x4>
 20003a4:	e8000237 	lui	a11,0x4
 20003a8:	e0007413 	li	a10,29
 20003ac:	10fa18e3 	bne	s1,a11,20005b8 <fail>

020003b0 <test_30>:
 20003b0:	20000013 	li	s2,0
 20003b4:	08000413 	li	ra,1
 20003b8:	10007c13 	li	s0,31
 20003bc:	00000013 	nop
 20003c0:	00000013 	nop
 20003c4:	184400b3 	sll	s1,ra,s0
 20003c8:	21000413 	add	s2,s2,1
 20003cc:	28000813 	li	s3,2
 20003d0:	f90bc8e3 	bne	s2,s3,20003b4 <test_30+0x4>
 20003d4:	ec000037 	lui	a11,0x80000
 20003d8:	e0007813 	li	a10,30
 20003dc:	08fbb8e3 	bne	s1,a11,20005b8 <fail>

020003e0 <test_31>:
 20003e0:	20000013 	li	s2,0
 20003e4:	08000413 	li	ra,1
 20003e8:	00000013 	nop
 20003ec:	10001c13 	li	s0,7
 20003f0:	184400b3 	sll	s1,ra,s0
 20003f4:	21000413 	add	s2,s2,1
 20003f8:	28000813 	li	s3,2
 20003fc:	f90bd0e3 	bne	s2,s3,20003e4 <test_31+0x4>
 2000400:	e8020013 	li	a11,128
 2000404:	e0007c13 	li	a10,31
 2000408:	08fb60e3 	bne	s1,a11,20005b8 <fail>

0200040c <test_32>:
 200040c:	20000013 	li	s2,0
 2000410:	08000413 	li	ra,1
 2000414:	00000013 	nop
 2000418:	10003813 	li	s0,14
 200041c:	00000013 	nop
 2000420:	184400b3 	sll	s1,ra,s0
 2000424:	21000413 	add	s2,s2,1
 2000428:	28000813 	li	s3,2
 200042c:	f90bc8e3 	bne	s2,s3,2000410 <test_32+0x4>
 2000430:	e8000237 	lui	a11,0x4
 2000434:	e0008013 	li	a10,32
 2000438:	08fb00e3 	bne	s1,a11,20005b8 <fail>

0200043c <test_33>:
 200043c:	20000013 	li	s2,0
 2000440:	08000413 	li	ra,1
 2000444:	00000013 	nop
 2000448:	00000013 	nop
 200044c:	10007c13 	li	s0,31
 2000450:	184400b3 	sll	s1,ra,s0
 2000454:	21000413 	add	s2,s2,1
 2000458:	28000813 	li	s3,2
 200045c:	f90bc8e3 	bne	s2,s3,2000440 <test_33+0x4>
 2000460:	ec000037 	lui	a11,0x80000
 2000464:	e0008413 	li	a10,33
 2000468:	08faa0e3 	bne	s1,a11,20005b8 <fail>

0200046c <test_34>:
 200046c:	20000013 	li	s2,0
 2000470:	10001c13 	li	s0,7
 2000474:	08000413 	li	ra,1
 2000478:	184400b3 	sll	s1,ra,s0
 200047c:	21000413 	add	s2,s2,1
 2000480:	28000813 	li	s3,2
 2000484:	f90bd8e3 	bne	s2,s3,2000470 <test_34+0x4>
 2000488:	e8020013 	li	a11,128
 200048c:	e0008813 	li	a10,34
 2000490:	08fa50e3 	bne	s1,a11,20005b8 <fail>

02000494 <test_35>:
 2000494:	20000013 	li	s2,0
 2000498:	10003813 	li	s0,14
 200049c:	08000413 	li	ra,1
 20004a0:	00000013 	nop
 20004a4:	184400b3 	sll	s1,ra,s0
 20004a8:	21000413 	add	s2,s2,1
 20004ac:	28000813 	li	s3,2
 20004b0:	f90bd0e3 	bne	s2,s3,2000498 <test_35+0x4>
 20004b4:	e8000237 	lui	a11,0x4
 20004b8:	e0008c13 	li	a10,35
 20004bc:	00fbf8e3 	bne	s1,a11,20005b8 <fail>

020004c0 <test_36>:
 20004c0:	20000013 	li	s2,0
 20004c4:	10007c13 	li	s0,31
 20004c8:	08000413 	li	ra,1
 20004cc:	00000013 	nop
 20004d0:	00000013 	nop
 20004d4:	184400b3 	sll	s1,ra,s0
 20004d8:	21000413 	add	s2,s2,1
 20004dc:	28000813 	li	s3,2
 20004e0:	f90bc8e3 	bne	s2,s3,20004c4 <test_36+0x4>
 20004e4:	ec000037 	lui	a11,0x80000
 20004e8:	e0009013 	li	a10,36
 20004ec:	00fb98e3 	bne	s1,a11,20005b8 <fail>

020004f0 <test_37>:
 20004f0:	20000013 	li	s2,0
 20004f4:	10001c13 	li	s0,7
 20004f8:	00000013 	nop
 20004fc:	08000413 	li	ra,1
 2000500:	184400b3 	sll	s1,ra,s0
 2000504:	21000413 	add	s2,s2,1
 2000508:	28000813 	li	s3,2
 200050c:	f90bd0e3 	bne	s2,s3,20004f4 <test_37+0x4>
 2000510:	e8020013 	li	a11,128
 2000514:	e0009413 	li	a10,37
 2000518:	00fb40e3 	bne	s1,a11,20005b8 <fail>

0200051c <test_38>:
 200051c:	20000013 	li	s2,0
 2000520:	10003813 	li	s0,14
 2000524:	00000013 	nop
 2000528:	08000413 	li	ra,1
 200052c:	00000013 	nop
 2000530:	184400b3 	sll	s1,ra,s0
 2000534:	21000413 	add	s2,s2,1
 2000538:	28000813 	li	s3,2
 200053c:	f90bc8e3 	bne	s2,s3,2000520 <test_38+0x4>
 2000540:	e8000237 	lui	a11,0x4
 2000544:	e0009813 	li	a10,38
 2000548:	00fae0e3 	bne	s1,a11,20005b8 <fail>

0200054c <test_39>:
 200054c:	20000013 	li	s2,0
 2000550:	10007c13 	li	s0,31
 2000554:	00000013 	nop
 2000558:	00000013 	nop
 200055c:	08000413 	li	ra,1
 2000560:	184400b3 	sll	s1,ra,s0
 2000564:	21000413 	add	s2,s2,1
 2000568:	28000813 	li	s3,2
 200056c:	f90bc8e3 	bne	s2,s3,2000550 <test_39+0x4>
 2000570:	ec000037 	lui	a11,0x80000
 2000574:	e0009c13 	li	a10,39
 2000578:	00fa80e3 	bne	s1,a11,20005b8 <fail>
 200057c:	1640017b 	mfpcr	s0,cr25
 2000580:	1e80017b 	mfpcr	s1,cr26
 2000584:	18fffc13 	add	s1,s1,-1
 2000588:	22000037 	lui	s2,0x40000
 200058c:	21340333 	or	s2,s2,a8
 2000590:	078801fb 	mtpcr	zero,s2,cr30
 2000594:	24000037 	lui	s2,0x80000
 2000598:	21040333 	or	s2,s2,s0
 200059c:	078801fb 	mtpcr	zero,s2,cr30
 20005a0:	26000037 	lui	s2,0xc0000
 20005a4:	21060333 	or	s2,s2,s1
 20005a8:	078801fb 	mtpcr	zero,s2,cr30
 20005ac:	d6800413 	add	a8,a8,1
 20005b0:	d6f4fae3 	ble	a8,a9,200002c <set_schedule>
 20005b4:	003810e3 	bne	zero,a10,20005bc <pass>

020005b8 <fail>:
 20005b8:	07b801fb 	mtpcr	zero,a10,cr30

020005bc <pass>:
 20005bc:	08000413 	li	ra,1
 20005c0:	078201fb 	mtpcr	zero,ra,cr30
 20005c4:	1780017b 	mfpcr	s0,cr30
 20005c8:	0780016b 	jr	a12
 20005cc:	00000013 	nop
