
tests/asm-sodor/build/emulator/riscv-v2_jal.bin:     file format elf32-littleriscv


Disassembly of section .text:

02000000 <_start>:
 2000000:	f0400013 	move	a12,ra
 2000004:	16c0017b 	mfpcr	s0,cr27

02000008 <inf0>:
 2000008:	000400e3 	bne	zero,s0,2000008 <inf0>
 200000c:	d000017b 	mfpcr	a8,cr0
 2000010:	d6807e93 	srl	a8,a8,0x1f
 2000014:	d800017b 	mfpcr	a9,cr0
 2000018:	dec07293 	srl	a9,a9,0x1c
 200001c:	dec01f93 	and	a9,a9,7
 2000020:	dec00413 	add	a9,a9,1
 2000024:	003410e3 	bne	zero,a8,200002c <set_schedule>
 2000028:	d6c00013 	move	a8,a9

0200002c <set_schedule>:
 200002c:	103ffc13 	li	s0,-1
 2000030:	1e800013 	move	s1,a8
 2000034:	18fffc13 	add	s1,s1,-1
 2000038:	10801093 	sll	s0,s0,0x4
 200003c:	00061863 	beq	zero,s1,2000048 <set_schedule+0x1c>
 2000040:	10803b13 	or	s0,s0,14
 2000044:	fffffc67 	j	2000034 <set_schedule+0x8>
 2000048:	058401fb 	mtpcr	zero,s0,cr22
 200004c:	10000013 	li	s0,0
 2000050:	05c401fb 	mtpcr	zero,s0,cr23
 2000054:	00000013 	nop
 2000058:	00000013 	nop
 200005c:	00000013 	nop
 2000060:	00000013 	nop
 2000064:	064001fb 	mtpcr	zero,zero,cr25

02000068 <test_2>:
 2000068:	e0000813 	li	a10,2
 200006c:	08000013 	li	ra,0

02000070 <linkaddr_2>:
 2000070:	0000046f 	jal	2000080 <target_2>
 2000074:	00000013 	nop
 2000078:	00000013 	nop
 200007c:	00001f67 	j	20000f8 <fail>

02000080 <target_2>:
 2000080:	10100037 	lui	s0,0x2000
 2000084:	1081c013 	add	s0,s0,112
 2000088:	10801013 	add	s0,s0,4
 200008c:	0082d8e3 	bne	s0,ra,20000f8 <fail>

02000090 <test_3>:
 2000090:	10000413 	li	s0,1
 2000094:	0000056f 	jal	20000a8 <test_3+0x18>
 2000098:	10800413 	add	s0,s0,1
 200009c:	10800413 	add	s0,s0,1
 20000a0:	10800413 	add	s0,s0,1
 20000a4:	10800413 	add	s0,s0,1
 20000a8:	10800413 	add	s0,s0,1
 20000ac:	10800413 	add	s0,s0,1
 20000b0:	e8000c13 	li	a11,3
 20000b4:	e0000c13 	li	a10,3
 20000b8:	00ba80e3 	bne	s0,a11,20000f8 <fail>
 20000bc:	1640017b 	mfpcr	s0,cr25
 20000c0:	1e80017b 	mfpcr	s1,cr26
 20000c4:	18fffc13 	add	s1,s1,-1
 20000c8:	22000037 	lui	s2,0x40000
 20000cc:	21340333 	or	s2,s2,a8
 20000d0:	078801fb 	mtpcr	zero,s2,cr30
 20000d4:	24000037 	lui	s2,0x80000
 20000d8:	21040333 	or	s2,s2,s0
 20000dc:	078801fb 	mtpcr	zero,s2,cr30
 20000e0:	26000037 	lui	s2,0xc0000
 20000e4:	21060333 	or	s2,s2,s1
 20000e8:	078801fb 	mtpcr	zero,s2,cr30
 20000ec:	d6800413 	add	a8,a8,1
 20000f0:	fef47ae3 	ble	a8,a9,200002c <set_schedule>
 20000f4:	003810e3 	bne	zero,a10,20000fc <pass>

020000f8 <fail>:
 20000f8:	07b801fb 	mtpcr	zero,a10,cr30

020000fc <pass>:
 20000fc:	08000413 	li	ra,1
 2000100:	078201fb 	mtpcr	zero,ra,cr30
 2000104:	1780017b 	mfpcr	s0,cr30
 2000108:	0780016b 	jr	a12
 200010c:	00000013 	nop
