
tests/asm-sodor/build/emulator/riscv_iso.bin:     file format elf32-littleriscv


Disassembly of section .text:

02000000 <_start>:
 2000000:	f0400013 	move	a12,ra
 2000004:	16c0017b 	mfpcr	s0,cr27

02000008 <inf0>:
 2000008:	000400e3 	bne	zero,s0,2000008 <inf0>
 200000c:	d000017b 	mfpcr	a8,cr0
 2000010:	d6807e93 	srl	a8,a8,0x1f
 2000014:	d800017b 	mfpcr	a9,cr0
 2000018:	dec07293 	srl	a9,a9,0x1c
 200001c:	dec01f93 	and	a9,a9,7
 2000020:	dec00413 	add	a9,a9,1
 2000024:	003410e3 	bne	zero,a8,200002c <set_schedule>
 2000028:	d6c00013 	move	a8,a9

0200002c <set_schedule>:
 200002c:	103ffc13 	li	s0,-1
 2000030:	1e800013 	move	s1,a8
 2000034:	18fffc13 	add	s1,s1,-1
 2000038:	10801093 	sll	s0,s0,0x4
 200003c:	00061863 	beq	zero,s1,2000048 <set_schedule+0x1c>
 2000040:	10803b13 	or	s0,s0,14
 2000044:	fffffc67 	j	2000034 <set_schedule+0x8>
 2000048:	058401fb 	mtpcr	zero,s0,cr22
 200004c:	10000013 	li	s0,0
 2000050:	05c401fb 	mtpcr	zero,s0,cr23
 2000054:	00000013 	nop
 2000058:	00000013 	nop
 200005c:	00000013 	nop
 2000060:	00000013 	nop
 2000064:	064001fb 	mtpcr	zero,zero,cr25
 2000068:	e0000813 	li	a10,2
 200006c:	10200037 	lui	s0,0x4000
 2000070:	10900013 	add	s0,s0,1024
 2000074:	1df77837 	lui	s1,0xbeef0
 2000078:	18c00413 	add	s1,s1,1
 200007c:	00860123 	sw	s1,0(s0)
 2000080:	20800103 	lw	s2,0(s0)
 2000084:	00c988e3 	bne	s1,s2,2000148 <fail>
 2000088:	e0000c13 	li	a10,3
 200008c:	102000b7 	lui	s0,0x4001
 2000090:	10a00013 	add	s0,s0,-2048
 2000094:	1df77837 	lui	s1,0xbeef0
 2000098:	18c00813 	add	s1,s1,2
 200009c:	00860123 	sw	s1,0(s0)
 20000a0:	20800103 	lw	s2,0(s0)
 20000a4:	00c948e3 	bne	s1,s2,2000148 <fail>
 20000a8:	10000013 	li	s0,0
 20000ac:	048401fb 	mtpcr	zero,s0,cr18
 20000b0:	04c401fb 	mtpcr	zero,s0,cr19
 20000b4:	050401fb 	mtpcr	zero,s0,cr20
 20000b8:	e0001013 	li	a10,4
 20000bc:	10200037 	lui	s0,0x4000
 20000c0:	10900013 	add	s0,s0,1024
 20000c4:	1df77837 	lui	s1,0xbeef0
 20000c8:	18c00c13 	add	s1,s1,3
 20000cc:	00860123 	sw	s1,0(s0)
 20000d0:	20800103 	lw	s2,0(s0)
 20000d4:	1df77837 	lui	s1,0xbeef0
 20000d8:	18c00413 	add	s1,s1,1
 20000dc:	00c8d8e3 	bne	s1,s2,2000148 <fail>
 20000e0:	e0001413 	li	a10,5
 20000e4:	102000b7 	lui	s0,0x4001
 20000e8:	10a00013 	add	s0,s0,-2048
 20000ec:	1df77837 	lui	s1,0xbeef0
 20000f0:	18c01013 	add	s1,s1,4
 20000f4:	00860123 	sw	s1,0(s0)
 20000f8:	20800103 	lw	s2,0(s0)
 20000fc:	1df77837 	lui	s1,0xbeef0
 2000100:	18c00813 	add	s1,s1,2
 2000104:	00c888e3 	bne	s1,s2,2000148 <fail>
 2000108:	e0000413 	li	a10,1
 200010c:	1640017b 	mfpcr	s0,cr25
 2000110:	1e80017b 	mfpcr	s1,cr26
 2000114:	18fffc13 	add	s1,s1,-1
 2000118:	22000037 	lui	s2,0x40000
 200011c:	21340333 	or	s2,s2,a8
 2000120:	078801fb 	mtpcr	zero,s2,cr30
 2000124:	24000037 	lui	s2,0x80000
 2000128:	21040333 	or	s2,s2,s0
 200012c:	078801fb 	mtpcr	zero,s2,cr30
 2000130:	26000037 	lui	s2,0xc0000
 2000134:	21060333 	or	s2,s2,s1
 2000138:	078801fb 	mtpcr	zero,s2,cr30
 200013c:	d6800413 	add	a8,a8,1
 2000140:	f6f5dae3 	ble	a8,a9,200002c <set_schedule>
 2000144:	003810e3 	bne	zero,a10,200014c <pass>

02000148 <fail>:
 2000148:	07b801fb 	mtpcr	zero,a10,cr30

0200014c <pass>:
 200014c:	08000413 	li	ra,1
 2000150:	078201fb 	mtpcr	zero,ra,cr30
 2000154:	1780017b 	mfpcr	s0,cr30
 2000158:	0780016b 	jr	a12
 200015c:	00000013 	nop
