
tests/asm-sodor/build/emulator/riscv_ie.bin:     file format elf32-littleriscv


Disassembly of section .text:

02000000 <_start>:
 2000000:	f0400013 	move	a12,ra
 2000004:	16c0017b 	mfpcr	s0,cr27

02000008 <inf0>:
 2000008:	000400e3 	bne	zero,s0,2000008 <inf0>
 200000c:	d000017b 	mfpcr	a8,cr0
 2000010:	d6807e93 	srl	a8,a8,0x1f
 2000014:	d800017b 	mfpcr	a9,cr0
 2000018:	dec07293 	srl	a9,a9,0x1c
 200001c:	dec01f93 	and	a9,a9,7
 2000020:	dec00413 	add	a9,a9,1
 2000024:	003410e3 	bne	zero,a8,200002c <set_schedule>
 2000028:	d6c00013 	move	a8,a9

0200002c <set_schedule>:
 200002c:	103ffc13 	li	s0,-1
 2000030:	1e800013 	move	s1,a8
 2000034:	18fffc13 	add	s1,s1,-1
 2000038:	10801093 	sll	s0,s0,0x4
 200003c:	00061863 	beq	zero,s1,2000048 <set_schedule+0x1c>
 2000040:	10803b13 	or	s0,s0,14
 2000044:	fffffc67 	j	2000034 <set_schedule+0x8>
 2000048:	058401fb 	mtpcr	zero,s0,cr22
 200004c:	10000013 	li	s0,0
 2000050:	05c401fb 	mtpcr	zero,s0,cr23
 2000054:	00000013 	nop
 2000058:	00000013 	nop
 200005c:	00000013 	nop
 2000060:	00000013 	nop
 2000064:	064001fb 	mtpcr	zero,zero,cr25
 2000068:	e0000813 	li	a10,2
 200006c:	10100037 	lui	s0,0x2000
 2000070:	1083e013 	add	s0,s0,248
 2000074:	00c401fb 	mtpcr	zero,s0,cr3
 2000078:	1000005b 	0x1000005b
 200007c:	180000db 	0x180000db
 2000080:	1087d013 	add	s0,s0,500
 2000084:	00c401db 	0xc401db
 2000088:	000002db 	0x2db
 200008c:	00001667 	j	20000e4 <fail>
 2000090:	e0000413 	li	a10,1
 2000094:	1000005b 	0x1000005b
 2000098:	180000db 	0x180000db
 200009c:	00c401db 	0xc401db
 20000a0:	000002db 	0x2db
 20000a4:	000002db 	0x2db
 20000a8:	1640017b 	mfpcr	s0,cr25
 20000ac:	1e80017b 	mfpcr	s1,cr26
 20000b0:	18fffc13 	add	s1,s1,-1
 20000b4:	22000037 	lui	s2,0x40000
 20000b8:	21340333 	or	s2,s2,a8
 20000bc:	078801fb 	mtpcr	zero,s2,cr30
 20000c0:	24000037 	lui	s2,0x80000
 20000c4:	21040333 	or	s2,s2,s0
 20000c8:	078801fb 	mtpcr	zero,s2,cr30
 20000cc:	26000037 	lui	s2,0xc0000
 20000d0:	21060333 	or	s2,s2,s1
 20000d4:	078801fb 	mtpcr	zero,s2,cr30
 20000d8:	d6800413 	add	a8,a8,1
 20000dc:	fef4a2e3 	ble	a8,a9,200002c <set_schedule>
 20000e0:	003810e3 	bne	zero,a10,20000e8 <pass>

020000e4 <fail>:
 20000e4:	07b801fb 	mtpcr	zero,a10,cr30

020000e8 <pass>:
 20000e8:	08000413 	li	ra,1
 20000ec:	078201fb 	mtpcr	zero,ra,cr30
 20000f0:	1780017b 	mfpcr	s0,cr30
 20000f4:	0780016b 	jr	a12

020000f8 <handler>:
 20000f8:	1040017b 	mfpcr	s0,cr1
 20000fc:	10801013 	add	s0,s0,4
 2000100:	0080016b 	jr	s0
 2000104:	00000013 	nop
 2000108:	00000013 	nop
 200010c:	00000013 	nop
