
tests/asm-sodor/build/emulator/riscv-v2_srl.bin:     file format elf32-littleriscv


Disassembly of section .text:

02000000 <_start>:
 2000000:	f0400013 	move	a12,ra
 2000004:	16c0017b 	mfpcr	s0,cr27

02000008 <inf0>:
 2000008:	000400e3 	bne	zero,s0,2000008 <inf0>
 200000c:	d000017b 	mfpcr	a8,cr0
 2000010:	d6807e93 	srl	a8,a8,0x1f
 2000014:	d800017b 	mfpcr	a9,cr0
 2000018:	dec07293 	srl	a9,a9,0x1c
 200001c:	dec01f93 	and	a9,a9,7
 2000020:	dec00413 	add	a9,a9,1
 2000024:	003410e3 	bne	zero,a8,200002c <set_schedule>
 2000028:	d6c00013 	move	a8,a9

0200002c <set_schedule>:
 200002c:	103ffc13 	li	s0,-1
 2000030:	1e800013 	move	s1,a8
 2000034:	18fffc13 	add	s1,s1,-1
 2000038:	10801093 	sll	s0,s0,0x4
 200003c:	00061863 	beq	zero,s1,2000048 <set_schedule+0x1c>
 2000040:	10803b13 	or	s0,s0,14
 2000044:	fffffc67 	j	2000034 <set_schedule+0x8>
 2000048:	058401fb 	mtpcr	zero,s0,cr22
 200004c:	10000013 	li	s0,0
 2000050:	05c401fb 	mtpcr	zero,s0,cr23
 2000054:	00000013 	nop
 2000058:	00000013 	nop
 200005c:	00000013 	nop
 2000060:	00000013 	nop
 2000064:	064001fb 	mtpcr	zero,zero,cr25

02000068 <test_2>:
 2000068:	0c000037 	lui	ra,0x80000
 200006c:	10000013 	li	s0,0
 2000070:	184402b3 	srl	s1,ra,s0
 2000074:	ec000037 	lui	a11,0x80000
 2000078:	e0000813 	li	a10,2
 200007c:	28faa8e3 	bne	s1,a11,20005d0 <fail>

02000080 <test_3>:
 2000080:	0c000037 	lui	ra,0x80000
 2000084:	10000413 	li	s0,1
 2000088:	184402b3 	srl	s1,ra,s0
 200008c:	ea000037 	lui	a11,0x40000
 2000090:	e0000c13 	li	a10,3
 2000094:	28fa78e3 	bne	s1,a11,20005d0 <fail>

02000098 <test_4>:
 2000098:	0c000037 	lui	ra,0x80000
 200009c:	10001c13 	li	s0,7
 20000a0:	184402b3 	srl	s1,ra,s0
 20000a4:	e8080037 	lui	a11,0x1000
 20000a8:	e0001013 	li	a10,4
 20000ac:	28fa48e3 	bne	s1,a11,20005d0 <fail>

020000b0 <test_5>:
 20000b0:	0c000037 	lui	ra,0x80000
 20000b4:	10003813 	li	s0,14
 20000b8:	184402b3 	srl	s1,ra,s0
 20000bc:	e8001037 	lui	a11,0x20
 20000c0:	e0001413 	li	a10,5
 20000c4:	28fa18e3 	bne	s1,a11,20005d0 <fail>

020000c8 <test_6>:
 20000c8:	0c000037 	lui	ra,0x80000
 20000cc:	08400413 	add	ra,ra,1
 20000d0:	10007c13 	li	s0,31
 20000d4:	184402b3 	srl	s1,ra,s0
 20000d8:	e8000413 	li	a11,1
 20000dc:	e0001813 	li	a10,6
 20000e0:	20fbe0e3 	bne	s1,a11,20005d0 <fail>

020000e4 <test_7>:
 20000e4:	083ffc13 	li	ra,-1
 20000e8:	10000013 	li	s0,0
 20000ec:	184402b3 	srl	s1,ra,s0
 20000f0:	e83ffc13 	li	a11,-1
 20000f4:	e0001c13 	li	a10,7
 20000f8:	20fbb0e3 	bne	s1,a11,20005d0 <fail>

020000fc <test_8>:
 20000fc:	083ffc13 	li	ra,-1
 2000100:	10000413 	li	s0,1
 2000104:	184402b3 	srl	s1,ra,s0
 2000108:	ec000037 	lui	a11,0x80000
 200010c:	ef7ffc13 	add	a11,a11,-1
 2000110:	e0002013 	li	a10,8
 2000114:	20fb78e3 	bne	s1,a11,20005d0 <fail>

02000118 <test_9>:
 2000118:	083ffc13 	li	ra,-1
 200011c:	10001c13 	li	s0,7
 2000120:	184402b3 	srl	s1,ra,s0
 2000124:	e8100037 	lui	a11,0x2000
 2000128:	ef7ffc13 	add	a11,a11,-1
 200012c:	e0002413 	li	a10,9
 2000130:	20fb40e3 	bne	s1,a11,20005d0 <fail>

02000134 <test_10>:
 2000134:	083ffc13 	li	ra,-1
 2000138:	10003813 	li	s0,14
 200013c:	184402b3 	srl	s1,ra,s0
 2000140:	e8002037 	lui	a11,0x40
 2000144:	ef7ffc13 	add	a11,a11,-1
 2000148:	e0002813 	li	a10,10
 200014c:	20fb08e3 	bne	s1,a11,20005d0 <fail>

02000150 <test_11>:
 2000150:	083ffc13 	li	ra,-1
 2000154:	10007c13 	li	s0,31
 2000158:	184402b3 	srl	s1,ra,s0
 200015c:	e8000413 	li	a11,1
 2000160:	e0002c13 	li	a10,11
 2000164:	20fad8e3 	bne	s1,a11,20005d0 <fail>

02000168 <test_12>:
 2000168:	09090937 	lui	ra,0x21212
 200016c:	08448413 	add	ra,ra,289
 2000170:	10000013 	li	s0,0
 2000174:	184402b3 	srl	s1,ra,s0
 2000178:	e9090937 	lui	a11,0x21212
 200017c:	ef448413 	add	a11,a11,289
 2000180:	e0003013 	li	a10,12
 2000184:	20fa98e3 	bne	s1,a11,20005d0 <fail>

02000188 <test_13>:
 2000188:	09090937 	lui	ra,0x21212
 200018c:	08448413 	add	ra,ra,289
 2000190:	10000413 	li	s0,1
 2000194:	184402b3 	srl	s1,ra,s0
 2000198:	e88484b7 	lui	a11,0x10909
 200019c:	ef424013 	add	a11,a11,144
 20001a0:	e0003413 	li	a10,13
 20001a4:	20fa58e3 	bne	s1,a11,20005d0 <fail>

020001a8 <test_14>:
 20001a8:	09090937 	lui	ra,0x21212
 20001ac:	08448413 	add	ra,ra,289
 20001b0:	10001c13 	li	s0,7
 20001b4:	184402b3 	srl	s1,ra,s0
 20001b8:	e8021237 	lui	a11,0x424
 20001bc:	ef490813 	add	a11,a11,578
 20001c0:	e0003813 	li	a10,14
 20001c4:	20fa18e3 	bne	s1,a11,20005d0 <fail>

020001c8 <test_15>:
 20001c8:	09090937 	lui	ra,0x21212
 20001cc:	08448413 	add	ra,ra,289
 20001d0:	10003813 	li	s0,14
 20001d4:	184402b3 	srl	s1,ra,s0
 20001d8:	e8000437 	lui	a11,0x8
 20001dc:	ef521013 	add	a11,a11,1156
 20001e0:	e0003c13 	li	a10,15
 20001e4:	18fbd8e3 	bne	s1,a11,20005d0 <fail>

020001e8 <test_16>:
 20001e8:	09090937 	lui	ra,0x21212
 20001ec:	08448413 	add	ra,ra,289
 20001f0:	10007c13 	li	s0,31
 20001f4:	184402b3 	srl	s1,ra,s0
 20001f8:	e8000013 	li	a11,0
 20001fc:	e0004013 	li	a10,16
 2000200:	18fba0e3 	bne	s1,a11,20005d0 <fail>

02000204 <test_17>:
 2000204:	09090937 	lui	ra,0x21212
 2000208:	08448413 	add	ra,ra,289
 200020c:	103f8013 	li	s0,-32
 2000210:	184402b3 	srl	s1,ra,s0
 2000214:	e9090937 	lui	a11,0x21212
 2000218:	ef448413 	add	a11,a11,289
 200021c:	e0004413 	li	a10,17
 2000220:	18fb60e3 	bne	s1,a11,20005d0 <fail>

02000224 <test_18>:
 2000224:	09090937 	lui	ra,0x21212
 2000228:	08448413 	add	ra,ra,289
 200022c:	103f8413 	li	s0,-31
 2000230:	184402b3 	srl	s1,ra,s0
 2000234:	e88484b7 	lui	a11,0x10909
 2000238:	ef424013 	add	a11,a11,144
 200023c:	e0004813 	li	a10,18
 2000240:	18fb20e3 	bne	s1,a11,20005d0 <fail>

02000244 <test_19>:
 2000244:	09090937 	lui	ra,0x21212
 2000248:	08448413 	add	ra,ra,289
 200024c:	103f9c13 	li	s0,-25
 2000250:	184402b3 	srl	s1,ra,s0
 2000254:	e8021237 	lui	a11,0x424
 2000258:	ef490813 	add	a11,a11,578
 200025c:	e0004c13 	li	a10,19
 2000260:	18fae0e3 	bne	s1,a11,20005d0 <fail>

02000264 <test_20>:
 2000264:	09090937 	lui	ra,0x21212
 2000268:	08448413 	add	ra,ra,289
 200026c:	103fb813 	li	s0,-18
 2000270:	184402b3 	srl	s1,ra,s0
 2000274:	e8000437 	lui	a11,0x8
 2000278:	ef521013 	add	a11,a11,1156
 200027c:	e0005013 	li	a10,20
 2000280:	18faa0e3 	bne	s1,a11,20005d0 <fail>

02000284 <test_21>:
 2000284:	09090937 	lui	ra,0x21212
 2000288:	08448413 	add	ra,ra,289
 200028c:	103ffc13 	li	s0,-1
 2000290:	184402b3 	srl	s1,ra,s0
 2000294:	e8000013 	li	a11,0
 2000298:	e0005413 	li	a10,21
 200029c:	18fa68e3 	bne	s1,a11,20005d0 <fail>

020002a0 <test_22>:
 20002a0:	0c000037 	lui	ra,0x80000
 20002a4:	10001c13 	li	s0,7
 20002a8:	084402b3 	srl	ra,ra,s0
 20002ac:	e8080037 	lui	a11,0x1000
 20002b0:	e0005813 	li	a10,22
 20002b4:	187a38e3 	bne	ra,a11,20005d0 <fail>

020002b8 <test_23>:
 20002b8:	0c000037 	lui	ra,0x80000
 20002bc:	10003813 	li	s0,14
 20002c0:	104402b3 	srl	s0,ra,s0
 20002c4:	e8001037 	lui	a11,0x20
 20002c8:	e0005c13 	li	a10,23
 20002cc:	18ba08e3 	bne	s0,a11,20005d0 <fail>

020002d0 <test_24>:
 20002d0:	08001c13 	li	ra,7
 20002d4:	084202b3 	srl	ra,ra,ra
 20002d8:	e8000013 	li	a11,0
 20002dc:	e0006013 	li	a10,24
 20002e0:	107be0e3 	bne	ra,a11,20005d0 <fail>

020002e4 <test_25>:
 20002e4:	20000013 	li	s2,0
 20002e8:	0c000037 	lui	ra,0x80000
 20002ec:	10001c13 	li	s0,7
 20002f0:	184402b3 	srl	s1,ra,s0
 20002f4:	30c00013 	move	s4,s1
 20002f8:	21000413 	add	s2,s2,1
 20002fc:	28000813 	li	s3,2
 2000300:	f90bd0e3 	bne	s2,s3,20002e8 <test_25+0x4>
 2000304:	e8080037 	lui	a11,0x1000
 2000308:	e0006413 	li	a10,25
 200030c:	11bb88e3 	bne	s4,a11,20005d0 <fail>

02000310 <test_26>:
 2000310:	20000013 	li	s2,0
 2000314:	0c000037 	lui	ra,0x80000
 2000318:	10003813 	li	s0,14
 200031c:	184402b3 	srl	s1,ra,s0
 2000320:	00000013 	nop
 2000324:	30c00013 	move	s4,s1
 2000328:	21000413 	add	s2,s2,1
 200032c:	28000813 	li	s3,2
 2000330:	f90bc8e3 	bne	s2,s3,2000314 <test_26+0x4>
 2000334:	e8001037 	lui	a11,0x20
 2000338:	e0006813 	li	a10,26
 200033c:	11bb28e3 	bne	s4,a11,20005d0 <fail>

02000340 <test_27>:
 2000340:	20000013 	li	s2,0
 2000344:	0c000037 	lui	ra,0x80000
 2000348:	10007c13 	li	s0,31
 200034c:	184402b3 	srl	s1,ra,s0
 2000350:	00000013 	nop
 2000354:	00000013 	nop
 2000358:	30c00013 	move	s4,s1
 200035c:	21000413 	add	s2,s2,1
 2000360:	28000813 	li	s3,2
 2000364:	f90bc0e3 	bne	s2,s3,2000344 <test_27+0x4>
 2000368:	e8000413 	li	a11,1
 200036c:	e0006c13 	li	a10,27
 2000370:	11bac0e3 	bne	s4,a11,20005d0 <fail>

02000374 <test_28>:
 2000374:	20000013 	li	s2,0
 2000378:	0c000037 	lui	ra,0x80000
 200037c:	10001c13 	li	s0,7
 2000380:	184402b3 	srl	s1,ra,s0
 2000384:	21000413 	add	s2,s2,1
 2000388:	28000813 	li	s3,2
 200038c:	f90bd8e3 	bne	s2,s3,2000378 <test_28+0x4>
 2000390:	e8080037 	lui	a11,0x1000
 2000394:	e0007013 	li	a10,28
 2000398:	10fa70e3 	bne	s1,a11,20005d0 <fail>

0200039c <test_29>:
 200039c:	20000013 	li	s2,0
 20003a0:	0c000037 	lui	ra,0x80000
 20003a4:	10003813 	li	s0,14
 20003a8:	00000013 	nop
 20003ac:	184402b3 	srl	s1,ra,s0
 20003b0:	21000413 	add	s2,s2,1
 20003b4:	28000813 	li	s3,2
 20003b8:	f90bd0e3 	bne	s2,s3,20003a0 <test_29+0x4>
 20003bc:	e8001037 	lui	a11,0x20
 20003c0:	e0007413 	li	a10,29
 20003c4:	10fa18e3 	bne	s1,a11,20005d0 <fail>

020003c8 <test_30>:
 20003c8:	20000013 	li	s2,0
 20003cc:	0c000037 	lui	ra,0x80000
 20003d0:	10007c13 	li	s0,31
 20003d4:	00000013 	nop
 20003d8:	00000013 	nop
 20003dc:	184402b3 	srl	s1,ra,s0
 20003e0:	21000413 	add	s2,s2,1
 20003e4:	28000813 	li	s3,2
 20003e8:	f90bc8e3 	bne	s2,s3,20003cc <test_30+0x4>
 20003ec:	e8000413 	li	a11,1
 20003f0:	e0007813 	li	a10,30
 20003f4:	08fbb8e3 	bne	s1,a11,20005d0 <fail>

020003f8 <test_31>:
 20003f8:	20000013 	li	s2,0
 20003fc:	0c000037 	lui	ra,0x80000
 2000400:	00000013 	nop
 2000404:	10001c13 	li	s0,7
 2000408:	184402b3 	srl	s1,ra,s0
 200040c:	21000413 	add	s2,s2,1
 2000410:	28000813 	li	s3,2
 2000414:	f90bd0e3 	bne	s2,s3,20003fc <test_31+0x4>
 2000418:	e8080037 	lui	a11,0x1000
 200041c:	e0007c13 	li	a10,31
 2000420:	08fb60e3 	bne	s1,a11,20005d0 <fail>

02000424 <test_32>:
 2000424:	20000013 	li	s2,0
 2000428:	0c000037 	lui	ra,0x80000
 200042c:	00000013 	nop
 2000430:	10003813 	li	s0,14
 2000434:	00000013 	nop
 2000438:	184402b3 	srl	s1,ra,s0
 200043c:	21000413 	add	s2,s2,1
 2000440:	28000813 	li	s3,2
 2000444:	f90bc8e3 	bne	s2,s3,2000428 <test_32+0x4>
 2000448:	e8001037 	lui	a11,0x20
 200044c:	e0008013 	li	a10,32
 2000450:	08fb00e3 	bne	s1,a11,20005d0 <fail>

02000454 <test_33>:
 2000454:	20000013 	li	s2,0
 2000458:	0c000037 	lui	ra,0x80000
 200045c:	00000013 	nop
 2000460:	00000013 	nop
 2000464:	10007c13 	li	s0,31
 2000468:	184402b3 	srl	s1,ra,s0
 200046c:	21000413 	add	s2,s2,1
 2000470:	28000813 	li	s3,2
 2000474:	f90bc8e3 	bne	s2,s3,2000458 <test_33+0x4>
 2000478:	e8000413 	li	a11,1
 200047c:	e0008413 	li	a10,33
 2000480:	08faa0e3 	bne	s1,a11,20005d0 <fail>

02000484 <test_34>:
 2000484:	20000013 	li	s2,0
 2000488:	10001c13 	li	s0,7
 200048c:	0c000037 	lui	ra,0x80000
 2000490:	184402b3 	srl	s1,ra,s0
 2000494:	21000413 	add	s2,s2,1
 2000498:	28000813 	li	s3,2
 200049c:	f90bd8e3 	bne	s2,s3,2000488 <test_34+0x4>
 20004a0:	e8080037 	lui	a11,0x1000
 20004a4:	e0008813 	li	a10,34
 20004a8:	08fa50e3 	bne	s1,a11,20005d0 <fail>

020004ac <test_35>:
 20004ac:	20000013 	li	s2,0
 20004b0:	10003813 	li	s0,14
 20004b4:	0c000037 	lui	ra,0x80000
 20004b8:	00000013 	nop
 20004bc:	184402b3 	srl	s1,ra,s0
 20004c0:	21000413 	add	s2,s2,1
 20004c4:	28000813 	li	s3,2
 20004c8:	f90bd0e3 	bne	s2,s3,20004b0 <test_35+0x4>
 20004cc:	e8001037 	lui	a11,0x20
 20004d0:	e0008c13 	li	a10,35
 20004d4:	00fbf8e3 	bne	s1,a11,20005d0 <fail>

020004d8 <test_36>:
 20004d8:	20000013 	li	s2,0
 20004dc:	10007c13 	li	s0,31
 20004e0:	0c000037 	lui	ra,0x80000
 20004e4:	00000013 	nop
 20004e8:	00000013 	nop
 20004ec:	184402b3 	srl	s1,ra,s0
 20004f0:	21000413 	add	s2,s2,1
 20004f4:	28000813 	li	s3,2
 20004f8:	f90bc8e3 	bne	s2,s3,20004dc <test_36+0x4>
 20004fc:	e8000413 	li	a11,1
 2000500:	e0009013 	li	a10,36
 2000504:	00fb98e3 	bne	s1,a11,20005d0 <fail>

02000508 <test_37>:
 2000508:	20000013 	li	s2,0
 200050c:	10001c13 	li	s0,7
 2000510:	00000013 	nop
 2000514:	0c000037 	lui	ra,0x80000
 2000518:	184402b3 	srl	s1,ra,s0
 200051c:	21000413 	add	s2,s2,1
 2000520:	28000813 	li	s3,2
 2000524:	f90bd0e3 	bne	s2,s3,200050c <test_37+0x4>
 2000528:	e8080037 	lui	a11,0x1000
 200052c:	e0009413 	li	a10,37
 2000530:	00fb40e3 	bne	s1,a11,20005d0 <fail>

02000534 <test_38>:
 2000534:	20000013 	li	s2,0
 2000538:	10003813 	li	s0,14
 200053c:	00000013 	nop
 2000540:	0c000037 	lui	ra,0x80000
 2000544:	00000013 	nop
 2000548:	184402b3 	srl	s1,ra,s0
 200054c:	21000413 	add	s2,s2,1
 2000550:	28000813 	li	s3,2
 2000554:	f90bc8e3 	bne	s2,s3,2000538 <test_38+0x4>
 2000558:	e8001037 	lui	a11,0x20
 200055c:	e0009813 	li	a10,38
 2000560:	00fae0e3 	bne	s1,a11,20005d0 <fail>

02000564 <test_39>:
 2000564:	20000013 	li	s2,0
 2000568:	10007c13 	li	s0,31
 200056c:	00000013 	nop
 2000570:	00000013 	nop
 2000574:	0c000037 	lui	ra,0x80000
 2000578:	184402b3 	srl	s1,ra,s0
 200057c:	21000413 	add	s2,s2,1
 2000580:	28000813 	li	s3,2
 2000584:	f90bc8e3 	bne	s2,s3,2000568 <test_39+0x4>
 2000588:	e8000413 	li	a11,1
 200058c:	e0009c13 	li	a10,39
 2000590:	00fa80e3 	bne	s1,a11,20005d0 <fail>
 2000594:	1640017b 	mfpcr	s0,cr25
 2000598:	1e80017b 	mfpcr	s1,cr26
 200059c:	18fffc13 	add	s1,s1,-1
 20005a0:	22000037 	lui	s2,0x40000
 20005a4:	21340333 	or	s2,s2,a8
 20005a8:	078801fb 	mtpcr	zero,s2,cr30
 20005ac:	24000037 	lui	s2,0x80000
 20005b0:	21040333 	or	s2,s2,s0
 20005b4:	078801fb 	mtpcr	zero,s2,cr30
 20005b8:	26000037 	lui	s2,0xc0000
 20005bc:	21060333 	or	s2,s2,s1
 20005c0:	078801fb 	mtpcr	zero,s2,cr30
 20005c4:	d6800413 	add	a8,a8,1
 20005c8:	d6f4cae3 	ble	a8,a9,200002c <set_schedule>
 20005cc:	003810e3 	bne	zero,a10,20005d4 <pass>

020005d0 <fail>:
 20005d0:	07b801fb 	mtpcr	zero,a10,cr30

020005d4 <pass>:
 20005d4:	08000413 	li	ra,1
 20005d8:	078201fb 	mtpcr	zero,ra,cr30
 20005dc:	1780017b 	mfpcr	s0,cr30
 20005e0:	0780016b 	jr	a12
 20005e4:	00000013 	nop
 20005e8:	00000013 	nop
 20005ec:	00000013 	nop
