
tests/asm-sodor/build/emulator/riscv-v1_bne.bin:     file format elf32-littleriscv


Disassembly of section .text:

02000000 <_start>:
 2000000:	f0400013 	move	a12,ra
 2000004:	16c0017b 	mfpcr	s0,cr27

02000008 <inf0>:
 2000008:	000400e3 	bne	zero,s0,2000008 <inf0>
 200000c:	d000017b 	mfpcr	a8,cr0
 2000010:	d6807e93 	srl	a8,a8,0x1f
 2000014:	d800017b 	mfpcr	a9,cr0
 2000018:	dec07293 	srl	a9,a9,0x1c
 200001c:	dec01f93 	and	a9,a9,7
 2000020:	dec00413 	add	a9,a9,1
 2000024:	003410e3 	bne	zero,a8,200002c <set_schedule>
 2000028:	d6c00013 	move	a8,a9

0200002c <set_schedule>:
 200002c:	103ffc13 	li	s0,-1
 2000030:	1e800013 	move	s1,a8
 2000034:	18fffc13 	add	s1,s1,-1
 2000038:	10801093 	sll	s0,s0,0x4
 200003c:	00061863 	beq	zero,s1,2000048 <set_schedule+0x1c>
 2000040:	10803b13 	or	s0,s0,14
 2000044:	fffffc67 	j	2000034 <set_schedule+0x8>
 2000048:	058401fb 	mtpcr	zero,s0,cr22
 200004c:	10000013 	li	s0,0
 2000050:	05c401fb 	mtpcr	zero,s0,cr23
 2000054:	00000013 	nop
 2000058:	00000013 	nop
 200005c:	00000013 	nop
 2000060:	00000013 	nop
 2000064:	064001fb 	mtpcr	zero,zero,cr25
 2000068:	08000413 	li	ra,1
 200006c:	10000813 	li	s0,2
 2000070:	004410e3 	bne	ra,s0,2000078 <set_schedule+0x4c>
 2000074:	0002a0e3 	bne	zero,ra,20000c4 <fail>
 2000078:	08000413 	li	ra,1
 200007c:	10000413 	li	s0,1
 2000080:	004488e3 	bne	ra,s0,20000c4 <fail>
 2000084:	1640017b 	mfpcr	s0,cr25
 2000088:	1e80017b 	mfpcr	s1,cr26
 200008c:	18fffc13 	add	s1,s1,-1
 2000090:	22000037 	lui	s2,0x40000
 2000094:	21340333 	or	s2,s2,a8
 2000098:	078801fb 	mtpcr	zero,s2,cr30
 200009c:	24000037 	lui	s2,0x80000
 20000a0:	21040333 	or	s2,s2,s0
 20000a4:	078801fb 	mtpcr	zero,s2,cr30
 20000a8:	26000037 	lui	s2,0xc0000
 20000ac:	21060333 	or	s2,s2,s1
 20000b0:	078801fb 	mtpcr	zero,s2,cr30
 20000b4:	d6800413 	add	a8,a8,1
 20000b8:	fef4eae3 	ble	a8,a9,200002c <set_schedule>
 20000bc:	08000413 	li	ra,1
 20000c0:	000220e3 	bne	zero,ra,20000d0 <pass>

020000c4 <fail>:
 20000c4:	08000813 	li	ra,2
 20000c8:	078201fb 	mtpcr	zero,ra,cr30
 20000cc:	00000063 	b	20000cc <fail+0x8>

020000d0 <pass>:
 20000d0:	078201fb 	mtpcr	zero,ra,cr30
 20000d4:	00000063 	b	20000d4 <pass+0x4>
 20000d8:	00000013 	nop
 20000dc:	00000013 	nop
