
tests/simple-mc/build/emulator_inf/simple-mc.bin:     file format elf32-littleriscv


Disassembly of section .text:

02000000 <init-0x20>:
 2000000:	16c0017b 	mfpcr	s0,cr27
 2000004:	00803863 	beqz	s0,2000020 <init>
 2000008:	10bffc13 	add	s0,s0,-1
 200000c:	08801863 	beqz	s0,2000118 <t1_startup>
 2000010:	10bffc13 	add	s0,s0,-1
 2000014:	08806863 	beqz	s0,2000148 <t2_startup>
 2000018:	10bffc13 	add	s0,s0,-1
 200001c:	0880b863 	beqz	s0,2000178 <t3_startup>

02000020 <init>:
 2000020:	10000037 	lui	s0,0x0
 2000024:	18200037 	lui	s1,0x4000
 2000028:	18c00013 	move	s1,s1
 200002c:	18c02a93 	srl	s1,s1,0xa
 2000030:	18860333 	or	s1,s0,s1
 2000034:	04c601fb 	mtpcr	zero,s1,cr19
 2000038:	182000b7 	lui	s1,0x4001
 200003c:	18fff013 	add	s1,s1,-4
 2000040:	18c02a93 	srl	s1,s1,0xa
 2000044:	18860333 	or	s1,s0,s1
 2000048:	050601fb 	mtpcr	zero,s1,cr20
 200004c:	11000037 	lui	s0,0x20000
 2000050:	182000b7 	lui	s1,0x4001
 2000054:	18c00013 	move	s1,s1
 2000058:	18c02a93 	srl	s1,s1,0xa
 200005c:	18860333 	or	s1,s0,s1
 2000060:	04c601fb 	mtpcr	zero,s1,cr19
 2000064:	18200137 	lui	s1,0x4002
 2000068:	18fff013 	add	s1,s1,-4
 200006c:	18c02a93 	srl	s1,s1,0xa
 2000070:	18860333 	or	s1,s0,s1
 2000074:	050601fb 	mtpcr	zero,s1,cr20
 2000078:	12000037 	lui	s0,0x40000
 200007c:	18200137 	lui	s1,0x4002
 2000080:	18c00013 	move	s1,s1
 2000084:	18c02a93 	srl	s1,s1,0xa
 2000088:	18860333 	or	s1,s0,s1
 200008c:	04c601fb 	mtpcr	zero,s1,cr19
 2000090:	182001b7 	lui	s1,0x4003
 2000094:	18c00013 	move	s1,s1
 2000098:	18c02a93 	srl	s1,s1,0xa
 200009c:	18860333 	or	s1,s0,s1
 20000a0:	050601fb 	mtpcr	zero,s1,cr20
 20000a4:	13000037 	lui	s0,0x60000
 20000a8:	182001b7 	lui	s1,0x4003
 20000ac:	18c00013 	move	s1,s1
 20000b0:	18c02a93 	srl	s1,s1,0xa
 20000b4:	18860333 	or	s1,s0,s1
 20000b8:	04c601fb 	mtpcr	zero,s1,cr19
 20000bc:	18200237 	lui	s1,0x4004
 20000c0:	18fff013 	add	s1,s1,-4
 20000c4:	18c02a93 	srl	s1,s1,0xa
 20000c8:	18860333 	or	s1,s0,s1
 20000cc:	050601fb 	mtpcr	zero,s1,cr20
 20000d0:	048001fb 	mtpcr	zero,zero,cr18
 20000d4:	17ff7037 	lui	s0,0xffee0
 20000d8:	10884013 	add	s0,s0,528
 20000dc:	18028013 	li	s1,160
 20000e0:	058401fb 	mtpcr	zero,s0,cr22
 20000e4:	05c601fb 	mtpcr	zero,s1,cr23

020000e8 <t0_startup>:
 20000e8:	10200037 	lui	s0,0x4000
 20000ec:	10804013 	add	s0,s0,16
 20000f0:	18200037 	lui	s1,0x4000
 20000f4:	18c45013 	add	s1,s1,276
 20000f8:	008622e3 	ble	s1,s0,2000108 <t0_startup+0x20>
 20000fc:	00800123 	sw	zero,0(s0)
 2000100:	10801013 	add	s0,s0,4
 2000104:	fffffd67 	j	20000f8 <t0_startup+0x10>
 2000108:	702000b7 	lui	sp,0x4001
 200010c:	73bff013 	add	sp,sp,-4
 2000110:	0000566f 	jal	2000268 <t0_main>
 2000114:	00000067 	j	2000114 <t0_startup+0x2c>

02000118 <t1_startup>:
 2000118:	102000b7 	lui	s0,0x4001
 200011c:	10800013 	move	s0,s0
 2000120:	182000b7 	lui	s1,0x4001
 2000124:	18c41013 	add	s1,s1,260
 2000128:	008622e3 	ble	s1,s0,2000138 <t1_startup+0x20>
 200012c:	00800123 	sw	zero,0(s0)
 2000130:	10801013 	add	s0,s0,4
 2000134:	fffffd67 	j	2000128 <t1_startup+0x10>
 2000138:	70200137 	lui	sp,0x4002
 200013c:	73bff013 	add	sp,sp,-4
 2000140:	0000a56f 	jal	20003d4 <t1_main>
 2000144:	00000067 	j	2000144 <t1_startup+0x2c>

02000148 <t2_startup>:
 2000148:	10200137 	lui	s0,0x4002
 200014c:	10800013 	move	s0,s0
 2000150:	18200137 	lui	s1,0x4002
 2000154:	18c43013 	add	s1,s1,268
 2000158:	008622e3 	ble	s1,s0,2000168 <t2_startup+0x20>
 200015c:	00800123 	sw	zero,0(s0)
 2000160:	10801013 	add	s0,s0,4
 2000164:	fffffd67 	j	2000158 <t2_startup+0x10>
 2000168:	702001b7 	lui	sp,0x4003
 200016c:	73800013 	move	sp,sp
 2000170:	0000f56f 	jal	2000544 <t2_main>
 2000174:	00000067 	j	2000174 <t2_startup+0x2c>

02000178 <t3_startup>:
 2000178:	102001b7 	lui	s0,0x4003
 200017c:	10800013 	move	s0,s0
 2000180:	182001b7 	lui	s1,0x4003
 2000184:	18c0e013 	add	s1,s1,56
 2000188:	008622e3 	ble	s1,s0,2000198 <t3_startup+0x20>
 200018c:	00800123 	sw	zero,0(s0)
 2000190:	10801013 	add	s0,s0,4
 2000194:	fffffd67 	j	2000188 <t3_startup+0x10>
 2000198:	70200237 	lui	sp,0x4004
 200019c:	73bff013 	add	sp,sp,-4
 20001a0:	0001456f 	jal	20006b4 <t3_main>
 20001a4:	00000067 	j	20001a4 <t3_startup+0x2c>

020001a8 <t0_exception_proxy>:
 20001a8:	73bfe013 	add	sp,sp,-8
 20001ac:	03821123 	sw	ra,4(sp)
 20001b0:	7840017b 	mfpcr	tp,cr1
 20001b4:	73bef013 	add	sp,sp,-68
 20001b8:	039e1123 	sw	tp,4(sp)
 20001bc:	03a02123 	sw	v0,8(sp)
 20001c0:	03a23123 	sw	v1,12(sp)
 20001c4:	03a44123 	sw	a0,16(sp)
 20001c8:	03a65123 	sw	a1,20(sp)
 20001cc:	03a86123 	sw	a2,24(sp)
 20001d0:	03aa7123 	sw	a3,28(sp)
 20001d4:	03ac8123 	sw	a4,32(sp)
 20001d8:	03ae9123 	sw	a5,36(sp)
 20001dc:	03b0a123 	sw	a6,40(sp)
 20001e0:	03b2b123 	sw	a7,44(sp)
 20001e4:	03b4c123 	sw	a8,48(sp)
 20001e8:	03b6d123 	sw	a9,52(sp)
 20001ec:	03b8e123 	sw	a10,56(sp)
 20001f0:	03baf123 	sw	a11,60(sp)
 20001f4:	03bd0123 	sw	a12,64(sp)
 20001f8:	03bf1123 	sw	a13,68(sp)
 20001fc:	80200037 	lui	v0,0x4000
 2000200:	84006103 	lw	v0,24(v0)
 2000204:	0c00006b 	jalr	v0
 2000208:	7b801103 	lw	tp,4(sp)
 200020c:	83802103 	lw	v0,8(sp)
 2000210:	8b803103 	lw	v1,12(sp)
 2000214:	93804103 	lw	a0,16(sp)
 2000218:	9b805103 	lw	a1,20(sp)
 200021c:	a3806103 	lw	a2,24(sp)
 2000220:	ab807103 	lw	a3,28(sp)
 2000224:	b3808103 	lw	a4,32(sp)
 2000228:	bb809103 	lw	a5,36(sp)
 200022c:	c380a103 	lw	a6,40(sp)
 2000230:	cb80b103 	lw	a7,44(sp)
 2000234:	d380c103 	lw	a8,48(sp)
 2000238:	db80d103 	lw	a9,52(sp)
 200023c:	e380e103 	lw	a10,56(sp)
 2000240:	eb80f103 	lw	a11,60(sp)
 2000244:	f3810103 	lw	a12,64(sp)
 2000248:	fb811103 	lw	a13,68(sp)
 200024c:	73811013 	add	sp,sp,68
 2000250:	0b801103 	lw	ra,4(sp)
 2000254:	73802013 	add	sp,sp,8
 2000258:	03c0016b 	jr	tp
 200025c:	0b801103 	lw	ra,4(sp)
 2000260:	73802013 	add	sp,sp,8
 2000264:	004000eb 	ret

02000268 <t0_main>:
 2000268:	73bf6013 	add	sp,sp,-40
 200026c:	03886123 	sw	s2,24(sp)
 2000270:	20000c37 	lui	s2,0x18
 2000274:	03829123 	sw	ra,36(sp)
 2000278:	03848123 	sw	s0,32(sp)
 200027c:	03867123 	sw	s1,28(sp)
 2000280:	038a5123 	sw	s3,20(sp)
 2000284:	038c4123 	sw	s4,16(sp)
 2000288:	038e3123 	sw	s5,12(sp)
 200028c:	03902123 	sw	s6,8(sp)
 2000290:	03921123 	sw	s7,4(sp)
 2000294:	211a8013 	add	s2,s2,1696
 2000298:	80000013 	li	v0,0
 200029c:	1c000013 	move	s1,v0
 20002a0:	11000013 	move	s0,s2
 20002a4:	00c4015b 	0xc4015b
 20002a8:	42000037 	lui	s6,0x40000
 20002ac:	3005b937 	lui	s4,0xb72
 20002b0:	28000013 	li	s3,0
 20002b4:	3c000037 	lui	s5,0x80000
 20002b8:	4a002813 	add	s7,s6,10
 20002bc:	31ac0013 	add	s4,s4,-1280
 20002c0:	879001fb 	mtpcr	v0,s6,cr30
 20002c4:	1000005b 	0x1000005b
 20002c8:	80800013 	move	v0,s0
 20002cc:	840e0333 	or	v0,v0,s5
 20002d0:	87a001fb 	mtpcr	v0,v0,cr30
 20002d4:	18060413 	li	s1,385
 20002d8:	18fffc13 	add	s1,s1,-1
 20002dc:	0007026f 	jal	2001ee4 <t0_taskA_main>
 20002e0:	f8c1f0e3 	bnez	s1,20002d8 <t0_main+0x70>
 20002e4:	879201fb 	mtpcr	v0,s7,cr30
 20002e8:	1000005b 	0x1000005b
 20002ec:	80800013 	move	v0,s0
 20002f0:	840e0333 	or	v0,v0,s5
 20002f4:	87a001fb 	mtpcr	v0,v0,cr30
 20002f8:	210c0033 	add	s2,s2,s4
 20002fc:	810c01b3 	sltu	v0,s2,s4
 2000300:	29600033 	add	s3,s3,v0
 2000304:	19400013 	move	s1,s3
 2000308:	11000013 	move	s0,s2
 200030c:	00c4015b 	0xc4015b
 2000310:	ffffec67 	j	20002c0 <t0_main+0x58>

02000314 <t1_exception_proxy>:
 2000314:	73bfe013 	add	sp,sp,-8
 2000318:	03821123 	sw	ra,4(sp)
 200031c:	7840017b 	mfpcr	tp,cr1
 2000320:	73bef013 	add	sp,sp,-68
 2000324:	039e1123 	sw	tp,4(sp)
 2000328:	03a02123 	sw	v0,8(sp)
 200032c:	03a23123 	sw	v1,12(sp)
 2000330:	03a44123 	sw	a0,16(sp)
 2000334:	03a65123 	sw	a1,20(sp)
 2000338:	03a86123 	sw	a2,24(sp)
 200033c:	03aa7123 	sw	a3,28(sp)
 2000340:	03ac8123 	sw	a4,32(sp)
 2000344:	03ae9123 	sw	a5,36(sp)
 2000348:	03b0a123 	sw	a6,40(sp)
 200034c:	03b2b123 	sw	a7,44(sp)
 2000350:	03b4c123 	sw	a8,48(sp)
 2000354:	03b6d123 	sw	a9,52(sp)
 2000358:	03b8e123 	sw	a10,56(sp)
 200035c:	03baf123 	sw	a11,60(sp)
 2000360:	03bd0123 	sw	a12,64(sp)
 2000364:	03bf1123 	sw	a13,68(sp)
 2000368:	802000b7 	lui	v0,0x4001
 200036c:	84002103 	lw	v0,8(v0)
 2000370:	0c00006b 	jalr	v0
 2000374:	7b801103 	lw	tp,4(sp)
 2000378:	83802103 	lw	v0,8(sp)
 200037c:	8b803103 	lw	v1,12(sp)
 2000380:	93804103 	lw	a0,16(sp)
 2000384:	9b805103 	lw	a1,20(sp)
 2000388:	a3806103 	lw	a2,24(sp)
 200038c:	ab807103 	lw	a3,28(sp)
 2000390:	b3808103 	lw	a4,32(sp)
 2000394:	bb809103 	lw	a5,36(sp)
 2000398:	c380a103 	lw	a6,40(sp)
 200039c:	cb80b103 	lw	a7,44(sp)
 20003a0:	d380c103 	lw	a8,48(sp)
 20003a4:	db80d103 	lw	a9,52(sp)
 20003a8:	e380e103 	lw	a10,56(sp)
 20003ac:	eb80f103 	lw	a11,60(sp)
 20003b0:	f3810103 	lw	a12,64(sp)
 20003b4:	fb811103 	lw	a13,68(sp)
 20003b8:	73811013 	add	sp,sp,68
 20003bc:	0b801103 	lw	ra,4(sp)
 20003c0:	73802013 	add	sp,sp,8
 20003c4:	03c0016b 	jr	tp
 20003c8:	0b801103 	lw	ra,4(sp)
 20003cc:	73802013 	add	sp,sp,8
 20003d0:	004000eb 	ret

020003d4 <t1_main>:
 20003d4:	73bf6013 	add	sp,sp,-40
 20003d8:	03886123 	sw	s2,24(sp)
 20003dc:	20000c37 	lui	s2,0x18
 20003e0:	03829123 	sw	ra,36(sp)
 20003e4:	03848123 	sw	s0,32(sp)
 20003e8:	03867123 	sw	s1,28(sp)
 20003ec:	038a5123 	sw	s3,20(sp)
 20003f0:	038c4123 	sw	s4,16(sp)
 20003f4:	038e3123 	sw	s5,12(sp)
 20003f8:	03902123 	sw	s6,8(sp)
 20003fc:	03921123 	sw	s7,4(sp)
 2000400:	211a8013 	add	s2,s2,1696
 2000404:	80000013 	li	v0,0
 2000408:	1c000013 	move	s1,v0
 200040c:	11000013 	move	s0,s2
 2000410:	00c4015b 	0xc4015b
 2000414:	42400037 	lui	s6,0x48000
 2000418:	3002dcb7 	lui	s4,0x5b9
 200041c:	4a000413 	add	s7,s6,1
 2000420:	28000013 	li	s3,0
 2000424:	3c000037 	lui	s5,0x80000
 2000428:	42002c13 	add	s6,s6,11
 200042c:	31b60013 	add	s4,s4,-640
 2000430:	879201fb 	mtpcr	v0,s7,cr30
 2000434:	1000005b 	0x1000005b
 2000438:	80800013 	move	v0,s0
 200043c:	840e0333 	or	v0,v0,s5
 2000440:	87a001fb 	mtpcr	v0,v0,cr30
 2000444:	1800c013 	li	s1,48
 2000448:	18fffc13 	add	s1,s1,-1
 200044c:	000ca96f 	jal	20036f0 <t1_taskB_main>
 2000450:	f8c1f0e3 	bnez	s1,2000448 <t1_main+0x74>
 2000454:	879001fb 	mtpcr	v0,s6,cr30
 2000458:	1000005b 	0x1000005b
 200045c:	80800013 	move	v0,s0
 2000460:	840e0333 	or	v0,v0,s5
 2000464:	87a001fb 	mtpcr	v0,v0,cr30
 2000468:	210c0033 	add	s2,s2,s4
 200046c:	810c01b3 	sltu	v0,s2,s4
 2000470:	29600033 	add	s3,s3,v0
 2000474:	19400013 	move	s1,s3
 2000478:	11000013 	move	s0,s2
 200047c:	00c4015b 	0xc4015b
 2000480:	ffffec67 	j	2000430 <t1_main+0x5c>

02000484 <t2_exception_proxy>:
 2000484:	73bfe013 	add	sp,sp,-8
 2000488:	03821123 	sw	ra,4(sp)
 200048c:	7840017b 	mfpcr	tp,cr1
 2000490:	73bef013 	add	sp,sp,-68
 2000494:	039e1123 	sw	tp,4(sp)
 2000498:	03a02123 	sw	v0,8(sp)
 200049c:	03a23123 	sw	v1,12(sp)
 20004a0:	03a44123 	sw	a0,16(sp)
 20004a4:	03a65123 	sw	a1,20(sp)
 20004a8:	03a86123 	sw	a2,24(sp)
 20004ac:	03aa7123 	sw	a3,28(sp)
 20004b0:	03ac8123 	sw	a4,32(sp)
 20004b4:	03ae9123 	sw	a5,36(sp)
 20004b8:	03b0a123 	sw	a6,40(sp)
 20004bc:	03b2b123 	sw	a7,44(sp)
 20004c0:	03b4c123 	sw	a8,48(sp)
 20004c4:	03b6d123 	sw	a9,52(sp)
 20004c8:	03b8e123 	sw	a10,56(sp)
 20004cc:	03baf123 	sw	a11,60(sp)
 20004d0:	03bd0123 	sw	a12,64(sp)
 20004d4:	03bf1123 	sw	a13,68(sp)
 20004d8:	80200137 	lui	v0,0x4002
 20004dc:	84002103 	lw	v0,8(v0)
 20004e0:	0c00006b 	jalr	v0
 20004e4:	7b801103 	lw	tp,4(sp)
 20004e8:	83802103 	lw	v0,8(sp)
 20004ec:	8b803103 	lw	v1,12(sp)
 20004f0:	93804103 	lw	a0,16(sp)
 20004f4:	9b805103 	lw	a1,20(sp)
 20004f8:	a3806103 	lw	a2,24(sp)
 20004fc:	ab807103 	lw	a3,28(sp)
 2000500:	b3808103 	lw	a4,32(sp)
 2000504:	bb809103 	lw	a5,36(sp)
 2000508:	c380a103 	lw	a6,40(sp)
 200050c:	cb80b103 	lw	a7,44(sp)
 2000510:	d380c103 	lw	a8,48(sp)
 2000514:	db80d103 	lw	a9,52(sp)
 2000518:	e380e103 	lw	a10,56(sp)
 200051c:	eb80f103 	lw	a11,60(sp)
 2000520:	f3810103 	lw	a12,64(sp)
 2000524:	fb811103 	lw	a13,68(sp)
 2000528:	73811013 	add	sp,sp,68
 200052c:	0b801103 	lw	ra,4(sp)
 2000530:	73802013 	add	sp,sp,8
 2000534:	03c0016b 	jr	tp
 2000538:	0b801103 	lw	ra,4(sp)
 200053c:	73802013 	add	sp,sp,8
 2000540:	004000eb 	ret

02000544 <t2_main>:
 2000544:	73bf6013 	add	sp,sp,-40
 2000548:	03886123 	sw	s2,24(sp)
 200054c:	20000c37 	lui	s2,0x18
 2000550:	03829123 	sw	ra,36(sp)
 2000554:	03848123 	sw	s0,32(sp)
 2000558:	03867123 	sw	s1,28(sp)
 200055c:	038a5123 	sw	s3,20(sp)
 2000560:	038c4123 	sw	s4,16(sp)
 2000564:	038e3123 	sw	s5,12(sp)
 2000568:	03902123 	sw	s6,8(sp)
 200056c:	03921123 	sw	s7,4(sp)
 2000570:	211a8013 	add	s2,s2,1696
 2000574:	80000013 	li	v0,0
 2000578:	1c000013 	move	s1,v0
 200057c:	11000013 	move	s0,s2
 2000580:	00c4015b 	0xc4015b
 2000584:	42800037 	lui	s6,0x50000
 2000588:	3005b937 	lui	s4,0xb72
 200058c:	4a000813 	add	s7,s6,2
 2000590:	28000013 	li	s3,0
 2000594:	3c000037 	lui	s5,0x80000
 2000598:	42003013 	add	s6,s6,12
 200059c:	31ac0013 	add	s4,s4,-1280
 20005a0:	879201fb 	mtpcr	v0,s7,cr30
 20005a4:	1000005b 	0x1000005b
 20005a8:	80800013 	move	v0,s0
 20005ac:	840e0333 	or	v0,v0,s5
 20005b0:	87a001fb 	mtpcr	v0,v0,cr30
 20005b4:	1801ec13 	li	s1,123
 20005b8:	18fffc13 	add	s1,s1,-1
 20005bc:	000dbc6f 	jal	2003cac <t2_taskC_main>
 20005c0:	f8c1f0e3 	bnez	s1,20005b8 <t2_main+0x74>
 20005c4:	879001fb 	mtpcr	v0,s6,cr30
 20005c8:	1000005b 	0x1000005b
 20005cc:	80800013 	move	v0,s0
 20005d0:	840e0333 	or	v0,v0,s5
 20005d4:	87a001fb 	mtpcr	v0,v0,cr30
 20005d8:	210c0033 	add	s2,s2,s4
 20005dc:	810c01b3 	sltu	v0,s2,s4
 20005e0:	29600033 	add	s3,s3,v0
 20005e4:	19400013 	move	s1,s3
 20005e8:	11000013 	move	s0,s2
 20005ec:	00c4015b 	0xc4015b
 20005f0:	ffffec67 	j	20005a0 <t2_main+0x5c>

020005f4 <t3_exception_proxy>:
 20005f4:	73bfe013 	add	sp,sp,-8
 20005f8:	03821123 	sw	ra,4(sp)
 20005fc:	7840017b 	mfpcr	tp,cr1
 2000600:	73bef013 	add	sp,sp,-68
 2000604:	039e1123 	sw	tp,4(sp)
 2000608:	03a02123 	sw	v0,8(sp)
 200060c:	03a23123 	sw	v1,12(sp)
 2000610:	03a44123 	sw	a0,16(sp)
 2000614:	03a65123 	sw	a1,20(sp)
 2000618:	03a86123 	sw	a2,24(sp)
 200061c:	03aa7123 	sw	a3,28(sp)
 2000620:	03ac8123 	sw	a4,32(sp)
 2000624:	03ae9123 	sw	a5,36(sp)
 2000628:	03b0a123 	sw	a6,40(sp)
 200062c:	03b2b123 	sw	a7,44(sp)
 2000630:	03b4c123 	sw	a8,48(sp)
 2000634:	03b6d123 	sw	a9,52(sp)
 2000638:	03b8e123 	sw	a10,56(sp)
 200063c:	03baf123 	sw	a11,60(sp)
 2000640:	03bd0123 	sw	a12,64(sp)
 2000644:	03bf1123 	sw	a13,68(sp)
 2000648:	802001b7 	lui	v0,0x4003
 200064c:	84002103 	lw	v0,8(v0)
 2000650:	0c00006b 	jalr	v0
 2000654:	7b801103 	lw	tp,4(sp)
 2000658:	83802103 	lw	v0,8(sp)
 200065c:	8b803103 	lw	v1,12(sp)
 2000660:	93804103 	lw	a0,16(sp)
 2000664:	9b805103 	lw	a1,20(sp)
 2000668:	a3806103 	lw	a2,24(sp)
 200066c:	ab807103 	lw	a3,28(sp)
 2000670:	b3808103 	lw	a4,32(sp)
 2000674:	bb809103 	lw	a5,36(sp)
 2000678:	c380a103 	lw	a6,40(sp)
 200067c:	cb80b103 	lw	a7,44(sp)
 2000680:	d380c103 	lw	a8,48(sp)
 2000684:	db80d103 	lw	a9,52(sp)
 2000688:	e380e103 	lw	a10,56(sp)
 200068c:	eb80f103 	lw	a11,60(sp)
 2000690:	f3810103 	lw	a12,64(sp)
 2000694:	fb811103 	lw	a13,68(sp)
 2000698:	73811013 	add	sp,sp,68
 200069c:	0b801103 	lw	ra,4(sp)
 20006a0:	73802013 	add	sp,sp,8
 20006a4:	03c0016b 	jr	tp
 20006a8:	0b801103 	lw	ra,4(sp)
 20006ac:	73802013 	add	sp,sp,8
 20006b0:	004000eb 	ret

020006b4 <t3_main>:
 20006b4:	73bfe013 	add	sp,sp,-8
 20006b8:	88000c37 	lui	v1,0x18
 20006bc:	03841123 	sw	s0,4(sp)
 20006c0:	03860123 	sw	s1,0(sp)
 20006c4:	8c5a8013 	add	v1,v1,1696
 20006c8:	80000013 	li	v0,0
 20006cc:	1c000013 	move	s1,v0
 20006d0:	14400013 	move	s0,v1
 20006d4:	00c4015b 	0xc4015b
 20006d8:	82c00037 	lui	v0,0x58000
 20006dc:	84000c13 	add	v0,v0,3
 20006e0:	87a001fb 	mtpcr	v0,v0,cr30
 20006e4:	1000005b 	0x1000005b
 20006e8:	88800013 	move	v1,s0
 20006ec:	84000037 	lui	v0,0x80000
 20006f0:	84600333 	or	v0,v1,v0
 20006f4:	87a001fb 	mtpcr	v0,v0,cr30
 20006f8:	00000067 	j	20006f8 <t3_main+0x44>

020006fc <t0_taskA_interface>:
 20006fc:	80200037 	lui	v0,0x4000
 2000700:	8c035013 	add	v1,v0,212
 2000704:	94401003 	lb	a0,4(v1)
 2000708:	0c805063 	beqz	a0,2000830 <t0_taskA_interface+0x134>
 200070c:	88200037 	lui	v1,0x4000
 2000710:	8c40c103 	lw	v1,48(v1)
 2000714:	90200037 	lui	a0,0x4000
 2000718:	0ca32123 	sw	v1,200(a0)
 200071c:	90200037 	lui	a0,0x4000
 2000720:	0ca33123 	sw	v1,204(a0)
 2000724:	90200037 	lui	a0,0x4000
 2000728:	8c831103 	lw	v1,196(a0)
 200072c:	04404863 	beqz	v1,2000750 <t0_taskA_interface+0x54>
 2000730:	98200037 	lui	a1,0x4000
 2000734:	9cc0c103 	lw	a1,48(a1)
 2000738:	8ce30033 	sub	v1,a1,v1
 200073c:	8c40f0d3 	fcvt.d.wu	fv1,v1
 2000740:	88200037 	lui	v1,0x4000
 2000744:	84400187 	fld	fv0,0(v1)
 2000748:	8c2370d3 	fle.d	v1,fv0,fv1
 200074c:	0c4050e3 	bnez	v1,2000874 <t0_taskA_interface+0x178>
 2000750:	90200037 	lui	a0,0x4000
 2000754:	8c830103 	lw	v1,192(a0)
 2000758:	04404863 	beqz	v1,200077c <t0_taskA_interface+0x80>
 200075c:	98200037 	lui	a1,0x4000
 2000760:	9cc0c103 	lw	a1,48(a1)
 2000764:	8ce30033 	sub	v1,a1,v1
 2000768:	8c40f0d3 	fcvt.d.wu	fv1,v1
 200076c:	88200037 	lui	v1,0x4000
 2000770:	84400187 	fld	fv0,0(v1)
 2000774:	8c2370d3 	fle.d	v1,fv0,fv1
 2000778:	0441d8e3 	bnez	v1,2000864 <t0_taskA_interface+0x168>
 200077c:	90200037 	lui	a0,0x4000
 2000780:	8c82f103 	lw	v1,188(a0)
 2000784:	04404863 	beqz	v1,20007a8 <t0_taskA_interface+0xac>
 2000788:	98200037 	lui	a1,0x4000
 200078c:	9cc0c103 	lw	a1,48(a1)
 2000790:	8ce30033 	sub	v1,a1,v1
 2000794:	8c40f0d3 	fcvt.d.wu	fv1,v1
 2000798:	88200037 	lui	v1,0x4000
 200079c:	84400187 	fld	fv0,0(v1)
 20007a0:	8c2370d3 	fle.d	v1,fv0,fv1
 20007a4:	044160e3 	bnez	v1,2000854 <t0_taskA_interface+0x158>
 20007a8:	90200037 	lui	a0,0x4000
 20007ac:	8c82b103 	lw	v1,172(a0)
 20007b0:	04404863 	beqz	v1,20007d4 <t0_taskA_interface+0xd8>
 20007b4:	98200037 	lui	a1,0x4000
 20007b8:	9cc0c103 	lw	a1,48(a1)
 20007bc:	8ce30033 	sub	v1,a1,v1
 20007c0:	8c40f0d3 	fcvt.d.wu	fv1,v1
 20007c4:	88200037 	lui	v1,0x4000
 20007c8:	84400187 	fld	fv0,0(v1)
 20007cc:	8c2370d3 	fle.d	v1,fv0,fv1
 20007d0:	0440f8e3 	bnez	v1,200084c <t0_taskA_interface+0x150>
 20007d4:	90200037 	lui	a0,0x4000
 20007d8:	8c82a103 	lw	v1,168(a0)
 20007dc:	04404863 	beqz	v1,2000800 <t0_taskA_interface+0x104>
 20007e0:	98200037 	lui	a1,0x4000
 20007e4:	9cc0c103 	lw	a1,48(a1)
 20007e8:	8ce30033 	sub	v1,a1,v1
 20007ec:	8c40f0d3 	fcvt.d.wu	fv1,v1
 20007f0:	88200037 	lui	v1,0x4000
 20007f4:	84400187 	fld	fv0,0(v1)
 20007f8:	8c2370d3 	fle.d	v1,fv0,fv1
 20007fc:	044090e3 	bnez	v1,2000844 <t0_taskA_interface+0x148>
 2000800:	84035003 	lb	v0,212(v0)
 2000804:	040030e3 	bnez	v0,200081c <t0_taskA_interface+0x120>
 2000808:	80200037 	lui	v0,0x4000
 200080c:	8c01f103 	lw	v1,124(v0)
 2000810:	80200037 	lui	v0,0x4000
 2000814:	8401d103 	lw	v0,116(v0)
 2000818:	04602863 	beq	v1,v0,200082c <t0_taskA_interface+0x130>
 200081c:	80200037 	lui	v0,0x4000
 2000820:	8c00c103 	lw	v1,48(v0)
 2000824:	80200037 	lui	v0,0x4000
 2000828:	0c234123 	sw	v1,208(v0)
 200082c:	004000eb 	ret
 2000830:	8c401803 	lb	v1,6(v1)
 2000834:	f441e063 	beqz	v1,2000724 <t0_taskA_interface+0x28>
 2000838:	88200037 	lui	v1,0x4000
 200083c:	8c40c103 	lw	v1,48(v1)
 2000840:	ffffb767 	j	200071c <t0_taskA_interface+0x20>
 2000844:	0c80a123 	sw	zero,168(a0)
 2000848:	ffffee67 	j	2000800 <t0_taskA_interface+0x104>
 200084c:	0c80b123 	sw	zero,172(a0)
 2000850:	ffffe167 	j	20007d4 <t0_taskA_interface+0xd8>
 2000854:	88200037 	lui	v1,0x4000
 2000858:	04416023 	sb	zero,88(v1)
 200085c:	0c80f123 	sw	zero,188(a0)
 2000860:	ffffd267 	j	20007a8 <t0_taskA_interface+0xac>
 2000864:	88200037 	lui	v1,0x4000
 2000868:	04416023 	sb	zero,88(v1)
 200086c:	0c810123 	sw	zero,192(a0)
 2000870:	ffffc367 	j	200077c <t0_taskA_interface+0x80>
 2000874:	88200037 	lui	v1,0x4000
 2000878:	04415423 	sb	zero,85(v1)
 200087c:	0c811123 	sw	zero,196(a0)
 2000880:	ffffb467 	j	2000750 <t0_taskA_interface+0x54>

02000884 <t0_taskA_init>:
 2000884:	80200037 	lui	v0,0x4000
 2000888:	0c014123 	sw	zero,208(v0)
 200088c:	80200037 	lui	v0,0x4000
 2000890:	0c013123 	sw	zero,204(v0)
 2000894:	80200037 	lui	v0,0x4000
 2000898:	0c012123 	sw	zero,200(v0)
 200089c:	80200037 	lui	v0,0x4000
 20008a0:	0400ac23 	sb	zero,43(v0)
 20008a4:	80200037 	lui	v0,0x4000
 20008a8:	0400a823 	sb	zero,42(v0)
 20008ac:	80200037 	lui	v0,0x4000
 20008b0:	0400a423 	sb	zero,41(v0)
 20008b4:	80200037 	lui	v0,0x4000
 20008b8:	0400a023 	sb	zero,40(v0)
 20008bc:	80200037 	lui	v0,0x4000
 20008c0:	04009c23 	sb	zero,39(v0)
 20008c4:	80200037 	lui	v0,0x4000
 20008c8:	04009823 	sb	zero,38(v0)
 20008cc:	80200037 	lui	v0,0x4000
 20008d0:	04009423 	sb	zero,37(v0)
 20008d4:	80200037 	lui	v0,0x4000
 20008d8:	04009023 	sb	zero,36(v0)
 20008dc:	80200037 	lui	v0,0x4000
 20008e0:	04008c23 	sb	zero,35(v0)
 20008e4:	80200037 	lui	v0,0x4000
 20008e8:	04008823 	sb	zero,34(v0)
 20008ec:	80200037 	lui	v0,0x4000
 20008f0:	04008423 	sb	zero,33(v0)
 20008f4:	80200037 	lui	v0,0x4000
 20008f8:	04008023 	sb	zero,32(v0)
 20008fc:	80200037 	lui	v0,0x4000
 2000900:	04007c23 	sb	zero,31(v0)
 2000904:	80200037 	lui	v0,0x4000
 2000908:	04007823 	sb	zero,30(v0)
 200090c:	80200037 	lui	v0,0x4000
 2000910:	04007423 	sb	zero,29(v0)
 2000914:	80200037 	lui	v0,0x4000
 2000918:	04007023 	sb	zero,28(v0)
 200091c:	004000eb 	ret

02000920 <t0_taskA_generic_KINDERSICHERUNG_CTRL>:
 2000920:	80200037 	lui	v0,0x4000
 2000924:	84037803 	lb	v0,222(v0)
 2000928:	04006063 	beqz	v0,2000958 <t0_taskA_generic_KINDERSICHERUNG_CTRL+0x38>
 200092c:	88200037 	lui	v1,0x4000
 2000930:	8440a003 	lb	v0,40(v1)
 2000934:	90000813 	li	a0,2
 2000938:	04244863 	beq	v0,a0,200095c <t0_taskA_generic_KINDERSICHERUNG_CTRL+0x3c>
 200093c:	98000c13 	li	a1,3
 2000940:	0427a863 	beq	v0,a1,2000a14 <t0_taskA_generic_KINDERSICHERUNG_CTRL+0xf4>
 2000944:	90000413 	li	a0,1
 2000948:	04249063 	beq	v0,a0,2000990 <t0_taskA_generic_KINDERSICHERUNG_CTRL+0x70>
 200094c:	80200037 	lui	v0,0x4000
 2000950:	0400b423 	sb	zero,45(v0)
 2000954:	0466a023 	sb	a1,40(v1)
 2000958:	004000eb 	ret
 200095c:	80200037 	lui	v0,0x4000
 2000960:	84019803 	lb	v0,102(v0)
 2000964:	040020e3 	bnez	v0,2000974 <t0_taskA_generic_KINDERSICHERUNG_CTRL+0x54>
 2000968:	90200037 	lui	a0,0x4000
 200096c:	9481a803 	lb	a0,106(a0)
 2000970:	1480d863 	beqz	a0,2000bdc <t0_taskA_generic_KINDERSICHERUNG_CTRL+0x2bc>
 2000974:	88200037 	lui	v1,0x4000
 2000978:	9440a403 	lb	a0,41(v1)
 200097c:	98000413 	li	a1,1
 2000980:	0ca61863 	beq	a0,a1,2000a8c <t0_taskA_generic_KINDERSICHERUNG_CTRL+0x16c>
 2000984:	80200037 	lui	v0,0x4000
 2000988:	0400b423 	sb	zero,45(v0)
 200098c:	004000eb 	ret
 2000990:	80200037 	lui	v0,0x4000
 2000994:	8401a003 	lb	v0,104(v0)
 2000998:	040020e3 	bnez	v0,20009a8 <t0_taskA_generic_KINDERSICHERUNG_CTRL+0x88>
 200099c:	90200037 	lui	a0,0x4000
 20009a0:	9481b003 	lb	a0,108(a0)
 20009a4:	14802063 	beqz	a0,2000bb4 <t0_taskA_generic_KINDERSICHERUNG_CTRL+0x294>
 20009a8:	88200037 	lui	v1,0x4000
 20009ac:	9440a803 	lb	a0,42(v1)
 20009b0:	98000413 	li	a1,1
 20009b4:	fca7a0e3 	bne	a0,a1,2000984 <t0_taskA_generic_KINDERSICHERUNG_CTRL+0x64>
 20009b8:	04005063 	beqz	v0,20009e0 <t0_taskA_generic_KINDERSICHERUNG_CTRL+0xc0>
 20009bc:	98200037 	lui	a1,0x4000
 20009c0:	9cc19c03 	lb	a1,103(a1)
 20009c4:	04c038e3 	bnez	a1,20009e0 <t0_taskA_generic_KINDERSICHERUNG_CTRL+0xc0>
 20009c8:	80200037 	lui	v0,0x4000
 20009cc:	0400b423 	sb	zero,45(v0)
 20009d0:	80200037 	lui	v0,0x4000
 20009d4:	04256c23 	sb	a0,91(v0)
 20009d8:	0464a823 	sb	a0,42(v1)
 20009dc:	004000eb 	ret
 20009e0:	90200037 	lui	a0,0x4000
 20009e4:	9481b003 	lb	a0,108(a0)
 20009e8:	0c80a863 	beqz	a0,2000b3c <t0_taskA_generic_KINDERSICHERUNG_CTRL+0x21c>
 20009ec:	98200037 	lui	a1,0x4000
 20009f0:	9cc1ac03 	lb	a1,107(a1)
 20009f4:	0cc090e3 	bnez	a1,2000b3c <t0_taskA_generic_KINDERSICHERUNG_CTRL+0x21c>
 20009f8:	90200037 	lui	a0,0x4000
 20009fc:	80000413 	li	v0,1
 2000a00:	0480b423 	sb	zero,45(a0)
 2000a04:	90200037 	lui	a0,0x4000
 2000a08:	04a17823 	sb	v0,94(a0)
 2000a0c:	0460a823 	sb	v0,42(v1)
 2000a10:	004000eb 	ret
 2000a14:	80200037 	lui	v0,0x4000
 2000a18:	84019003 	lb	v0,100(v0)
 2000a1c:	040070e3 	bnez	v0,2000a54 <t0_taskA_generic_KINDERSICHERUNG_CTRL+0x134>
 2000a20:	98200037 	lui	a1,0x4000
 2000a24:	9cc1a803 	lb	a1,106(a1)
 2000a28:	04c1d863 	beqz	a1,2000b14 <t0_taskA_generic_KINDERSICHERUNG_CTRL+0x1f4>
 2000a2c:	80200037 	lui	v0,0x4000
 2000a30:	84019803 	lb	v0,102(v0)
 2000a34:	140060e3 	bnez	v0,2000c64 <t0_taskA_generic_KINDERSICHERUNG_CTRL+0x344>
 2000a38:	80200037 	lui	v0,0x4000
 2000a3c:	0400b423 	sb	zero,45(v0)
 2000a40:	98000413 	li	a1,1
 2000a44:	80200037 	lui	v0,0x4000
 2000a48:	04277823 	sb	a1,94(v0)
 2000a4c:	0464a023 	sb	a0,40(v1)
 2000a50:	004000eb 	ret
 2000a54:	90200037 	lui	a0,0x4000
 2000a58:	9481b003 	lb	a0,108(a0)
 2000a5c:	048118e3 	bnez	a0,2000ae8 <t0_taskA_generic_KINDERSICHERUNG_CTRL+0x1c8>
 2000a60:	90200037 	lui	a0,0x4000
 2000a64:	9481a003 	lb	a0,104(a0)
 2000a68:	f481e063 	beqz	a0,2000958 <t0_taskA_generic_KINDERSICHERUNG_CTRL+0x38>
 2000a6c:	f401d8e3 	bnez	v0,2000958 <t0_taskA_generic_KINDERSICHERUNG_CTRL+0x38>
 2000a70:	90200037 	lui	a0,0x4000
 2000a74:	80000413 	li	v0,1
 2000a78:	0480b423 	sb	zero,45(a0)
 2000a7c:	90200037 	lui	a0,0x4000
 2000a80:	04a16c23 	sb	v0,91(a0)
 2000a84:	0460a023 	sb	v0,40(v1)
 2000a88:	004000eb 	ret
 2000a8c:	04005063 	beqz	v0,2000ab4 <t0_taskA_generic_KINDERSICHERUNG_CTRL+0x194>
 2000a90:	98200037 	lui	a1,0x4000
 2000a94:	9cc19403 	lb	a1,101(a1)
 2000a98:	04c038e3 	bnez	a1,2000ab4 <t0_taskA_generic_KINDERSICHERUNG_CTRL+0x194>
 2000a9c:	80200037 	lui	v0,0x4000
 2000aa0:	0400b423 	sb	zero,45(v0)
 2000aa4:	80200037 	lui	v0,0x4000
 2000aa8:	04256c23 	sb	a0,91(v0)
 2000aac:	0464a423 	sb	a0,41(v1)
 2000ab0:	004000eb 	ret
 2000ab4:	90200037 	lui	a0,0x4000
 2000ab8:	9481a803 	lb	a0,106(a0)
 2000abc:	04817863 	beqz	a0,2000b78 <t0_taskA_generic_KINDERSICHERUNG_CTRL+0x258>
 2000ac0:	98200037 	lui	a1,0x4000
 2000ac4:	9cc1a403 	lb	a1,105(a1)
 2000ac8:	04c160e3 	bnez	a1,2000b78 <t0_taskA_generic_KINDERSICHERUNG_CTRL+0x258>
 2000acc:	90200037 	lui	a0,0x4000
 2000ad0:	80000413 	li	v0,1
 2000ad4:	0480b423 	sb	zero,45(a0)
 2000ad8:	90200037 	lui	a0,0x4000
 2000adc:	04a17823 	sb	v0,94(a0)
 2000ae0:	0460a423 	sb	v0,41(v1)
 2000ae4:	004000eb 	ret
 2000ae8:	90200037 	lui	a0,0x4000
 2000aec:	9481a003 	lb	a0,104(a0)
 2000af0:	0c8030e3 	bnez	a0,2000c08 <t0_taskA_generic_KINDERSICHERUNG_CTRL+0x2e8>
 2000af4:	f400c8e3 	bnez	v0,2000958 <t0_taskA_generic_KINDERSICHERUNG_CTRL+0x38>
 2000af8:	90200037 	lui	a0,0x4000
 2000afc:	80000413 	li	v0,1
 2000b00:	0480b423 	sb	zero,45(a0)
 2000b04:	90200037 	lui	a0,0x4000
 2000b08:	04a17823 	sb	v0,94(a0)
 2000b0c:	0460a023 	sb	v0,40(v1)
 2000b10:	004000eb 	ret
 2000b14:	98200037 	lui	a1,0x4000
 2000b18:	9cc19803 	lb	a1,102(a1)
 2000b1c:	fcc07063 	beqz	a1,2000a54 <t0_taskA_generic_KINDERSICHERUNG_CTRL+0x134>
 2000b20:	80200037 	lui	v0,0x4000
 2000b24:	0400b423 	sb	zero,45(v0)
 2000b28:	98000413 	li	a1,1
 2000b2c:	80200037 	lui	v0,0x4000
 2000b30:	04276c23 	sb	a1,91(v0)
 2000b34:	0464a023 	sb	a0,40(v1)
 2000b38:	004000eb 	ret
 2000b3c:	040020e3 	bnez	v0,2000b4c <t0_taskA_generic_KINDERSICHERUNG_CTRL+0x22c>
 2000b40:	80200037 	lui	v0,0x4000
 2000b44:	84019c03 	lb	v0,103(v0)
 2000b48:	0401c8e3 	bnez	v0,2000c2c <t0_taskA_generic_KINDERSICHERUNG_CTRL+0x30c>
 2000b4c:	f48018e3 	bnez	a0,2000958 <t0_taskA_generic_KINDERSICHERUNG_CTRL+0x38>
 2000b50:	80200037 	lui	v0,0x4000
 2000b54:	8401ac03 	lb	v0,107(v0)
 2000b58:	f4000063 	beqz	v0,2000958 <t0_taskA_generic_KINDERSICHERUNG_CTRL+0x38>
 2000b5c:	80200037 	lui	v0,0x4000
 2000b60:	0400b423 	sb	zero,45(v0)
 2000b64:	80200037 	lui	v0,0x4000
 2000b68:	04017823 	sb	zero,94(v0)
 2000b6c:	80000413 	li	v0,1
 2000b70:	0460a823 	sb	v0,42(v1)
 2000b74:	004000eb 	ret
 2000b78:	040020e3 	bnez	v0,2000b88 <t0_taskA_generic_KINDERSICHERUNG_CTRL+0x268>
 2000b7c:	80200037 	lui	v0,0x4000
 2000b80:	84019403 	lb	v0,101(v0)
 2000b84:	040188e3 	bnez	v0,2000c48 <t0_taskA_generic_KINDERSICHERUNG_CTRL+0x328>
 2000b88:	ec81a0e3 	bnez	a0,2000958 <t0_taskA_generic_KINDERSICHERUNG_CTRL+0x38>
 2000b8c:	80200037 	lui	v0,0x4000
 2000b90:	8401a403 	lb	v0,105(v0)
 2000b94:	ec018863 	beqz	v0,2000958 <t0_taskA_generic_KINDERSICHERUNG_CTRL+0x38>
 2000b98:	80200037 	lui	v0,0x4000
 2000b9c:	0400b423 	sb	zero,45(v0)
 2000ba0:	80200037 	lui	v0,0x4000
 2000ba4:	04017823 	sb	zero,94(v0)
 2000ba8:	80000413 	li	v0,1
 2000bac:	0460a423 	sb	v0,41(v1)
 2000bb0:	004000eb 	ret
 2000bb4:	80200037 	lui	v0,0x4000
 2000bb8:	0400b423 	sb	zero,45(v0)
 2000bbc:	80200037 	lui	v0,0x4000
 2000bc0:	04017823 	sb	zero,94(v0)
 2000bc4:	80200037 	lui	v0,0x4000
 2000bc8:	04016c23 	sb	zero,91(v0)
 2000bcc:	80200037 	lui	v0,0x4000
 2000bd0:	0466a023 	sb	a1,40(v1)
 2000bd4:	0400a823 	sb	zero,42(v0)
 2000bd8:	004000eb 	ret
 2000bdc:	80200037 	lui	v0,0x4000
 2000be0:	0400b423 	sb	zero,45(v0)
 2000be4:	80200037 	lui	v0,0x4000
 2000be8:	04017823 	sb	zero,94(v0)
 2000bec:	80200037 	lui	v0,0x4000
 2000bf0:	04016c23 	sb	zero,91(v0)
 2000bf4:	80000c13 	li	v0,3
 2000bf8:	0460a023 	sb	v0,40(v1)
 2000bfc:	80200037 	lui	v0,0x4000
 2000c00:	0400a423 	sb	zero,41(v0)
 2000c04:	004000eb 	ret
 2000c08:	90200037 	lui	a0,0x4000
 2000c0c:	80000413 	li	v0,1
 2000c10:	0480b423 	sb	zero,45(a0)
 2000c14:	90200037 	lui	a0,0x4000
 2000c18:	04a16c23 	sb	v0,91(a0)
 2000c1c:	90200037 	lui	a0,0x4000
 2000c20:	04a17823 	sb	v0,94(a0)
 2000c24:	0460a023 	sb	v0,40(v1)
 2000c28:	004000eb 	ret
 2000c2c:	80200037 	lui	v0,0x4000
 2000c30:	0400b423 	sb	zero,45(v0)
 2000c34:	80200037 	lui	v0,0x4000
 2000c38:	04016c23 	sb	zero,91(v0)
 2000c3c:	80000413 	li	v0,1
 2000c40:	0460a823 	sb	v0,42(v1)
 2000c44:	004000eb 	ret
 2000c48:	80200037 	lui	v0,0x4000
 2000c4c:	0400b423 	sb	zero,45(v0)
 2000c50:	80200037 	lui	v0,0x4000
 2000c54:	04016c23 	sb	zero,91(v0)
 2000c58:	80000413 	li	v0,1
 2000c5c:	0460a423 	sb	v0,41(v1)
 2000c60:	004000eb 	ret
 2000c64:	98200037 	lui	a1,0x4000
 2000c68:	80000413 	li	v0,1
 2000c6c:	04c0b423 	sb	zero,45(a1)
 2000c70:	98200037 	lui	a1,0x4000
 2000c74:	04e17823 	sb	v0,94(a1)
 2000c78:	98200037 	lui	a1,0x4000
 2000c7c:	04e16c23 	sb	v0,91(a1)
 2000c80:	0464a023 	sb	a0,40(v1)
 2000c84:	004000eb 	ret

02000c88 <t0_taskA_generic_FH_TUERMODUL_CTRL>:
 2000c88:	80200037 	lui	v0,0x4000
 2000c8c:	84035013 	add	v0,v0,212
 2000c90:	8c003403 	lb	v1,13(v0)
 2000c94:	044048e3 	bnez	v1,2000cb8 <t0_taskA_generic_FH_TUERMODUL_CTRL+0x30>
 2000c98:	8c003c03 	lb	v1,15(v0)
 2000c9c:	04403063 	beqz	v1,2000cb4 <t0_taskA_generic_FH_TUERMODUL_CTRL+0x2c>
 2000ca0:	8c003803 	lb	v1,14(v0)
 2000ca4:	044020e3 	bnez	v1,2000cb4 <t0_taskA_generic_FH_TUERMODUL_CTRL+0x2c>
 2000ca8:	04001023 	sb	zero,4(v0)
 2000cac:	04001823 	sb	zero,6(v0)
 2000cb0:	004000eb 	ret
 2000cb4:	004000eb 	ret
 2000cb8:	8c002803 	lb	v1,10(v0)
 2000cbc:	044020e3 	bnez	v1,2000ccc <t0_taskA_generic_FH_TUERMODUL_CTRL+0x44>
 2000cc0:	90000c13 	li	a0,3
 2000cc4:	88200037 	lui	v1,0x4000
 2000cc8:	0464a023 	sb	a0,40(v1)
 2000ccc:	8c004c03 	lb	v1,19(v0)
 2000cd0:	044030e3 	bnez	v1,2000ce8 <t0_taskA_generic_FH_TUERMODUL_CTRL+0x60>
 2000cd4:	88200037 	lui	v1,0x4000
 2000cd8:	0c415023 	sb	zero,212(v1)
 2000cdc:	90000413 	li	a0,1
 2000ce0:	88200037 	lui	v1,0x4000
 2000ce4:	04647023 	sb	a0,28(v1)
 2000ce8:	98200037 	lui	a1,0x4000
 2000cec:	8cc09c03 	lb	v1,39(a1)
 2000cf0:	90000413 	li	a0,1
 2000cf4:	a0000813 	li	a2,2
 2000cf8:	04242c23 	sb	a0,11(v0)
 2000cfc:	04245023 	sb	a0,20(v0)
 2000d00:	04693863 	beq	v1,a2,2000d9c <t0_taskA_generic_FH_TUERMODUL_CTRL+0x114>
 2000d04:	a8000c13 	li	a3,3
 2000d08:	0c6a2063 	beq	v1,a3,2000e18 <t0_taskA_generic_FH_TUERMODUL_CTRL+0x190>
 2000d0c:	90000413 	li	a0,1
 2000d10:	0465a863 	beq	v1,a0,2000de4 <t0_taskA_generic_FH_TUERMODUL_CTRL+0x15c>
 2000d14:	88200037 	lui	v1,0x4000
 2000d18:	0440b423 	sb	zero,45(v1)
 2000d1c:	04e89c23 	sb	a2,39(a1)
 2000d20:	90200037 	lui	a0,0x4000
 2000d24:	9c809803 	lb	a1,38(a0)
 2000d28:	88000413 	li	v1,1
 2000d2c:	04e26863 	beq	a1,v1,2000d60 <t0_taskA_generic_FH_TUERMODUL_CTRL+0xd8>
 2000d30:	98200037 	lui	a1,0x4000
 2000d34:	04c0b423 	sb	zero,45(a1)
 2000d38:	04a29823 	sb	v1,38(a0)
 2000d3c:	98200037 	lui	a1,0x4000
 2000d40:	90200037 	lui	a0,0x4000
 2000d44:	0cc0e123 	sw	zero,184(a1)
 2000d48:	04a29423 	sb	v1,37(a0)
 2000d4c:	94001203 	lbu	a0,4(v0)
 2000d50:	8c001a03 	lbu	v1,6(v0)
 2000d54:	04241423 	sb	a0,5(v0)
 2000d58:	04221c23 	sb	v1,7(v0)
 2000d5c:	004000eb 	ret
 2000d60:	88200037 	lui	v1,0x4000
 2000d64:	8c40b003 	lb	v1,44(v1)
 2000d68:	0c67e063 	beq	v1,a1,2000f58 <t0_taskA_generic_FH_TUERMODUL_CTRL+0x2d0>
 2000d6c:	90200037 	lui	a0,0x4000
 2000d70:	a4809403 	lb	a2,37(a0)
 2000d74:	98000413 	li	a1,1
 2000d78:	0d270863 	beq	a2,a1,2000efc <t0_taskA_generic_FH_TUERMODUL_CTRL+0x274>
 2000d7c:	88200037 	lui	v1,0x4000
 2000d80:	0440b423 	sb	zero,45(v1)
 2000d84:	04a69423 	sb	a1,37(a0)
 2000d88:	8c001a03 	lbu	v1,6(v0)
 2000d8c:	94001203 	lbu	a0,4(v0)
 2000d90:	04221c23 	sb	v1,7(v0)
 2000d94:	04241423 	sb	a0,5(v0)
 2000d98:	004000eb 	ret
 2000d9c:	88200037 	lui	v1,0x4000
 2000da0:	8c418c03 	lb	v1,99(v1)
 2000da4:	04402063 	beqz	v1,2000db4 <t0_taskA_generic_FH_TUERMODUL_CTRL+0x12c>
 2000da8:	88200037 	lui	v1,0x4000
 2000dac:	8c418403 	lb	v1,97(v1)
 2000db0:	14401063 	beqz	v1,2000fb8 <t0_taskA_generic_FH_TUERMODUL_CTRL+0x330>
 2000db4:	90200037 	lui	a0,0x4000
 2000db8:	8c80ac03 	lb	v1,43(a0)
 2000dbc:	98000813 	li	a1,2
 2000dc0:	14675863 	beq	v1,a1,200106c <t0_taskA_generic_FH_TUERMODUL_CTRL+0x3e4>
 2000dc4:	a0000c13 	li	a2,3
 2000dc8:	1468f863 	beq	v1,a2,2001044 <t0_taskA_generic_FH_TUERMODUL_CTRL+0x3bc>
 2000dcc:	98000413 	li	a1,1
 2000dd0:	14665063 	beq	v1,a1,2000ff8 <t0_taskA_generic_FH_TUERMODUL_CTRL+0x370>
 2000dd4:	88200037 	lui	v1,0x4000
 2000dd8:	0440b423 	sb	zero,45(v1)
 2000ddc:	04a8ac23 	sb	a2,43(a0)
 2000de0:	ffffd067 	j	2000d20 <t0_taskA_generic_FH_TUERMODUL_CTRL+0x98>
 2000de4:	88200037 	lui	v1,0x4000
 2000de8:	8c42e103 	lw	v1,184(v1)
 2000dec:	9000ec13 	li	a0,59
 2000df0:	fc6460e3 	bne	v1,a0,2000d20 <t0_taskA_generic_FH_TUERMODUL_CTRL+0x98>
 2000df4:	90200037 	lui	a0,0x4000
 2000df8:	9482c103 	lw	a0,176(a0)
 2000dfc:	fca24863 	beq	a0,v1,2000d20 <t0_taskA_generic_FH_TUERMODUL_CTRL+0x98>
 2000e00:	88200037 	lui	v1,0x4000
 2000e04:	0440b423 	sb	zero,45(v1)
 2000e08:	88200037 	lui	v1,0x4000
 2000e0c:	04ea9c23 	sb	a3,39(a1)
 2000e10:	046a9023 	sb	a3,36(v1)
 2000e14:	ffffc367 	j	2000d20 <t0_taskA_generic_FH_TUERMODUL_CTRL+0x98>
 2000e18:	88200037 	lui	v1,0x4000
 2000e1c:	8c42e103 	lw	v1,184(v1)
 2000e20:	8c40f513 	slt	v1,v1,61
 2000e24:	044098e3 	bnez	v1,2000e70 <t0_taskA_generic_FH_TUERMODUL_CTRL+0x1e8>
 2000e28:	88200037 	lui	v1,0x4000
 2000e2c:	8c42c103 	lw	v1,176(v1)
 2000e30:	8c40f513 	slt	v1,v1,61
 2000e34:	04407863 	beqz	v1,2000e70 <t0_taskA_generic_FH_TUERMODUL_CTRL+0x1e8>
 2000e38:	88200037 	lui	v1,0x4000
 2000e3c:	8c41bc03 	lb	v1,111(v1)
 2000e40:	044060e3 	bnez	v1,2000e70 <t0_taskA_generic_FH_TUERMODUL_CTRL+0x1e8>
 2000e44:	88200037 	lui	v1,0x4000
 2000e48:	8c41c403 	lb	v1,113(v1)
 2000e4c:	044048e3 	bnez	v1,2000e70 <t0_taskA_generic_FH_TUERMODUL_CTRL+0x1e8>
 2000e50:	88200037 	lui	v1,0x4000
 2000e54:	0440b423 	sb	zero,45(v1)
 2000e58:	88200037 	lui	v1,0x4000
 2000e5c:	04416023 	sb	zero,88(v1)
 2000e60:	88200037 	lui	v1,0x4000
 2000e64:	04415423 	sb	zero,85(v1)
 2000e68:	04e49c23 	sb	a0,39(a1)
 2000e6c:	ffffad67 	j	2000d20 <t0_taskA_generic_FH_TUERMODUL_CTRL+0x98>
 2000e70:	88200037 	lui	v1,0x4000
 2000e74:	8c418c03 	lb	v1,99(v1)
 2000e78:	0440a863 	beqz	v1,2000ecc <t0_taskA_generic_FH_TUERMODUL_CTRL+0x244>
 2000e7c:	88200037 	lui	v1,0x4000
 2000e80:	8c418403 	lb	v1,97(v1)
 2000e84:	044090e3 	bnez	v1,2000ecc <t0_taskA_generic_FH_TUERMODUL_CTRL+0x244>
 2000e88:	88200037 	lui	v1,0x4000
 2000e8c:	8c415803 	lb	v1,86(v1)
 2000e90:	1441d863 	beqz	v1,200117c <t0_taskA_generic_FH_TUERMODUL_CTRL+0x4f4>
 2000e94:	88200037 	lui	v1,0x4000
 2000e98:	9440c103 	lw	a0,48(v1)
 2000e9c:	88200037 	lui	v1,0x4000
 2000ea0:	0440b423 	sb	zero,45(v1)
 2000ea4:	88200037 	lui	v1,0x4000
 2000ea8:	04415423 	sb	zero,85(v1)
 2000eac:	88200037 	lui	v1,0x4000
 2000eb0:	0c651123 	sw	a0,196(v1)
 2000eb4:	88000813 	li	v1,2
 2000eb8:	04e29c23 	sb	v1,39(a1)
 2000ebc:	90000c13 	li	a0,3
 2000ec0:	88200037 	lui	v1,0x4000
 2000ec4:	0464ac23 	sb	a0,43(v1)
 2000ec8:	ffff9667 	j	2000d20 <t0_taskA_generic_FH_TUERMODUL_CTRL+0x98>
 2000ecc:	90200037 	lui	a0,0x4000
 2000ed0:	8c809003 	lb	v1,36(a0)
 2000ed4:	98000813 	li	a1,2
 2000ed8:	14662063 	beq	v1,a1,20010e8 <t0_taskA_generic_FH_TUERMODUL_CTRL+0x460>
 2000edc:	a0000c13 	li	a2,3
 2000ee0:	0c696863 	beq	v1,a2,2001094 <t0_taskA_generic_FH_TUERMODUL_CTRL+0x40c>
 2000ee4:	a8000413 	li	a3,1
 2000ee8:	0c6a6863 	beq	v1,a3,200101c <t0_taskA_generic_FH_TUERMODUL_CTRL+0x394>
 2000eec:	88200037 	lui	v1,0x4000
 2000ef0:	0440b423 	sb	zero,45(v1)
 2000ef4:	04a89023 	sb	a2,36(a0)
 2000ef8:	ffff8a67 	j	2000d20 <t0_taskA_generic_FH_TUERMODUL_CTRL+0x98>
 2000efc:	f468a0e3 	bne	v1,a2,2000d4c <t0_taskA_generic_FH_TUERMODUL_CTRL+0xc4>
 2000f00:	98200037 	lui	a1,0x4000
 2000f04:	9cc32103 	lw	a1,200(a1)
 2000f08:	f4c08863 	beqz	a1,2000d4c <t0_taskA_generic_FH_TUERMODUL_CTRL+0xc4>
 2000f0c:	a0200037 	lui	a2,0x4000
 2000f10:	a500c103 	lw	a2,48(a2)
 2000f14:	a53ff413 	add	a2,a2,-3
 2000f18:	f4e868e3 	bne	a1,a2,2000d4c <t0_taskA_generic_FH_TUERMODUL_CTRL+0xc4>
 2000f1c:	98200037 	lui	a1,0x4000
 2000f20:	9cc16403 	lb	a1,89(a1)
 2000f24:	f4c050e3 	bnez	a1,2000d4c <t0_taskA_generic_FH_TUERMODUL_CTRL+0xc4>
 2000f28:	98200037 	lui	a1,0x4000
 2000f2c:	9cc15803 	lb	a1,86(a1)
 2000f30:	f4c038e3 	bnez	a1,2000d4c <t0_taskA_generic_FH_TUERMODUL_CTRL+0xc4>
 2000f34:	98200037 	lui	a1,0x4000
 2000f38:	a4c2e103 	lw	a2,184(a1)
 2000f3c:	f02822e3 	blez	a2,2000d4c <t0_taskA_generic_FH_TUERMODUL_CTRL+0xc4>
 2000f40:	a53ffc13 	add	a2,a2,-1
 2000f44:	a8200037 	lui	a3,0x4000
 2000f48:	0540b423 	sb	zero,45(a3)
 2000f4c:	0ce8e123 	sw	a2,184(a1)
 2000f50:	04a29423 	sb	v1,37(a0)
 2000f54:	ffff7e67 	j	2000d4c <t0_taskA_generic_FH_TUERMODUL_CTRL+0xc4>
 2000f58:	98200037 	lui	a1,0x4000
 2000f5c:	9cc33103 	lw	a1,204(a1)
 2000f60:	f4c01863 	beqz	a1,2000d6c <t0_taskA_generic_FH_TUERMODUL_CTRL+0xe4>
 2000f64:	a0200037 	lui	a2,0x4000
 2000f68:	a500c103 	lw	a2,48(a2)
 2000f6c:	9d270033 	sub	a1,a2,a1
 2000f70:	ece3f8e3 	bne	a1,v1,2000d6c <t0_taskA_generic_FH_TUERMODUL_CTRL+0xe4>
 2000f74:	98200037 	lui	a1,0x4000
 2000f78:	9cc16403 	lb	a1,89(a1)
 2000f7c:	04c020e3 	bnez	a1,2000f8c <t0_taskA_generic_FH_TUERMODUL_CTRL+0x304>
 2000f80:	98200037 	lui	a1,0x4000
 2000f84:	9cc15803 	lb	a1,86(a1)
 2000f88:	ecc1c863 	beqz	a1,2000d6c <t0_taskA_generic_FH_TUERMODUL_CTRL+0xe4>
 2000f8c:	98200037 	lui	a1,0x4000
 2000f90:	a4c2e103 	lw	a2,184(a1)
 2000f94:	88000413 	li	v1,1
 2000f98:	a8200037 	lui	a3,0x4000
 2000f9c:	a5000413 	add	a2,a2,1
 2000fa0:	04a29823 	sb	v1,38(a0)
 2000fa4:	90200037 	lui	a0,0x4000
 2000fa8:	0540b423 	sb	zero,45(a3)
 2000fac:	0ce8e123 	sw	a2,184(a1)
 2000fb0:	04a29423 	sb	v1,37(a0)
 2000fb4:	ffff6667 	j	2000d4c <t0_taskA_generic_FH_TUERMODUL_CTRL+0xc4>
 2000fb8:	88200037 	lui	v1,0x4000
 2000fbc:	8c416403 	lb	v1,89(v1)
 2000fc0:	ec41e863 	beqz	v1,2000db4 <t0_taskA_generic_FH_TUERMODUL_CTRL+0x12c>
 2000fc4:	88200037 	lui	v1,0x4000
 2000fc8:	a440c103 	lw	a2,48(v1)
 2000fcc:	90200037 	lui	a0,0x4000
 2000fd0:	0480b423 	sb	zero,45(a0)
 2000fd4:	90200037 	lui	a0,0x4000
 2000fd8:	04816023 	sb	zero,88(a0)
 2000fdc:	90200037 	lui	a0,0x4000
 2000fe0:	88000c13 	li	v1,3
 2000fe4:	0ca8f123 	sw	a2,188(a0)
 2000fe8:	90200037 	lui	a0,0x4000
 2000fec:	04e29c23 	sb	v1,39(a1)
 2000ff0:	04a29023 	sb	v1,36(a0)
 2000ff4:	ffff4b67 	j	2000d20 <t0_taskA_generic_FH_TUERMODUL_CTRL+0x98>
 2000ff8:	88200037 	lui	v1,0x4000
 2000ffc:	8c417c03 	lb	v1,95(v1)
 2001000:	ec4040e3 	bnez	v1,2000d20 <t0_taskA_generic_FH_TUERMODUL_CTRL+0x98>
 2001004:	88200037 	lui	v1,0x4000
 2001008:	0440b423 	sb	zero,45(v1)
 200100c:	88200037 	lui	v1,0x4000
 2001010:	04416023 	sb	zero,88(v1)
 2001014:	04a8ac23 	sb	a2,43(a0)
 2001018:	ffff4267 	j	2000d20 <t0_taskA_generic_FH_TUERMODUL_CTRL+0x98>
 200101c:	a8200037 	lui	a3,0x4000
 2001020:	ad429103 	lw	a3,164(a3)
 2001024:	ad465513 	slt	a3,a3,405
 2001028:	0d4158e3 	bnez	a3,20011d4 <t0_taskA_generic_FH_TUERMODUL_CTRL+0x54c>
 200102c:	88200037 	lui	v1,0x4000
 2001030:	0440b423 	sb	zero,45(v1)
 2001034:	88200037 	lui	v1,0x4000
 2001038:	04415423 	sb	zero,85(v1)
 200103c:	04a89023 	sb	a2,36(a0)
 2001040:	ffff3867 	j	2000d20 <t0_taskA_generic_FH_TUERMODUL_CTRL+0x98>
 2001044:	88200037 	lui	v1,0x4000
 2001048:	8c417003 	lb	v1,92(v1)
 200104c:	0c40c063 	beqz	v1,20011ac <t0_taskA_generic_FH_TUERMODUL_CTRL+0x524>
 2001050:	88200037 	lui	v1,0x4000
 2001054:	0440b423 	sb	zero,45(v1)
 2001058:	a0000413 	li	a2,1
 200105c:	88200037 	lui	v1,0x4000
 2001060:	04695423 	sb	a2,85(v1)
 2001064:	04a6ac23 	sb	a1,43(a0)
 2001068:	ffff2e67 	j	2000d20 <t0_taskA_generic_FH_TUERMODUL_CTRL+0x98>
 200106c:	88200037 	lui	v1,0x4000
 2001070:	8c417003 	lb	v1,92(v1)
 2001074:	e44158e3 	bnez	v1,2000d20 <t0_taskA_generic_FH_TUERMODUL_CTRL+0x98>
 2001078:	88200037 	lui	v1,0x4000
 200107c:	0440b423 	sb	zero,45(v1)
 2001080:	88200037 	lui	v1,0x4000
 2001084:	04415423 	sb	zero,85(v1)
 2001088:	88000c13 	li	v1,3
 200108c:	04a2ac23 	sb	v1,43(a0)
 2001090:	ffff2467 	j	2000d20 <t0_taskA_generic_FH_TUERMODUL_CTRL+0x98>
 2001094:	88200037 	lui	v1,0x4000
 2001098:	8c417c03 	lb	v1,95(v1)
 200109c:	04412063 	beqz	v1,200112c <t0_taskA_generic_FH_TUERMODUL_CTRL+0x4a4>
 20010a0:	88200037 	lui	v1,0x4000
 20010a4:	8c417403 	lb	v1,93(v1)
 20010a8:	044108e3 	bnez	v1,200112c <t0_taskA_generic_FH_TUERMODUL_CTRL+0x4a4>
 20010ac:	88200037 	lui	v1,0x4000
 20010b0:	8c429103 	lw	v1,164(v1)
 20010b4:	0022f2e3 	blez	v1,200112c <t0_taskA_generic_FH_TUERMODUL_CTRL+0x4a4>
 20010b8:	04a69023 	sb	a1,36(a0)
 20010bc:	90200037 	lui	a0,0x4000
 20010c0:	04a68023 	sb	a1,32(a0)
 20010c4:	90200037 	lui	a0,0x4000
 20010c8:	88000413 	li	v1,1
 20010cc:	a0200037 	lui	a2,0x4000
 20010d0:	04a68823 	sb	a1,34(a0)
 20010d4:	90200037 	lui	a0,0x4000
 20010d8:	0500b423 	sb	zero,45(a2)
 20010dc:	04224423 	sb	v1,17(v0)
 20010e0:	04a36023 	sb	v1,88(a0)
 20010e4:	ffff0f67 	j	2000d20 <t0_taskA_generic_FH_TUERMODUL_CTRL+0x98>
 20010e8:	98200037 	lui	a1,0x4000
 20010ec:	9cc29103 	lw	a1,164(a1)
 20010f0:	08260ae3 	blez	a1,20011f4 <t0_taskA_generic_FH_TUERMODUL_CTRL+0x56c>
 20010f4:	a8200037 	lui	a3,0x4000
 20010f8:	9d408003 	lb	a1,32(a3)
 20010fc:	a0000413 	li	a2,1
 2001100:	0ce8b863 	beq	a1,a2,200125c <t0_taskA_generic_FH_TUERMODUL_CTRL+0x5d4>
 2001104:	0ce21863 	beq	a1,v1,2001210 <t0_taskA_generic_FH_TUERMODUL_CTRL+0x588>
 2001108:	90200037 	lui	a0,0x4000
 200110c:	0480b423 	sb	zero,45(a0)
 2001110:	90200037 	lui	a0,0x4000
 2001114:	05628023 	sb	v1,32(a3)
 2001118:	04a28823 	sb	v1,34(a0)
 200111c:	88200037 	lui	v1,0x4000
 2001120:	04284423 	sb	a2,17(v0)
 2001124:	04696023 	sb	a2,88(v1)
 2001128:	fffefe67 	j	2000d20 <t0_taskA_generic_FH_TUERMODUL_CTRL+0x98>
 200112c:	88200037 	lui	v1,0x4000
 2001130:	8c417003 	lb	v1,92(v1)
 2001134:	dc41d863 	beqz	v1,2000d20 <t0_taskA_generic_FH_TUERMODUL_CTRL+0x98>
 2001138:	88200037 	lui	v1,0x4000
 200113c:	8c416803 	lb	v1,90(v1)
 2001140:	dc41c0e3 	bnez	v1,2000d20 <t0_taskA_generic_FH_TUERMODUL_CTRL+0x98>
 2001144:	88200037 	lui	v1,0x4000
 2001148:	8c429103 	lw	v1,164(v1)
 200114c:	8c465513 	slt	v1,v1,405
 2001150:	dc41a063 	beqz	v1,2000d20 <t0_taskA_generic_FH_TUERMODUL_CTRL+0x98>
 2001154:	98200037 	lui	a1,0x4000
 2001158:	88000413 	li	v1,1
 200115c:	04c0b423 	sb	zero,45(a1)
 2001160:	98200037 	lui	a1,0x4000
 2001164:	04a29023 	sb	v1,36(a0)
 2001168:	04e35423 	sb	v1,85(a1)
 200116c:	90000813 	li	a0,2
 2001170:	88200037 	lui	v1,0x4000
 2001174:	04648423 	sb	a0,33(v1)
 2001178:	fffeea67 	j	2000d20 <t0_taskA_generic_FH_TUERMODUL_CTRL+0x98>
 200117c:	88200037 	lui	v1,0x4000
 2001180:	8c416403 	lb	v1,89(v1)
 2001184:	ec409063 	beqz	v1,2000ecc <t0_taskA_generic_FH_TUERMODUL_CTRL+0x244>
 2001188:	88200037 	lui	v1,0x4000
 200118c:	9440c103 	lw	a0,48(v1)
 2001190:	88200037 	lui	v1,0x4000
 2001194:	0440b423 	sb	zero,45(v1)
 2001198:	88200037 	lui	v1,0x4000
 200119c:	04416023 	sb	zero,88(v1)
 20011a0:	88200037 	lui	v1,0x4000
 20011a4:	0c650123 	sw	a0,192(v1)
 20011a8:	ffff4367 	j	2000eb4 <t0_taskA_generic_FH_TUERMODUL_CTRL+0x22c>
 20011ac:	88200037 	lui	v1,0x4000
 20011b0:	8c417c03 	lb	v1,95(v1)
 20011b4:	dc40d863 	beqz	v1,2000d20 <t0_taskA_generic_FH_TUERMODUL_CTRL+0x98>
 20011b8:	98200037 	lui	a1,0x4000
 20011bc:	88000413 	li	v1,1
 20011c0:	04c0b423 	sb	zero,45(a1)
 20011c4:	98200037 	lui	a1,0x4000
 20011c8:	04e36023 	sb	v1,88(a1)
 20011cc:	04a2ac23 	sb	v1,43(a0)
 20011d0:	fffed467 	j	2000d20 <t0_taskA_generic_FH_TUERMODUL_CTRL+0x98>
 20011d4:	a8200037 	lui	a3,0x4000
 20011d8:	a5408403 	lb	a2,33(a3)
 20011dc:	0d220863 	beq	a2,v1,20012e0 <t0_taskA_generic_FH_TUERMODUL_CTRL+0x658>
 20011e0:	0527b063 	beq	a2,a1,20012b8 <t0_taskA_generic_FH_TUERMODUL_CTRL+0x630>
 20011e4:	88200037 	lui	v1,0x4000
 20011e8:	0440b423 	sb	zero,45(v1)
 20011ec:	05668423 	sb	a1,33(a3)
 20011f0:	fffecc67 	j	2000d20 <t0_taskA_generic_FH_TUERMODUL_CTRL+0x98>
 20011f4:	88200037 	lui	v1,0x4000
 20011f8:	0440b423 	sb	zero,45(v1)
 20011fc:	88200037 	lui	v1,0x4000
 2001200:	04416023 	sb	zero,88(v1)
 2001204:	88000c13 	li	v1,3
 2001208:	04a29023 	sb	v1,36(a0)
 200120c:	fffec567 	j	2000d20 <t0_taskA_generic_FH_TUERMODUL_CTRL+0x98>
 2001210:	88200037 	lui	v1,0x4000
 2001214:	8c417c03 	lb	v1,95(v1)
 2001218:	044020e3 	bnez	v1,2001228 <t0_taskA_generic_FH_TUERMODUL_CTRL+0x5a0>
 200121c:	88200037 	lui	v1,0x4000
 2001220:	8c417403 	lb	v1,93(v1)
 2001224:	fc41a0e3 	bnez	v1,20011f4 <t0_taskA_generic_FH_TUERMODUL_CTRL+0x56c>
 2001228:	98200037 	lui	a1,0x4000
 200122c:	94c08803 	lb	a0,34(a1)
 2001230:	88000413 	li	v1,1
 2001234:	0ca2c863 	beq	a0,v1,2001398 <t0_taskA_generic_FH_TUERMODUL_CTRL+0x710>
 2001238:	a0000813 	li	a2,2
 200123c:	0ca82863 	beq	a0,a2,2001350 <t0_taskA_generic_FH_TUERMODUL_CTRL+0x6c8>
 2001240:	90200037 	lui	a0,0x4000
 2001244:	0480b423 	sb	zero,45(a0)
 2001248:	90200037 	lui	a0,0x4000
 200124c:	04e88823 	sb	a2,34(a1)
 2001250:	04224423 	sb	v1,17(v0)
 2001254:	04a36023 	sb	v1,88(a0)
 2001258:	fffeb267 	j	2000d20 <t0_taskA_generic_FH_TUERMODUL_CTRL+0x98>
 200125c:	88200037 	lui	v1,0x4000
 2001260:	8c417003 	lb	v1,92(v1)
 2001264:	04402063 	beqz	v1,2001274 <t0_taskA_generic_FH_TUERMODUL_CTRL+0x5ec>
 2001268:	88200037 	lui	v1,0x4000
 200126c:	8c416803 	lb	v1,90(v1)
 2001270:	fc410863 	beqz	v1,20011f4 <t0_taskA_generic_FH_TUERMODUL_CTRL+0x56c>
 2001274:	88200037 	lui	v1,0x4000
 2001278:	8c417c03 	lb	v1,95(v1)
 200127c:	04402063 	beqz	v1,200128c <t0_taskA_generic_FH_TUERMODUL_CTRL+0x604>
 2001280:	88200037 	lui	v1,0x4000
 2001284:	8c417403 	lb	v1,93(v1)
 2001288:	fc40d863 	beqz	v1,20011f4 <t0_taskA_generic_FH_TUERMODUL_CTRL+0x56c>
 200128c:	98200037 	lui	a1,0x4000
 2001290:	94c08c03 	lb	a0,35(a1)
 2001294:	88000413 	li	v1,1
 2001298:	0ca30863 	beq	a0,v1,200141c <t0_taskA_generic_FH_TUERMODUL_CTRL+0x794>
 200129c:	a0000813 	li	a2,2
 20012a0:	0ca86863 	beq	a0,a2,20013d4 <t0_taskA_generic_FH_TUERMODUL_CTRL+0x74c>
 20012a4:	90200037 	lui	a0,0x4000
 20012a8:	0480b423 	sb	zero,45(a0)
 20012ac:	04e88c23 	sb	a2,35(a1)
 20012b0:	04224423 	sb	v1,17(v0)
 20012b4:	fffe9b67 	j	2000d20 <t0_taskA_generic_FH_TUERMODUL_CTRL+0x98>
 20012b8:	98200037 	lui	a1,0x4000
 20012bc:	9cc17c03 	lb	a1,95(a1)
 20012c0:	04c0b063 	beqz	a1,2001318 <t0_taskA_generic_FH_TUERMODUL_CTRL+0x690>
 20012c4:	98200037 	lui	a1,0x4000
 20012c8:	9cc17403 	lb	a1,93(a1)
 20012cc:	04c098e3 	bnez	a1,2001318 <t0_taskA_generic_FH_TUERMODUL_CTRL+0x690>
 20012d0:	90200037 	lui	a0,0x4000
 20012d4:	0480b423 	sb	zero,45(a0)
 20012d8:	05628423 	sb	v1,33(a3)
 20012dc:	fffe9167 	j	2000d20 <t0_taskA_generic_FH_TUERMODUL_CTRL+0x98>
 20012e0:	88200037 	lui	v1,0x4000
 20012e4:	8c417c03 	lb	v1,95(v1)
 20012e8:	04409863 	beqz	v1,2001334 <t0_taskA_generic_FH_TUERMODUL_CTRL+0x6ac>
 20012ec:	88200037 	lui	v1,0x4000
 20012f0:	8c417403 	lb	v1,93(v1)
 20012f4:	044080e3 	bnez	v1,2001334 <t0_taskA_generic_FH_TUERMODUL_CTRL+0x6ac>
 20012f8:	88200037 	lui	v1,0x4000
 20012fc:	0440b423 	sb	zero,45(v1)
 2001300:	88200037 	lui	v1,0x4000
 2001304:	04415423 	sb	zero,85(v1)
 2001308:	88000c13 	li	v1,3
 200130c:	04a29023 	sb	v1,36(a0)
 2001310:	05408423 	sb	zero,33(a3)
 2001314:	fffe8367 	j	2000d20 <t0_taskA_generic_FH_TUERMODUL_CTRL+0x98>
 2001318:	88200037 	lui	v1,0x4000
 200131c:	8c417003 	lb	v1,92(v1)
 2001320:	d44000e3 	bnez	v1,2000d20 <t0_taskA_generic_FH_TUERMODUL_CTRL+0x98>
 2001324:	88200037 	lui	v1,0x4000
 2001328:	8c416803 	lb	v1,90(v1)
 200132c:	cc41e863 	beqz	v1,2000d20 <t0_taskA_generic_FH_TUERMODUL_CTRL+0x98>
 2001330:	fffff267 	j	20012f8 <t0_taskA_generic_FH_TUERMODUL_CTRL+0x670>
 2001334:	88200037 	lui	v1,0x4000
 2001338:	8c417003 	lb	v1,92(v1)
 200133c:	cc41c863 	beqz	v1,2000d20 <t0_taskA_generic_FH_TUERMODUL_CTRL+0x98>
 2001340:	88200037 	lui	v1,0x4000
 2001344:	8c416803 	lb	v1,90(v1)
 2001348:	cc41b0e3 	bnez	v1,2000d20 <t0_taskA_generic_FH_TUERMODUL_CTRL+0x98>
 200134c:	ffffeb67 	j	20012f8 <t0_taskA_generic_FH_TUERMODUL_CTRL+0x670>
 2001350:	94006003 	lb	a0,24(v0)
 2001354:	0c800863 	beqz	a0,2001458 <t0_taskA_generic_FH_TUERMODUL_CTRL+0x7d0>
 2001358:	90200037 	lui	a0,0x4000
 200135c:	a480c103 	lw	a2,48(a0)
 2001360:	90200037 	lui	a0,0x4000
 2001364:	0480b423 	sb	zero,45(a0)
 2001368:	90200037 	lui	a0,0x4000
 200136c:	04816023 	sb	zero,88(a0)
 2001370:	90200037 	lui	a0,0x4000
 2001374:	04a3b823 	sb	v1,110(a0)
 2001378:	90200037 	lui	a0,0x4000
 200137c:	0ca8a123 	sw	a2,168(a0)
 2001380:	90200037 	lui	a0,0x4000
 2001384:	04225c23 	sb	v1,23(v0)
 2001388:	04e28823 	sb	v1,34(a1)
 200138c:	04004423 	sb	zero,17(v0)
 2001390:	04a35423 	sb	v1,85(a0)
 2001394:	fffe6367 	j	2000d20 <t0_taskA_generic_FH_TUERMODUL_CTRL+0x98>
 2001398:	8c005803 	lb	v1,22(v0)
 200139c:	04005c23 	sb	zero,23(v0)
 20013a0:	cc410063 	beqz	v1,2000d20 <t0_taskA_generic_FH_TUERMODUL_CTRL+0x98>
 20013a4:	88200037 	lui	v1,0x4000
 20013a8:	0440b423 	sb	zero,45(v1)
 20013ac:	88200037 	lui	v1,0x4000
 20013b0:	0441b823 	sb	zero,110(v1)
 20013b4:	88000813 	li	v1,2
 20013b8:	04e28823 	sb	v1,34(a1)
 20013bc:	88200037 	lui	v1,0x4000
 20013c0:	04415423 	sb	zero,85(v1)
 20013c4:	88200037 	lui	v1,0x4000
 20013c8:	04244423 	sb	a0,17(v0)
 20013cc:	04656023 	sb	a0,88(v1)
 20013d0:	fffe5467 	j	2000d20 <t0_taskA_generic_FH_TUERMODUL_CTRL+0x98>
 20013d4:	94006003 	lb	a0,24(v0)
 20013d8:	cc809063 	beqz	a0,2000d20 <t0_taskA_generic_FH_TUERMODUL_CTRL+0x98>
 20013dc:	90200037 	lui	a0,0x4000
 20013e0:	a480c103 	lw	a2,48(a0)
 20013e4:	90200037 	lui	a0,0x4000
 20013e8:	0480b423 	sb	zero,45(a0)
 20013ec:	90200037 	lui	a0,0x4000
 20013f0:	04a3c023 	sb	v1,112(a0)
 20013f4:	90200037 	lui	a0,0x4000
 20013f8:	04816023 	sb	zero,88(a0)
 20013fc:	90200037 	lui	a0,0x4000
 2001400:	0ca8b123 	sw	a2,172(a0)
 2001404:	90200037 	lui	a0,0x4000
 2001408:	04225c23 	sb	v1,23(v0)
 200140c:	04e28c23 	sb	v1,35(a1)
 2001410:	04004423 	sb	zero,17(v0)
 2001414:	04a35423 	sb	v1,85(a0)
 2001418:	fffe4267 	j	2000d20 <t0_taskA_generic_FH_TUERMODUL_CTRL+0x98>
 200141c:	8c005803 	lb	v1,22(v0)
 2001420:	04005c23 	sb	zero,23(v0)
 2001424:	c441f863 	beqz	v1,2000d20 <t0_taskA_generic_FH_TUERMODUL_CTRL+0x98>
 2001428:	88200037 	lui	v1,0x4000
 200142c:	0440b423 	sb	zero,45(v1)
 2001430:	88200037 	lui	v1,0x4000
 2001434:	04656023 	sb	a0,88(v1)
 2001438:	88200037 	lui	v1,0x4000
 200143c:	0441c023 	sb	zero,112(v1)
 2001440:	88000813 	li	v1,2
 2001444:	04e28c23 	sb	v1,35(a1)
 2001448:	88200037 	lui	v1,0x4000
 200144c:	04415423 	sb	zero,85(v1)
 2001450:	04244423 	sb	a0,17(v0)
 2001454:	fffe3367 	j	2000d20 <t0_taskA_generic_FH_TUERMODUL_CTRL+0x98>
 2001458:	90200037 	lui	a0,0x4000
 200145c:	94817003 	lb	a0,92(a0)
 2001460:	c4818063 	beqz	a0,2000d20 <t0_taskA_generic_FH_TUERMODUL_CTRL+0x98>
 2001464:	90200037 	lui	a0,0x4000
 2001468:	94816803 	lb	a0,90(a0)
 200146c:	c48168e3 	bnez	a0,2000d20 <t0_taskA_generic_FH_TUERMODUL_CTRL+0x98>
 2001470:	90200037 	lui	a0,0x4000
 2001474:	0480b423 	sb	zero,45(a0)
 2001478:	05628023 	sb	v1,32(a3)
 200147c:	04c08823 	sb	zero,34(a1)
 2001480:	fffe2867 	j	2000d20 <t0_taskA_generic_FH_TUERMODUL_CTRL+0x98>

02001484 <t0_taskA_generic_EINKLEMMSCHUTZ_CTRL>:
 2001484:	80200037 	lui	v0,0x4000
 2001488:	84035013 	add	v0,v0,212
 200148c:	8c004003 	lb	v1,16(v0)
 2001490:	04405063 	beqz	v1,20014b8 <t0_taskA_generic_EINKLEMMSCHUTZ_CTRL+0x34>
 2001494:	90200037 	lui	a0,0x4000
 2001498:	8c807803 	lb	v1,30(a0)
 200149c:	98000413 	li	a1,1
 20014a0:	04663863 	beq	v1,a1,20014bc <t0_taskA_generic_EINKLEMMSCHUTZ_CTRL+0x38>
 20014a4:	a0000813 	li	a2,2
 20014a8:	0468c063 	beq	v1,a2,2001508 <t0_taskA_generic_EINKLEMMSCHUTZ_CTRL+0x84>
 20014ac:	80200037 	lui	v0,0x4000
 20014b0:	0400b423 	sb	zero,45(v0)
 20014b4:	04a67823 	sb	a1,30(a0)
 20014b8:	004000eb 	ret
 20014bc:	88200037 	lui	v1,0x4000
 20014c0:	8c414c03 	lb	v1,83(v1)
 20014c4:	fc41e863 	beqz	v1,20014b8 <t0_taskA_generic_EINKLEMMSCHUTZ_CTRL+0x34>
 20014c8:	88200037 	lui	v1,0x4000
 20014cc:	8c414803 	lb	v1,82(v1)
 20014d0:	fc41d0e3 	bnez	v1,20014b8 <t0_taskA_generic_EINKLEMMSCHUTZ_CTRL+0x34>
 20014d4:	88200037 	lui	v1,0x4000
 20014d8:	8c417c03 	lb	v1,95(v1)
 20014dc:	04402063 	beqz	v1,20014ec <t0_taskA_generic_EINKLEMMSCHUTZ_CTRL+0x68>
 20014e0:	88200037 	lui	v1,0x4000
 20014e4:	8c417003 	lb	v1,92(v1)
 20014e8:	fc41a0e3 	bnez	v1,20014b8 <t0_taskA_generic_EINKLEMMSCHUTZ_CTRL+0x34>
 20014ec:	88200037 	lui	v1,0x4000
 20014f0:	0440b423 	sb	zero,45(v1)
 20014f4:	88000413 	li	v1,1
 20014f8:	04226023 	sb	v1,24(v0)
 20014fc:	80000813 	li	v0,2
 2001500:	04a07823 	sb	v0,30(a0)
 2001504:	004000eb 	ret
 2001508:	88200037 	lui	v1,0x4000
 200150c:	8c414c03 	lb	v1,83(v1)
 2001510:	04006023 	sb	zero,24(v0)
 2001514:	fc4148e3 	bnez	v1,20014b8 <t0_taskA_generic_EINKLEMMSCHUTZ_CTRL+0x34>
 2001518:	80200037 	lui	v0,0x4000
 200151c:	84014803 	lb	v0,82(v0)
 2001520:	fc013063 	beqz	v0,20014b8 <t0_taskA_generic_EINKLEMMSCHUTZ_CTRL+0x34>
 2001524:	80200037 	lui	v0,0x4000
 2001528:	0400b423 	sb	zero,45(v0)
 200152c:	04a67823 	sb	a1,30(a0)
 2001530:	004000eb 	ret

02001534 <t0_taskA_generic_BLOCK_ERKENNUNG_CTRL>:
 2001534:	88200037 	lui	v1,0x4000
 2001538:	84435013 	add	v0,v1,212
 200153c:	94004c03 	lb	a0,19(v0)
 2001540:	048038e3 	bnez	a0,200155c <t0_taskA_generic_BLOCK_ERKENNUNG_CTRL+0x28>
 2001544:	94005403 	lb	a0,21(v0)
 2001548:	04807063 	beqz	a0,2001580 <t0_taskA_generic_BLOCK_ERKENNUNG_CTRL+0x4c>
 200154c:	84005003 	lb	v0,20(v0)
 2001550:	040060e3 	bnez	v0,2001580 <t0_taskA_generic_BLOCK_ERKENNUNG_CTRL+0x4c>
 2001554:	0c415023 	sb	zero,212(v1)
 2001558:	004000eb 	ret
 200155c:	90200037 	lui	a0,0x4000
 2001560:	84807003 	lb	v0,28(a0)
 2001564:	98000413 	li	a1,1
 2001568:	04263863 	beq	v0,a1,2001584 <t0_taskA_generic_BLOCK_ERKENNUNG_CTRL+0x50>
 200156c:	a0000813 	li	a2,2
 2001570:	0428d863 	beq	v0,a2,20015dc <t0_taskA_generic_BLOCK_ERKENNUNG_CTRL+0xa8>
 2001574:	80200037 	lui	v0,0x4000
 2001578:	0400b423 	sb	zero,45(v0)
 200157c:	04a67023 	sb	a1,28(a0)
 2001580:	004000eb 	ret
 2001584:	98200037 	lui	a1,0x4000
 2001588:	a0200037 	lui	a2,0x4000
 200158c:	9cc28103 	lw	a1,160(a1)
 2001590:	a5027103 	lw	a2,156(a2)
 2001594:	fce9d863 	beq	a1,a2,2001580 <t0_taskA_generic_BLOCK_ERKENNUNG_CTRL+0x4c>
 2001598:	f827d2e3 	blez	a1,2001580 <t0_taskA_generic_BLOCK_ERKENNUNG_CTRL+0x4c>
 200159c:	98200037 	lui	a1,0x4000
 20015a0:	04c0b423 	sb	zero,45(a1)
 20015a4:	98200037 	lui	a1,0x4000
 20015a8:	04c18823 	sb	zero,98(a1)
 20015ac:	98000813 	li	a1,2
 20015b0:	04a67023 	sb	a1,28(a0)
 20015b4:	90200037 	lui	a0,0x4000
 20015b8:	98000813 	li	a1,2
 20015bc:	0481f123 	sw	zero,124(a0)
 20015c0:	90200037 	lui	a0,0x4000
 20015c4:	0ca61123 	sw	a1,132(a0)
 20015c8:	98000c13 	li	a1,3
 20015cc:	90200037 	lui	a0,0x4000
 20015d0:	04a67423 	sb	a1,29(a0)
 20015d4:	0c615023 	sb	v0,212(v1)
 20015d8:	004000eb 	ret
 20015dc:	80200037 	lui	v0,0x4000
 20015e0:	84015803 	lb	v0,86(v0)
 20015e4:	0400c063 	beqz	v0,2001644 <t0_taskA_generic_BLOCK_ERKENNUNG_CTRL+0x110>
 20015e8:	80200037 	lui	v0,0x4000
 20015ec:	84016403 	lb	v0,89(v0)
 20015f0:	040020e3 	bnez	v0,2001600 <t0_taskA_generic_BLOCK_ERKENNUNG_CTRL+0xcc>
 20015f4:	80200037 	lui	v0,0x4000
 20015f8:	84015c03 	lb	v0,87(v0)
 20015fc:	0400a8e3 	bnez	v0,2001650 <t0_taskA_generic_BLOCK_ERKENNUNG_CTRL+0x11c>
 2001600:	90200037 	lui	a0,0x4000
 2001604:	84807403 	lb	v0,29(a0)
 2001608:	98000813 	li	a1,2
 200160c:	0427b063 	beq	v0,a1,20016e4 <t0_taskA_generic_BLOCK_ERKENNUNG_CTRL+0x1b0>
 2001610:	a0000c13 	li	a2,3
 2001614:	0428b863 	beq	v0,a2,2001670 <t0_taskA_generic_BLOCK_ERKENNUNG_CTRL+0x13c>
 2001618:	a8000413 	li	a3,1
 200161c:	042aa063 	beq	v0,a3,200166c <t0_taskA_generic_BLOCK_ERKENNUNG_CTRL+0x138>
 2001620:	80200037 	lui	v0,0x4000
 2001624:	0400b423 	sb	zero,45(v0)
 2001628:	80200037 	lui	v0,0x4000
 200162c:	0401f123 	sw	zero,124(v0)
 2001630:	80200037 	lui	v0,0x4000
 2001634:	0c261123 	sw	a1,132(v0)
 2001638:	04a87423 	sb	a2,29(a0)
 200163c:	0c6b5023 	sb	a3,212(v1)
 2001640:	004000eb 	ret
 2001644:	80200037 	lui	v0,0x4000
 2001648:	84015003 	lb	v0,84(v0)
 200164c:	fc013863 	beqz	v0,20015e8 <t0_taskA_generic_BLOCK_ERKENNUNG_CTRL+0xb4>
 2001650:	80200037 	lui	v0,0x4000
 2001654:	0400b423 	sb	zero,45(v0)
 2001658:	80000413 	li	v0,1
 200165c:	04a07023 	sb	v0,28(a0)
 2001660:	80200037 	lui	v0,0x4000
 2001664:	04007423 	sb	zero,29(v0)
 2001668:	004000eb 	ret
 200166c:	004000eb 	ret
 2001670:	a0200037 	lui	a2,0x4000
 2001674:	8501f103 	lw	v0,124(a2)
 2001678:	0c415023 	sb	zero,212(v1)
 200167c:	88002c13 	li	v1,11
 2001680:	04233063 	beq	v0,v1,2001718 <t0_taskA_generic_BLOCK_ERKENNUNG_CTRL+0x1e4>
 2001684:	88200037 	lui	v1,0x4000
 2001688:	9440b003 	lb	a0,44(v1)
 200168c:	88000413 	li	v1,1
 2001690:	f4a3e0e3 	bne	a0,v1,2001580 <t0_taskA_generic_BLOCK_ERKENNUNG_CTRL+0x4c>
 2001694:	88200037 	lui	v1,0x4000
 2001698:	8c434103 	lw	v1,208(v1)
 200169c:	f441c863 	beqz	v1,2001580 <t0_taskA_generic_BLOCK_ERKENNUNG_CTRL+0x4c>
 20016a0:	90200037 	lui	a0,0x4000
 20016a4:	9480c103 	lw	a0,48(a0)
 20016a8:	8ca30033 	sub	v1,a0,v1
 20016ac:	8c40f0d3 	fcvt.d.wu	fv1,v1
 20016b0:	88200037 	lui	v1,0x4000
 20016b4:	84402187 	fld	fv0,8(v1)
 20016b8:	8c6150d3 	feq.d	v1,fv1,fv0
 20016bc:	f4418863 	beqz	v1,2001580 <t0_taskA_generic_BLOCK_ERKENNUNG_CTRL+0x4c>
 20016c0:	88200037 	lui	v1,0x4000
 20016c4:	90200037 	lui	a0,0x4000
 20016c8:	94828103 	lw	a0,160(a0)
 20016cc:	9c421103 	lw	a1,132(v1)
 20016d0:	84000413 	add	v0,v0,1
 20016d4:	0521f123 	sw	v0,124(a2)
 20016d8:	f4e552e3 	ble	a0,a1,2001580 <t0_taskA_generic_BLOCK_ERKENNUNG_CTRL+0x4c>
 20016dc:	0c641123 	sw	a0,132(v1)
 20016e0:	004000eb 	ret
 20016e4:	80200037 	lui	v0,0x4000
 20016e8:	8c021103 	lw	v1,132(v0)
 20016ec:	80200037 	lui	v0,0x4000
 20016f0:	84028103 	lw	v0,160(v0)
 20016f4:	8c7ffc13 	add	v1,v1,-1
 20016f8:	f4231263 	blt	v0,v1,2001580 <t0_taskA_generic_BLOCK_ERKENNUNG_CTRL+0x4c>
 20016fc:	88200037 	lui	v1,0x4000
 2001700:	80000413 	li	v0,1
 2001704:	0440b423 	sb	zero,45(v1)
 2001708:	88200037 	lui	v1,0x4000
 200170c:	04618823 	sb	v0,98(v1)
 2001710:	04a07423 	sb	v0,29(a0)
 2001714:	004000eb 	ret
 2001718:	88200037 	lui	v1,0x4000
 200171c:	8c41d103 	lw	v1,116(v1)
 2001720:	fc60c863 	beq	v1,v0,2001684 <t0_taskA_generic_BLOCK_ERKENNUNG_CTRL+0x150>
 2001724:	80200037 	lui	v0,0x4000
 2001728:	0400b423 	sb	zero,45(v0)
 200172c:	04a67423 	sb	a1,29(a0)
 2001730:	004000eb 	ret

02001734 <t0_taskA_FH_DU>:
 2001734:	73be2013 	add	sp,sp,-120
 2001738:	0385c123 	sw	s0,112(sp)
 200173c:	10200037 	lui	s0,0x4000
 2001740:	0387b123 	sw	s1,108(sp)
 2001744:	0389a123 	sw	s2,104(sp)
 2001748:	038b9123 	sw	s3,100(sp)
 200174c:	038d8123 	sw	s4,96(sp)
 2001750:	038f7123 	sw	s5,92(sp)
 2001754:	03916123 	sw	s6,88(sp)
 2001758:	03935123 	sw	s7,84(sp)
 200175c:	03954123 	sw	s8,80(sp)
 2001760:	03973123 	sw	s9,76(sp)
 2001764:	03992123 	sw	s10,72(sp)
 2001768:	039b1123 	sw	s11,68(sp)
 200176c:	0383d123 	sw	ra,116(sp)
 2001770:	10835013 	add	s0,s0,212
 2001774:	88000413 	li	v1,1
 2001778:	80200037 	lui	v0,0x4000
 200177c:	0422c123 	sw	v1,48(v0)
 2001780:	a8804003 	lb	a3,16(s0)
 2001784:	88802803 	lb	v1,10(s0)
 2001788:	b0804c03 	lb	a4,19(s0)
 200178c:	b8803403 	lb	a5,13(s0)
 2001790:	80200037 	lui	v0,0x4000
 2001794:	c0200037 	lui	a6,0x4000
 2001798:	c8200037 	lui	a7,0x4000
 200179c:	0400b023 	sb	zero,44(v0)
 20017a0:	03a2a123 	sw	v1,40(sp)
 20017a4:	86011803 	lb	v0,70(a6)
 20017a8:	03aac123 	sw	a3,48(sp)
 20017ac:	03acd123 	sw	a4,52(sp)
 20017b0:	03aeb123 	sw	a5,44(sp)
 20017b4:	c6411003 	lb	a6,68(a7)
 20017b8:	58200037 	lui	s9,0x4000
 20017bc:	60200037 	lui	s10,0x4000
 20017c0:	20200037 	lui	s2,0x4000
 20017c4:	e0200037 	lui	a10,0x4000
 20017c8:	18200037 	lui	s1,0x4000
 20017cc:	50200037 	lui	s8,0x4000
 20017d0:	48200037 	lui	s7,0x4000
 20017d4:	40200037 	lui	s6,0x4000
 20017d8:	38200037 	lui	s5,0x4000
 20017dc:	30200037 	lui	s4,0x4000
 20017e0:	28200037 	lui	s3,0x4000
 20017e4:	a0200037 	lui	a2,0x4000
 20017e8:	98200037 	lui	a1,0x4000
 20017ec:	90200037 	lui	a0,0x4000
 20017f0:	88200037 	lui	v1,0x4000
 20017f4:	68200037 	lui	s11,0x4000
 20017f8:	00016e67 	j	2001db0 <t0_taskA_FH_DU+0x67c>
 20017fc:	b0000c13 	li	a4,3
 2001800:	356c2063 	beq	a3,a4,2001e10 <t0_taskA_FH_DU+0x6dc>
 2001804:	b0000413 	li	a4,1
 2001808:	356c7863 	beq	a3,a4,2001e44 <t0_taskA_FH_DU+0x710>
 200180c:	f8200037 	lui	a13,0x4000
 2001810:	a8200037 	lui	a3,0x4000
 2001814:	b8000813 	li	a5,2
 2001818:	b0200037 	lui	a4,0x4000
 200181c:	07c0b423 	sb	zero,45(a13)
 2001820:	0d406123 	sw	zero,152(a3)
 2001824:	05ae7c23 	sb	a5,31(a4)
 2001828:	cb80a103 	lw	a7,40(sp)
 200182c:	064020e3 	bnez	a7,200183c <t0_taskA_FH_DU+0x108>
 2001830:	a8000c13 	li	a3,3
 2001834:	d0200037 	lui	a8,0x4000
 2001838:	06aaa023 	sb	a3,40(a8)
 200183c:	db80c103 	lw	a9,48(sp)
 2001840:	06c020e3 	bnez	a9,2001850 <t0_taskA_FH_DU+0x11c>
 2001844:	b0000413 	li	a4,1
 2001848:	a8200037 	lui	a3,0x4000
 200184c:	056c7823 	sb	a4,30(a3)
 2001850:	eb80d103 	lw	a11,52(sp)
 2001854:	074030e3 	bnez	a11,200186c <t0_taskA_FH_DU+0x138>
 2001858:	a8200037 	lui	a3,0x4000
 200185c:	0d415023 	sb	zero,212(a3)
 2001860:	b0000413 	li	a4,1
 2001864:	a8200037 	lui	a3,0x4000
 2001868:	056c7023 	sb	a4,28(a3)
 200186c:	f380b103 	lw	a12,44(sp)
 2001870:	078070e3 	bnez	a12,20018a8 <t0_taskA_FH_DU+0x174>
 2001874:	b0000813 	li	a4,2
 2001878:	f8200037 	lui	a13,0x4000
 200187c:	a8000413 	li	a3,1
 2001880:	07ec9c23 	sb	a4,39(a13)
 2001884:	b0200037 	lui	a4,0x4000
 2001888:	b8200037 	lui	a5,0x4000
 200188c:	05aa9823 	sb	a3,38(a4)
 2001890:	b0200037 	lui	a4,0x4000
 2001894:	00801023 	sb	zero,4(s0)
 2001898:	00801823 	sb	zero,6(s0)
 200189c:	0dc0e123 	sw	zero,184(a5)
 20018a0:	00aa1423 	sb	a3,5(s0)
 20018a4:	05aa9423 	sb	a3,37(a4)
 20018a8:	a8000413 	li	a3,1
 20018ac:	00aa2c23 	sb	a3,11(s0)
 20018b0:	00aa4423 	sb	a3,17(s0)
 20018b4:	00aa5023 	sb	a3,20(s0)
 20018b8:	00aa3823 	sb	a3,14(s0)
 20018bc:	04302863 	beq	v0,a6,20018d0 <t0_taskA_FH_DU+0x19c>
 20018c0:	a8200037 	lui	a3,0x4000
 20018c4:	ad40f403 	lb	a3,61(a3)
 20018c8:	054010e3 	bnez	a3,20018d0 <t0_taskA_FH_DU+0x19c>
 20018cc:	01213823 	sb	v0,78(s2)
 20018d0:	c0200037 	lui	a6,0x4000
 20018d4:	c8200037 	lui	a7,0x4000
 20018d8:	86010c03 	lb	v0,67(a6)
 20018dc:	ae410803 	lb	a3,66(a7)
 20018e0:	05603063 	beq	a3,v0,20018f8 <t0_taskA_FH_DU+0x1c4>
 20018e4:	a8200037 	lui	a3,0x4000
 20018e8:	ad40f403 	lb	a3,61(a3)
 20018ec:	05401863 	beqz	a3,20018f8 <t0_taskA_FH_DU+0x1c4>
 20018f0:	d0200037 	lui	a8,0x4000
 20018f4:	06a11823 	sb	v0,70(a8)
 20018f8:	d8200037 	lui	a9,0x4000
 20018fc:	87012403 	lb	v0,73(a10)
 2001900:	aec11c03 	lb	a3,71(a9)
 2001904:	05602863 	beq	a3,v0,2001918 <t0_taskA_FH_DU+0x1e4>
 2001908:	a8200037 	lui	a3,0x4000
 200190c:	ad40f403 	lb	a3,61(a3)
 2001910:	054010e3 	bnez	a3,2001918 <t0_taskA_FH_DU+0x1e4>
 2001914:	00e13423 	sb	v0,77(s1)
 2001918:	e8200037 	lui	a11,0x4000
 200191c:	f0200037 	lui	a12,0x4000
 2001920:	87410403 	lb	v0,65(a11)
 2001924:	af810003 	lb	a3,64(a12)
 2001928:	05602863 	beq	a3,v0,200193c <t0_taskA_FH_DU+0x208>
 200192c:	a8200037 	lui	a3,0x4000
 2001930:	ad40f403 	lb	a3,61(a3)
 2001934:	05401063 	beqz	a3,200193c <t0_taskA_FH_DU+0x208>
 2001938:	07212423 	sb	v0,73(a10)
 200193c:	d8803203 	lbu	a9,12(s0)
 2001940:	d0803e03 	lbu	a8,15(s0)
 2001944:	c8804a03 	lbu	a7,18(s0)
 2001948:	c0805603 	lbu	a6,21(s0)
 200194c:	ba40fa03 	lbu	a5,62(s7)
 2001950:	b0c13603 	lbu	a4,77(s1)
 2001954:	a980fe03 	lbu	a3,63(s4)
 2001958:	81013a03 	lbu	v0,78(s2)
 200195c:	00b62823 	sb	a9,10(s0)
 2001960:	00b43423 	sb	a8,13(s0)
 2001964:	00b24023 	sb	a7,16(s0)
 2001968:	00b04c23 	sb	a6,19(s0)
 200196c:	02af9823 	sb	a5,102(s8)
 2001970:	03b86123 	sw	a10,24(sp)
 2001974:	022da023 	sb	a4,104(s6)
 2001978:	01eba823 	sb	a3,106(s5)
 200197c:	0161b023 	sb	v0,108(s3)
 2001980:	03a25123 	sw	v1,20(sp)
 2001984:	03a48123 	sw	a0,32(sp)
 2001988:	03a64123 	sw	a1,16(sp)
 200198c:	03a87123 	sw	a2,28(sp)
 2001990:	fffbe46f 	jal	2000920 <t0_taskA_generic_KINDERSICHERUNG_CTRL>
 2001994:	a3807103 	lw	a2,28(sp)
 2001998:	9b804103 	lw	a1,16(sp)
 200199c:	f8200037 	lui	a13,0x4000
 20019a0:	80200037 	lui	v0,0x4000
 20019a4:	0fc15a03 	lbu	ra,86(a13)
 20019a8:	93808103 	lw	a0,32(sp)
 20019ac:	fc016603 	lbu	a13,89(v0)
 20019b0:	8b805103 	lw	v1,20(sp)
 20019b4:	f5028103 	lw	a12,160(a2)
 20019b8:	a8200037 	lui	a3,0x4000
 20019bc:	ed414e03 	lbu	a11,83(a3)
 20019c0:	dcc29103 	lw	a9,164(a1)
 20019c4:	d4818203 	lbu	a8,96(a0)
 20019c8:	ac419203 	lbu	a3,100(v1)
 20019cc:	ca819a03 	lbu	a7,102(s8)
 20019d0:	c201a203 	lbu	a6,104(s6)
 20019d4:	b9c1aa03 	lbu	a5,106(s5)
 20019d8:	b141b203 	lbu	a4,108(s3)
 20019dc:	83418e03 	lbu	v0,99(s11)
 20019e0:	02fee423 	sb	a13,57(s9)
 20019e4:	f8200037 	lui	a13,0x4000
 20019e8:	0ffc3123 	sw	a12,140(a13)
 20019ec:	f8200037 	lui	a13,0x4000
 20019f0:	f0200037 	lui	a12,0x4000
 20019f4:	07bb2c23 	sb	a11,75(a12)
 20019f8:	0ff64123 	sw	a9,144(a13)
 20019fc:	e8200037 	lui	a11,0x4000
 2001a00:	d8200037 	lui	a9,0x4000
 2001a04:	f0200037 	lui	a12,0x4000
 2001a08:	06f53023 	sb	a8,76(a9)
 2001a0c:	076b3c23 	sb	a3,79(a11)
 2001a10:	07a0f023 	sb	v0,60(a12)
 2001a14:	0302d823 	sb	ra,54(s10)
 2001a18:	0272f823 	sb	a7,62(s7)
 2001a1c:	00f13423 	sb	a6,77(s1)
 2001a20:	01aefc23 	sb	a5,63(s4)
 2001a24:	012d3823 	sb	a4,78(s2)
 2001a28:	fffc986f 	jal	2000c88 <t0_taskA_generic_FH_TUERMODUL_CTRL>
 2001a2c:	a3807103 	lw	a2,28(sp)
 2001a30:	9b804103 	lw	a1,16(sp)
 2001a34:	f8200037 	lui	a13,0x4000
 2001a38:	80200037 	lui	v0,0x4000
 2001a3c:	0fc15a03 	lbu	ra,86(a13)
 2001a40:	93808103 	lw	a0,32(sp)
 2001a44:	fc016603 	lbu	a13,89(v0)
 2001a48:	8b805103 	lw	v1,20(sp)
 2001a4c:	f5028103 	lw	a12,160(a2)
 2001a50:	a8200037 	lui	a3,0x4000
 2001a54:	ed414e03 	lbu	a11,83(a3)
 2001a58:	dcc29103 	lw	a9,164(a1)
 2001a5c:	d4818203 	lbu	a8,96(a0)
 2001a60:	ac419203 	lbu	a3,100(v1)
 2001a64:	ca819a03 	lbu	a7,102(s8)
 2001a68:	c201a203 	lbu	a6,104(s6)
 2001a6c:	b9c1aa03 	lbu	a5,106(s5)
 2001a70:	b141b203 	lbu	a4,108(s3)
 2001a74:	83418e03 	lbu	v0,99(s11)
 2001a78:	02fee423 	sb	a13,57(s9)
 2001a7c:	f8200037 	lui	a13,0x4000
 2001a80:	0ffc3123 	sw	a12,140(a13)
 2001a84:	f8200037 	lui	a13,0x4000
 2001a88:	f0200037 	lui	a12,0x4000
 2001a8c:	07bb2c23 	sb	a11,75(a12)
 2001a90:	0ff64123 	sw	a9,144(a13)
 2001a94:	e8200037 	lui	a11,0x4000
 2001a98:	d8200037 	lui	a9,0x4000
 2001a9c:	f0200037 	lui	a12,0x4000
 2001aa0:	06f53023 	sb	a8,76(a9)
 2001aa4:	076b3c23 	sb	a3,79(a11)
 2001aa8:	07a0f023 	sb	v0,60(a12)
 2001aac:	0302d823 	sb	ra,54(s10)
 2001ab0:	0272f823 	sb	a7,62(s7)
 2001ab4:	00f13423 	sb	a6,77(s1)
 2001ab8:	01aefc23 	sb	a5,63(s4)
 2001abc:	012d3823 	sb	a4,78(s2)
 2001ac0:	fffe716f 	jal	2001484 <t0_taskA_generic_EINKLEMMSCHUTZ_CTRL>
 2001ac4:	a3807103 	lw	a2,28(sp)
 2001ac8:	9b804103 	lw	a1,16(sp)
 2001acc:	f8200037 	lui	a13,0x4000
 2001ad0:	80200037 	lui	v0,0x4000
 2001ad4:	0fc15a03 	lbu	ra,86(a13)
 2001ad8:	93808103 	lw	a0,32(sp)
 2001adc:	fc016603 	lbu	a13,89(v0)
 2001ae0:	8b805103 	lw	v1,20(sp)
 2001ae4:	f5028103 	lw	a12,160(a2)
 2001ae8:	a8200037 	lui	a3,0x4000
 2001aec:	ed414e03 	lbu	a11,83(a3)
 2001af0:	dcc29103 	lw	a9,164(a1)
 2001af4:	d4818203 	lbu	a8,96(a0)
 2001af8:	ac419203 	lbu	a3,100(v1)
 2001afc:	ca819a03 	lbu	a7,102(s8)
 2001b00:	c201a203 	lbu	a6,104(s6)
 2001b04:	b9c1aa03 	lbu	a5,106(s5)
 2001b08:	b141b203 	lbu	a4,108(s3)
 2001b0c:	83418e03 	lbu	v0,99(s11)
 2001b10:	02fee423 	sb	a13,57(s9)
 2001b14:	f8200037 	lui	a13,0x4000
 2001b18:	0ffc3123 	sw	a12,140(a13)
 2001b1c:	f8200037 	lui	a13,0x4000
 2001b20:	f0200037 	lui	a12,0x4000
 2001b24:	07bb2c23 	sb	a11,75(a12)
 2001b28:	0ff64123 	sw	a9,144(a13)
 2001b2c:	e8200037 	lui	a11,0x4000
 2001b30:	d8200037 	lui	a9,0x4000
 2001b34:	f0200037 	lui	a12,0x4000
 2001b38:	06f53023 	sb	a8,76(a9)
 2001b3c:	076b3c23 	sb	a3,79(a11)
 2001b40:	07a0f023 	sb	v0,60(a12)
 2001b44:	0272f823 	sb	a7,62(s7)
 2001b48:	00f13423 	sb	a6,77(s1)
 2001b4c:	01aefc23 	sb	a5,63(s4)
 2001b50:	012d3823 	sb	a4,78(s2)
 2001b54:	0302d823 	sb	ra,54(s10)
 2001b58:	fffe776f 	jal	2001534 <t0_taskA_generic_BLOCK_ERKENNUNG_CTRL>
 2001b5c:	d0803403 	lb	a8,13(s0)
 2001b60:	d8804003 	lb	a9,16(s0)
 2001b64:	a3807103 	lw	a2,28(sp)
 2001b68:	c8802803 	lb	a7,10(s0)
 2001b6c:	f8200037 	lui	a13,0x4000
 2001b70:	afc14c03 	lb	a3,83(a13)
 2001b74:	b2819803 	lb	a4,102(s8)
 2001b78:	f8804c03 	lb	a13,19(s0)
 2001b7c:	9b804103 	lw	a1,16(sp)
 2001b80:	85028103 	lw	v0,160(a2)
 2001b84:	ba01a003 	lb	a5,104(s6)
 2001b88:	93808103 	lw	a0,32(sp)
 2001b8c:	03b4b123 	sw	a8,44(sp)
 2001b90:	03b6c123 	sw	a9,48(sp)
 2001b94:	d0200037 	lui	a8,0x4000
 2001b98:	d8200037 	lui	a9,0x4000
 2001b9c:	03b2a123 	sw	a7,40(sp)
 2001ba0:	ce82e103 	lw	a7,184(a8)
 2001ba4:	d6c25103 	lw	a8,148(a9)
 2001ba8:	d8200037 	lui	a9,0x4000
 2001bac:	03ace123 	sw	a4,56(sp)
 2001bb0:	03bed123 	sw	a13,52(sp)
 2001bb4:	b4c29103 	lw	a4,164(a1)
 2001bb8:	fec1f103 	lw	a13,124(a9)
 2001bbc:	d8200037 	lui	a9,0x4000
 2001bc0:	03ae3123 	sw	a5,12(sp)
 2001bc4:	0ee03123 	sw	v0,140(a9)
 2001bc8:	bc818203 	lbu	a5,96(a0)
 2001bcc:	d8200037 	lui	a9,0x4000
 2001bd0:	06eb2c23 	sb	a3,75(a9)
 2001bd4:	d8200037 	lui	a9,0x4000
 2001bd8:	0eec4123 	sw	a4,144(a9)
 2001bdc:	8b805103 	lw	v1,20(sp)
 2001be0:	b0200037 	lui	a4,0x4000
 2001be4:	05af3023 	sb	a5,76(a4)
 2001be8:	db803103 	lw	a9,12(sp)
 2001bec:	bb80e103 	lw	a5,56(sp)
 2001bf0:	c4419203 	lbu	a6,100(v1)
 2001bf4:	e9c1a803 	lb	a11,106(s5)
 2001bf8:	f141b003 	lb	a12,108(s3)
 2001bfc:	026ef823 	sb	a5,62(s7)
 2001c00:	00f73423 	sb	a9,77(s1)
 2001c04:	bb80a103 	lw	a5,40(sp)
 2001c08:	db80c103 	lw	a9,48(sp)
 2001c0c:	b0200037 	lui	a4,0x4000
 2001c10:	05b13c23 	sb	a6,79(a4)
 2001c14:	c380b103 	lw	a6,44(sp)
 2001c18:	00ae2c23 	sb	a5,11(s0)
 2001c1c:	b8200037 	lui	a5,0x4000
 2001c20:	00b64423 	sb	a9,17(s0)
 2001c24:	b380d103 	lw	a4,52(sp)
 2001c28:	0df2c123 	sw	a7,176(a5)
 2001c2c:	d8200037 	lui	a9,0x4000
 2001c30:	c8200037 	lui	a7,0x4000
 2001c34:	00b03823 	sb	a6,14(s0)
 2001c38:	0e746123 	sw	a8,152(a7)
 2001c3c:	06ffd123 	sw	a13,116(a9)
 2001c40:	c0200037 	lui	a6,0x4000
 2001c44:	d0200037 	lui	a8,0x4000
 2001c48:	f8200037 	lui	a13,0x4000
 2001c4c:	dfc18803 	lb	a9,98(a13)
 2001c50:	0e207123 	sw	v0,156(a6)
 2001c54:	0ea02123 	sw	v0,136(a8)
 2001c58:	b8200037 	lui	a5,0x4000
 2001c5c:	80200037 	lui	v0,0x4000
 2001c60:	f8200037 	lui	a13,0x4000
 2001c64:	d4017803 	lb	a8,94(v0)
 2001c68:	c5c16003 	lb	a6,88(a5)
 2001c6c:	00ac5023 	sb	a4,20(s0)
 2001c70:	bfc15403 	lb	a5,85(a13)
 2001c74:	b0200037 	lui	a4,0x4000
 2001c78:	80200037 	lui	v0,0x4000
 2001c7c:	f8200037 	lui	a13,0x4000
 2001c80:	cd816c03 	lb	a7,91(a4)
 2001c84:	b400ec03 	lb	a4,59(v0)
 2001c88:	87c11803 	lb	v0,70(a13)
 2001c8c:	f8200037 	lui	a13,0x4000
 2001c90:	ffc10e03 	lbu	a13,67(a13)
 2001c94:	013d3823 	sb	a12,78(s2)
 2001c98:	01bafc23 	sb	a11,63(s4)
 2001c9c:	03be9c23 	sb	a13,39(sp)
 2001ca0:	f8200037 	lui	a13,0x4000
 2001ca4:	ffc10603 	lbu	a13,65(a13)
 2001ca8:	e3806103 	lw	a10,24(sp)
 2001cac:	03be9823 	sb	a13,38(sp)
 2001cb0:	f8200037 	lui	a13,0x4000
 2001cb4:	ffc0e003 	lb	a13,56(a13)
 2001cb8:	03bef123 	sw	a13,60(sp)
 2001cbc:	f8200037 	lui	a13,0x4000
 2001cc0:	07fdac23 	sb	a12,107(a13)
 2001cc4:	f0200037 	lui	a12,0x4000
 2001cc8:	07bba423 	sb	a11,105(a12)
 2001ccc:	eb803103 	lw	a11,12(sp)
 2001cd0:	f8200037 	lui	a13,0x4000
 2001cd4:	f0200037 	lui	a12,0x4000
 2001cd8:	07fb9c23 	sb	a11,103(a13)
 2001cdc:	fb80e103 	lw	a13,56(sp)
 2001ce0:	e8200037 	lui	a11,0x4000
 2001ce4:	07778423 	sb	a9,97(a11)
 2001ce8:	07bf9423 	sb	a13,101(a12)
 2001cec:	f0200037 	lui	a12,0x4000
 2001cf0:	f8200037 	lui	a13,0x4000
 2001cf4:	07b57c23 	sb	a8,95(a12)
 2001cf8:	07f57423 	sb	a8,93(a13)
 2001cfc:	e8200037 	lui	a11,0x4000
 2001d00:	d0200037 	lui	a8,0x4000
 2001d04:	03778c23 	sb	a9,99(s11)
 2001d08:	d8200037 	lui	a9,0x4000
 2001d0c:	06b37023 	sb	a7,92(a8)
 2001d10:	06f36823 	sb	a7,90(a9)
 2001d14:	07716423 	sb	a6,89(a11)
 2001d18:	c8200037 	lui	a7,0x4000
 2001d1c:	d0200037 	lui	a8,0x4000
 2001d20:	ef012603 	lbu	a11,73(a10)
 2001d24:	f0200037 	lui	a12,0x4000
 2001d28:	066b4823 	sb	a3,82(a7)
 2001d2c:	06ab2823 	sb	a3,74(a8)
 2001d30:	ab809e03 	lbu	a3,39(sp)
 2001d34:	07b15c23 	sb	a6,87(a12)
 2001d38:	f8200037 	lui	a13,0x4000
 2001d3c:	c0200037 	lui	a6,0x4000
 2001d40:	d8200037 	lui	a9,0x4000
 2001d44:	f0200037 	lui	a12,0x4000
 2001d48:	07ef5823 	sb	a5,86(a13)
 2001d4c:	062f5023 	sb	a5,84(a6)
 2001d50:	06fb1c23 	sb	a11,71(a9)
 2001d54:	f8200037 	lui	a13,0x4000
 2001d58:	07a11023 	sb	v0,68(a12)
 2001d5c:	c3809a03 	lbu	a6,38(sp)
 2001d60:	c8200037 	lui	a7,0x4000
 2001d64:	d0200037 	lui	a8,0x4000
 2001d68:	e8200037 	lui	a11,0x4000
 2001d6c:	f0200037 	lui	a12,0x4000
 2001d70:	07eb0823 	sb	a3,66(a13)
 2001d74:	db80f103 	lw	a9,60(sp)
 2001d78:	af40d403 	lb	a3,53(a11)
 2001d7c:	066cf023 	sb	a4,60(a7)
 2001d80:	06ace823 	sb	a4,58(a8)
 2001d84:	b780b403 	lb	a4,45(a12)
 2001d88:	b8200037 	lui	a5,0x4000
 2001d8c:	05f10023 	sb	a6,64(a5)
 2001d90:	f8200037 	lui	a13,0x4000
 2001d94:	b8200037 	lui	a5,0x4000
 2001d98:	02f6e423 	sb	a9,57(s9)
 2001d9c:	07f6dc23 	sb	a9,55(a13)
 2001da0:	032ad823 	sb	a3,54(s10)
 2001da4:	05ead023 	sb	a3,52(a5)
 2001da8:	0d8000e3 	bnez	a4,2001ea8 <t0_taskA_FH_DU+0x774>
 2001dac:	c4000013 	move	a6,v0
 2001db0:	d0200037 	lui	a8,0x4000
 2001db4:	be80b203 	lbu	a5,44(a8)
 2001db8:	d8200037 	lui	a9,0x4000
 2001dbc:	aec07c03 	lb	a3,31(a9)
 2001dc0:	b0000413 	li	a4,1
 2001dc4:	bdc00413 	add	a5,a5,1
 2001dc8:	e8200037 	lui	a11,0x4000
 2001dcc:	f0000813 	li	a12,2
 2001dd0:	076cb423 	sb	a4,45(a11)
 2001dd4:	06aeb023 	sb	a5,44(a8)
 2001dd8:	d57c48e3 	bne	a3,a12,20017fc <t0_taskA_FH_DU+0xc8>
 2001ddc:	aac0e403 	lb	a3,57(s9)
 2001de0:	05412063 	beqz	a3,2001e70 <t0_taskA_FH_DU+0x73c>
 2001de4:	d0200037 	lui	a8,0x4000
 2001de8:	ae80dc03 	lb	a3,55(a8)
 2001dec:	054108e3 	bnez	a3,2001e70 <t0_taskA_FH_DU+0x73c>
 2001df0:	d8200037 	lui	a9,0x4000
 2001df4:	a83e7013 	li	a3,-100
 2001df8:	e8200037 	lui	a11,0x4000
 2001dfc:	f0200037 	lui	a12,0x4000
 2001e00:	06c0b423 	sb	zero,45(a9)
 2001e04:	0f6a6123 	sw	a3,152(a11)
 2001e08:	07ac7c23 	sb	a4,31(a12)
 2001e0c:	fffe8767 	j	2001828 <t0_taskA_FH_DU+0xf4>
 2001e10:	ab00d803 	lb	a3,54(s10)
 2001e14:	d54028e3 	bnez	a3,2001828 <t0_taskA_FH_DU+0xf4>
 2001e18:	c8200037 	lui	a7,0x4000
 2001e1c:	ae40d003 	lb	a3,52(a7)
 2001e20:	d5401063 	beqz	a3,2001828 <t0_taskA_FH_DU+0xf4>
 2001e24:	d0200037 	lui	a8,0x4000
 2001e28:	d8200037 	lui	a9,0x4000
 2001e2c:	f0000813 	li	a12,2
 2001e30:	e8200037 	lui	a11,0x4000
 2001e34:	0680b423 	sb	zero,45(a8)
 2001e38:	0ec06123 	sw	zero,152(a9)
 2001e3c:	077c7c23 	sb	a12,31(a11)
 2001e40:	fffe7a67 	j	2001828 <t0_taskA_FH_DU+0xf4>
 2001e44:	aac0e403 	lb	a3,57(s9)
 2001e48:	cd41c0e3 	bnez	a3,2001828 <t0_taskA_FH_DU+0xf4>
 2001e4c:	f8200037 	lui	a13,0x4000
 2001e50:	afc0dc03 	lb	a3,55(a13)
 2001e54:	cd41a863 	beqz	a3,2001828 <t0_taskA_FH_DU+0xf4>
 2001e58:	b0200037 	lui	a4,0x4000
 2001e5c:	c8000813 	li	a7,2
 2001e60:	0740b423 	sb	zero,45(a11)
 2001e64:	0d806123 	sw	zero,152(a4)
 2001e68:	06f27c23 	sb	a7,31(a9)
 2001e6c:	fffe6f67 	j	2001828 <t0_taskA_FH_DU+0xf4>
 2001e70:	ab00d803 	lb	a3,54(s10)
 2001e74:	cd416863 	beqz	a3,2001828 <t0_taskA_FH_DU+0xf4>
 2001e78:	f8200037 	lui	a13,0x4000
 2001e7c:	afc0d003 	lb	a3,52(a13)
 2001e80:	cd4150e3 	bnez	a3,2001828 <t0_taskA_FH_DU+0xf4>
 2001e84:	a8200037 	lui	a3,0x4000
 2001e88:	0540b423 	sb	zero,45(a3)
 2001e8c:	b0200037 	lui	a4,0x4000
 2001e90:	a8019013 	li	a3,100
 2001e94:	0daa6123 	sw	a3,152(a4)
 2001e98:	b8200037 	lui	a5,0x4000
 2001e9c:	a8000c13 	li	a3,3
 2001ea0:	05ea7c23 	sb	a3,31(a5)
 2001ea4:	fffe6167 	j	2001828 <t0_taskA_FH_DU+0xf4>
 2001ea8:	0b81d103 	lw	ra,116(sp)
 2001eac:	1381c103 	lw	s0,112(sp)
 2001eb0:	1b81b103 	lw	s1,108(sp)
 2001eb4:	2381a103 	lw	s2,104(sp)
 2001eb8:	2b819103 	lw	s3,100(sp)
 2001ebc:	33818103 	lw	s4,96(sp)
 2001ec0:	3b817103 	lw	s5,92(sp)
 2001ec4:	43816103 	lw	s6,88(sp)
 2001ec8:	4b815103 	lw	s7,84(sp)
 2001ecc:	53814103 	lw	s8,80(sp)
 2001ed0:	5b813103 	lw	s9,76(sp)
 2001ed4:	63812103 	lw	s10,72(sp)
 2001ed8:	6b811103 	lw	s11,68(sp)
 2001edc:	7381e013 	add	sp,sp,120
 2001ee0:	004000eb 	ret

02001ee4 <t0_taskA_main>:
 2001ee4:	73bfe013 	add	sp,sp,-8
 2001ee8:	03821123 	sw	ra,4(sp)
 2001eec:	fffa666f 	jal	2000884 <t0_taskA_init>
 2001ef0:	fffa036f 	jal	20006fc <t0_taskA_interface>
 2001ef4:	fffe106f 	jal	2001734 <t0_taskA_FH_DU>
 2001ef8:	0b801103 	lw	ra,4(sp)
 2001efc:	80000013 	li	v0,0
 2001f00:	73802013 	add	sp,sp,8
 2001f04:	004000eb 	ret

02001f08 <t1_taskB_interface>:
 2001f08:	802000b7 	lui	v0,0x4001
 2001f0c:	8c031013 	add	v1,v0,196
 2001f10:	94401003 	lb	a0,4(v1)
 2001f14:	0c805063 	beqz	a0,200203c <t1_taskB_interface+0x134>
 2001f18:	882000b7 	lui	v1,0x4001
 2001f1c:	8c408103 	lw	v1,32(v1)
 2001f20:	902000b7 	lui	a0,0x4001
 2001f24:	0ca2e123 	sw	v1,184(a0)
 2001f28:	902000b7 	lui	a0,0x4001
 2001f2c:	0ca2f123 	sw	v1,188(a0)
 2001f30:	902000b7 	lui	a0,0x4001
 2001f34:	8c82d103 	lw	v1,180(a0)
 2001f38:	04404863 	beqz	v1,2001f5c <t1_taskB_interface+0x54>
 2001f3c:	982000b7 	lui	a1,0x4001
 2001f40:	9cc08103 	lw	a1,32(a1)
 2001f44:	8ce30033 	sub	v1,a1,v1
 2001f48:	8c40f0d3 	fcvt.d.wu	fv1,v1
 2001f4c:	88200037 	lui	v1,0x4000
 2001f50:	84400187 	fld	fv0,0(v1)
 2001f54:	8c2370d3 	fle.d	v1,fv0,fv1
 2001f58:	0c4050e3 	bnez	v1,2002080 <t1_taskB_interface+0x178>
 2001f5c:	902000b7 	lui	a0,0x4001
 2001f60:	8c82c103 	lw	v1,176(a0)
 2001f64:	04404863 	beqz	v1,2001f88 <t1_taskB_interface+0x80>
 2001f68:	982000b7 	lui	a1,0x4001
 2001f6c:	9cc08103 	lw	a1,32(a1)
 2001f70:	8ce30033 	sub	v1,a1,v1
 2001f74:	8c40f0d3 	fcvt.d.wu	fv1,v1
 2001f78:	88200037 	lui	v1,0x4000
 2001f7c:	84400187 	fld	fv0,0(v1)
 2001f80:	8c2370d3 	fle.d	v1,fv0,fv1
 2001f84:	0441d8e3 	bnez	v1,2002070 <t1_taskB_interface+0x168>
 2001f88:	902000b7 	lui	a0,0x4001
 2001f8c:	8c82b103 	lw	v1,172(a0)
 2001f90:	04404863 	beqz	v1,2001fb4 <t1_taskB_interface+0xac>
 2001f94:	982000b7 	lui	a1,0x4001
 2001f98:	9cc08103 	lw	a1,32(a1)
 2001f9c:	8ce30033 	sub	v1,a1,v1
 2001fa0:	8c40f0d3 	fcvt.d.wu	fv1,v1
 2001fa4:	88200037 	lui	v1,0x4000
 2001fa8:	84400187 	fld	fv0,0(v1)
 2001fac:	8c2370d3 	fle.d	v1,fv0,fv1
 2001fb0:	044160e3 	bnez	v1,2002060 <t1_taskB_interface+0x158>
 2001fb4:	902000b7 	lui	a0,0x4001
 2001fb8:	8c827103 	lw	v1,156(a0)
 2001fbc:	04404863 	beqz	v1,2001fe0 <t1_taskB_interface+0xd8>
 2001fc0:	982000b7 	lui	a1,0x4001
 2001fc4:	9cc08103 	lw	a1,32(a1)
 2001fc8:	8ce30033 	sub	v1,a1,v1
 2001fcc:	8c40f0d3 	fcvt.d.wu	fv1,v1
 2001fd0:	88200037 	lui	v1,0x4000
 2001fd4:	84400187 	fld	fv0,0(v1)
 2001fd8:	8c2370d3 	fle.d	v1,fv0,fv1
 2001fdc:	0440f8e3 	bnez	v1,2002058 <t1_taskB_interface+0x150>
 2001fe0:	902000b7 	lui	a0,0x4001
 2001fe4:	8c826103 	lw	v1,152(a0)
 2001fe8:	04404863 	beqz	v1,200200c <t1_taskB_interface+0x104>
 2001fec:	982000b7 	lui	a1,0x4001
 2001ff0:	9cc08103 	lw	a1,32(a1)
 2001ff4:	8ce30033 	sub	v1,a1,v1
 2001ff8:	8c40f0d3 	fcvt.d.wu	fv1,v1
 2001ffc:	88200037 	lui	v1,0x4000
 2002000:	84400187 	fld	fv0,0(v1)
 2002004:	8c2370d3 	fle.d	v1,fv0,fv1
 2002008:	044090e3 	bnez	v1,2002050 <t1_taskB_interface+0x148>
 200200c:	84031003 	lb	v0,196(v0)
 2002010:	040030e3 	bnez	v0,2002028 <t1_taskB_interface+0x120>
 2002014:	802000b7 	lui	v0,0x4001
 2002018:	8c01b103 	lw	v1,108(v0)
 200201c:	802000b7 	lui	v0,0x4001
 2002020:	84019103 	lw	v0,100(v0)
 2002024:	04602863 	beq	v1,v0,2002038 <t1_taskB_interface+0x130>
 2002028:	802000b7 	lui	v0,0x4001
 200202c:	8c008103 	lw	v1,32(v0)
 2002030:	802000b7 	lui	v0,0x4001
 2002034:	0c230123 	sw	v1,192(v0)
 2002038:	004000eb 	ret
 200203c:	8c401803 	lb	v1,6(v1)
 2002040:	f441e063 	beqz	v1,2001f30 <t1_taskB_interface+0x28>
 2002044:	882000b7 	lui	v1,0x4001
 2002048:	8c408103 	lw	v1,32(v1)
 200204c:	ffffb767 	j	2001f28 <t1_taskB_interface+0x20>
 2002050:	0c806123 	sw	zero,152(a0)
 2002054:	ffffee67 	j	200200c <t1_taskB_interface+0x104>
 2002058:	0c807123 	sw	zero,156(a0)
 200205c:	ffffe167 	j	2001fe0 <t1_taskB_interface+0xd8>
 2002060:	882000b7 	lui	v1,0x4001
 2002064:	04412023 	sb	zero,72(v1)
 2002068:	0c80b123 	sw	zero,172(a0)
 200206c:	ffffd267 	j	2001fb4 <t1_taskB_interface+0xac>
 2002070:	882000b7 	lui	v1,0x4001
 2002074:	04412023 	sb	zero,72(v1)
 2002078:	0c80c123 	sw	zero,176(a0)
 200207c:	ffffc367 	j	2001f88 <t1_taskB_interface+0x80>
 2002080:	882000b7 	lui	v1,0x4001
 2002084:	04411423 	sb	zero,69(v1)
 2002088:	0c80d123 	sw	zero,180(a0)
 200208c:	ffffb467 	j	2001f5c <t1_taskB_interface+0x54>

02002090 <t1_taskB_init>:
 2002090:	802000b7 	lui	v0,0x4001
 2002094:	0c010123 	sw	zero,192(v0)
 2002098:	802000b7 	lui	v0,0x4001
 200209c:	0c00f123 	sw	zero,188(v0)
 20020a0:	802000b7 	lui	v0,0x4001
 20020a4:	0c00e123 	sw	zero,184(v0)
 20020a8:	802000b7 	lui	v0,0x4001
 20020ac:	04006c23 	sb	zero,27(v0)
 20020b0:	802000b7 	lui	v0,0x4001
 20020b4:	04006823 	sb	zero,26(v0)
 20020b8:	802000b7 	lui	v0,0x4001
 20020bc:	04006423 	sb	zero,25(v0)
 20020c0:	802000b7 	lui	v0,0x4001
 20020c4:	04006023 	sb	zero,24(v0)
 20020c8:	802000b7 	lui	v0,0x4001
 20020cc:	04005c23 	sb	zero,23(v0)
 20020d0:	802000b7 	lui	v0,0x4001
 20020d4:	04005823 	sb	zero,22(v0)
 20020d8:	802000b7 	lui	v0,0x4001
 20020dc:	04005423 	sb	zero,21(v0)
 20020e0:	802000b7 	lui	v0,0x4001
 20020e4:	04005023 	sb	zero,20(v0)
 20020e8:	802000b7 	lui	v0,0x4001
 20020ec:	04004c23 	sb	zero,19(v0)
 20020f0:	802000b7 	lui	v0,0x4001
 20020f4:	04004823 	sb	zero,18(v0)
 20020f8:	802000b7 	lui	v0,0x4001
 20020fc:	04004423 	sb	zero,17(v0)
 2002100:	802000b7 	lui	v0,0x4001
 2002104:	04004023 	sb	zero,16(v0)
 2002108:	802000b7 	lui	v0,0x4001
 200210c:	04003c23 	sb	zero,15(v0)
 2002110:	802000b7 	lui	v0,0x4001
 2002114:	04003823 	sb	zero,14(v0)
 2002118:	802000b7 	lui	v0,0x4001
 200211c:	04003423 	sb	zero,13(v0)
 2002120:	802000b7 	lui	v0,0x4001
 2002124:	04003023 	sb	zero,12(v0)
 2002128:	004000eb 	ret

0200212c <t1_taskB_generic_KINDERSICHERUNG_CTRL>:
 200212c:	802000b7 	lui	v0,0x4001
 2002130:	84033803 	lb	v0,206(v0)
 2002134:	04006063 	beqz	v0,2002164 <t1_taskB_generic_KINDERSICHERUNG_CTRL+0x38>
 2002138:	882000b7 	lui	v1,0x4001
 200213c:	84406003 	lb	v0,24(v1)
 2002140:	90000813 	li	a0,2
 2002144:	04244863 	beq	v0,a0,2002168 <t1_taskB_generic_KINDERSICHERUNG_CTRL+0x3c>
 2002148:	98000c13 	li	a1,3
 200214c:	0427a863 	beq	v0,a1,2002220 <t1_taskB_generic_KINDERSICHERUNG_CTRL+0xf4>
 2002150:	90000413 	li	a0,1
 2002154:	04249063 	beq	v0,a0,200219c <t1_taskB_generic_KINDERSICHERUNG_CTRL+0x70>
 2002158:	802000b7 	lui	v0,0x4001
 200215c:	04007423 	sb	zero,29(v0)
 2002160:	04666023 	sb	a1,24(v1)
 2002164:	004000eb 	ret
 2002168:	802000b7 	lui	v0,0x4001
 200216c:	84015803 	lb	v0,86(v0)
 2002170:	040020e3 	bnez	v0,2002180 <t1_taskB_generic_KINDERSICHERUNG_CTRL+0x54>
 2002174:	902000b7 	lui	a0,0x4001
 2002178:	94816803 	lb	a0,90(a0)
 200217c:	1480d863 	beqz	a0,20023e8 <t1_taskB_generic_KINDERSICHERUNG_CTRL+0x2bc>
 2002180:	882000b7 	lui	v1,0x4001
 2002184:	94406403 	lb	a0,25(v1)
 2002188:	98000413 	li	a1,1
 200218c:	0ca61863 	beq	a0,a1,2002298 <t1_taskB_generic_KINDERSICHERUNG_CTRL+0x16c>
 2002190:	802000b7 	lui	v0,0x4001
 2002194:	04007423 	sb	zero,29(v0)
 2002198:	004000eb 	ret
 200219c:	802000b7 	lui	v0,0x4001
 20021a0:	84016003 	lb	v0,88(v0)
 20021a4:	040020e3 	bnez	v0,20021b4 <t1_taskB_generic_KINDERSICHERUNG_CTRL+0x88>
 20021a8:	902000b7 	lui	a0,0x4001
 20021ac:	94817003 	lb	a0,92(a0)
 20021b0:	14802063 	beqz	a0,20023c0 <t1_taskB_generic_KINDERSICHERUNG_CTRL+0x294>
 20021b4:	882000b7 	lui	v1,0x4001
 20021b8:	94406803 	lb	a0,26(v1)
 20021bc:	98000413 	li	a1,1
 20021c0:	fca7a0e3 	bne	a0,a1,2002190 <t1_taskB_generic_KINDERSICHERUNG_CTRL+0x64>
 20021c4:	04005063 	beqz	v0,20021ec <t1_taskB_generic_KINDERSICHERUNG_CTRL+0xc0>
 20021c8:	982000b7 	lui	a1,0x4001
 20021cc:	9cc15c03 	lb	a1,87(a1)
 20021d0:	04c038e3 	bnez	a1,20021ec <t1_taskB_generic_KINDERSICHERUNG_CTRL+0xc0>
 20021d4:	802000b7 	lui	v0,0x4001
 20021d8:	04007423 	sb	zero,29(v0)
 20021dc:	802000b7 	lui	v0,0x4001
 20021e0:	04252c23 	sb	a0,75(v0)
 20021e4:	04646823 	sb	a0,26(v1)
 20021e8:	004000eb 	ret
 20021ec:	902000b7 	lui	a0,0x4001
 20021f0:	94817003 	lb	a0,92(a0)
 20021f4:	0c80a863 	beqz	a0,2002348 <t1_taskB_generic_KINDERSICHERUNG_CTRL+0x21c>
 20021f8:	982000b7 	lui	a1,0x4001
 20021fc:	9cc16c03 	lb	a1,91(a1)
 2002200:	0cc090e3 	bnez	a1,2002348 <t1_taskB_generic_KINDERSICHERUNG_CTRL+0x21c>
 2002204:	902000b7 	lui	a0,0x4001
 2002208:	80000413 	li	v0,1
 200220c:	04807423 	sb	zero,29(a0)
 2002210:	902000b7 	lui	a0,0x4001
 2002214:	04a13823 	sb	v0,78(a0)
 2002218:	04606823 	sb	v0,26(v1)
 200221c:	004000eb 	ret
 2002220:	802000b7 	lui	v0,0x4001
 2002224:	84015003 	lb	v0,84(v0)
 2002228:	040070e3 	bnez	v0,2002260 <t1_taskB_generic_KINDERSICHERUNG_CTRL+0x134>
 200222c:	982000b7 	lui	a1,0x4001
 2002230:	9cc16803 	lb	a1,90(a1)
 2002234:	04c1d863 	beqz	a1,2002320 <t1_taskB_generic_KINDERSICHERUNG_CTRL+0x1f4>
 2002238:	802000b7 	lui	v0,0x4001
 200223c:	84015803 	lb	v0,86(v0)
 2002240:	140060e3 	bnez	v0,2002470 <t1_taskB_generic_KINDERSICHERUNG_CTRL+0x344>
 2002244:	802000b7 	lui	v0,0x4001
 2002248:	04007423 	sb	zero,29(v0)
 200224c:	98000413 	li	a1,1
 2002250:	802000b7 	lui	v0,0x4001
 2002254:	04273823 	sb	a1,78(v0)
 2002258:	04646023 	sb	a0,24(v1)
 200225c:	004000eb 	ret
 2002260:	902000b7 	lui	a0,0x4001
 2002264:	94817003 	lb	a0,92(a0)
 2002268:	048118e3 	bnez	a0,20022f4 <t1_taskB_generic_KINDERSICHERUNG_CTRL+0x1c8>
 200226c:	902000b7 	lui	a0,0x4001
 2002270:	94816003 	lb	a0,88(a0)
 2002274:	f481e063 	beqz	a0,2002164 <t1_taskB_generic_KINDERSICHERUNG_CTRL+0x38>
 2002278:	f401d8e3 	bnez	v0,2002164 <t1_taskB_generic_KINDERSICHERUNG_CTRL+0x38>
 200227c:	902000b7 	lui	a0,0x4001
 2002280:	80000413 	li	v0,1
 2002284:	04807423 	sb	zero,29(a0)
 2002288:	902000b7 	lui	a0,0x4001
 200228c:	04a12c23 	sb	v0,75(a0)
 2002290:	04606023 	sb	v0,24(v1)
 2002294:	004000eb 	ret
 2002298:	04005063 	beqz	v0,20022c0 <t1_taskB_generic_KINDERSICHERUNG_CTRL+0x194>
 200229c:	982000b7 	lui	a1,0x4001
 20022a0:	9cc15403 	lb	a1,85(a1)
 20022a4:	04c038e3 	bnez	a1,20022c0 <t1_taskB_generic_KINDERSICHERUNG_CTRL+0x194>
 20022a8:	802000b7 	lui	v0,0x4001
 20022ac:	04007423 	sb	zero,29(v0)
 20022b0:	802000b7 	lui	v0,0x4001
 20022b4:	04252c23 	sb	a0,75(v0)
 20022b8:	04646423 	sb	a0,25(v1)
 20022bc:	004000eb 	ret
 20022c0:	902000b7 	lui	a0,0x4001
 20022c4:	94816803 	lb	a0,90(a0)
 20022c8:	04817863 	beqz	a0,2002384 <t1_taskB_generic_KINDERSICHERUNG_CTRL+0x258>
 20022cc:	982000b7 	lui	a1,0x4001
 20022d0:	9cc16403 	lb	a1,89(a1)
 20022d4:	04c160e3 	bnez	a1,2002384 <t1_taskB_generic_KINDERSICHERUNG_CTRL+0x258>
 20022d8:	902000b7 	lui	a0,0x4001
 20022dc:	80000413 	li	v0,1
 20022e0:	04807423 	sb	zero,29(a0)
 20022e4:	902000b7 	lui	a0,0x4001
 20022e8:	04a13823 	sb	v0,78(a0)
 20022ec:	04606423 	sb	v0,25(v1)
 20022f0:	004000eb 	ret
 20022f4:	902000b7 	lui	a0,0x4001
 20022f8:	94816003 	lb	a0,88(a0)
 20022fc:	0c8030e3 	bnez	a0,2002414 <t1_taskB_generic_KINDERSICHERUNG_CTRL+0x2e8>
 2002300:	f400c8e3 	bnez	v0,2002164 <t1_taskB_generic_KINDERSICHERUNG_CTRL+0x38>
 2002304:	902000b7 	lui	a0,0x4001
 2002308:	80000413 	li	v0,1
 200230c:	04807423 	sb	zero,29(a0)
 2002310:	902000b7 	lui	a0,0x4001
 2002314:	04a13823 	sb	v0,78(a0)
 2002318:	04606023 	sb	v0,24(v1)
 200231c:	004000eb 	ret
 2002320:	982000b7 	lui	a1,0x4001
 2002324:	9cc15803 	lb	a1,86(a1)
 2002328:	fcc07063 	beqz	a1,2002260 <t1_taskB_generic_KINDERSICHERUNG_CTRL+0x134>
 200232c:	802000b7 	lui	v0,0x4001
 2002330:	04007423 	sb	zero,29(v0)
 2002334:	98000413 	li	a1,1
 2002338:	802000b7 	lui	v0,0x4001
 200233c:	04272c23 	sb	a1,75(v0)
 2002340:	04646023 	sb	a0,24(v1)
 2002344:	004000eb 	ret
 2002348:	040020e3 	bnez	v0,2002358 <t1_taskB_generic_KINDERSICHERUNG_CTRL+0x22c>
 200234c:	802000b7 	lui	v0,0x4001
 2002350:	84015c03 	lb	v0,87(v0)
 2002354:	0401c8e3 	bnez	v0,2002438 <t1_taskB_generic_KINDERSICHERUNG_CTRL+0x30c>
 2002358:	f48018e3 	bnez	a0,2002164 <t1_taskB_generic_KINDERSICHERUNG_CTRL+0x38>
 200235c:	802000b7 	lui	v0,0x4001
 2002360:	84016c03 	lb	v0,91(v0)
 2002364:	f4000063 	beqz	v0,2002164 <t1_taskB_generic_KINDERSICHERUNG_CTRL+0x38>
 2002368:	802000b7 	lui	v0,0x4001
 200236c:	04007423 	sb	zero,29(v0)
 2002370:	802000b7 	lui	v0,0x4001
 2002374:	04013823 	sb	zero,78(v0)
 2002378:	80000413 	li	v0,1
 200237c:	04606823 	sb	v0,26(v1)
 2002380:	004000eb 	ret
 2002384:	040020e3 	bnez	v0,2002394 <t1_taskB_generic_KINDERSICHERUNG_CTRL+0x268>
 2002388:	802000b7 	lui	v0,0x4001
 200238c:	84015403 	lb	v0,85(v0)
 2002390:	040188e3 	bnez	v0,2002454 <t1_taskB_generic_KINDERSICHERUNG_CTRL+0x328>
 2002394:	ec81a0e3 	bnez	a0,2002164 <t1_taskB_generic_KINDERSICHERUNG_CTRL+0x38>
 2002398:	802000b7 	lui	v0,0x4001
 200239c:	84016403 	lb	v0,89(v0)
 20023a0:	ec018863 	beqz	v0,2002164 <t1_taskB_generic_KINDERSICHERUNG_CTRL+0x38>
 20023a4:	802000b7 	lui	v0,0x4001
 20023a8:	04007423 	sb	zero,29(v0)
 20023ac:	802000b7 	lui	v0,0x4001
 20023b0:	04013823 	sb	zero,78(v0)
 20023b4:	80000413 	li	v0,1
 20023b8:	04606423 	sb	v0,25(v1)
 20023bc:	004000eb 	ret
 20023c0:	802000b7 	lui	v0,0x4001
 20023c4:	04007423 	sb	zero,29(v0)
 20023c8:	802000b7 	lui	v0,0x4001
 20023cc:	04013823 	sb	zero,78(v0)
 20023d0:	802000b7 	lui	v0,0x4001
 20023d4:	04012c23 	sb	zero,75(v0)
 20023d8:	802000b7 	lui	v0,0x4001
 20023dc:	04666023 	sb	a1,24(v1)
 20023e0:	04006823 	sb	zero,26(v0)
 20023e4:	004000eb 	ret
 20023e8:	802000b7 	lui	v0,0x4001
 20023ec:	04007423 	sb	zero,29(v0)
 20023f0:	802000b7 	lui	v0,0x4001
 20023f4:	04013823 	sb	zero,78(v0)
 20023f8:	802000b7 	lui	v0,0x4001
 20023fc:	04012c23 	sb	zero,75(v0)
 2002400:	80000c13 	li	v0,3
 2002404:	04606023 	sb	v0,24(v1)
 2002408:	802000b7 	lui	v0,0x4001
 200240c:	04006423 	sb	zero,25(v0)
 2002410:	004000eb 	ret
 2002414:	902000b7 	lui	a0,0x4001
 2002418:	80000413 	li	v0,1
 200241c:	04807423 	sb	zero,29(a0)
 2002420:	902000b7 	lui	a0,0x4001
 2002424:	04a12c23 	sb	v0,75(a0)
 2002428:	902000b7 	lui	a0,0x4001
 200242c:	04a13823 	sb	v0,78(a0)
 2002430:	04606023 	sb	v0,24(v1)
 2002434:	004000eb 	ret
 2002438:	802000b7 	lui	v0,0x4001
 200243c:	04007423 	sb	zero,29(v0)
 2002440:	802000b7 	lui	v0,0x4001
 2002444:	04012c23 	sb	zero,75(v0)
 2002448:	80000413 	li	v0,1
 200244c:	04606823 	sb	v0,26(v1)
 2002450:	004000eb 	ret
 2002454:	802000b7 	lui	v0,0x4001
 2002458:	04007423 	sb	zero,29(v0)
 200245c:	802000b7 	lui	v0,0x4001
 2002460:	04012c23 	sb	zero,75(v0)
 2002464:	80000413 	li	v0,1
 2002468:	04606423 	sb	v0,25(v1)
 200246c:	004000eb 	ret
 2002470:	982000b7 	lui	a1,0x4001
 2002474:	80000413 	li	v0,1
 2002478:	04c07423 	sb	zero,29(a1)
 200247c:	982000b7 	lui	a1,0x4001
 2002480:	04e13823 	sb	v0,78(a1)
 2002484:	982000b7 	lui	a1,0x4001
 2002488:	04e12c23 	sb	v0,75(a1)
 200248c:	04646023 	sb	a0,24(v1)
 2002490:	004000eb 	ret

02002494 <t1_taskB_generic_FH_TUERMODUL_CTRL>:
 2002494:	802000b7 	lui	v0,0x4001
 2002498:	84031013 	add	v0,v0,196
 200249c:	8c003403 	lb	v1,13(v0)
 20024a0:	044048e3 	bnez	v1,20024c4 <t1_taskB_generic_FH_TUERMODUL_CTRL+0x30>
 20024a4:	8c003c03 	lb	v1,15(v0)
 20024a8:	04403063 	beqz	v1,20024c0 <t1_taskB_generic_FH_TUERMODUL_CTRL+0x2c>
 20024ac:	8c003803 	lb	v1,14(v0)
 20024b0:	044020e3 	bnez	v1,20024c0 <t1_taskB_generic_FH_TUERMODUL_CTRL+0x2c>
 20024b4:	04001023 	sb	zero,4(v0)
 20024b8:	04001823 	sb	zero,6(v0)
 20024bc:	004000eb 	ret
 20024c0:	004000eb 	ret
 20024c4:	8c002803 	lb	v1,10(v0)
 20024c8:	044020e3 	bnez	v1,20024d8 <t1_taskB_generic_FH_TUERMODUL_CTRL+0x44>
 20024cc:	90000c13 	li	a0,3
 20024d0:	882000b7 	lui	v1,0x4001
 20024d4:	04646023 	sb	a0,24(v1)
 20024d8:	8c004c03 	lb	v1,19(v0)
 20024dc:	044030e3 	bnez	v1,20024f4 <t1_taskB_generic_FH_TUERMODUL_CTRL+0x60>
 20024e0:	882000b7 	lui	v1,0x4001
 20024e4:	0c411023 	sb	zero,196(v1)
 20024e8:	90000413 	li	a0,1
 20024ec:	882000b7 	lui	v1,0x4001
 20024f0:	04643023 	sb	a0,12(v1)
 20024f4:	982000b7 	lui	a1,0x4001
 20024f8:	8cc05c03 	lb	v1,23(a1)
 20024fc:	90000413 	li	a0,1
 2002500:	a0000813 	li	a2,2
 2002504:	04242c23 	sb	a0,11(v0)
 2002508:	04245023 	sb	a0,20(v0)
 200250c:	04693863 	beq	v1,a2,20025a8 <t1_taskB_generic_FH_TUERMODUL_CTRL+0x114>
 2002510:	a8000c13 	li	a3,3
 2002514:	0c6a2063 	beq	v1,a3,2002624 <t1_taskB_generic_FH_TUERMODUL_CTRL+0x190>
 2002518:	90000413 	li	a0,1
 200251c:	0465a863 	beq	v1,a0,20025f0 <t1_taskB_generic_FH_TUERMODUL_CTRL+0x15c>
 2002520:	882000b7 	lui	v1,0x4001
 2002524:	04407423 	sb	zero,29(v1)
 2002528:	04e85c23 	sb	a2,23(a1)
 200252c:	902000b7 	lui	a0,0x4001
 2002530:	9c805803 	lb	a1,22(a0)
 2002534:	88000413 	li	v1,1
 2002538:	04e26863 	beq	a1,v1,200256c <t1_taskB_generic_FH_TUERMODUL_CTRL+0xd8>
 200253c:	982000b7 	lui	a1,0x4001
 2002540:	04c07423 	sb	zero,29(a1)
 2002544:	04a25823 	sb	v1,22(a0)
 2002548:	982000b7 	lui	a1,0x4001
 200254c:	902000b7 	lui	a0,0x4001
 2002550:	0cc0a123 	sw	zero,168(a1)
 2002554:	04a25423 	sb	v1,21(a0)
 2002558:	94001203 	lbu	a0,4(v0)
 200255c:	8c001a03 	lbu	v1,6(v0)
 2002560:	04241423 	sb	a0,5(v0)
 2002564:	04221c23 	sb	v1,7(v0)
 2002568:	004000eb 	ret
 200256c:	882000b7 	lui	v1,0x4001
 2002570:	8c407003 	lb	v1,28(v1)
 2002574:	0c67e063 	beq	v1,a1,2002764 <t1_taskB_generic_FH_TUERMODUL_CTRL+0x2d0>
 2002578:	902000b7 	lui	a0,0x4001
 200257c:	a4805403 	lb	a2,21(a0)
 2002580:	98000413 	li	a1,1
 2002584:	0d270863 	beq	a2,a1,2002708 <t1_taskB_generic_FH_TUERMODUL_CTRL+0x274>
 2002588:	882000b7 	lui	v1,0x4001
 200258c:	04407423 	sb	zero,29(v1)
 2002590:	04a65423 	sb	a1,21(a0)
 2002594:	8c001a03 	lbu	v1,6(v0)
 2002598:	94001203 	lbu	a0,4(v0)
 200259c:	04221c23 	sb	v1,7(v0)
 20025a0:	04241423 	sb	a0,5(v0)
 20025a4:	004000eb 	ret
 20025a8:	882000b7 	lui	v1,0x4001
 20025ac:	8c414c03 	lb	v1,83(v1)
 20025b0:	04402063 	beqz	v1,20025c0 <t1_taskB_generic_FH_TUERMODUL_CTRL+0x12c>
 20025b4:	882000b7 	lui	v1,0x4001
 20025b8:	8c414403 	lb	v1,81(v1)
 20025bc:	14401063 	beqz	v1,20027c4 <t1_taskB_generic_FH_TUERMODUL_CTRL+0x330>
 20025c0:	902000b7 	lui	a0,0x4001
 20025c4:	8c806c03 	lb	v1,27(a0)
 20025c8:	98000813 	li	a1,2
 20025cc:	14675863 	beq	v1,a1,2002878 <t1_taskB_generic_FH_TUERMODUL_CTRL+0x3e4>
 20025d0:	a0000c13 	li	a2,3
 20025d4:	1468f863 	beq	v1,a2,2002850 <t1_taskB_generic_FH_TUERMODUL_CTRL+0x3bc>
 20025d8:	98000413 	li	a1,1
 20025dc:	14665063 	beq	v1,a1,2002804 <t1_taskB_generic_FH_TUERMODUL_CTRL+0x370>
 20025e0:	882000b7 	lui	v1,0x4001
 20025e4:	04407423 	sb	zero,29(v1)
 20025e8:	04a86c23 	sb	a2,27(a0)
 20025ec:	ffffd067 	j	200252c <t1_taskB_generic_FH_TUERMODUL_CTRL+0x98>
 20025f0:	882000b7 	lui	v1,0x4001
 20025f4:	8c42a103 	lw	v1,168(v1)
 20025f8:	9000ec13 	li	a0,59
 20025fc:	fc6460e3 	bne	v1,a0,200252c <t1_taskB_generic_FH_TUERMODUL_CTRL+0x98>
 2002600:	902000b7 	lui	a0,0x4001
 2002604:	94828103 	lw	a0,160(a0)
 2002608:	fca24863 	beq	a0,v1,200252c <t1_taskB_generic_FH_TUERMODUL_CTRL+0x98>
 200260c:	882000b7 	lui	v1,0x4001
 2002610:	04407423 	sb	zero,29(v1)
 2002614:	882000b7 	lui	v1,0x4001
 2002618:	04ea5c23 	sb	a3,23(a1)
 200261c:	046a5023 	sb	a3,20(v1)
 2002620:	ffffc367 	j	200252c <t1_taskB_generic_FH_TUERMODUL_CTRL+0x98>
 2002624:	882000b7 	lui	v1,0x4001
 2002628:	8c42a103 	lw	v1,168(v1)
 200262c:	8c40f513 	slt	v1,v1,61
 2002630:	044098e3 	bnez	v1,200267c <t1_taskB_generic_FH_TUERMODUL_CTRL+0x1e8>
 2002634:	882000b7 	lui	v1,0x4001
 2002638:	8c428103 	lw	v1,160(v1)
 200263c:	8c40f513 	slt	v1,v1,61
 2002640:	04407863 	beqz	v1,200267c <t1_taskB_generic_FH_TUERMODUL_CTRL+0x1e8>
 2002644:	882000b7 	lui	v1,0x4001
 2002648:	8c417c03 	lb	v1,95(v1)
 200264c:	044060e3 	bnez	v1,200267c <t1_taskB_generic_FH_TUERMODUL_CTRL+0x1e8>
 2002650:	882000b7 	lui	v1,0x4001
 2002654:	8c418403 	lb	v1,97(v1)
 2002658:	044048e3 	bnez	v1,200267c <t1_taskB_generic_FH_TUERMODUL_CTRL+0x1e8>
 200265c:	882000b7 	lui	v1,0x4001
 2002660:	04407423 	sb	zero,29(v1)
 2002664:	882000b7 	lui	v1,0x4001
 2002668:	04412023 	sb	zero,72(v1)
 200266c:	882000b7 	lui	v1,0x4001
 2002670:	04411423 	sb	zero,69(v1)
 2002674:	04e45c23 	sb	a0,23(a1)
 2002678:	ffffad67 	j	200252c <t1_taskB_generic_FH_TUERMODUL_CTRL+0x98>
 200267c:	882000b7 	lui	v1,0x4001
 2002680:	8c414c03 	lb	v1,83(v1)
 2002684:	0440a863 	beqz	v1,20026d8 <t1_taskB_generic_FH_TUERMODUL_CTRL+0x244>
 2002688:	882000b7 	lui	v1,0x4001
 200268c:	8c414403 	lb	v1,81(v1)
 2002690:	044090e3 	bnez	v1,20026d8 <t1_taskB_generic_FH_TUERMODUL_CTRL+0x244>
 2002694:	882000b7 	lui	v1,0x4001
 2002698:	8c411803 	lb	v1,70(v1)
 200269c:	1441d863 	beqz	v1,2002988 <t1_taskB_generic_FH_TUERMODUL_CTRL+0x4f4>
 20026a0:	882000b7 	lui	v1,0x4001
 20026a4:	94408103 	lw	a0,32(v1)
 20026a8:	882000b7 	lui	v1,0x4001
 20026ac:	04407423 	sb	zero,29(v1)
 20026b0:	882000b7 	lui	v1,0x4001
 20026b4:	04411423 	sb	zero,69(v1)
 20026b8:	882000b7 	lui	v1,0x4001
 20026bc:	0c64d123 	sw	a0,180(v1)
 20026c0:	88000813 	li	v1,2
 20026c4:	04e25c23 	sb	v1,23(a1)
 20026c8:	90000c13 	li	a0,3
 20026cc:	882000b7 	lui	v1,0x4001
 20026d0:	04646c23 	sb	a0,27(v1)
 20026d4:	ffff9667 	j	200252c <t1_taskB_generic_FH_TUERMODUL_CTRL+0x98>
 20026d8:	902000b7 	lui	a0,0x4001
 20026dc:	8c805003 	lb	v1,20(a0)
 20026e0:	98000813 	li	a1,2
 20026e4:	14662063 	beq	v1,a1,20028f4 <t1_taskB_generic_FH_TUERMODUL_CTRL+0x460>
 20026e8:	a0000c13 	li	a2,3
 20026ec:	0c696863 	beq	v1,a2,20028a0 <t1_taskB_generic_FH_TUERMODUL_CTRL+0x40c>
 20026f0:	a8000413 	li	a3,1
 20026f4:	0c6a6863 	beq	v1,a3,2002828 <t1_taskB_generic_FH_TUERMODUL_CTRL+0x394>
 20026f8:	882000b7 	lui	v1,0x4001
 20026fc:	04407423 	sb	zero,29(v1)
 2002700:	04a85023 	sb	a2,20(a0)
 2002704:	ffff8a67 	j	200252c <t1_taskB_generic_FH_TUERMODUL_CTRL+0x98>
 2002708:	f468a0e3 	bne	v1,a2,2002558 <t1_taskB_generic_FH_TUERMODUL_CTRL+0xc4>
 200270c:	982000b7 	lui	a1,0x4001
 2002710:	9cc2e103 	lw	a1,184(a1)
 2002714:	f4c08863 	beqz	a1,2002558 <t1_taskB_generic_FH_TUERMODUL_CTRL+0xc4>
 2002718:	a02000b7 	lui	a2,0x4001
 200271c:	a5008103 	lw	a2,32(a2)
 2002720:	a53ff413 	add	a2,a2,-3
 2002724:	f4e868e3 	bne	a1,a2,2002558 <t1_taskB_generic_FH_TUERMODUL_CTRL+0xc4>
 2002728:	982000b7 	lui	a1,0x4001
 200272c:	9cc12403 	lb	a1,73(a1)
 2002730:	f4c050e3 	bnez	a1,2002558 <t1_taskB_generic_FH_TUERMODUL_CTRL+0xc4>
 2002734:	982000b7 	lui	a1,0x4001
 2002738:	9cc11803 	lb	a1,70(a1)
 200273c:	f4c038e3 	bnez	a1,2002558 <t1_taskB_generic_FH_TUERMODUL_CTRL+0xc4>
 2002740:	982000b7 	lui	a1,0x4001
 2002744:	a4c2a103 	lw	a2,168(a1)
 2002748:	f02822e3 	blez	a2,2002558 <t1_taskB_generic_FH_TUERMODUL_CTRL+0xc4>
 200274c:	a53ffc13 	add	a2,a2,-1
 2002750:	a82000b7 	lui	a3,0x4001
 2002754:	05407423 	sb	zero,29(a3)
 2002758:	0ce8a123 	sw	a2,168(a1)
 200275c:	04a25423 	sb	v1,21(a0)
 2002760:	ffff7e67 	j	2002558 <t1_taskB_generic_FH_TUERMODUL_CTRL+0xc4>
 2002764:	982000b7 	lui	a1,0x4001
 2002768:	9cc2f103 	lw	a1,188(a1)
 200276c:	f4c01863 	beqz	a1,2002578 <t1_taskB_generic_FH_TUERMODUL_CTRL+0xe4>
 2002770:	a02000b7 	lui	a2,0x4001
 2002774:	a5008103 	lw	a2,32(a2)
 2002778:	9d270033 	sub	a1,a2,a1
 200277c:	ece3f8e3 	bne	a1,v1,2002578 <t1_taskB_generic_FH_TUERMODUL_CTRL+0xe4>
 2002780:	982000b7 	lui	a1,0x4001
 2002784:	9cc12403 	lb	a1,73(a1)
 2002788:	04c020e3 	bnez	a1,2002798 <t1_taskB_generic_FH_TUERMODUL_CTRL+0x304>
 200278c:	982000b7 	lui	a1,0x4001
 2002790:	9cc11803 	lb	a1,70(a1)
 2002794:	ecc1c863 	beqz	a1,2002578 <t1_taskB_generic_FH_TUERMODUL_CTRL+0xe4>
 2002798:	982000b7 	lui	a1,0x4001
 200279c:	a4c2a103 	lw	a2,168(a1)
 20027a0:	88000413 	li	v1,1
 20027a4:	a82000b7 	lui	a3,0x4001
 20027a8:	a5000413 	add	a2,a2,1
 20027ac:	04a25823 	sb	v1,22(a0)
 20027b0:	902000b7 	lui	a0,0x4001
 20027b4:	05407423 	sb	zero,29(a3)
 20027b8:	0ce8a123 	sw	a2,168(a1)
 20027bc:	04a25423 	sb	v1,21(a0)
 20027c0:	ffff6667 	j	2002558 <t1_taskB_generic_FH_TUERMODUL_CTRL+0xc4>
 20027c4:	882000b7 	lui	v1,0x4001
 20027c8:	8c412403 	lb	v1,73(v1)
 20027cc:	ec41e863 	beqz	v1,20025c0 <t1_taskB_generic_FH_TUERMODUL_CTRL+0x12c>
 20027d0:	882000b7 	lui	v1,0x4001
 20027d4:	a4408103 	lw	a2,32(v1)
 20027d8:	902000b7 	lui	a0,0x4001
 20027dc:	04807423 	sb	zero,29(a0)
 20027e0:	902000b7 	lui	a0,0x4001
 20027e4:	04812023 	sb	zero,72(a0)
 20027e8:	902000b7 	lui	a0,0x4001
 20027ec:	88000c13 	li	v1,3
 20027f0:	0ca8b123 	sw	a2,172(a0)
 20027f4:	902000b7 	lui	a0,0x4001
 20027f8:	04e25c23 	sb	v1,23(a1)
 20027fc:	04a25023 	sb	v1,20(a0)
 2002800:	ffff4b67 	j	200252c <t1_taskB_generic_FH_TUERMODUL_CTRL+0x98>
 2002804:	882000b7 	lui	v1,0x4001
 2002808:	8c413c03 	lb	v1,79(v1)
 200280c:	ec4040e3 	bnez	v1,200252c <t1_taskB_generic_FH_TUERMODUL_CTRL+0x98>
 2002810:	882000b7 	lui	v1,0x4001
 2002814:	04407423 	sb	zero,29(v1)
 2002818:	882000b7 	lui	v1,0x4001
 200281c:	04412023 	sb	zero,72(v1)
 2002820:	04a86c23 	sb	a2,27(a0)
 2002824:	ffff4267 	j	200252c <t1_taskB_generic_FH_TUERMODUL_CTRL+0x98>
 2002828:	a82000b7 	lui	a3,0x4001
 200282c:	ad425103 	lw	a3,148(a3)
 2002830:	ad465513 	slt	a3,a3,405
 2002834:	0d4158e3 	bnez	a3,20029e0 <t1_taskB_generic_FH_TUERMODUL_CTRL+0x54c>
 2002838:	882000b7 	lui	v1,0x4001
 200283c:	04407423 	sb	zero,29(v1)
 2002840:	882000b7 	lui	v1,0x4001
 2002844:	04411423 	sb	zero,69(v1)
 2002848:	04a85023 	sb	a2,20(a0)
 200284c:	ffff3867 	j	200252c <t1_taskB_generic_FH_TUERMODUL_CTRL+0x98>
 2002850:	882000b7 	lui	v1,0x4001
 2002854:	8c413003 	lb	v1,76(v1)
 2002858:	0c40c063 	beqz	v1,20029b8 <t1_taskB_generic_FH_TUERMODUL_CTRL+0x524>
 200285c:	882000b7 	lui	v1,0x4001
 2002860:	04407423 	sb	zero,29(v1)
 2002864:	a0000413 	li	a2,1
 2002868:	882000b7 	lui	v1,0x4001
 200286c:	04691423 	sb	a2,69(v1)
 2002870:	04a66c23 	sb	a1,27(a0)
 2002874:	ffff2e67 	j	200252c <t1_taskB_generic_FH_TUERMODUL_CTRL+0x98>
 2002878:	882000b7 	lui	v1,0x4001
 200287c:	8c413003 	lb	v1,76(v1)
 2002880:	e44158e3 	bnez	v1,200252c <t1_taskB_generic_FH_TUERMODUL_CTRL+0x98>
 2002884:	882000b7 	lui	v1,0x4001
 2002888:	04407423 	sb	zero,29(v1)
 200288c:	882000b7 	lui	v1,0x4001
 2002890:	04411423 	sb	zero,69(v1)
 2002894:	88000c13 	li	v1,3
 2002898:	04a26c23 	sb	v1,27(a0)
 200289c:	ffff2467 	j	200252c <t1_taskB_generic_FH_TUERMODUL_CTRL+0x98>
 20028a0:	882000b7 	lui	v1,0x4001
 20028a4:	8c413c03 	lb	v1,79(v1)
 20028a8:	04412063 	beqz	v1,2002938 <t1_taskB_generic_FH_TUERMODUL_CTRL+0x4a4>
 20028ac:	882000b7 	lui	v1,0x4001
 20028b0:	8c413403 	lb	v1,77(v1)
 20028b4:	044108e3 	bnez	v1,2002938 <t1_taskB_generic_FH_TUERMODUL_CTRL+0x4a4>
 20028b8:	882000b7 	lui	v1,0x4001
 20028bc:	8c425103 	lw	v1,148(v1)
 20028c0:	0022f2e3 	blez	v1,2002938 <t1_taskB_generic_FH_TUERMODUL_CTRL+0x4a4>
 20028c4:	04a65023 	sb	a1,20(a0)
 20028c8:	902000b7 	lui	a0,0x4001
 20028cc:	04a64023 	sb	a1,16(a0)
 20028d0:	902000b7 	lui	a0,0x4001
 20028d4:	88000413 	li	v1,1
 20028d8:	a02000b7 	lui	a2,0x4001
 20028dc:	04a64823 	sb	a1,18(a0)
 20028e0:	902000b7 	lui	a0,0x4001
 20028e4:	05007423 	sb	zero,29(a2)
 20028e8:	04224423 	sb	v1,17(v0)
 20028ec:	04a32023 	sb	v1,72(a0)
 20028f0:	ffff0f67 	j	200252c <t1_taskB_generic_FH_TUERMODUL_CTRL+0x98>
 20028f4:	982000b7 	lui	a1,0x4001
 20028f8:	9cc25103 	lw	a1,148(a1)
 20028fc:	08260ae3 	blez	a1,2002a00 <t1_taskB_generic_FH_TUERMODUL_CTRL+0x56c>
 2002900:	a82000b7 	lui	a3,0x4001
 2002904:	9d404003 	lb	a1,16(a3)
 2002908:	a0000413 	li	a2,1
 200290c:	0ce8b863 	beq	a1,a2,2002a68 <t1_taskB_generic_FH_TUERMODUL_CTRL+0x5d4>
 2002910:	0ce21863 	beq	a1,v1,2002a1c <t1_taskB_generic_FH_TUERMODUL_CTRL+0x588>
 2002914:	902000b7 	lui	a0,0x4001
 2002918:	04807423 	sb	zero,29(a0)
 200291c:	902000b7 	lui	a0,0x4001
 2002920:	05624023 	sb	v1,16(a3)
 2002924:	04a24823 	sb	v1,18(a0)
 2002928:	882000b7 	lui	v1,0x4001
 200292c:	04284423 	sb	a2,17(v0)
 2002930:	04692023 	sb	a2,72(v1)
 2002934:	fffefe67 	j	200252c <t1_taskB_generic_FH_TUERMODUL_CTRL+0x98>
 2002938:	882000b7 	lui	v1,0x4001
 200293c:	8c413003 	lb	v1,76(v1)
 2002940:	dc41d863 	beqz	v1,200252c <t1_taskB_generic_FH_TUERMODUL_CTRL+0x98>
 2002944:	882000b7 	lui	v1,0x4001
 2002948:	8c412803 	lb	v1,74(v1)
 200294c:	dc41c0e3 	bnez	v1,200252c <t1_taskB_generic_FH_TUERMODUL_CTRL+0x98>
 2002950:	882000b7 	lui	v1,0x4001
 2002954:	8c425103 	lw	v1,148(v1)
 2002958:	8c465513 	slt	v1,v1,405
 200295c:	dc41a063 	beqz	v1,200252c <t1_taskB_generic_FH_TUERMODUL_CTRL+0x98>
 2002960:	982000b7 	lui	a1,0x4001
 2002964:	88000413 	li	v1,1
 2002968:	04c07423 	sb	zero,29(a1)
 200296c:	982000b7 	lui	a1,0x4001
 2002970:	04a25023 	sb	v1,20(a0)
 2002974:	04e31423 	sb	v1,69(a1)
 2002978:	90000813 	li	a0,2
 200297c:	882000b7 	lui	v1,0x4001
 2002980:	04644423 	sb	a0,17(v1)
 2002984:	fffeea67 	j	200252c <t1_taskB_generic_FH_TUERMODUL_CTRL+0x98>
 2002988:	882000b7 	lui	v1,0x4001
 200298c:	8c412403 	lb	v1,73(v1)
 2002990:	ec409063 	beqz	v1,20026d8 <t1_taskB_generic_FH_TUERMODUL_CTRL+0x244>
 2002994:	882000b7 	lui	v1,0x4001
 2002998:	94408103 	lw	a0,32(v1)
 200299c:	882000b7 	lui	v1,0x4001
 20029a0:	04407423 	sb	zero,29(v1)
 20029a4:	882000b7 	lui	v1,0x4001
 20029a8:	04412023 	sb	zero,72(v1)
 20029ac:	882000b7 	lui	v1,0x4001
 20029b0:	0c64c123 	sw	a0,176(v1)
 20029b4:	ffff4367 	j	20026c0 <t1_taskB_generic_FH_TUERMODUL_CTRL+0x22c>
 20029b8:	882000b7 	lui	v1,0x4001
 20029bc:	8c413c03 	lb	v1,79(v1)
 20029c0:	dc40d863 	beqz	v1,200252c <t1_taskB_generic_FH_TUERMODUL_CTRL+0x98>
 20029c4:	982000b7 	lui	a1,0x4001
 20029c8:	88000413 	li	v1,1
 20029cc:	04c07423 	sb	zero,29(a1)
 20029d0:	982000b7 	lui	a1,0x4001
 20029d4:	04e32023 	sb	v1,72(a1)
 20029d8:	04a26c23 	sb	v1,27(a0)
 20029dc:	fffed467 	j	200252c <t1_taskB_generic_FH_TUERMODUL_CTRL+0x98>
 20029e0:	a82000b7 	lui	a3,0x4001
 20029e4:	a5404403 	lb	a2,17(a3)
 20029e8:	0d220863 	beq	a2,v1,2002aec <t1_taskB_generic_FH_TUERMODUL_CTRL+0x658>
 20029ec:	0527b063 	beq	a2,a1,2002ac4 <t1_taskB_generic_FH_TUERMODUL_CTRL+0x630>
 20029f0:	882000b7 	lui	v1,0x4001
 20029f4:	04407423 	sb	zero,29(v1)
 20029f8:	05664423 	sb	a1,17(a3)
 20029fc:	fffecc67 	j	200252c <t1_taskB_generic_FH_TUERMODUL_CTRL+0x98>
 2002a00:	882000b7 	lui	v1,0x4001
 2002a04:	04407423 	sb	zero,29(v1)
 2002a08:	882000b7 	lui	v1,0x4001
 2002a0c:	04412023 	sb	zero,72(v1)
 2002a10:	88000c13 	li	v1,3
 2002a14:	04a25023 	sb	v1,20(a0)
 2002a18:	fffec567 	j	200252c <t1_taskB_generic_FH_TUERMODUL_CTRL+0x98>
 2002a1c:	882000b7 	lui	v1,0x4001
 2002a20:	8c413c03 	lb	v1,79(v1)
 2002a24:	044020e3 	bnez	v1,2002a34 <t1_taskB_generic_FH_TUERMODUL_CTRL+0x5a0>
 2002a28:	882000b7 	lui	v1,0x4001
 2002a2c:	8c413403 	lb	v1,77(v1)
 2002a30:	fc41a0e3 	bnez	v1,2002a00 <t1_taskB_generic_FH_TUERMODUL_CTRL+0x56c>
 2002a34:	982000b7 	lui	a1,0x4001
 2002a38:	94c04803 	lb	a0,18(a1)
 2002a3c:	88000413 	li	v1,1
 2002a40:	0ca2c863 	beq	a0,v1,2002ba4 <t1_taskB_generic_FH_TUERMODUL_CTRL+0x710>
 2002a44:	a0000813 	li	a2,2
 2002a48:	0ca82863 	beq	a0,a2,2002b5c <t1_taskB_generic_FH_TUERMODUL_CTRL+0x6c8>
 2002a4c:	902000b7 	lui	a0,0x4001
 2002a50:	04807423 	sb	zero,29(a0)
 2002a54:	902000b7 	lui	a0,0x4001
 2002a58:	04e84823 	sb	a2,18(a1)
 2002a5c:	04224423 	sb	v1,17(v0)
 2002a60:	04a32023 	sb	v1,72(a0)
 2002a64:	fffeb267 	j	200252c <t1_taskB_generic_FH_TUERMODUL_CTRL+0x98>
 2002a68:	882000b7 	lui	v1,0x4001
 2002a6c:	8c413003 	lb	v1,76(v1)
 2002a70:	04402063 	beqz	v1,2002a80 <t1_taskB_generic_FH_TUERMODUL_CTRL+0x5ec>
 2002a74:	882000b7 	lui	v1,0x4001
 2002a78:	8c412803 	lb	v1,74(v1)
 2002a7c:	fc410863 	beqz	v1,2002a00 <t1_taskB_generic_FH_TUERMODUL_CTRL+0x56c>
 2002a80:	882000b7 	lui	v1,0x4001
 2002a84:	8c413c03 	lb	v1,79(v1)
 2002a88:	04402063 	beqz	v1,2002a98 <t1_taskB_generic_FH_TUERMODUL_CTRL+0x604>
 2002a8c:	882000b7 	lui	v1,0x4001
 2002a90:	8c413403 	lb	v1,77(v1)
 2002a94:	fc40d863 	beqz	v1,2002a00 <t1_taskB_generic_FH_TUERMODUL_CTRL+0x56c>
 2002a98:	982000b7 	lui	a1,0x4001
 2002a9c:	94c04c03 	lb	a0,19(a1)
 2002aa0:	88000413 	li	v1,1
 2002aa4:	0ca30863 	beq	a0,v1,2002c28 <t1_taskB_generic_FH_TUERMODUL_CTRL+0x794>
 2002aa8:	a0000813 	li	a2,2
 2002aac:	0ca86863 	beq	a0,a2,2002be0 <t1_taskB_generic_FH_TUERMODUL_CTRL+0x74c>
 2002ab0:	902000b7 	lui	a0,0x4001
 2002ab4:	04807423 	sb	zero,29(a0)
 2002ab8:	04e84c23 	sb	a2,19(a1)
 2002abc:	04224423 	sb	v1,17(v0)
 2002ac0:	fffe9b67 	j	200252c <t1_taskB_generic_FH_TUERMODUL_CTRL+0x98>
 2002ac4:	982000b7 	lui	a1,0x4001
 2002ac8:	9cc13c03 	lb	a1,79(a1)
 2002acc:	04c0b063 	beqz	a1,2002b24 <t1_taskB_generic_FH_TUERMODUL_CTRL+0x690>
 2002ad0:	982000b7 	lui	a1,0x4001
 2002ad4:	9cc13403 	lb	a1,77(a1)
 2002ad8:	04c098e3 	bnez	a1,2002b24 <t1_taskB_generic_FH_TUERMODUL_CTRL+0x690>
 2002adc:	902000b7 	lui	a0,0x4001
 2002ae0:	04807423 	sb	zero,29(a0)
 2002ae4:	05624423 	sb	v1,17(a3)
 2002ae8:	fffe9167 	j	200252c <t1_taskB_generic_FH_TUERMODUL_CTRL+0x98>
 2002aec:	882000b7 	lui	v1,0x4001
 2002af0:	8c413c03 	lb	v1,79(v1)
 2002af4:	04409863 	beqz	v1,2002b40 <t1_taskB_generic_FH_TUERMODUL_CTRL+0x6ac>
 2002af8:	882000b7 	lui	v1,0x4001
 2002afc:	8c413403 	lb	v1,77(v1)
 2002b00:	044080e3 	bnez	v1,2002b40 <t1_taskB_generic_FH_TUERMODUL_CTRL+0x6ac>
 2002b04:	882000b7 	lui	v1,0x4001
 2002b08:	04407423 	sb	zero,29(v1)
 2002b0c:	882000b7 	lui	v1,0x4001
 2002b10:	04411423 	sb	zero,69(v1)
 2002b14:	88000c13 	li	v1,3
 2002b18:	04a25023 	sb	v1,20(a0)
 2002b1c:	05404423 	sb	zero,17(a3)
 2002b20:	fffe8367 	j	200252c <t1_taskB_generic_FH_TUERMODUL_CTRL+0x98>
 2002b24:	882000b7 	lui	v1,0x4001
 2002b28:	8c413003 	lb	v1,76(v1)
 2002b2c:	d44000e3 	bnez	v1,200252c <t1_taskB_generic_FH_TUERMODUL_CTRL+0x98>
 2002b30:	882000b7 	lui	v1,0x4001
 2002b34:	8c412803 	lb	v1,74(v1)
 2002b38:	cc41e863 	beqz	v1,200252c <t1_taskB_generic_FH_TUERMODUL_CTRL+0x98>
 2002b3c:	fffff267 	j	2002b04 <t1_taskB_generic_FH_TUERMODUL_CTRL+0x670>
 2002b40:	882000b7 	lui	v1,0x4001
 2002b44:	8c413003 	lb	v1,76(v1)
 2002b48:	cc41c863 	beqz	v1,200252c <t1_taskB_generic_FH_TUERMODUL_CTRL+0x98>
 2002b4c:	882000b7 	lui	v1,0x4001
 2002b50:	8c412803 	lb	v1,74(v1)
 2002b54:	cc41b0e3 	bnez	v1,200252c <t1_taskB_generic_FH_TUERMODUL_CTRL+0x98>
 2002b58:	ffffeb67 	j	2002b04 <t1_taskB_generic_FH_TUERMODUL_CTRL+0x670>
 2002b5c:	94006003 	lb	a0,24(v0)
 2002b60:	0c800863 	beqz	a0,2002c64 <t1_taskB_generic_FH_TUERMODUL_CTRL+0x7d0>
 2002b64:	902000b7 	lui	a0,0x4001
 2002b68:	a4808103 	lw	a2,32(a0)
 2002b6c:	902000b7 	lui	a0,0x4001
 2002b70:	04807423 	sb	zero,29(a0)
 2002b74:	902000b7 	lui	a0,0x4001
 2002b78:	04812023 	sb	zero,72(a0)
 2002b7c:	902000b7 	lui	a0,0x4001
 2002b80:	04a37823 	sb	v1,94(a0)
 2002b84:	902000b7 	lui	a0,0x4001
 2002b88:	0ca86123 	sw	a2,152(a0)
 2002b8c:	902000b7 	lui	a0,0x4001
 2002b90:	04225c23 	sb	v1,23(v0)
 2002b94:	04e24823 	sb	v1,18(a1)
 2002b98:	04004423 	sb	zero,17(v0)
 2002b9c:	04a31423 	sb	v1,69(a0)
 2002ba0:	fffe6367 	j	200252c <t1_taskB_generic_FH_TUERMODUL_CTRL+0x98>
 2002ba4:	8c005803 	lb	v1,22(v0)
 2002ba8:	04005c23 	sb	zero,23(v0)
 2002bac:	cc410063 	beqz	v1,200252c <t1_taskB_generic_FH_TUERMODUL_CTRL+0x98>
 2002bb0:	882000b7 	lui	v1,0x4001
 2002bb4:	04407423 	sb	zero,29(v1)
 2002bb8:	882000b7 	lui	v1,0x4001
 2002bbc:	04417823 	sb	zero,94(v1)
 2002bc0:	88000813 	li	v1,2
 2002bc4:	04e24823 	sb	v1,18(a1)
 2002bc8:	882000b7 	lui	v1,0x4001
 2002bcc:	04411423 	sb	zero,69(v1)
 2002bd0:	882000b7 	lui	v1,0x4001
 2002bd4:	04244423 	sb	a0,17(v0)
 2002bd8:	04652023 	sb	a0,72(v1)
 2002bdc:	fffe5467 	j	200252c <t1_taskB_generic_FH_TUERMODUL_CTRL+0x98>
 2002be0:	94006003 	lb	a0,24(v0)
 2002be4:	cc809063 	beqz	a0,200252c <t1_taskB_generic_FH_TUERMODUL_CTRL+0x98>
 2002be8:	902000b7 	lui	a0,0x4001
 2002bec:	a4808103 	lw	a2,32(a0)
 2002bf0:	902000b7 	lui	a0,0x4001
 2002bf4:	04807423 	sb	zero,29(a0)
 2002bf8:	902000b7 	lui	a0,0x4001
 2002bfc:	04a38023 	sb	v1,96(a0)
 2002c00:	902000b7 	lui	a0,0x4001
 2002c04:	04812023 	sb	zero,72(a0)
 2002c08:	902000b7 	lui	a0,0x4001
 2002c0c:	0ca87123 	sw	a2,156(a0)
 2002c10:	902000b7 	lui	a0,0x4001
 2002c14:	04225c23 	sb	v1,23(v0)
 2002c18:	04e24c23 	sb	v1,19(a1)
 2002c1c:	04004423 	sb	zero,17(v0)
 2002c20:	04a31423 	sb	v1,69(a0)
 2002c24:	fffe4267 	j	200252c <t1_taskB_generic_FH_TUERMODUL_CTRL+0x98>
 2002c28:	8c005803 	lb	v1,22(v0)
 2002c2c:	04005c23 	sb	zero,23(v0)
 2002c30:	c441f863 	beqz	v1,200252c <t1_taskB_generic_FH_TUERMODUL_CTRL+0x98>
 2002c34:	882000b7 	lui	v1,0x4001
 2002c38:	04407423 	sb	zero,29(v1)
 2002c3c:	882000b7 	lui	v1,0x4001
 2002c40:	04652023 	sb	a0,72(v1)
 2002c44:	882000b7 	lui	v1,0x4001
 2002c48:	04418023 	sb	zero,96(v1)
 2002c4c:	88000813 	li	v1,2
 2002c50:	04e24c23 	sb	v1,19(a1)
 2002c54:	882000b7 	lui	v1,0x4001
 2002c58:	04411423 	sb	zero,69(v1)
 2002c5c:	04244423 	sb	a0,17(v0)
 2002c60:	fffe3367 	j	200252c <t1_taskB_generic_FH_TUERMODUL_CTRL+0x98>
 2002c64:	902000b7 	lui	a0,0x4001
 2002c68:	94813003 	lb	a0,76(a0)
 2002c6c:	c4818063 	beqz	a0,200252c <t1_taskB_generic_FH_TUERMODUL_CTRL+0x98>
 2002c70:	902000b7 	lui	a0,0x4001
 2002c74:	94812803 	lb	a0,74(a0)
 2002c78:	c48168e3 	bnez	a0,200252c <t1_taskB_generic_FH_TUERMODUL_CTRL+0x98>
 2002c7c:	902000b7 	lui	a0,0x4001
 2002c80:	04807423 	sb	zero,29(a0)
 2002c84:	05624023 	sb	v1,16(a3)
 2002c88:	04c04823 	sb	zero,18(a1)
 2002c8c:	fffe2867 	j	200252c <t1_taskB_generic_FH_TUERMODUL_CTRL+0x98>

02002c90 <t1_taskB_generic_EINKLEMMSCHUTZ_CTRL>:
 2002c90:	802000b7 	lui	v0,0x4001
 2002c94:	84031013 	add	v0,v0,196
 2002c98:	8c004003 	lb	v1,16(v0)
 2002c9c:	04405063 	beqz	v1,2002cc4 <t1_taskB_generic_EINKLEMMSCHUTZ_CTRL+0x34>
 2002ca0:	902000b7 	lui	a0,0x4001
 2002ca4:	8c803803 	lb	v1,14(a0)
 2002ca8:	98000413 	li	a1,1
 2002cac:	04663863 	beq	v1,a1,2002cc8 <t1_taskB_generic_EINKLEMMSCHUTZ_CTRL+0x38>
 2002cb0:	a0000813 	li	a2,2
 2002cb4:	0468c063 	beq	v1,a2,2002d14 <t1_taskB_generic_EINKLEMMSCHUTZ_CTRL+0x84>
 2002cb8:	802000b7 	lui	v0,0x4001
 2002cbc:	04007423 	sb	zero,29(v0)
 2002cc0:	04a63823 	sb	a1,14(a0)
 2002cc4:	004000eb 	ret
 2002cc8:	882000b7 	lui	v1,0x4001
 2002ccc:	8c410c03 	lb	v1,67(v1)
 2002cd0:	fc41e863 	beqz	v1,2002cc4 <t1_taskB_generic_EINKLEMMSCHUTZ_CTRL+0x34>
 2002cd4:	882000b7 	lui	v1,0x4001
 2002cd8:	8c410803 	lb	v1,66(v1)
 2002cdc:	fc41d0e3 	bnez	v1,2002cc4 <t1_taskB_generic_EINKLEMMSCHUTZ_CTRL+0x34>
 2002ce0:	882000b7 	lui	v1,0x4001
 2002ce4:	8c413c03 	lb	v1,79(v1)
 2002ce8:	04402063 	beqz	v1,2002cf8 <t1_taskB_generic_EINKLEMMSCHUTZ_CTRL+0x68>
 2002cec:	882000b7 	lui	v1,0x4001
 2002cf0:	8c413003 	lb	v1,76(v1)
 2002cf4:	fc41a0e3 	bnez	v1,2002cc4 <t1_taskB_generic_EINKLEMMSCHUTZ_CTRL+0x34>
 2002cf8:	882000b7 	lui	v1,0x4001
 2002cfc:	04407423 	sb	zero,29(v1)
 2002d00:	88000413 	li	v1,1
 2002d04:	04226023 	sb	v1,24(v0)
 2002d08:	80000813 	li	v0,2
 2002d0c:	04a03823 	sb	v0,14(a0)
 2002d10:	004000eb 	ret
 2002d14:	882000b7 	lui	v1,0x4001
 2002d18:	8c410c03 	lb	v1,67(v1)
 2002d1c:	04006023 	sb	zero,24(v0)
 2002d20:	fc4148e3 	bnez	v1,2002cc4 <t1_taskB_generic_EINKLEMMSCHUTZ_CTRL+0x34>
 2002d24:	802000b7 	lui	v0,0x4001
 2002d28:	84010803 	lb	v0,66(v0)
 2002d2c:	fc013063 	beqz	v0,2002cc4 <t1_taskB_generic_EINKLEMMSCHUTZ_CTRL+0x34>
 2002d30:	802000b7 	lui	v0,0x4001
 2002d34:	04007423 	sb	zero,29(v0)
 2002d38:	04a63823 	sb	a1,14(a0)
 2002d3c:	004000eb 	ret

02002d40 <t1_taskB_generic_BLOCK_ERKENNUNG_CTRL>:
 2002d40:	882000b7 	lui	v1,0x4001
 2002d44:	84431013 	add	v0,v1,196
 2002d48:	94004c03 	lb	a0,19(v0)
 2002d4c:	048038e3 	bnez	a0,2002d68 <t1_taskB_generic_BLOCK_ERKENNUNG_CTRL+0x28>
 2002d50:	94005403 	lb	a0,21(v0)
 2002d54:	04807063 	beqz	a0,2002d8c <t1_taskB_generic_BLOCK_ERKENNUNG_CTRL+0x4c>
 2002d58:	84005003 	lb	v0,20(v0)
 2002d5c:	040060e3 	bnez	v0,2002d8c <t1_taskB_generic_BLOCK_ERKENNUNG_CTRL+0x4c>
 2002d60:	0c411023 	sb	zero,196(v1)
 2002d64:	004000eb 	ret
 2002d68:	902000b7 	lui	a0,0x4001
 2002d6c:	84803003 	lb	v0,12(a0)
 2002d70:	98000413 	li	a1,1
 2002d74:	04263863 	beq	v0,a1,2002d90 <t1_taskB_generic_BLOCK_ERKENNUNG_CTRL+0x50>
 2002d78:	a0000813 	li	a2,2
 2002d7c:	0428d863 	beq	v0,a2,2002de8 <t1_taskB_generic_BLOCK_ERKENNUNG_CTRL+0xa8>
 2002d80:	802000b7 	lui	v0,0x4001
 2002d84:	04007423 	sb	zero,29(v0)
 2002d88:	04a63023 	sb	a1,12(a0)
 2002d8c:	004000eb 	ret
 2002d90:	982000b7 	lui	a1,0x4001
 2002d94:	a02000b7 	lui	a2,0x4001
 2002d98:	9cc24103 	lw	a1,144(a1)
 2002d9c:	a5023103 	lw	a2,140(a2)
 2002da0:	fce9d863 	beq	a1,a2,2002d8c <t1_taskB_generic_BLOCK_ERKENNUNG_CTRL+0x4c>
 2002da4:	f827d2e3 	blez	a1,2002d8c <t1_taskB_generic_BLOCK_ERKENNUNG_CTRL+0x4c>
 2002da8:	982000b7 	lui	a1,0x4001
 2002dac:	04c07423 	sb	zero,29(a1)
 2002db0:	982000b7 	lui	a1,0x4001
 2002db4:	04c14823 	sb	zero,82(a1)
 2002db8:	98000813 	li	a1,2
 2002dbc:	04a63023 	sb	a1,12(a0)
 2002dc0:	902000b7 	lui	a0,0x4001
 2002dc4:	98000813 	li	a1,2
 2002dc8:	0481b123 	sw	zero,108(a0)
 2002dcc:	902000b7 	lui	a0,0x4001
 2002dd0:	04a7d123 	sw	a1,116(a0)
 2002dd4:	98000c13 	li	a1,3
 2002dd8:	902000b7 	lui	a0,0x4001
 2002ddc:	04a63423 	sb	a1,13(a0)
 2002de0:	0c611023 	sb	v0,196(v1)
 2002de4:	004000eb 	ret
 2002de8:	802000b7 	lui	v0,0x4001
 2002dec:	84011803 	lb	v0,70(v0)
 2002df0:	0400c063 	beqz	v0,2002e50 <t1_taskB_generic_BLOCK_ERKENNUNG_CTRL+0x110>
 2002df4:	802000b7 	lui	v0,0x4001
 2002df8:	84012403 	lb	v0,73(v0)
 2002dfc:	040020e3 	bnez	v0,2002e0c <t1_taskB_generic_BLOCK_ERKENNUNG_CTRL+0xcc>
 2002e00:	802000b7 	lui	v0,0x4001
 2002e04:	84011c03 	lb	v0,71(v0)
 2002e08:	0400a8e3 	bnez	v0,2002e5c <t1_taskB_generic_BLOCK_ERKENNUNG_CTRL+0x11c>
 2002e0c:	902000b7 	lui	a0,0x4001
 2002e10:	84803403 	lb	v0,13(a0)
 2002e14:	98000813 	li	a1,2
 2002e18:	0427b063 	beq	v0,a1,2002ef0 <t1_taskB_generic_BLOCK_ERKENNUNG_CTRL+0x1b0>
 2002e1c:	a0000c13 	li	a2,3
 2002e20:	0428b863 	beq	v0,a2,2002e7c <t1_taskB_generic_BLOCK_ERKENNUNG_CTRL+0x13c>
 2002e24:	a8000413 	li	a3,1
 2002e28:	042aa063 	beq	v0,a3,2002e78 <t1_taskB_generic_BLOCK_ERKENNUNG_CTRL+0x138>
 2002e2c:	802000b7 	lui	v0,0x4001
 2002e30:	04007423 	sb	zero,29(v0)
 2002e34:	802000b7 	lui	v0,0x4001
 2002e38:	0401b123 	sw	zero,108(v0)
 2002e3c:	802000b7 	lui	v0,0x4001
 2002e40:	0427d123 	sw	a1,116(v0)
 2002e44:	04a83423 	sb	a2,13(a0)
 2002e48:	0c6b1023 	sb	a3,196(v1)
 2002e4c:	004000eb 	ret
 2002e50:	802000b7 	lui	v0,0x4001
 2002e54:	84011003 	lb	v0,68(v0)
 2002e58:	fc013863 	beqz	v0,2002df4 <t1_taskB_generic_BLOCK_ERKENNUNG_CTRL+0xb4>
 2002e5c:	802000b7 	lui	v0,0x4001
 2002e60:	04007423 	sb	zero,29(v0)
 2002e64:	80000413 	li	v0,1
 2002e68:	04a03023 	sb	v0,12(a0)
 2002e6c:	802000b7 	lui	v0,0x4001
 2002e70:	04003423 	sb	zero,13(v0)
 2002e74:	004000eb 	ret
 2002e78:	004000eb 	ret
 2002e7c:	a02000b7 	lui	a2,0x4001
 2002e80:	8501b103 	lw	v0,108(a2)
 2002e84:	0c411023 	sb	zero,196(v1)
 2002e88:	88002c13 	li	v1,11
 2002e8c:	04233063 	beq	v0,v1,2002f24 <t1_taskB_generic_BLOCK_ERKENNUNG_CTRL+0x1e4>
 2002e90:	882000b7 	lui	v1,0x4001
 2002e94:	94407003 	lb	a0,28(v1)
 2002e98:	88000413 	li	v1,1
 2002e9c:	f4a3e0e3 	bne	a0,v1,2002d8c <t1_taskB_generic_BLOCK_ERKENNUNG_CTRL+0x4c>
 2002ea0:	882000b7 	lui	v1,0x4001
 2002ea4:	8c430103 	lw	v1,192(v1)
 2002ea8:	f441c863 	beqz	v1,2002d8c <t1_taskB_generic_BLOCK_ERKENNUNG_CTRL+0x4c>
 2002eac:	902000b7 	lui	a0,0x4001
 2002eb0:	94808103 	lw	a0,32(a0)
 2002eb4:	8ca30033 	sub	v1,a0,v1
 2002eb8:	8c40f0d3 	fcvt.d.wu	fv1,v1
 2002ebc:	88200037 	lui	v1,0x4000
 2002ec0:	84402187 	fld	fv0,8(v1)
 2002ec4:	8c6150d3 	feq.d	v1,fv1,fv0
 2002ec8:	f4418863 	beqz	v1,2002d8c <t1_taskB_generic_BLOCK_ERKENNUNG_CTRL+0x4c>
 2002ecc:	882000b7 	lui	v1,0x4001
 2002ed0:	902000b7 	lui	a0,0x4001
 2002ed4:	94824103 	lw	a0,144(a0)
 2002ed8:	9c41d103 	lw	a1,116(v1)
 2002edc:	84000413 	add	v0,v0,1
 2002ee0:	0521b123 	sw	v0,108(a2)
 2002ee4:	f4e552e3 	ble	a0,a1,2002d8c <t1_taskB_generic_BLOCK_ERKENNUNG_CTRL+0x4c>
 2002ee8:	0465d123 	sw	a0,116(v1)
 2002eec:	004000eb 	ret
 2002ef0:	802000b7 	lui	v0,0x4001
 2002ef4:	8c01d103 	lw	v1,116(v0)
 2002ef8:	802000b7 	lui	v0,0x4001
 2002efc:	84024103 	lw	v0,144(v0)
 2002f00:	8c7ffc13 	add	v1,v1,-1
 2002f04:	f4231263 	blt	v0,v1,2002d8c <t1_taskB_generic_BLOCK_ERKENNUNG_CTRL+0x4c>
 2002f08:	882000b7 	lui	v1,0x4001
 2002f0c:	80000413 	li	v0,1
 2002f10:	04407423 	sb	zero,29(v1)
 2002f14:	882000b7 	lui	v1,0x4001
 2002f18:	04614823 	sb	v0,82(v1)
 2002f1c:	04a03423 	sb	v0,13(a0)
 2002f20:	004000eb 	ret
 2002f24:	882000b7 	lui	v1,0x4001
 2002f28:	8c419103 	lw	v1,100(v1)
 2002f2c:	fc60c863 	beq	v1,v0,2002e90 <t1_taskB_generic_BLOCK_ERKENNUNG_CTRL+0x150>
 2002f30:	802000b7 	lui	v0,0x4001
 2002f34:	04007423 	sb	zero,29(v0)
 2002f38:	04a63423 	sb	a1,13(a0)
 2002f3c:	004000eb 	ret

02002f40 <t1_taskB_FH_DU>:
 2002f40:	73be2013 	add	sp,sp,-120
 2002f44:	0385c123 	sw	s0,112(sp)
 2002f48:	102000b7 	lui	s0,0x4001
 2002f4c:	0387b123 	sw	s1,108(sp)
 2002f50:	0389a123 	sw	s2,104(sp)
 2002f54:	038b9123 	sw	s3,100(sp)
 2002f58:	038d8123 	sw	s4,96(sp)
 2002f5c:	038f7123 	sw	s5,92(sp)
 2002f60:	03916123 	sw	s6,88(sp)
 2002f64:	03935123 	sw	s7,84(sp)
 2002f68:	03954123 	sw	s8,80(sp)
 2002f6c:	03973123 	sw	s9,76(sp)
 2002f70:	03992123 	sw	s10,72(sp)
 2002f74:	039b1123 	sw	s11,68(sp)
 2002f78:	0383d123 	sw	ra,116(sp)
 2002f7c:	10831013 	add	s0,s0,196
 2002f80:	88000413 	li	v1,1
 2002f84:	802000b7 	lui	v0,0x4001
 2002f88:	04228123 	sw	v1,32(v0)
 2002f8c:	a8804003 	lb	a3,16(s0)
 2002f90:	88802803 	lb	v1,10(s0)
 2002f94:	b0804c03 	lb	a4,19(s0)
 2002f98:	b8803403 	lb	a5,13(s0)
 2002f9c:	802000b7 	lui	v0,0x4001
 2002fa0:	c02000b7 	lui	a6,0x4001
 2002fa4:	c82000b7 	lui	a7,0x4001
 2002fa8:	04007023 	sb	zero,28(v0)
 2002fac:	03a2a123 	sw	v1,40(sp)
 2002fb0:	8600d803 	lb	v0,54(a6)
 2002fb4:	03aac123 	sw	a3,48(sp)
 2002fb8:	03acd123 	sw	a4,52(sp)
 2002fbc:	03aeb123 	sw	a5,44(sp)
 2002fc0:	c640d003 	lb	a6,52(a7)
 2002fc4:	582000b7 	lui	s9,0x4001
 2002fc8:	602000b7 	lui	s10,0x4001
 2002fcc:	202000b7 	lui	s2,0x4001
 2002fd0:	e02000b7 	lui	a10,0x4001
 2002fd4:	182000b7 	lui	s1,0x4001
 2002fd8:	502000b7 	lui	s8,0x4001
 2002fdc:	482000b7 	lui	s7,0x4001
 2002fe0:	402000b7 	lui	s6,0x4001
 2002fe4:	382000b7 	lui	s5,0x4001
 2002fe8:	302000b7 	lui	s4,0x4001
 2002fec:	282000b7 	lui	s3,0x4001
 2002ff0:	a02000b7 	lui	a2,0x4001
 2002ff4:	982000b7 	lui	a1,0x4001
 2002ff8:	902000b7 	lui	a0,0x4001
 2002ffc:	882000b7 	lui	v1,0x4001
 2003000:	682000b7 	lui	s11,0x4001
 2003004:	00016e67 	j	20035bc <t1_taskB_FH_DU+0x67c>
 2003008:	b0000c13 	li	a4,3
 200300c:	356c2063 	beq	a3,a4,200361c <t1_taskB_FH_DU+0x6dc>
 2003010:	b0000413 	li	a4,1
 2003014:	356c7863 	beq	a3,a4,2003650 <t1_taskB_FH_DU+0x710>
 2003018:	f82000b7 	lui	a13,0x4001
 200301c:	a82000b7 	lui	a3,0x4001
 2003020:	b8000813 	li	a5,2
 2003024:	b02000b7 	lui	a4,0x4001
 2003028:	07c07423 	sb	zero,29(a13)
 200302c:	0d402123 	sw	zero,136(a3)
 2003030:	05ae3c23 	sb	a5,15(a4)
 2003034:	cb80a103 	lw	a7,40(sp)
 2003038:	064020e3 	bnez	a7,2003048 <t1_taskB_FH_DU+0x108>
 200303c:	a8000c13 	li	a3,3
 2003040:	d02000b7 	lui	a8,0x4001
 2003044:	06aa6023 	sb	a3,24(a8)
 2003048:	db80c103 	lw	a9,48(sp)
 200304c:	06c020e3 	bnez	a9,200305c <t1_taskB_FH_DU+0x11c>
 2003050:	b0000413 	li	a4,1
 2003054:	a82000b7 	lui	a3,0x4001
 2003058:	056c3823 	sb	a4,14(a3)
 200305c:	eb80d103 	lw	a11,52(sp)
 2003060:	074030e3 	bnez	a11,2003078 <t1_taskB_FH_DU+0x138>
 2003064:	a82000b7 	lui	a3,0x4001
 2003068:	0d411023 	sb	zero,196(a3)
 200306c:	b0000413 	li	a4,1
 2003070:	a82000b7 	lui	a3,0x4001
 2003074:	056c3023 	sb	a4,12(a3)
 2003078:	f380b103 	lw	a12,44(sp)
 200307c:	078070e3 	bnez	a12,20030b4 <t1_taskB_FH_DU+0x174>
 2003080:	b0000813 	li	a4,2
 2003084:	f82000b7 	lui	a13,0x4001
 2003088:	a8000413 	li	a3,1
 200308c:	07ec5c23 	sb	a4,23(a13)
 2003090:	b02000b7 	lui	a4,0x4001
 2003094:	b82000b7 	lui	a5,0x4001
 2003098:	05aa5823 	sb	a3,22(a4)
 200309c:	b02000b7 	lui	a4,0x4001
 20030a0:	00801023 	sb	zero,4(s0)
 20030a4:	00801823 	sb	zero,6(s0)
 20030a8:	0dc0a123 	sw	zero,168(a5)
 20030ac:	00aa1423 	sb	a3,5(s0)
 20030b0:	05aa5423 	sb	a3,21(a4)
 20030b4:	a8000413 	li	a3,1
 20030b8:	00aa2c23 	sb	a3,11(s0)
 20030bc:	00aa4423 	sb	a3,17(s0)
 20030c0:	00aa5023 	sb	a3,20(s0)
 20030c4:	00aa3823 	sb	a3,14(s0)
 20030c8:	04302863 	beq	v0,a6,20030dc <t1_taskB_FH_DU+0x19c>
 20030cc:	a82000b7 	lui	a3,0x4001
 20030d0:	ad40b403 	lb	a3,45(a3)
 20030d4:	054010e3 	bnez	a3,20030dc <t1_taskB_FH_DU+0x19c>
 20030d8:	0120f823 	sb	v0,62(s2)
 20030dc:	c02000b7 	lui	a6,0x4001
 20030e0:	c82000b7 	lui	a7,0x4001
 20030e4:	8600cc03 	lb	v0,51(a6)
 20030e8:	ae40c803 	lb	a3,50(a7)
 20030ec:	05603063 	beq	a3,v0,2003104 <t1_taskB_FH_DU+0x1c4>
 20030f0:	a82000b7 	lui	a3,0x4001
 20030f4:	ad40b403 	lb	a3,45(a3)
 20030f8:	05401863 	beqz	a3,2003104 <t1_taskB_FH_DU+0x1c4>
 20030fc:	d02000b7 	lui	a8,0x4001
 2003100:	06a0d823 	sb	v0,54(a8)
 2003104:	d82000b7 	lui	a9,0x4001
 2003108:	8700e403 	lb	v0,57(a10)
 200310c:	aec0dc03 	lb	a3,55(a9)
 2003110:	05602863 	beq	a3,v0,2003124 <t1_taskB_FH_DU+0x1e4>
 2003114:	a82000b7 	lui	a3,0x4001
 2003118:	ad40b403 	lb	a3,45(a3)
 200311c:	054010e3 	bnez	a3,2003124 <t1_taskB_FH_DU+0x1e4>
 2003120:	00e0f423 	sb	v0,61(s1)
 2003124:	e82000b7 	lui	a11,0x4001
 2003128:	f02000b7 	lui	a12,0x4001
 200312c:	8740c403 	lb	v0,49(a11)
 2003130:	af80c003 	lb	a3,48(a12)
 2003134:	05602863 	beq	a3,v0,2003148 <t1_taskB_FH_DU+0x208>
 2003138:	a82000b7 	lui	a3,0x4001
 200313c:	ad40b403 	lb	a3,45(a3)
 2003140:	05401063 	beqz	a3,2003148 <t1_taskB_FH_DU+0x208>
 2003144:	0720e423 	sb	v0,57(a10)
 2003148:	d8803203 	lbu	a9,12(s0)
 200314c:	d0803e03 	lbu	a8,15(s0)
 2003150:	c8804a03 	lbu	a7,18(s0)
 2003154:	c0805603 	lbu	a6,21(s0)
 2003158:	ba40ba03 	lbu	a5,46(s7)
 200315c:	b0c0f603 	lbu	a4,61(s1)
 2003160:	a980be03 	lbu	a3,47(s4)
 2003164:	8100fa03 	lbu	v0,62(s2)
 2003168:	00b62823 	sb	a9,10(s0)
 200316c:	00b43423 	sb	a8,13(s0)
 2003170:	00b24023 	sb	a7,16(s0)
 2003174:	00b04c23 	sb	a6,19(s0)
 2003178:	02af5823 	sb	a5,86(s8)
 200317c:	03b86123 	sw	a10,24(sp)
 2003180:	022d6023 	sb	a4,88(s6)
 2003184:	01eb6823 	sb	a3,90(s5)
 2003188:	01617023 	sb	v0,92(s3)
 200318c:	03a25123 	sw	v1,20(sp)
 2003190:	03a48123 	sw	a0,32(sp)
 2003194:	03a64123 	sw	a1,16(sp)
 2003198:	03a87123 	sw	a2,28(sp)
 200319c:	fffbe46f 	jal	200212c <t1_taskB_generic_KINDERSICHERUNG_CTRL>
 20031a0:	a3807103 	lw	a2,28(sp)
 20031a4:	9b804103 	lw	a1,16(sp)
 20031a8:	f82000b7 	lui	a13,0x4001
 20031ac:	802000b7 	lui	v0,0x4001
 20031b0:	0fc11a03 	lbu	ra,70(a13)
 20031b4:	93808103 	lw	a0,32(sp)
 20031b8:	fc012603 	lbu	a13,73(v0)
 20031bc:	8b805103 	lw	v1,20(sp)
 20031c0:	f5024103 	lw	a12,144(a2)
 20031c4:	a82000b7 	lui	a3,0x4001
 20031c8:	ed410e03 	lbu	a11,67(a3)
 20031cc:	dcc25103 	lw	a9,148(a1)
 20031d0:	d4814203 	lbu	a8,80(a0)
 20031d4:	ac415203 	lbu	a3,84(v1)
 20031d8:	ca815a03 	lbu	a7,86(s8)
 20031dc:	c2016203 	lbu	a6,88(s6)
 20031e0:	b9c16a03 	lbu	a5,90(s5)
 20031e4:	b1417203 	lbu	a4,92(s3)
 20031e8:	83414e03 	lbu	v0,83(s11)
 20031ec:	02fea423 	sb	a13,41(s9)
 20031f0:	f82000b7 	lui	a13,0x4001
 20031f4:	07fdf123 	sw	a12,124(a13)
 20031f8:	f82000b7 	lui	a13,0x4001
 20031fc:	f02000b7 	lui	a12,0x4001
 2003200:	07baec23 	sb	a11,59(a12)
 2003204:	0ff60123 	sw	a9,128(a13)
 2003208:	e82000b7 	lui	a11,0x4001
 200320c:	d82000b7 	lui	a9,0x4001
 2003210:	f02000b7 	lui	a12,0x4001
 2003214:	06f4f023 	sb	a8,60(a9)
 2003218:	076afc23 	sb	a3,63(a11)
 200321c:	07a0b023 	sb	v0,44(a12)
 2003220:	03029823 	sb	ra,38(s10)
 2003224:	0272b823 	sb	a7,46(s7)
 2003228:	00f0f423 	sb	a6,61(s1)
 200322c:	01aebc23 	sb	a5,47(s4)
 2003230:	012cf823 	sb	a4,62(s2)
 2003234:	fffc986f 	jal	2002494 <t1_taskB_generic_FH_TUERMODUL_CTRL>
 2003238:	a3807103 	lw	a2,28(sp)
 200323c:	9b804103 	lw	a1,16(sp)
 2003240:	f82000b7 	lui	a13,0x4001
 2003244:	802000b7 	lui	v0,0x4001
 2003248:	0fc11a03 	lbu	ra,70(a13)
 200324c:	93808103 	lw	a0,32(sp)
 2003250:	fc012603 	lbu	a13,73(v0)
 2003254:	8b805103 	lw	v1,20(sp)
 2003258:	f5024103 	lw	a12,144(a2)
 200325c:	a82000b7 	lui	a3,0x4001
 2003260:	ed410e03 	lbu	a11,67(a3)
 2003264:	dcc25103 	lw	a9,148(a1)
 2003268:	d4814203 	lbu	a8,80(a0)
 200326c:	ac415203 	lbu	a3,84(v1)
 2003270:	ca815a03 	lbu	a7,86(s8)
 2003274:	c2016203 	lbu	a6,88(s6)
 2003278:	b9c16a03 	lbu	a5,90(s5)
 200327c:	b1417203 	lbu	a4,92(s3)
 2003280:	83414e03 	lbu	v0,83(s11)
 2003284:	02fea423 	sb	a13,41(s9)
 2003288:	f82000b7 	lui	a13,0x4001
 200328c:	07fdf123 	sw	a12,124(a13)
 2003290:	f82000b7 	lui	a13,0x4001
 2003294:	f02000b7 	lui	a12,0x4001
 2003298:	07baec23 	sb	a11,59(a12)
 200329c:	0ff60123 	sw	a9,128(a13)
 20032a0:	e82000b7 	lui	a11,0x4001
 20032a4:	d82000b7 	lui	a9,0x4001
 20032a8:	f02000b7 	lui	a12,0x4001
 20032ac:	06f4f023 	sb	a8,60(a9)
 20032b0:	076afc23 	sb	a3,63(a11)
 20032b4:	07a0b023 	sb	v0,44(a12)
 20032b8:	03029823 	sb	ra,38(s10)
 20032bc:	0272b823 	sb	a7,46(s7)
 20032c0:	00f0f423 	sb	a6,61(s1)
 20032c4:	01aebc23 	sb	a5,47(s4)
 20032c8:	012cf823 	sb	a4,62(s2)
 20032cc:	fffe716f 	jal	2002c90 <t1_taskB_generic_EINKLEMMSCHUTZ_CTRL>
 20032d0:	a3807103 	lw	a2,28(sp)
 20032d4:	9b804103 	lw	a1,16(sp)
 20032d8:	f82000b7 	lui	a13,0x4001
 20032dc:	802000b7 	lui	v0,0x4001
 20032e0:	0fc11a03 	lbu	ra,70(a13)
 20032e4:	93808103 	lw	a0,32(sp)
 20032e8:	fc012603 	lbu	a13,73(v0)
 20032ec:	8b805103 	lw	v1,20(sp)
 20032f0:	f5024103 	lw	a12,144(a2)
 20032f4:	a82000b7 	lui	a3,0x4001
 20032f8:	ed410e03 	lbu	a11,67(a3)
 20032fc:	dcc25103 	lw	a9,148(a1)
 2003300:	d4814203 	lbu	a8,80(a0)
 2003304:	ac415203 	lbu	a3,84(v1)
 2003308:	ca815a03 	lbu	a7,86(s8)
 200330c:	c2016203 	lbu	a6,88(s6)
 2003310:	b9c16a03 	lbu	a5,90(s5)
 2003314:	b1417203 	lbu	a4,92(s3)
 2003318:	83414e03 	lbu	v0,83(s11)
 200331c:	02fea423 	sb	a13,41(s9)
 2003320:	f82000b7 	lui	a13,0x4001
 2003324:	07fdf123 	sw	a12,124(a13)
 2003328:	f82000b7 	lui	a13,0x4001
 200332c:	f02000b7 	lui	a12,0x4001
 2003330:	07baec23 	sb	a11,59(a12)
 2003334:	0ff60123 	sw	a9,128(a13)
 2003338:	e82000b7 	lui	a11,0x4001
 200333c:	d82000b7 	lui	a9,0x4001
 2003340:	f02000b7 	lui	a12,0x4001
 2003344:	06f4f023 	sb	a8,60(a9)
 2003348:	076afc23 	sb	a3,63(a11)
 200334c:	07a0b023 	sb	v0,44(a12)
 2003350:	0272b823 	sb	a7,46(s7)
 2003354:	00f0f423 	sb	a6,61(s1)
 2003358:	01aebc23 	sb	a5,47(s4)
 200335c:	012cf823 	sb	a4,62(s2)
 2003360:	03029823 	sb	ra,38(s10)
 2003364:	fffe776f 	jal	2002d40 <t1_taskB_generic_BLOCK_ERKENNUNG_CTRL>
 2003368:	d0803403 	lb	a8,13(s0)
 200336c:	d8804003 	lb	a9,16(s0)
 2003370:	a3807103 	lw	a2,28(sp)
 2003374:	c8802803 	lb	a7,10(s0)
 2003378:	f82000b7 	lui	a13,0x4001
 200337c:	afc10c03 	lb	a3,67(a13)
 2003380:	b2815803 	lb	a4,86(s8)
 2003384:	f8804c03 	lb	a13,19(s0)
 2003388:	9b804103 	lw	a1,16(sp)
 200338c:	85024103 	lw	v0,144(a2)
 2003390:	ba016003 	lb	a5,88(s6)
 2003394:	93808103 	lw	a0,32(sp)
 2003398:	03b4b123 	sw	a8,44(sp)
 200339c:	03b6c123 	sw	a9,48(sp)
 20033a0:	d02000b7 	lui	a8,0x4001
 20033a4:	d82000b7 	lui	a9,0x4001
 20033a8:	03b2a123 	sw	a7,40(sp)
 20033ac:	ce82a103 	lw	a7,168(a8)
 20033b0:	d6c21103 	lw	a8,132(a9)
 20033b4:	d82000b7 	lui	a9,0x4001
 20033b8:	03ace123 	sw	a4,56(sp)
 20033bc:	03bed123 	sw	a13,52(sp)
 20033c0:	b4c25103 	lw	a4,148(a1)
 20033c4:	fec1b103 	lw	a13,108(a9)
 20033c8:	d82000b7 	lui	a9,0x4001
 20033cc:	03ae3123 	sw	a5,12(sp)
 20033d0:	06e1f123 	sw	v0,124(a9)
 20033d4:	bc814203 	lbu	a5,80(a0)
 20033d8:	d82000b7 	lui	a9,0x4001
 20033dc:	06eaec23 	sb	a3,59(a9)
 20033e0:	d82000b7 	lui	a9,0x4001
 20033e4:	0eec0123 	sw	a4,128(a9)
 20033e8:	8b805103 	lw	v1,20(sp)
 20033ec:	b02000b7 	lui	a4,0x4001
 20033f0:	05aef023 	sb	a5,60(a4)
 20033f4:	db803103 	lw	a9,12(sp)
 20033f8:	bb80e103 	lw	a5,56(sp)
 20033fc:	c4415203 	lbu	a6,84(v1)
 2003400:	e9c16803 	lb	a11,90(s5)
 2003404:	f1417003 	lb	a12,92(s3)
 2003408:	026eb823 	sb	a5,46(s7)
 200340c:	00f6f423 	sb	a9,61(s1)
 2003410:	bb80a103 	lw	a5,40(sp)
 2003414:	db80c103 	lw	a9,48(sp)
 2003418:	b02000b7 	lui	a4,0x4001
 200341c:	05b0fc23 	sb	a6,63(a4)
 2003420:	c380b103 	lw	a6,44(sp)
 2003424:	00ae2c23 	sb	a5,11(s0)
 2003428:	b82000b7 	lui	a5,0x4001
 200342c:	00b64423 	sb	a9,17(s0)
 2003430:	b380d103 	lw	a4,52(sp)
 2003434:	0df28123 	sw	a7,160(a5)
 2003438:	d82000b7 	lui	a9,0x4001
 200343c:	c82000b7 	lui	a7,0x4001
 2003440:	00b03823 	sb	a6,14(s0)
 2003444:	0e742123 	sw	a8,136(a7)
 2003448:	06ff9123 	sw	a13,100(a9)
 200344c:	c02000b7 	lui	a6,0x4001
 2003450:	d02000b7 	lui	a8,0x4001
 2003454:	f82000b7 	lui	a13,0x4001
 2003458:	dfc14803 	lb	a9,82(a13)
 200345c:	0e203123 	sw	v0,140(a6)
 2003460:	06a1e123 	sw	v0,120(a8)
 2003464:	b82000b7 	lui	a5,0x4001
 2003468:	802000b7 	lui	v0,0x4001
 200346c:	f82000b7 	lui	a13,0x4001
 2003470:	d4013803 	lb	a8,78(v0)
 2003474:	c5c12003 	lb	a6,72(a5)
 2003478:	00ac5023 	sb	a4,20(s0)
 200347c:	bfc11403 	lb	a5,69(a13)
 2003480:	b02000b7 	lui	a4,0x4001
 2003484:	802000b7 	lui	v0,0x4001
 2003488:	f82000b7 	lui	a13,0x4001
 200348c:	cd812c03 	lb	a7,75(a4)
 2003490:	b400ac03 	lb	a4,43(v0)
 2003494:	87c0d803 	lb	v0,54(a13)
 2003498:	f82000b7 	lui	a13,0x4001
 200349c:	ffc0ce03 	lbu	a13,51(a13)
 20034a0:	013cf823 	sb	a12,62(s2)
 20034a4:	01babc23 	sb	a11,47(s4)
 20034a8:	03be9c23 	sb	a13,39(sp)
 20034ac:	f82000b7 	lui	a13,0x4001
 20034b0:	ffc0c603 	lbu	a13,49(a13)
 20034b4:	e3806103 	lw	a10,24(sp)
 20034b8:	03be9823 	sb	a13,38(sp)
 20034bc:	f82000b7 	lui	a13,0x4001
 20034c0:	ffc0a003 	lb	a13,40(a13)
 20034c4:	03bef123 	sw	a13,60(sp)
 20034c8:	f82000b7 	lui	a13,0x4001
 20034cc:	07fd6c23 	sb	a12,91(a13)
 20034d0:	f02000b7 	lui	a12,0x4001
 20034d4:	07bb6423 	sb	a11,89(a12)
 20034d8:	eb803103 	lw	a11,12(sp)
 20034dc:	f82000b7 	lui	a13,0x4001
 20034e0:	f02000b7 	lui	a12,0x4001
 20034e4:	07fb5c23 	sb	a11,87(a13)
 20034e8:	fb80e103 	lw	a13,56(sp)
 20034ec:	e82000b7 	lui	a11,0x4001
 20034f0:	07774423 	sb	a9,81(a11)
 20034f4:	07bf5423 	sb	a13,85(a12)
 20034f8:	f02000b7 	lui	a12,0x4001
 20034fc:	f82000b7 	lui	a13,0x4001
 2003500:	07b53c23 	sb	a8,79(a12)
 2003504:	07f53423 	sb	a8,77(a13)
 2003508:	e82000b7 	lui	a11,0x4001
 200350c:	d02000b7 	lui	a8,0x4001
 2003510:	03774c23 	sb	a9,83(s11)
 2003514:	d82000b7 	lui	a9,0x4001
 2003518:	06b33023 	sb	a7,76(a8)
 200351c:	06f32823 	sb	a7,74(a9)
 2003520:	07712423 	sb	a6,73(a11)
 2003524:	c82000b7 	lui	a7,0x4001
 2003528:	d02000b7 	lui	a8,0x4001
 200352c:	ef00e603 	lbu	a11,57(a10)
 2003530:	f02000b7 	lui	a12,0x4001
 2003534:	066b0823 	sb	a3,66(a7)
 2003538:	06aae823 	sb	a3,58(a8)
 200353c:	ab809e03 	lbu	a3,39(sp)
 2003540:	07b11c23 	sb	a6,71(a12)
 2003544:	f82000b7 	lui	a13,0x4001
 2003548:	c02000b7 	lui	a6,0x4001
 200354c:	d82000b7 	lui	a9,0x4001
 2003550:	f02000b7 	lui	a12,0x4001
 2003554:	07ef1823 	sb	a5,70(a13)
 2003558:	062f1023 	sb	a5,68(a6)
 200355c:	06fadc23 	sb	a11,55(a9)
 2003560:	f82000b7 	lui	a13,0x4001
 2003564:	07a0d023 	sb	v0,52(a12)
 2003568:	c3809a03 	lbu	a6,38(sp)
 200356c:	c82000b7 	lui	a7,0x4001
 2003570:	d02000b7 	lui	a8,0x4001
 2003574:	e82000b7 	lui	a11,0x4001
 2003578:	f02000b7 	lui	a12,0x4001
 200357c:	07eac823 	sb	a3,50(a13)
 2003580:	db80f103 	lw	a9,60(sp)
 2003584:	af409403 	lb	a3,37(a11)
 2003588:	066cb023 	sb	a4,44(a7)
 200358c:	06aca823 	sb	a4,42(a8)
 2003590:	b7807403 	lb	a4,29(a12)
 2003594:	b82000b7 	lui	a5,0x4001
 2003598:	05f0c023 	sb	a6,48(a5)
 200359c:	f82000b7 	lui	a13,0x4001
 20035a0:	b82000b7 	lui	a5,0x4001
 20035a4:	02f6a423 	sb	a9,41(s9)
 20035a8:	07f69c23 	sb	a9,39(a13)
 20035ac:	032a9823 	sb	a3,38(s10)
 20035b0:	05ea9023 	sb	a3,36(a5)
 20035b4:	0d8000e3 	bnez	a4,20036b4 <t1_taskB_FH_DU+0x774>
 20035b8:	c4000013 	move	a6,v0
 20035bc:	d02000b7 	lui	a8,0x4001
 20035c0:	be807203 	lbu	a5,28(a8)
 20035c4:	d82000b7 	lui	a9,0x4001
 20035c8:	aec03c03 	lb	a3,15(a9)
 20035cc:	b0000413 	li	a4,1
 20035d0:	bdc00413 	add	a5,a5,1
 20035d4:	e82000b7 	lui	a11,0x4001
 20035d8:	f0000813 	li	a12,2
 20035dc:	076c7423 	sb	a4,29(a11)
 20035e0:	06ae7023 	sb	a5,28(a8)
 20035e4:	d57c48e3 	bne	a3,a12,2003008 <t1_taskB_FH_DU+0xc8>
 20035e8:	aac0a403 	lb	a3,41(s9)
 20035ec:	05412063 	beqz	a3,200367c <t1_taskB_FH_DU+0x73c>
 20035f0:	d02000b7 	lui	a8,0x4001
 20035f4:	ae809c03 	lb	a3,39(a8)
 20035f8:	054108e3 	bnez	a3,200367c <t1_taskB_FH_DU+0x73c>
 20035fc:	d82000b7 	lui	a9,0x4001
 2003600:	a83e7013 	li	a3,-100
 2003604:	e82000b7 	lui	a11,0x4001
 2003608:	f02000b7 	lui	a12,0x4001
 200360c:	06c07423 	sb	zero,29(a9)
 2003610:	0f6a2123 	sw	a3,136(a11)
 2003614:	07ac3c23 	sb	a4,15(a12)
 2003618:	fffe8767 	j	2003034 <t1_taskB_FH_DU+0xf4>
 200361c:	ab009803 	lb	a3,38(s10)
 2003620:	d54028e3 	bnez	a3,2003034 <t1_taskB_FH_DU+0xf4>
 2003624:	c82000b7 	lui	a7,0x4001
 2003628:	ae409003 	lb	a3,36(a7)
 200362c:	d5401063 	beqz	a3,2003034 <t1_taskB_FH_DU+0xf4>
 2003630:	d02000b7 	lui	a8,0x4001
 2003634:	d82000b7 	lui	a9,0x4001
 2003638:	f0000813 	li	a12,2
 200363c:	e82000b7 	lui	a11,0x4001
 2003640:	06807423 	sb	zero,29(a8)
 2003644:	0ec02123 	sw	zero,136(a9)
 2003648:	077c3c23 	sb	a12,15(a11)
 200364c:	fffe7a67 	j	2003034 <t1_taskB_FH_DU+0xf4>
 2003650:	aac0a403 	lb	a3,41(s9)
 2003654:	cd41c0e3 	bnez	a3,2003034 <t1_taskB_FH_DU+0xf4>
 2003658:	f82000b7 	lui	a13,0x4001
 200365c:	afc09c03 	lb	a3,39(a13)
 2003660:	cd41a863 	beqz	a3,2003034 <t1_taskB_FH_DU+0xf4>
 2003664:	b02000b7 	lui	a4,0x4001
 2003668:	c8000813 	li	a7,2
 200366c:	07407423 	sb	zero,29(a11)
 2003670:	0d802123 	sw	zero,136(a4)
 2003674:	06f23c23 	sb	a7,15(a9)
 2003678:	fffe6f67 	j	2003034 <t1_taskB_FH_DU+0xf4>
 200367c:	ab009803 	lb	a3,38(s10)
 2003680:	cd416863 	beqz	a3,2003034 <t1_taskB_FH_DU+0xf4>
 2003684:	f82000b7 	lui	a13,0x4001
 2003688:	afc09003 	lb	a3,36(a13)
 200368c:	cd4150e3 	bnez	a3,2003034 <t1_taskB_FH_DU+0xf4>
 2003690:	a82000b7 	lui	a3,0x4001
 2003694:	05407423 	sb	zero,29(a3)
 2003698:	b02000b7 	lui	a4,0x4001
 200369c:	a8019013 	li	a3,100
 20036a0:	0daa2123 	sw	a3,136(a4)
 20036a4:	b82000b7 	lui	a5,0x4001
 20036a8:	a8000c13 	li	a3,3
 20036ac:	05ea3c23 	sb	a3,15(a5)
 20036b0:	fffe6167 	j	2003034 <t1_taskB_FH_DU+0xf4>
 20036b4:	0b81d103 	lw	ra,116(sp)
 20036b8:	1381c103 	lw	s0,112(sp)
 20036bc:	1b81b103 	lw	s1,108(sp)
 20036c0:	2381a103 	lw	s2,104(sp)
 20036c4:	2b819103 	lw	s3,100(sp)
 20036c8:	33818103 	lw	s4,96(sp)
 20036cc:	3b817103 	lw	s5,92(sp)
 20036d0:	43816103 	lw	s6,88(sp)
 20036d4:	4b815103 	lw	s7,84(sp)
 20036d8:	53814103 	lw	s8,80(sp)
 20036dc:	5b813103 	lw	s9,76(sp)
 20036e0:	63812103 	lw	s10,72(sp)
 20036e4:	6b811103 	lw	s11,68(sp)
 20036e8:	7381e013 	add	sp,sp,120
 20036ec:	004000eb 	ret

020036f0 <t1_taskB_main>:
 20036f0:	73bfe013 	add	sp,sp,-8
 20036f4:	03821123 	sw	ra,4(sp)
 20036f8:	fffa666f 	jal	2002090 <t1_taskB_init>
 20036fc:	fffa036f 	jal	2001f08 <t1_taskB_interface>
 2003700:	fffe106f 	jal	2002f40 <t1_taskB_FH_DU>
 2003704:	0b801103 	lw	ra,4(sp)
 2003708:	80000013 	li	v0,0
 200370c:	73802013 	add	sp,sp,8
 2003710:	004000eb 	ret

02003714 <t2_taskC_jpeg_fdct_islow>:
 2003714:	73bf0013 	add	sp,sp,-64
 2003718:	80200137 	lui	v0,0x4002
 200371c:	0384f123 	sw	s0,60(sp)
 2003720:	0386e123 	sw	s1,56(sp)
 2003724:	0388d123 	sw	s2,52(sp)
 2003728:	038ac123 	sw	s3,48(sp)
 200372c:	038cb123 	sw	s4,44(sp)
 2003730:	038ea123 	sw	s5,40(sp)
 2003734:	03909123 	sw	s6,36(sp)
 2003738:	03928123 	sw	s7,32(sp)
 200373c:	03947123 	sw	s8,28(sp)
 2003740:	03966123 	sw	s9,24(sp)
 2003744:	03985123 	sw	s10,20(sp)
 2003748:	039a4123 	sw	s11,16(sp)
 200374c:	84003013 	add	v0,v0,12
 2003750:	e4000103 	lw	a10,0(v0)
 2003754:	cc003103 	lw	a7,12(v0)
 2003758:	d4007103 	lw	a8,28(v0)
 200375c:	b4004103 	lw	a4,16(v0)
 2003760:	1fffff37 	lui	s1,0xffffe
 2003764:	a7350033 	sub	a2,a10,a8
 2003768:	ae6d0033 	sub	a3,a7,a4
 200376c:	dd680033 	add	a9,a3,a2
 2003770:	18cccc13 	add	s1,s1,819
 2003774:	dec60433 	mul	a9,a9,s1
 2003778:	fc001103 	lw	a13,4(v0)
 200377c:	f4006103 	lw	a12,24(v0)
 2003780:	ec002103 	lw	a11,8(v0)
 2003784:	8c005103 	lw	v1,20(v0)
 2003788:	47fd0033 	sub	s6,a13,a12
 200378c:	f7fc0033 	add	a12,a13,a12
 2003790:	97630033 	sub	a0,a11,v1
 2003794:	03bc0123 	sw	a12,0(sp)
 2003798:	9d500033 	add	a1,a3,s6
 200379c:	c4a80033 	add	a6,a0,a2
 20037a0:	4c900033 	add	s7,a0,s6
 20037a4:	1c801893 	sll	s1,a0,0x6
 20037a8:	14800c93 	sll	s0,a0,0x3
 20037ac:	23800103 	lw	s2,0(sp)
 20037b0:	bcf00033 	add	a5,a1,a6
 20037b4:	8f620033 	add	v1,a11,v1
 20037b8:	10c50033 	sub	s0,s1,s0
 20037bc:	fa001093 	sll	a13,s6,0x4
 20037c0:	1a400893 	sll	s1,s7,0x2
 20037c4:	f2401493 	sll	a12,s7,0x5
 20037c8:	ea000893 	sll	a11,s6,0x2
 20037cc:	d7340033 	add	a8,a10,a8
 20037d0:	b66c0033 	add	a4,a7,a4
 20037d4:	f0fc0033 	add	a12,s1,a12
 20037d8:	effb0033 	sub	a11,a13,a11
 20037dc:	e4c00893 	sll	a10,a1,0x2
 20037e0:	fdc01093 	sll	a13,a5,0x4
 20037e4:	35c00893 	sll	s4,a5,0x2
 20037e8:	2cc02093 	sll	s3,a1,0x8
 20037ec:	31be0033 	add	s4,s4,a13
 20037f0:	66001493 	sll	s10,a6,0x5
 20037f4:	fd401893 	sll	a13,a3,0x6
 20037f8:	03a21123 	sw	v1,4(sp)
 20037fc:	03ac2123 	sw	a4,8(sp)
 2003800:	89230033 	sub	v1,s2,v1
 2003804:	b6ad0033 	sub	a4,a8,a4
 2003808:	5f800c93 	sll	s9,a12,0x3
 200380c:	29790033 	sub	s3,s3,a10
 2003810:	26001c93 	sll	s2,a6,0x7
 2003814:	1d400c93 	sll	s1,a3,0x3
 2003818:	e7401093 	sll	a10,a11,0x4
 200381c:	54401893 	sll	s8,v1,0x6
 2003820:	23080033 	add	s2,s10,s2
 2003824:	18fe0033 	add	s1,s1,a13
 2003828:	65802493 	sll	s10,a4,0x9
 200382c:	c8801093 	sll	a7,s0,0x4
 2003830:	3c400893 	sll	s5,v1,0x2
 2003834:	fd801893 	sll	a13,a4,0x6
 2003838:	f7960033 	add	a12,a12,s9
 200383c:	ef780033 	add	a11,a11,a10
 2003840:	5d001093 	sll	s9,a2,0x4
 2003844:	e5000893 	sll	a10,a2,0x2
 2003848:	fb3f0033 	sub	a13,s10,a13
 200384c:	e2f90033 	sub	a10,s9,a10
 2003850:	16450033 	sub	s0,a7,s0
 2003854:	3a8f0033 	sub	s5,s8,s5
 2003858:	29670033 	sub	s3,s3,a1
 200385c:	51801093 	sll	s8,s4,0x4
 2003860:	61000893 	sll	s10,s2,0x2
 2003864:	58c01093 	sll	s9,s1,0x4
 2003868:	cc6c0033 	add	a7,v1,a4
 200386c:	10a40033 	add	s0,s0,a0
 2003870:	18d60033 	add	s1,s1,s9
 2003874:	328d0033 	sub	s4,s8,s4
 2003878:	21180033 	add	s2,s2,s10
 200387c:	29401093 	sll	s3,s3,0x4
 2003880:	67002893 	sll	s10,a10,0xa
 2003884:	f7930033 	sub	a12,a12,s7
 2003888:	ef510033 	sub	a11,a11,s6
 200388c:	4e401093 	sll	s7,a7,0x4
 2003890:	46401c93 	sll	s6,a7,0x7
 2003894:	39e30033 	sub	s5,s5,v1
 2003898:	50800893 	sll	s8,s0,0x2
 200389c:	31ae0033 	add	s4,s4,a5
 20038a0:	29660033 	add	s3,s3,a1
 20038a4:	a8eb0033 	sub	a3,s1,a3
 20038a8:	e7180033 	add	a10,a10,s10
 20038ac:	4a500033 	add	s7,s7,s6
 20038b0:	10940033 	add	s0,s0,s8
 20038b4:	29400893 	sll	s3,s3,0x2
 20038b8:	a7290033 	sub	a2,a10,a2
 20038bc:	47c00c93 	sll	s6,a13,0x3
 20038c0:	39c00c93 	sll	s5,s5,0x3
 20038c4:	6f801893 	sll	s11,a12,0x6
 20038c8:	5f401493 	sll	s9,a11,0x5
 20038cc:	31801493 	sll	s4,s4,0x5
 20038d0:	ad400493 	sll	a3,a3,0x1
 20038d4:	31ae0033 	add	s4,s4,a5
 20038d8:	ca730033 	sub	a7,s7,a7
 20038dc:	39e20033 	add	s5,s5,v1
 20038e0:	26090033 	sub	s2,a6,s2
 20038e4:	99660033 	add	a1,s3,a1
 20038e8:	ad760033 	add	a3,a3,a9
 20038ec:	fa3f0033 	sub	a13,s6,a13
 20038f0:	dd360033 	add	a9,a2,a9
 20038f4:	f79a0033 	add	a12,a12,s11
 20038f8:	10800893 	sll	s0,s0,0x2
 20038fc:	eafb0033 	sub	a11,s9,a11
 2003900:	2b802103 	lw	s3,8(sp)
 2003904:	a3800103 	lw	a2,0(sp)
 2003908:	bb801103 	lw	a5,4(sp)
 200390c:	f03d0033 	neg	a12,a12
 2003910:	4e401493 	sll	s7,a7,0x5
 2003914:	b7ed0033 	sub	a4,a13,a4
 2003918:	39c01493 	sll	s5,s5,0x5
 200391c:	21000893 	sll	s2,s2,0x2
 2003920:	90a50033 	sub	a0,s0,a0
 2003924:	ef400893 	sll	a11,a11,0x2
 2003928:	99a70033 	sub	a1,s4,a1
 200392c:	ca730033 	sub	a7,s7,a7
 2003930:	310c0033 	add	s4,s2,s4
 2003934:	94bc0033 	add	a0,a0,a12
 2003938:	b5800493 	sll	a4,a4,0x1
 200393c:	89e20033 	add	v1,s5,v1
 2003940:	f77c0033 	add	a12,a11,a12
 2003944:	d68a0033 	add	a8,a8,s3
 2003948:	552e0033 	add	s8,a2,a5
 200394c:	b5b20033 	add	a4,a4,a7
 2003950:	ad660033 	add	a3,a3,a1
 2003954:	948c0033 	add	a0,a0,s4
 2003958:	ce630033 	sub	a7,a7,v1
 200395c:	9fa60033 	add	a1,a12,a1
 2003960:	36cc0033 	add	s4,a9,s4
 2003964:	c6940033 	add	a6,a8,s8
 2003968:	b5900013 	add	a4,a4,1024
 200396c:	d6950033 	sub	a8,a8,s8
 2003970:	ce500013 	add	a7,a7,1024
 2003974:	ad500013 	add	a3,a3,1024
 2003978:	94900013 	add	a0,a0,1024
 200397c:	9cd00013 	add	a1,a1,1024
 2003980:	31900013 	add	s4,s4,1024
 2003984:	c6000893 	sll	a6,a6,0x2
 2003988:	d6800893 	sll	a8,a8,0x2
 200398c:	b5812e93 	sra	a4,a4,0xb
 2003990:	ce412e93 	sra	a7,a7,0xb
 2003994:	ad412e93 	sra	a3,a3,0xb
 2003998:	94812e93 	sra	a0,a0,0xb
 200399c:	9cc12e93 	sra	a1,a1,0xb
 20039a0:	31812e93 	sra	s4,s4,0xb
 20039a4:	18200137 	lui	s1,0x4002
 20039a8:	04300123 	sw	a6,0(v0)
 20039ac:	04344123 	sw	a8,16(v0)
 20039b0:	042c2123 	sw	a4,8(v0)
 20039b4:	04326123 	sw	a7,24(v0)
 20039b8:	042a7123 	sw	a3,28(v0)
 20039bc:	04245123 	sw	a0,20(v0)
 20039c0:	04263123 	sw	a1,12(v0)
 20039c4:	040c1123 	sw	s4,4(v0)
 20039c8:	18c43013 	add	s1,s1,268
 20039cc:	84008013 	add	v0,v0,32
 20039d0:	ec0700e3 	bne	v0,s1,2003750 <t2_taskC_jpeg_fdct_islow+0x3c>
 20039d4:	80200137 	lui	v0,0x4002
 20039d8:	84003013 	add	v0,v0,12
 20039dc:	a0000237 	lui	a2,0x4
 20039e0:	e4000103 	lw	a10,0(v0)
 20039e4:	d4018103 	lw	a8,96(v0)
 20039e8:	dc038103 	lw	a9,224(v0)
 20039ec:	bc020103 	lw	a5,128(v0)
 20039f0:	27ffff37 	lui	s2,0xffffe
 20039f4:	af370033 	sub	a3,a10,a9
 20039f8:	b6af0033 	sub	a4,a8,a5
 20039fc:	8daa0033 	add	v1,a4,a3
 2003a00:	210ccc13 	add	s2,s2,819
 2003a04:	8c480433 	mul	v1,v1,s2
 2003a08:	fc008103 	lw	a13,32(v0)
 2003a0c:	f4030103 	lw	a12,192(v0)
 2003a10:	ec010103 	lw	a11,64(v0)
 2003a14:	df360033 	add	a9,a10,a9
 2003a18:	47fd0033 	sub	s6,a13,a12
 2003a1c:	f7fc0033 	add	a12,a13,a12
 2003a20:	03bc0123 	sw	a12,0(sp)
 2003a24:	2b800103 	lw	s3,0(sp)
 2003a28:	9d900033 	add	a1,a4,s6
 2003a2c:	fa001093 	sll	a13,s6,0x4
 2003a30:	beae0033 	add	a5,a8,a5
 2003a34:	e4c00893 	sll	a10,a1,0x2
 2003a38:	03ae2123 	sw	a5,8(sp)
 2003a3c:	beef0033 	sub	a5,a9,a5
 2003a40:	03a23123 	sw	v1,12(sp)
 2003a44:	8c028103 	lw	v1,160(v0)
 2003a48:	97630033 	sub	a0,a11,v1
 2003a4c:	ccaa0033 	add	a7,a0,a3
 2003a50:	4c900033 	add	s7,a0,s6
 2003a54:	c4f20033 	add	a6,a1,a7
 2003a58:	1c801893 	sll	s1,a0,0x6
 2003a5c:	8f620033 	add	v1,a11,v1
 2003a60:	14800c93 	sll	s0,a0,0x3
 2003a64:	ea000893 	sll	a11,s6,0x2
 2003a68:	10c50033 	sub	s0,s1,s0
 2003a6c:	effb0033 	sub	a11,a13,a11
 2003a70:	1a400893 	sll	s1,s7,0x2
 2003a74:	03a21123 	sw	v1,4(sp)
 2003a78:	f2401493 	sll	a12,s7,0x5
 2003a7c:	89630033 	sub	v1,s3,v1
 2003a80:	fe001093 	sll	a13,a6,0x4
 2003a84:	2cc02093 	sll	s3,a1,0x8
 2003a88:	36000893 	sll	s4,a6,0x2
 2003a8c:	f0fc0033 	add	a12,s1,a12
 2003a90:	31be0033 	add	s4,s4,a13
 2003a94:	66401493 	sll	s10,a7,0x5
 2003a98:	fd801893 	sll	a13,a4,0x6
 2003a9c:	54401893 	sll	s8,v1,0x6
 2003aa0:	29790033 	sub	s3,s3,a10
 2003aa4:	26401c93 	sll	s2,a7,0x7
 2003aa8:	1d800c93 	sll	s1,a4,0x3
 2003aac:	3c400893 	sll	s5,v1,0x2
 2003ab0:	23080033 	add	s2,s10,s2
 2003ab4:	18fe0033 	add	s1,s1,a13
 2003ab8:	65c02493 	sll	s10,a5,0x9
 2003abc:	fdc01893 	sll	a13,a5,0x6
 2003ac0:	3a8f0033 	sub	s5,s8,s5
 2003ac4:	29670033 	sub	s3,s3,a1
 2003ac8:	51801093 	sll	s8,s4,0x4
 2003acc:	fb3f0033 	sub	a13,s10,a13
 2003ad0:	d0801093 	sll	a8,s0,0x4
 2003ad4:	5f800c93 	sll	s9,a12,0x3
 2003ad8:	e7401093 	sll	a10,a11,0x4
 2003adc:	328d0033 	sub	s4,s8,s4
 2003ae0:	61000893 	sll	s10,s2,0x2
 2003ae4:	29401093 	sll	s3,s3,0x4
 2003ae8:	16850033 	sub	s0,a8,s0
 2003aec:	f7960033 	add	a12,a12,s9
 2003af0:	d46e0033 	add	a8,v1,a5
 2003af4:	5d401093 	sll	s9,a3,0x4
 2003af8:	ef780033 	add	a11,a11,a10
 2003afc:	29660033 	add	s3,s3,a1
 2003b00:	e5400893 	sll	a10,a3,0x2
 2003b04:	21180033 	add	s2,s2,s10
 2003b08:	31b00033 	add	s4,s4,a6
 2003b0c:	10a40033 	add	s0,s0,a0
 2003b10:	f7930033 	sub	a12,a12,s7
 2003b14:	ef510033 	sub	a11,a11,s6
 2003b18:	e2f90033 	sub	a10,s9,a10
 2003b1c:	46801c93 	sll	s6,a8,0x7
 2003b20:	4e801093 	sll	s7,a8,0x4
 2003b24:	26490033 	sub	s2,a7,s2
 2003b28:	31801493 	sll	s4,s4,0x5
 2003b2c:	29400893 	sll	s3,s3,0x2
 2003b30:	4a500033 	add	s7,s7,s6
 2003b34:	58c01093 	sll	s9,s1,0x4
 2003b38:	47c00c93 	sll	s6,a13,0x3
 2003b3c:	31b00033 	add	s4,s4,a6
 2003b40:	29660033 	add	s3,s3,a1
 2003b44:	21000893 	sll	s2,s2,0x2
 2003b48:	50800893 	sll	s8,s0,0x2
 2003b4c:	67002893 	sll	s10,a10,0xa
 2003b50:	298b0033 	sub	s3,s4,s3
 2003b54:	18d60033 	add	s1,s1,s9
 2003b58:	310c0033 	add	s4,s2,s4
 2003b5c:	fa3f0033 	sub	a13,s6,a13
 2003b60:	23803103 	lw	s2,12(sp)
 2003b64:	39e30033 	sub	s5,s5,v1
 2003b68:	6f801893 	sll	s11,a12,0x6
 2003b6c:	10940033 	add	s0,s0,s8
 2003b70:	5f401493 	sll	s9,a11,0x5
 2003b74:	e7180033 	add	a10,a10,s10
 2003b78:	18ed0033 	sub	s1,s1,a4
 2003b7c:	ffef0033 	sub	a13,a13,a5
 2003b80:	e72b0033 	sub	a10,a10,a3
 2003b84:	39c00c93 	sll	s5,s5,0x3
 2003b88:	f79a0033 	add	a12,a12,s11
 2003b8c:	10800893 	sll	s0,s0,0x2
 2003b90:	eafb0033 	sub	a11,s9,a11
 2003b94:	9b802103 	lw	a1,8(sp)
 2003b98:	ab800103 	lw	a3,0(sp)
 2003b9c:	bb801103 	lw	a5,4(sp)
 2003ba0:	d2750033 	sub	a8,s7,a8
 2003ba4:	f03d0033 	neg	a12,a12
 2003ba8:	39e20033 	add	s5,s5,v1
 2003bac:	18c00493 	sll	s1,s1,0x1
 2003bb0:	90a50033 	sub	a0,s0,a0
 2003bb4:	ef400893 	sll	a11,a11,0x2
 2003bb8:	94bc0033 	add	a0,a0,a12
 2003bbc:	46801493 	sll	s6,a8,0x5
 2003bc0:	39c01493 	sll	s5,s5,0x5
 2003bc4:	b0c80033 	add	a4,s1,s2
 2003bc8:	f77c0033 	add	a12,a11,a12
 2003bcc:	dee60033 	add	a9,a9,a1
 2003bd0:	4d6e0033 	add	s7,a3,a5
 2003bd4:	d2350033 	sub	a8,s6,a8
 2003bd8:	b58a0033 	add	a4,a4,s3
 2003bdc:	ffc00493 	sll	a13,a13,0x1
 2003be0:	39e20033 	add	s5,s5,v1
 2003be4:	e7080033 	add	a10,a10,s2
 2003be8:	2f8a0033 	add	s3,a12,s3
 2003bec:	ced20033 	add	a7,a9,s7
 2003bf0:	fff40033 	add	a13,a13,a8
 2003bf4:	948c0033 	add	a0,a0,s4
 2003bf8:	ded30033 	sub	a9,a9,s7
 2003bfc:	d68f0033 	sub	a8,a8,s5
 2003c00:	370c0033 	add	s4,a10,s4
 2003c04:	29680033 	add	s3,s3,a2
 2003c08:	29413e93 	sra	s3,s3,0xf
 2003c0c:	ce400813 	add	a7,a7,2
 2003c10:	dec00813 	add	a9,a9,2
 2003c14:	ffe80033 	add	a13,a13,a2
 2003c18:	d6a80033 	add	a8,a8,a2
 2003c1c:	b5a80033 	add	a4,a4,a2
 2003c20:	94a80033 	add	a0,a0,a2
 2003c24:	31a80033 	add	s4,s4,a2
 2003c28:	040b8123 	sw	s3,96(v0)
 2003c2c:	ce410a93 	sra	a7,a7,0x2
 2003c30:	dec10a93 	sra	a9,a9,0x2
 2003c34:	ffc13e93 	sra	a13,a13,0xf
 2003c38:	d6813e93 	sra	a8,a8,0xf
 2003c3c:	b5813e93 	sra	a4,a4,0xf
 2003c40:	94813e93 	sra	a0,a0,0xf
 2003c44:	31813e93 	sra	s4,s4,0xf
 2003c48:	28200137 	lui	s3,0x4002
 2003c4c:	04320123 	sw	a7,0(v0)
 2003c50:	0c360123 	sw	a9,128(v0)
 2003c54:	043f0123 	sw	a13,64(v0)
 2003c58:	0c350123 	sw	a8,192(v0)
 2003c5c:	0c2d8123 	sw	a4,224(v0)
 2003c60:	0c248123 	sw	a0,160(v0)
 2003c64:	040c8123 	sw	s4,32(v0)
 2003c68:	2940b013 	add	s3,s3,44
 2003c6c:	84001013 	add	v0,v0,4
 2003c70:	ec0ae0e3 	bne	v0,s3,20039e0 <t2_taskC_jpeg_fdct_islow+0x2cc>
 2003c74:	1380f103 	lw	s0,60(sp)
 2003c78:	1b80e103 	lw	s1,56(sp)
 2003c7c:	2380d103 	lw	s2,52(sp)
 2003c80:	2b80c103 	lw	s3,48(sp)
 2003c84:	3380b103 	lw	s4,44(sp)
 2003c88:	3b80a103 	lw	s5,40(sp)
 2003c8c:	43809103 	lw	s6,36(sp)
 2003c90:	4b808103 	lw	s7,32(sp)
 2003c94:	53807103 	lw	s8,28(sp)
 2003c98:	5b806103 	lw	s9,24(sp)
 2003c9c:	63805103 	lw	s10,20(sp)
 2003ca0:	6b804103 	lw	s11,16(sp)
 2003ca4:	73810013 	add	sp,sp,64
 2003ca8:	004000eb 	ret

02003cac <t2_taskC_main>:
 2003cac:	88200137 	lui	v1,0x4002
 2003cb0:	73bfe013 	add	sp,sp,-8
 2003cb4:	8c403013 	add	v1,v1,12
 2003cb8:	a4000437 	lui	a2,0x80008
 2003cbc:	03821123 	sw	ra,4(sp)
 2003cc0:	b4440013 	add	a4,v1,256
 2003cc4:	80000413 	li	v0,1
 2003cc8:	a5000413 	add	a2,a2,1
 2003ccc:	9c000893 	sll	a1,v0,0x2
 2003cd0:	94001c93 	sll	a0,v0,0x7
 2003cd4:	94e40033 	add	a0,a1,a0
 2003cd8:	84a00033 	add	v0,a0,v0
 2003cdc:	94014413 	add	a0,v0,81
 2003ce0:	aca805b3 	mulhu	a3,a0,a2
 2003ce4:	9c817e93 	sra	a1,a0,0x1f
 2003ce8:	84e803b3 	and	v0,a1,a2
 2003cec:	85610033 	sub	v0,a3,v0
 2003cf0:	84013e93 	sra	v0,v0,0xf
 2003cf4:	84270033 	sub	v0,v0,a1
 2003cf8:	9c004093 	sll	a1,v0,0x10
 2003cfc:	84e10033 	sub	v0,a1,v0
 2003d00:	84a10033 	sub	v0,a0,v0
 2003d04:	04600123 	sw	v0,0(v1)
 2003d08:	8c401013 	add	v1,v1,4
 2003d0c:	fc6d80e3 	bne	v1,a4,2003ccc <t2_taskC_main+0x20>
 2003d10:	fffe816f 	jal	2003714 <t2_taskC_jpeg_fdct_islow>
 2003d14:	0b801103 	lw	ra,4(sp)
 2003d18:	80000013 	li	v0,0
 2003d1c:	73802013 	add	sp,sp,8
 2003d20:	004000eb 	ret

02003d24 <t3_taskD_main>:
 2003d24:	802001b7 	lui	v0,0x4003
 2003d28:	ac003013 	add	a3,v0,12
 2003d2c:	04003123 	sw	zero,12(v0)
 2003d30:	80002c13 	li	v0,11
 2003d34:	05601123 	sw	v0,4(a3)
 2003d38:	80002813 	li	v0,10
 2003d3c:	05602123 	sw	v0,8(a3)
 2003d40:	80002413 	li	v0,9
 2003d44:	05603123 	sw	v0,12(a3)
 2003d48:	80002013 	li	v0,8
 2003d4c:	05604123 	sw	v0,16(a3)
 2003d50:	80001c13 	li	v0,7
 2003d54:	05605123 	sw	v0,20(a3)
 2003d58:	80001813 	li	v0,6
 2003d5c:	05606123 	sw	v0,24(a3)
 2003d60:	80001413 	li	v0,5
 2003d64:	05607123 	sw	v0,28(a3)
 2003d68:	80001013 	li	v0,4
 2003d6c:	05608123 	sw	v0,32(a3)
 2003d70:	80000c13 	li	v0,3
 2003d74:	05609123 	sw	v0,36(a3)
 2003d78:	b82001b7 	lui	a5,0x4003
 2003d7c:	80000813 	li	v0,2
 2003d80:	0560a123 	sw	v0,40(a3)
 2003d84:	bdc05013 	add	a5,a5,20
 2003d88:	b0000813 	li	a4,2
 2003d8c:	c0002c13 	li	a6,11
 2003d90:	8dc00103 	lw	v1,0(a5)
 2003d94:	95fff103 	lw	a0,-4(a5)
 2003d98:	a5bffc13 	add	a2,a4,-1
 2003d9c:	046473e3 	bleu	a0,v1,2003dd4 <t3_taskD_main+0xb0>
 2003da0:	85800893 	sll	v0,a4,0x2
 2003da4:	9dbff813 	add	a1,a4,-2
 2003da8:	85600033 	add	v0,a3,v0
 2003dac:	a5000893 	sll	a2,a2,0x2
 2003db0:	a5680033 	add	a2,a3,a2
 2003db4:	04240123 	sw	a0,0(v0)
 2003db8:	05220123 	sw	v1,0(a2)
 2003dbc:	8c3ff103 	lw	v1,-4(v0)
 2003dc0:	943fe103 	lw	a0,-8(v0)
 2003dc4:	a4c00013 	move	a2,a1
 2003dc8:	843ff013 	add	v0,v0,-4
 2003dcc:	9cfffc13 	add	a1,a1,-1
 2003dd0:	fc65bb63 	bltu	v1,a0,2003dac <t3_taskD_main+0x88>
 2003dd4:	b5800413 	add	a4,a4,1
 2003dd8:	bdc01013 	add	a5,a5,4
 2003ddc:	fdb168e3 	bne	a4,a6,2003d90 <t3_taskD_main+0x6c>
 2003de0:	80000413 	li	v0,1
 2003de4:	004000eb 	ret
