
tests/complex-mc/build/emulator/complex-mc.bin:     file format elf32-littleriscv


Disassembly of section .text:

02000000 <init-0x40>:
 2000000:	16c0017b 	mfpcr	s0,cr27
 2000004:	00807863 	beqz	s0,2000040 <init>
 2000008:	10bffc13 	add	s0,s0,-1
 200000c:	0881b863 	beqz	s0,20001e8 <t1_startup>
 2000010:	10bffc13 	add	s0,s0,-1
 2000014:	10800863 	beqz	s0,2000218 <t2_startup>
 2000018:	10bffc13 	add	s0,s0,-1
 200001c:	10805863 	beqz	s0,2000248 <t3_startup>
 2000020:	10bffc13 	add	s0,s0,-1
 2000024:	1080a863 	beqz	s0,2000278 <t4_startup>
 2000028:	10bffc13 	add	s0,s0,-1
 200002c:	1080f863 	beqz	s0,20002a8 <t5_startup>
 2000030:	10bffc13 	add	s0,s0,-1
 2000034:	10814863 	beqz	s0,20002d8 <t6_startup>
 2000038:	10bffc13 	add	s0,s0,-1
 200003c:	10819863 	beqz	s0,2000308 <t7_startup>

02000040 <init>:
 2000040:	10000037 	lui	s0,0x0
 2000044:	18200037 	lui	s1,0x4000
 2000048:	18c00013 	move	s1,s1
 200004c:	18c02a93 	srl	s1,s1,0xa
 2000050:	18860333 	or	s1,s0,s1
 2000054:	04c601fb 	mtpcr	zero,s1,cr19
 2000058:	18200237 	lui	s1,0x4004
 200005c:	18fff013 	add	s1,s1,-4
 2000060:	18c02a93 	srl	s1,s1,0xa
 2000064:	18860333 	or	s1,s0,s1
 2000068:	050601fb 	mtpcr	zero,s1,cr20
 200006c:	11000037 	lui	s0,0x20000
 2000070:	18200237 	lui	s1,0x4004
 2000074:	18c00013 	move	s1,s1
 2000078:	18c02a93 	srl	s1,s1,0xa
 200007c:	18860333 	or	s1,s0,s1
 2000080:	04c601fb 	mtpcr	zero,s1,cr19
 2000084:	18200437 	lui	s1,0x4008
 2000088:	18fff013 	add	s1,s1,-4
 200008c:	18c02a93 	srl	s1,s1,0xa
 2000090:	18860333 	or	s1,s0,s1
 2000094:	050601fb 	mtpcr	zero,s1,cr20
 2000098:	12000037 	lui	s0,0x40000
 200009c:	18200437 	lui	s1,0x4008
 20000a0:	18c00013 	move	s1,s1
 20000a4:	18c02a93 	srl	s1,s1,0xa
 20000a8:	18860333 	or	s1,s0,s1
 20000ac:	04c601fb 	mtpcr	zero,s1,cr19
 20000b0:	18200637 	lui	s1,0x400c
 20000b4:	18fff013 	add	s1,s1,-4
 20000b8:	18c02a93 	srl	s1,s1,0xa
 20000bc:	18860333 	or	s1,s0,s1
 20000c0:	050601fb 	mtpcr	zero,s1,cr20
 20000c4:	13000037 	lui	s0,0x60000
 20000c8:	18200637 	lui	s1,0x400c
 20000cc:	18c00013 	move	s1,s1
 20000d0:	18c02a93 	srl	s1,s1,0xa
 20000d4:	18860333 	or	s1,s0,s1
 20000d8:	04c601fb 	mtpcr	zero,s1,cr19
 20000dc:	18200837 	lui	s1,0x4010
 20000e0:	18fff013 	add	s1,s1,-4
 20000e4:	18c02a93 	srl	s1,s1,0xa
 20000e8:	18860333 	or	s1,s0,s1
 20000ec:	050601fb 	mtpcr	zero,s1,cr20
 20000f0:	14000037 	lui	s0,0x80000
 20000f4:	18200837 	lui	s1,0x4010
 20000f8:	18c00013 	move	s1,s1
 20000fc:	18c02a93 	srl	s1,s1,0xa
 2000100:	18860333 	or	s1,s0,s1
 2000104:	04c601fb 	mtpcr	zero,s1,cr19
 2000108:	18200a37 	lui	s1,0x4014
 200010c:	18fff013 	add	s1,s1,-4
 2000110:	18c02a93 	srl	s1,s1,0xa
 2000114:	18860333 	or	s1,s0,s1
 2000118:	050601fb 	mtpcr	zero,s1,cr20
 200011c:	15000037 	lui	s0,0xa0000
 2000120:	18200a37 	lui	s1,0x4014
 2000124:	18c00013 	move	s1,s1
 2000128:	18c02a93 	srl	s1,s1,0xa
 200012c:	18860333 	or	s1,s0,s1
 2000130:	04c601fb 	mtpcr	zero,s1,cr19
 2000134:	18200c37 	lui	s1,0x4018
 2000138:	18fff013 	add	s1,s1,-4
 200013c:	18c02a93 	srl	s1,s1,0xa
 2000140:	18860333 	or	s1,s0,s1
 2000144:	050601fb 	mtpcr	zero,s1,cr20
 2000148:	16000037 	lui	s0,0xc0000
 200014c:	18200c37 	lui	s1,0x4018
 2000150:	18c00013 	move	s1,s1
 2000154:	18c02a93 	srl	s1,s1,0xa
 2000158:	18860333 	or	s1,s0,s1
 200015c:	04c601fb 	mtpcr	zero,s1,cr19
 2000160:	18200e37 	lui	s1,0x401c
 2000164:	18fff013 	add	s1,s1,-4
 2000168:	18c02a93 	srl	s1,s1,0xa
 200016c:	18860333 	or	s1,s0,s1
 2000170:	050601fb 	mtpcr	zero,s1,cr20
 2000174:	17000037 	lui	s0,0xe0000
 2000178:	18200e37 	lui	s1,0x401c
 200017c:	18c00013 	move	s1,s1
 2000180:	18c02a93 	srl	s1,s1,0xa
 2000184:	18860333 	or	s1,s0,s1
 2000188:	04c601fb 	mtpcr	zero,s1,cr19
 200018c:	18201037 	lui	s1,0x4020
 2000190:	18fff013 	add	s1,s1,-4
 2000194:	18c02a93 	srl	s1,s1,0xa
 2000198:	18860333 	or	s1,s0,s1
 200019c:	050601fb 	mtpcr	zero,s1,cr20
 20001a0:	048001fb 	mtpcr	zero,zero,cr18
 20001a4:	129a12b7 	lui	s0,0x53425
 20001a8:	10850013 	add	s0,s0,320
 20001ac:	18000537 	lui	s1,0xa
 20001b0:	058401fb 	mtpcr	zero,s0,cr22
 20001b4:	05c601fb 	mtpcr	zero,s1,cr23

020001b8 <t0_startup>:
 20001b8:	10200037 	lui	s0,0x4000
 20001bc:	10804013 	add	s0,s0,16
 20001c0:	18200037 	lui	s1,0x4000
 20001c4:	18c45013 	add	s1,s1,276
 20001c8:	008622e3 	ble	s1,s0,20001d8 <t0_startup+0x20>
 20001cc:	00800123 	sw	zero,0(s0)
 20001d0:	10801013 	add	s0,s0,4
 20001d4:	fffffd67 	j	20001c8 <t0_startup+0x10>
 20001d8:	70200237 	lui	sp,0x4004
 20001dc:	73bff013 	add	sp,sp,-4
 20001e0:	0000866f 	jal	20003f8 <t0_main>
 20001e4:	00000067 	j	20001e4 <t0_startup+0x2c>

020001e8 <t1_startup>:
 20001e8:	10200237 	lui	s0,0x4004
 20001ec:	10800013 	move	s0,s0
 20001f0:	18200237 	lui	s1,0x4004
 20001f4:	18c41013 	add	s1,s1,260
 20001f8:	008622e3 	ble	s1,s0,2000208 <t1_startup+0x20>
 20001fc:	00800123 	sw	zero,0(s0)
 2000200:	10801013 	add	s0,s0,4
 2000204:	fffffd67 	j	20001f8 <t1_startup+0x10>
 2000208:	70200437 	lui	sp,0x4008
 200020c:	73bff013 	add	sp,sp,-4
 2000210:	0006db6f 	jal	2001d7c <t1_main>
 2000214:	00000067 	j	2000214 <t1_startup+0x2c>

02000218 <t2_startup>:
 2000218:	10200437 	lui	s0,0x4008
 200021c:	10800013 	move	s0,s0
 2000220:	18200437 	lui	s1,0x4008
 2000224:	18c41013 	add	s1,s1,260
 2000228:	008622e3 	ble	s1,s0,2000238 <t2_startup+0x20>
 200022c:	00800123 	sw	zero,0(s0)
 2000230:	10801013 	add	s0,s0,4
 2000234:	fffffd67 	j	2000228 <t2_startup+0x10>
 2000238:	70200637 	lui	sp,0x400c
 200023c:	73bff013 	add	sp,sp,-4
 2000240:	000d306f 	jal	2003700 <t2_main>
 2000244:	00000067 	j	2000244 <t2_startup+0x2c>

02000248 <t3_startup>:
 2000248:	10200637 	lui	s0,0x400c
 200024c:	10800013 	move	s0,s0
 2000250:	18200637 	lui	s1,0x400c
 2000254:	18c41013 	add	s1,s1,260
 2000258:	008622e3 	ble	s1,s0,2000268 <t3_startup+0x20>
 200025c:	00800123 	sw	zero,0(s0)
 2000260:	10801013 	add	s0,s0,4
 2000264:	fffffd67 	j	2000258 <t3_startup+0x10>
 2000268:	70200837 	lui	sp,0x4010
 200026c:	73bff013 	add	sp,sp,-4
 2000270:	0013856f 	jal	2005084 <t3_main>
 2000274:	00000067 	j	2000274 <t3_startup+0x2c>

02000278 <t4_startup>:
 2000278:	10200837 	lui	s0,0x4010
 200027c:	10800013 	move	s0,s0
 2000280:	18200837 	lui	s1,0x4010
 2000284:	18cbd013 	add	s1,s1,756
 2000288:	008622e3 	ble	s1,s0,2000298 <t4_startup+0x20>
 200028c:	00800123 	sw	zero,0(s0)
 2000290:	10801013 	add	s0,s0,4
 2000294:	fffffd67 	j	2000288 <t4_startup+0x10>
 2000298:	70200a37 	lui	sp,0x4014
 200029c:	73bff013 	add	sp,sp,-4
 20002a0:	0019da6f 	jal	2006a08 <t4_main>
 20002a4:	00000067 	j	20002a4 <t4_startup+0x2c>

020002a8 <t5_startup>:
 20002a8:	10200a37 	lui	s0,0x4014
 20002ac:	10800013 	move	s0,s0
 20002b0:	18200a37 	lui	s1,0x4014
 20002b4:	18d12013 	add	s1,s1,1096
 20002b8:	008622e3 	ble	s1,s0,20002c8 <t5_startup+0x20>
 20002bc:	00800123 	sw	zero,0(s0)
 20002c0:	10801013 	add	s0,s0,4
 20002c4:	fffffd67 	j	20002b8 <t5_startup+0x10>
 20002c8:	70200c37 	lui	sp,0x4018
 20002cc:	73bff013 	add	sp,sp,-4
 20002d0:	002d446f 	jal	200b7e0 <t5_main>
 20002d4:	00000067 	j	20002d4 <t5_startup+0x2c>

020002d8 <t6_startup>:
 20002d8:	10200c37 	lui	s0,0x4018
 20002dc:	10800013 	move	s0,s0
 20002e0:	18200c37 	lui	s1,0x4018
 20002e4:	18cf0013 	add	s1,s1,960
 20002e8:	008622e3 	ble	s1,s0,20002f8 <t6_startup+0x20>
 20002ec:	00800123 	sw	zero,0(s0)
 20002f0:	10801013 	add	s0,s0,4
 20002f4:	fffffd67 	j	20002e8 <t6_startup+0x10>
 20002f8:	70200e37 	lui	sp,0x401c
 20002fc:	73bff013 	add	sp,sp,-4
 2000300:	0046d16f 	jal	2011e44 <t6_main>
 2000304:	00000067 	j	2000304 <t6_startup+0x2c>

02000308 <t7_startup>:
 2000308:	10200e37 	lui	s0,0x401c
 200030c:	10800013 	move	s0,s0
 2000310:	18200e37 	lui	s1,0x401c
 2000314:	18cf0013 	add	s1,s1,960
 2000318:	008622e3 	ble	s1,s0,2000328 <t7_startup+0x20>
 200031c:	00800123 	sw	zero,0(s0)
 2000320:	10801013 	add	s0,s0,4
 2000324:	fffffd67 	j	2000318 <t7_startup+0x10>
 2000328:	70201037 	lui	sp,0x4020
 200032c:	73bff013 	add	sp,sp,-4
 2000330:	004d966f 	jal	2013988 <t7_main>
 2000334:	00000067 	j	2000334 <t7_startup+0x2c>

02000338 <t0_exception_proxy>:
 2000338:	73bfe013 	add	sp,sp,-8
 200033c:	03821123 	sw	ra,4(sp)
 2000340:	7840017b 	mfpcr	tp,cr1
 2000344:	73bef013 	add	sp,sp,-68
 2000348:	039e1123 	sw	tp,4(sp)
 200034c:	03a02123 	sw	v0,8(sp)
 2000350:	03a23123 	sw	v1,12(sp)
 2000354:	03a44123 	sw	a0,16(sp)
 2000358:	03a65123 	sw	a1,20(sp)
 200035c:	03a86123 	sw	a2,24(sp)
 2000360:	03aa7123 	sw	a3,28(sp)
 2000364:	03ac8123 	sw	a4,32(sp)
 2000368:	03ae9123 	sw	a5,36(sp)
 200036c:	03b0a123 	sw	a6,40(sp)
 2000370:	03b2b123 	sw	a7,44(sp)
 2000374:	03b4c123 	sw	a8,48(sp)
 2000378:	03b6d123 	sw	a9,52(sp)
 200037c:	03b8e123 	sw	a10,56(sp)
 2000380:	03baf123 	sw	a11,60(sp)
 2000384:	03bd0123 	sw	a12,64(sp)
 2000388:	03bf1123 	sw	a13,68(sp)
 200038c:	80200037 	lui	v0,0x4000
 2000390:	84006103 	lw	v0,24(v0)
 2000394:	0c00006b 	jalr	v0
 2000398:	7b801103 	lw	tp,4(sp)
 200039c:	83802103 	lw	v0,8(sp)
 20003a0:	8b803103 	lw	v1,12(sp)
 20003a4:	93804103 	lw	a0,16(sp)
 20003a8:	9b805103 	lw	a1,20(sp)
 20003ac:	a3806103 	lw	a2,24(sp)
 20003b0:	ab807103 	lw	a3,28(sp)
 20003b4:	b3808103 	lw	a4,32(sp)
 20003b8:	bb809103 	lw	a5,36(sp)
 20003bc:	c380a103 	lw	a6,40(sp)
 20003c0:	cb80b103 	lw	a7,44(sp)
 20003c4:	d380c103 	lw	a8,48(sp)
 20003c8:	db80d103 	lw	a9,52(sp)
 20003cc:	e380e103 	lw	a10,56(sp)
 20003d0:	eb80f103 	lw	a11,60(sp)
 20003d4:	f3810103 	lw	a12,64(sp)
 20003d8:	fb811103 	lw	a13,68(sp)
 20003dc:	73811013 	add	sp,sp,68
 20003e0:	0b801103 	lw	ra,4(sp)
 20003e4:	73802013 	add	sp,sp,8
 20003e8:	03c0016b 	jr	tp
 20003ec:	0b801103 	lw	ra,4(sp)
 20003f0:	73802013 	add	sp,sp,8
 20003f4:	004000eb 	ret

020003f8 <t0_main>:
 20003f8:	73bf6013 	add	sp,sp,-40
 20003fc:	03886123 	sw	s2,24(sp)
 2000400:	20000c37 	lui	s2,0x18
 2000404:	03829123 	sw	ra,36(sp)
 2000408:	03848123 	sw	s0,32(sp)
 200040c:	03867123 	sw	s1,28(sp)
 2000410:	038a5123 	sw	s3,20(sp)
 2000414:	038c4123 	sw	s4,16(sp)
 2000418:	038e3123 	sw	s5,12(sp)
 200041c:	03902123 	sw	s6,8(sp)
 2000420:	03921123 	sw	s7,4(sp)
 2000424:	211a8013 	add	s2,s2,1696
 2000428:	80000013 	li	v0,0
 200042c:	1c000013 	move	s1,v0
 2000430:	11000013 	move	s0,s2
 2000434:	00c4015b 	0xc4015b
 2000438:	42000037 	lui	s6,0x40000
 200043c:	300bec37 	lui	s4,0x17d8
 2000440:	4a000413 	add	s7,s6,1
 2000444:	28000013 	li	s3,0
 2000448:	3c000037 	lui	s5,0x80000
 200044c:	42002c13 	add	s6,s6,11
 2000450:	31a10013 	add	s4,s4,-1984
 2000454:	879201fb 	mtpcr	v0,s7,cr30
 2000458:	1000005b 	0x1000005b
 200045c:	80800013 	move	v0,s0
 2000460:	840e0333 	or	v0,v0,s5
 2000464:	87a001fb 	mtpcr	v0,v0,cr30
 2000468:	0006076f 	jal	2001c84 <t0_taskA1_main>
 200046c:	879001fb 	mtpcr	v0,s6,cr30
 2000470:	1000005b 	0x1000005b
 2000474:	80800013 	move	v0,s0
 2000478:	840e0333 	or	v0,v0,s5
 200047c:	87a001fb 	mtpcr	v0,v0,cr30
 2000480:	210c0033 	add	s2,s2,s4
 2000484:	810c01b3 	sltu	v0,s2,s4
 2000488:	29600033 	add	s3,s3,v0
 200048c:	19400013 	move	s1,s3
 2000490:	11000013 	move	s0,s2
 2000494:	00c4015b 	0xc4015b
 2000498:	ffffef67 	j	2000454 <t0_main+0x5c>

0200049c <t0_taskA1_interface>:
 200049c:	80200037 	lui	v0,0x4000
 20004a0:	8c035013 	add	v1,v0,212
 20004a4:	94401003 	lb	a0,4(v1)
 20004a8:	0c805063 	beqz	a0,20005d0 <t0_taskA1_interface+0x134>
 20004ac:	88200037 	lui	v1,0x4000
 20004b0:	8c40c103 	lw	v1,48(v1)
 20004b4:	90200037 	lui	a0,0x4000
 20004b8:	0ca32123 	sw	v1,200(a0)
 20004bc:	90200037 	lui	a0,0x4000
 20004c0:	0ca33123 	sw	v1,204(a0)
 20004c4:	90200037 	lui	a0,0x4000
 20004c8:	8c831103 	lw	v1,196(a0)
 20004cc:	04404863 	beqz	v1,20004f0 <t0_taskA1_interface+0x54>
 20004d0:	98200037 	lui	a1,0x4000
 20004d4:	9cc0c103 	lw	a1,48(a1)
 20004d8:	8ce30033 	sub	v1,a1,v1
 20004dc:	8c40f0d3 	fcvt.d.wu	fv1,v1
 20004e0:	88200037 	lui	v1,0x4000
 20004e4:	84400187 	fld	fv0,0(v1)
 20004e8:	8c2370d3 	fle.d	v1,fv0,fv1
 20004ec:	0c4050e3 	bnez	v1,2000614 <t0_taskA1_interface+0x178>
 20004f0:	90200037 	lui	a0,0x4000
 20004f4:	8c830103 	lw	v1,192(a0)
 20004f8:	04404863 	beqz	v1,200051c <t0_taskA1_interface+0x80>
 20004fc:	98200037 	lui	a1,0x4000
 2000500:	9cc0c103 	lw	a1,48(a1)
 2000504:	8ce30033 	sub	v1,a1,v1
 2000508:	8c40f0d3 	fcvt.d.wu	fv1,v1
 200050c:	88200037 	lui	v1,0x4000
 2000510:	84400187 	fld	fv0,0(v1)
 2000514:	8c2370d3 	fle.d	v1,fv0,fv1
 2000518:	0441d8e3 	bnez	v1,2000604 <t0_taskA1_interface+0x168>
 200051c:	90200037 	lui	a0,0x4000
 2000520:	8c82f103 	lw	v1,188(a0)
 2000524:	04404863 	beqz	v1,2000548 <t0_taskA1_interface+0xac>
 2000528:	98200037 	lui	a1,0x4000
 200052c:	9cc0c103 	lw	a1,48(a1)
 2000530:	8ce30033 	sub	v1,a1,v1
 2000534:	8c40f0d3 	fcvt.d.wu	fv1,v1
 2000538:	88200037 	lui	v1,0x4000
 200053c:	84400187 	fld	fv0,0(v1)
 2000540:	8c2370d3 	fle.d	v1,fv0,fv1
 2000544:	044160e3 	bnez	v1,20005f4 <t0_taskA1_interface+0x158>
 2000548:	90200037 	lui	a0,0x4000
 200054c:	8c82b103 	lw	v1,172(a0)
 2000550:	04404863 	beqz	v1,2000574 <t0_taskA1_interface+0xd8>
 2000554:	98200037 	lui	a1,0x4000
 2000558:	9cc0c103 	lw	a1,48(a1)
 200055c:	8ce30033 	sub	v1,a1,v1
 2000560:	8c40f0d3 	fcvt.d.wu	fv1,v1
 2000564:	88200037 	lui	v1,0x4000
 2000568:	84400187 	fld	fv0,0(v1)
 200056c:	8c2370d3 	fle.d	v1,fv0,fv1
 2000570:	0440f8e3 	bnez	v1,20005ec <t0_taskA1_interface+0x150>
 2000574:	90200037 	lui	a0,0x4000
 2000578:	8c82a103 	lw	v1,168(a0)
 200057c:	04404863 	beqz	v1,20005a0 <t0_taskA1_interface+0x104>
 2000580:	98200037 	lui	a1,0x4000
 2000584:	9cc0c103 	lw	a1,48(a1)
 2000588:	8ce30033 	sub	v1,a1,v1
 200058c:	8c40f0d3 	fcvt.d.wu	fv1,v1
 2000590:	88200037 	lui	v1,0x4000
 2000594:	84400187 	fld	fv0,0(v1)
 2000598:	8c2370d3 	fle.d	v1,fv0,fv1
 200059c:	044090e3 	bnez	v1,20005e4 <t0_taskA1_interface+0x148>
 20005a0:	84035003 	lb	v0,212(v0)
 20005a4:	040030e3 	bnez	v0,20005bc <t0_taskA1_interface+0x120>
 20005a8:	80200037 	lui	v0,0x4000
 20005ac:	8c01f103 	lw	v1,124(v0)
 20005b0:	80200037 	lui	v0,0x4000
 20005b4:	8401d103 	lw	v0,116(v0)
 20005b8:	04602863 	beq	v1,v0,20005cc <t0_taskA1_interface+0x130>
 20005bc:	80200037 	lui	v0,0x4000
 20005c0:	8c00c103 	lw	v1,48(v0)
 20005c4:	80200037 	lui	v0,0x4000
 20005c8:	0c234123 	sw	v1,208(v0)
 20005cc:	004000eb 	ret
 20005d0:	8c401803 	lb	v1,6(v1)
 20005d4:	f441e063 	beqz	v1,20004c4 <t0_taskA1_interface+0x28>
 20005d8:	88200037 	lui	v1,0x4000
 20005dc:	8c40c103 	lw	v1,48(v1)
 20005e0:	ffffb767 	j	20004bc <t0_taskA1_interface+0x20>
 20005e4:	0c80a123 	sw	zero,168(a0)
 20005e8:	ffffee67 	j	20005a0 <t0_taskA1_interface+0x104>
 20005ec:	0c80b123 	sw	zero,172(a0)
 20005f0:	ffffe167 	j	2000574 <t0_taskA1_interface+0xd8>
 20005f4:	88200037 	lui	v1,0x4000
 20005f8:	04416023 	sb	zero,88(v1)
 20005fc:	0c80f123 	sw	zero,188(a0)
 2000600:	ffffd267 	j	2000548 <t0_taskA1_interface+0xac>
 2000604:	88200037 	lui	v1,0x4000
 2000608:	04416023 	sb	zero,88(v1)
 200060c:	0c810123 	sw	zero,192(a0)
 2000610:	ffffc367 	j	200051c <t0_taskA1_interface+0x80>
 2000614:	88200037 	lui	v1,0x4000
 2000618:	04415423 	sb	zero,85(v1)
 200061c:	0c811123 	sw	zero,196(a0)
 2000620:	ffffb467 	j	20004f0 <t0_taskA1_interface+0x54>

02000624 <t0_taskA1_init>:
 2000624:	80200037 	lui	v0,0x4000
 2000628:	0c014123 	sw	zero,208(v0)
 200062c:	80200037 	lui	v0,0x4000
 2000630:	0c013123 	sw	zero,204(v0)
 2000634:	80200037 	lui	v0,0x4000
 2000638:	0c012123 	sw	zero,200(v0)
 200063c:	80200037 	lui	v0,0x4000
 2000640:	0400ac23 	sb	zero,43(v0)
 2000644:	80200037 	lui	v0,0x4000
 2000648:	0400a823 	sb	zero,42(v0)
 200064c:	80200037 	lui	v0,0x4000
 2000650:	0400a423 	sb	zero,41(v0)
 2000654:	80200037 	lui	v0,0x4000
 2000658:	0400a023 	sb	zero,40(v0)
 200065c:	80200037 	lui	v0,0x4000
 2000660:	04009c23 	sb	zero,39(v0)
 2000664:	80200037 	lui	v0,0x4000
 2000668:	04009823 	sb	zero,38(v0)
 200066c:	80200037 	lui	v0,0x4000
 2000670:	04009423 	sb	zero,37(v0)
 2000674:	80200037 	lui	v0,0x4000
 2000678:	04009023 	sb	zero,36(v0)
 200067c:	80200037 	lui	v0,0x4000
 2000680:	04008c23 	sb	zero,35(v0)
 2000684:	80200037 	lui	v0,0x4000
 2000688:	04008823 	sb	zero,34(v0)
 200068c:	80200037 	lui	v0,0x4000
 2000690:	04008423 	sb	zero,33(v0)
 2000694:	80200037 	lui	v0,0x4000
 2000698:	04008023 	sb	zero,32(v0)
 200069c:	80200037 	lui	v0,0x4000
 20006a0:	04007c23 	sb	zero,31(v0)
 20006a4:	80200037 	lui	v0,0x4000
 20006a8:	04007823 	sb	zero,30(v0)
 20006ac:	80200037 	lui	v0,0x4000
 20006b0:	04007423 	sb	zero,29(v0)
 20006b4:	80200037 	lui	v0,0x4000
 20006b8:	04007023 	sb	zero,28(v0)
 20006bc:	004000eb 	ret

020006c0 <t0_taskA1_generic_KINDERSICHERUNG_CTRL>:
 20006c0:	80200037 	lui	v0,0x4000
 20006c4:	84037803 	lb	v0,222(v0)
 20006c8:	04006063 	beqz	v0,20006f8 <t0_taskA1_generic_KINDERSICHERUNG_CTRL+0x38>
 20006cc:	88200037 	lui	v1,0x4000
 20006d0:	8440a003 	lb	v0,40(v1)
 20006d4:	90000813 	li	a0,2
 20006d8:	04244863 	beq	v0,a0,20006fc <t0_taskA1_generic_KINDERSICHERUNG_CTRL+0x3c>
 20006dc:	98000c13 	li	a1,3
 20006e0:	0427a863 	beq	v0,a1,20007b4 <t0_taskA1_generic_KINDERSICHERUNG_CTRL+0xf4>
 20006e4:	90000413 	li	a0,1
 20006e8:	04249063 	beq	v0,a0,2000730 <t0_taskA1_generic_KINDERSICHERUNG_CTRL+0x70>
 20006ec:	80200037 	lui	v0,0x4000
 20006f0:	0400b423 	sb	zero,45(v0)
 20006f4:	0466a023 	sb	a1,40(v1)
 20006f8:	004000eb 	ret
 20006fc:	80200037 	lui	v0,0x4000
 2000700:	84019803 	lb	v0,102(v0)
 2000704:	040020e3 	bnez	v0,2000714 <t0_taskA1_generic_KINDERSICHERUNG_CTRL+0x54>
 2000708:	90200037 	lui	a0,0x4000
 200070c:	9481a803 	lb	a0,106(a0)
 2000710:	1480d863 	beqz	a0,200097c <t0_taskA1_generic_KINDERSICHERUNG_CTRL+0x2bc>
 2000714:	88200037 	lui	v1,0x4000
 2000718:	9440a403 	lb	a0,41(v1)
 200071c:	98000413 	li	a1,1
 2000720:	0ca61863 	beq	a0,a1,200082c <t0_taskA1_generic_KINDERSICHERUNG_CTRL+0x16c>
 2000724:	80200037 	lui	v0,0x4000
 2000728:	0400b423 	sb	zero,45(v0)
 200072c:	004000eb 	ret
 2000730:	80200037 	lui	v0,0x4000
 2000734:	8401a003 	lb	v0,104(v0)
 2000738:	040020e3 	bnez	v0,2000748 <t0_taskA1_generic_KINDERSICHERUNG_CTRL+0x88>
 200073c:	90200037 	lui	a0,0x4000
 2000740:	9481b003 	lb	a0,108(a0)
 2000744:	14802063 	beqz	a0,2000954 <t0_taskA1_generic_KINDERSICHERUNG_CTRL+0x294>
 2000748:	88200037 	lui	v1,0x4000
 200074c:	9440a803 	lb	a0,42(v1)
 2000750:	98000413 	li	a1,1
 2000754:	fca7a0e3 	bne	a0,a1,2000724 <t0_taskA1_generic_KINDERSICHERUNG_CTRL+0x64>
 2000758:	04005063 	beqz	v0,2000780 <t0_taskA1_generic_KINDERSICHERUNG_CTRL+0xc0>
 200075c:	98200037 	lui	a1,0x4000
 2000760:	9cc19c03 	lb	a1,103(a1)
 2000764:	04c038e3 	bnez	a1,2000780 <t0_taskA1_generic_KINDERSICHERUNG_CTRL+0xc0>
 2000768:	80200037 	lui	v0,0x4000
 200076c:	0400b423 	sb	zero,45(v0)
 2000770:	80200037 	lui	v0,0x4000
 2000774:	04256c23 	sb	a0,91(v0)
 2000778:	0464a823 	sb	a0,42(v1)
 200077c:	004000eb 	ret
 2000780:	90200037 	lui	a0,0x4000
 2000784:	9481b003 	lb	a0,108(a0)
 2000788:	0c80a863 	beqz	a0,20008dc <t0_taskA1_generic_KINDERSICHERUNG_CTRL+0x21c>
 200078c:	98200037 	lui	a1,0x4000
 2000790:	9cc1ac03 	lb	a1,107(a1)
 2000794:	0cc090e3 	bnez	a1,20008dc <t0_taskA1_generic_KINDERSICHERUNG_CTRL+0x21c>
 2000798:	90200037 	lui	a0,0x4000
 200079c:	80000413 	li	v0,1
 20007a0:	0480b423 	sb	zero,45(a0)
 20007a4:	90200037 	lui	a0,0x4000
 20007a8:	04a17823 	sb	v0,94(a0)
 20007ac:	0460a823 	sb	v0,42(v1)
 20007b0:	004000eb 	ret
 20007b4:	80200037 	lui	v0,0x4000
 20007b8:	84019003 	lb	v0,100(v0)
 20007bc:	040070e3 	bnez	v0,20007f4 <t0_taskA1_generic_KINDERSICHERUNG_CTRL+0x134>
 20007c0:	98200037 	lui	a1,0x4000
 20007c4:	9cc1a803 	lb	a1,106(a1)
 20007c8:	04c1d863 	beqz	a1,20008b4 <t0_taskA1_generic_KINDERSICHERUNG_CTRL+0x1f4>
 20007cc:	80200037 	lui	v0,0x4000
 20007d0:	84019803 	lb	v0,102(v0)
 20007d4:	140060e3 	bnez	v0,2000a04 <t0_taskA1_generic_KINDERSICHERUNG_CTRL+0x344>
 20007d8:	80200037 	lui	v0,0x4000
 20007dc:	0400b423 	sb	zero,45(v0)
 20007e0:	98000413 	li	a1,1
 20007e4:	80200037 	lui	v0,0x4000
 20007e8:	04277823 	sb	a1,94(v0)
 20007ec:	0464a023 	sb	a0,40(v1)
 20007f0:	004000eb 	ret
 20007f4:	90200037 	lui	a0,0x4000
 20007f8:	9481b003 	lb	a0,108(a0)
 20007fc:	048118e3 	bnez	a0,2000888 <t0_taskA1_generic_KINDERSICHERUNG_CTRL+0x1c8>
 2000800:	90200037 	lui	a0,0x4000
 2000804:	9481a003 	lb	a0,104(a0)
 2000808:	f481e063 	beqz	a0,20006f8 <t0_taskA1_generic_KINDERSICHERUNG_CTRL+0x38>
 200080c:	f401d8e3 	bnez	v0,20006f8 <t0_taskA1_generic_KINDERSICHERUNG_CTRL+0x38>
 2000810:	90200037 	lui	a0,0x4000
 2000814:	80000413 	li	v0,1
 2000818:	0480b423 	sb	zero,45(a0)
 200081c:	90200037 	lui	a0,0x4000
 2000820:	04a16c23 	sb	v0,91(a0)
 2000824:	0460a023 	sb	v0,40(v1)
 2000828:	004000eb 	ret
 200082c:	04005063 	beqz	v0,2000854 <t0_taskA1_generic_KINDERSICHERUNG_CTRL+0x194>
 2000830:	98200037 	lui	a1,0x4000
 2000834:	9cc19403 	lb	a1,101(a1)
 2000838:	04c038e3 	bnez	a1,2000854 <t0_taskA1_generic_KINDERSICHERUNG_CTRL+0x194>
 200083c:	80200037 	lui	v0,0x4000
 2000840:	0400b423 	sb	zero,45(v0)
 2000844:	80200037 	lui	v0,0x4000
 2000848:	04256c23 	sb	a0,91(v0)
 200084c:	0464a423 	sb	a0,41(v1)
 2000850:	004000eb 	ret
 2000854:	90200037 	lui	a0,0x4000
 2000858:	9481a803 	lb	a0,106(a0)
 200085c:	04817863 	beqz	a0,2000918 <t0_taskA1_generic_KINDERSICHERUNG_CTRL+0x258>
 2000860:	98200037 	lui	a1,0x4000
 2000864:	9cc1a403 	lb	a1,105(a1)
 2000868:	04c160e3 	bnez	a1,2000918 <t0_taskA1_generic_KINDERSICHERUNG_CTRL+0x258>
 200086c:	90200037 	lui	a0,0x4000
 2000870:	80000413 	li	v0,1
 2000874:	0480b423 	sb	zero,45(a0)
 2000878:	90200037 	lui	a0,0x4000
 200087c:	04a17823 	sb	v0,94(a0)
 2000880:	0460a423 	sb	v0,41(v1)
 2000884:	004000eb 	ret
 2000888:	90200037 	lui	a0,0x4000
 200088c:	9481a003 	lb	a0,104(a0)
 2000890:	0c8030e3 	bnez	a0,20009a8 <t0_taskA1_generic_KINDERSICHERUNG_CTRL+0x2e8>
 2000894:	f400c8e3 	bnez	v0,20006f8 <t0_taskA1_generic_KINDERSICHERUNG_CTRL+0x38>
 2000898:	90200037 	lui	a0,0x4000
 200089c:	80000413 	li	v0,1
 20008a0:	0480b423 	sb	zero,45(a0)
 20008a4:	90200037 	lui	a0,0x4000
 20008a8:	04a17823 	sb	v0,94(a0)
 20008ac:	0460a023 	sb	v0,40(v1)
 20008b0:	004000eb 	ret
 20008b4:	98200037 	lui	a1,0x4000
 20008b8:	9cc19803 	lb	a1,102(a1)
 20008bc:	fcc07063 	beqz	a1,20007f4 <t0_taskA1_generic_KINDERSICHERUNG_CTRL+0x134>
 20008c0:	80200037 	lui	v0,0x4000
 20008c4:	0400b423 	sb	zero,45(v0)
 20008c8:	98000413 	li	a1,1
 20008cc:	80200037 	lui	v0,0x4000
 20008d0:	04276c23 	sb	a1,91(v0)
 20008d4:	0464a023 	sb	a0,40(v1)
 20008d8:	004000eb 	ret
 20008dc:	040020e3 	bnez	v0,20008ec <t0_taskA1_generic_KINDERSICHERUNG_CTRL+0x22c>
 20008e0:	80200037 	lui	v0,0x4000
 20008e4:	84019c03 	lb	v0,103(v0)
 20008e8:	0401c8e3 	bnez	v0,20009cc <t0_taskA1_generic_KINDERSICHERUNG_CTRL+0x30c>
 20008ec:	f48018e3 	bnez	a0,20006f8 <t0_taskA1_generic_KINDERSICHERUNG_CTRL+0x38>
 20008f0:	80200037 	lui	v0,0x4000
 20008f4:	8401ac03 	lb	v0,107(v0)
 20008f8:	f4000063 	beqz	v0,20006f8 <t0_taskA1_generic_KINDERSICHERUNG_CTRL+0x38>
 20008fc:	80200037 	lui	v0,0x4000
 2000900:	0400b423 	sb	zero,45(v0)
 2000904:	80200037 	lui	v0,0x4000
 2000908:	04017823 	sb	zero,94(v0)
 200090c:	80000413 	li	v0,1
 2000910:	0460a823 	sb	v0,42(v1)
 2000914:	004000eb 	ret
 2000918:	040020e3 	bnez	v0,2000928 <t0_taskA1_generic_KINDERSICHERUNG_CTRL+0x268>
 200091c:	80200037 	lui	v0,0x4000
 2000920:	84019403 	lb	v0,101(v0)
 2000924:	040188e3 	bnez	v0,20009e8 <t0_taskA1_generic_KINDERSICHERUNG_CTRL+0x328>
 2000928:	ec81a0e3 	bnez	a0,20006f8 <t0_taskA1_generic_KINDERSICHERUNG_CTRL+0x38>
 200092c:	80200037 	lui	v0,0x4000
 2000930:	8401a403 	lb	v0,105(v0)
 2000934:	ec018863 	beqz	v0,20006f8 <t0_taskA1_generic_KINDERSICHERUNG_CTRL+0x38>
 2000938:	80200037 	lui	v0,0x4000
 200093c:	0400b423 	sb	zero,45(v0)
 2000940:	80200037 	lui	v0,0x4000
 2000944:	04017823 	sb	zero,94(v0)
 2000948:	80000413 	li	v0,1
 200094c:	0460a423 	sb	v0,41(v1)
 2000950:	004000eb 	ret
 2000954:	80200037 	lui	v0,0x4000
 2000958:	0400b423 	sb	zero,45(v0)
 200095c:	80200037 	lui	v0,0x4000
 2000960:	04017823 	sb	zero,94(v0)
 2000964:	80200037 	lui	v0,0x4000
 2000968:	04016c23 	sb	zero,91(v0)
 200096c:	80200037 	lui	v0,0x4000
 2000970:	0466a023 	sb	a1,40(v1)
 2000974:	0400a823 	sb	zero,42(v0)
 2000978:	004000eb 	ret
 200097c:	80200037 	lui	v0,0x4000
 2000980:	0400b423 	sb	zero,45(v0)
 2000984:	80200037 	lui	v0,0x4000
 2000988:	04017823 	sb	zero,94(v0)
 200098c:	80200037 	lui	v0,0x4000
 2000990:	04016c23 	sb	zero,91(v0)
 2000994:	80000c13 	li	v0,3
 2000998:	0460a023 	sb	v0,40(v1)
 200099c:	80200037 	lui	v0,0x4000
 20009a0:	0400a423 	sb	zero,41(v0)
 20009a4:	004000eb 	ret
 20009a8:	90200037 	lui	a0,0x4000
 20009ac:	80000413 	li	v0,1
 20009b0:	0480b423 	sb	zero,45(a0)
 20009b4:	90200037 	lui	a0,0x4000
 20009b8:	04a16c23 	sb	v0,91(a0)
 20009bc:	90200037 	lui	a0,0x4000
 20009c0:	04a17823 	sb	v0,94(a0)
 20009c4:	0460a023 	sb	v0,40(v1)
 20009c8:	004000eb 	ret
 20009cc:	80200037 	lui	v0,0x4000
 20009d0:	0400b423 	sb	zero,45(v0)
 20009d4:	80200037 	lui	v0,0x4000
 20009d8:	04016c23 	sb	zero,91(v0)
 20009dc:	80000413 	li	v0,1
 20009e0:	0460a823 	sb	v0,42(v1)
 20009e4:	004000eb 	ret
 20009e8:	80200037 	lui	v0,0x4000
 20009ec:	0400b423 	sb	zero,45(v0)
 20009f0:	80200037 	lui	v0,0x4000
 20009f4:	04016c23 	sb	zero,91(v0)
 20009f8:	80000413 	li	v0,1
 20009fc:	0460a423 	sb	v0,41(v1)
 2000a00:	004000eb 	ret
 2000a04:	98200037 	lui	a1,0x4000
 2000a08:	80000413 	li	v0,1
 2000a0c:	04c0b423 	sb	zero,45(a1)
 2000a10:	98200037 	lui	a1,0x4000
 2000a14:	04e17823 	sb	v0,94(a1)
 2000a18:	98200037 	lui	a1,0x4000
 2000a1c:	04e16c23 	sb	v0,91(a1)
 2000a20:	0464a023 	sb	a0,40(v1)
 2000a24:	004000eb 	ret

02000a28 <t0_taskA1_generic_FH_TUERMODUL_CTRL>:
 2000a28:	80200037 	lui	v0,0x4000
 2000a2c:	84035013 	add	v0,v0,212
 2000a30:	8c003403 	lb	v1,13(v0)
 2000a34:	044048e3 	bnez	v1,2000a58 <t0_taskA1_generic_FH_TUERMODUL_CTRL+0x30>
 2000a38:	8c003c03 	lb	v1,15(v0)
 2000a3c:	04403063 	beqz	v1,2000a54 <t0_taskA1_generic_FH_TUERMODUL_CTRL+0x2c>
 2000a40:	8c003803 	lb	v1,14(v0)
 2000a44:	044020e3 	bnez	v1,2000a54 <t0_taskA1_generic_FH_TUERMODUL_CTRL+0x2c>
 2000a48:	04001023 	sb	zero,4(v0)
 2000a4c:	04001823 	sb	zero,6(v0)
 2000a50:	004000eb 	ret
 2000a54:	004000eb 	ret
 2000a58:	8c002803 	lb	v1,10(v0)
 2000a5c:	044020e3 	bnez	v1,2000a6c <t0_taskA1_generic_FH_TUERMODUL_CTRL+0x44>
 2000a60:	90000c13 	li	a0,3
 2000a64:	88200037 	lui	v1,0x4000
 2000a68:	0464a023 	sb	a0,40(v1)
 2000a6c:	8c004c03 	lb	v1,19(v0)
 2000a70:	044030e3 	bnez	v1,2000a88 <t0_taskA1_generic_FH_TUERMODUL_CTRL+0x60>
 2000a74:	88200037 	lui	v1,0x4000
 2000a78:	0c415023 	sb	zero,212(v1)
 2000a7c:	90000413 	li	a0,1
 2000a80:	88200037 	lui	v1,0x4000
 2000a84:	04647023 	sb	a0,28(v1)
 2000a88:	98200037 	lui	a1,0x4000
 2000a8c:	8cc09c03 	lb	v1,39(a1)
 2000a90:	90000413 	li	a0,1
 2000a94:	a0000813 	li	a2,2
 2000a98:	04242c23 	sb	a0,11(v0)
 2000a9c:	04245023 	sb	a0,20(v0)
 2000aa0:	04693863 	beq	v1,a2,2000b3c <t0_taskA1_generic_FH_TUERMODUL_CTRL+0x114>
 2000aa4:	a8000c13 	li	a3,3
 2000aa8:	0c6a2063 	beq	v1,a3,2000bb8 <t0_taskA1_generic_FH_TUERMODUL_CTRL+0x190>
 2000aac:	90000413 	li	a0,1
 2000ab0:	0465a863 	beq	v1,a0,2000b84 <t0_taskA1_generic_FH_TUERMODUL_CTRL+0x15c>
 2000ab4:	88200037 	lui	v1,0x4000
 2000ab8:	0440b423 	sb	zero,45(v1)
 2000abc:	04e89c23 	sb	a2,39(a1)
 2000ac0:	90200037 	lui	a0,0x4000
 2000ac4:	9c809803 	lb	a1,38(a0)
 2000ac8:	88000413 	li	v1,1
 2000acc:	04e26863 	beq	a1,v1,2000b00 <t0_taskA1_generic_FH_TUERMODUL_CTRL+0xd8>
 2000ad0:	98200037 	lui	a1,0x4000
 2000ad4:	04c0b423 	sb	zero,45(a1)
 2000ad8:	04a29823 	sb	v1,38(a0)
 2000adc:	98200037 	lui	a1,0x4000
 2000ae0:	90200037 	lui	a0,0x4000
 2000ae4:	0cc0e123 	sw	zero,184(a1)
 2000ae8:	04a29423 	sb	v1,37(a0)
 2000aec:	94001203 	lbu	a0,4(v0)
 2000af0:	8c001a03 	lbu	v1,6(v0)
 2000af4:	04241423 	sb	a0,5(v0)
 2000af8:	04221c23 	sb	v1,7(v0)
 2000afc:	004000eb 	ret
 2000b00:	88200037 	lui	v1,0x4000
 2000b04:	8c40b003 	lb	v1,44(v1)
 2000b08:	0c67e063 	beq	v1,a1,2000cf8 <t0_taskA1_generic_FH_TUERMODUL_CTRL+0x2d0>
 2000b0c:	90200037 	lui	a0,0x4000
 2000b10:	a4809403 	lb	a2,37(a0)
 2000b14:	98000413 	li	a1,1
 2000b18:	0d270863 	beq	a2,a1,2000c9c <t0_taskA1_generic_FH_TUERMODUL_CTRL+0x274>
 2000b1c:	88200037 	lui	v1,0x4000
 2000b20:	0440b423 	sb	zero,45(v1)
 2000b24:	04a69423 	sb	a1,37(a0)
 2000b28:	8c001a03 	lbu	v1,6(v0)
 2000b2c:	94001203 	lbu	a0,4(v0)
 2000b30:	04221c23 	sb	v1,7(v0)
 2000b34:	04241423 	sb	a0,5(v0)
 2000b38:	004000eb 	ret
 2000b3c:	88200037 	lui	v1,0x4000
 2000b40:	8c418c03 	lb	v1,99(v1)
 2000b44:	04402063 	beqz	v1,2000b54 <t0_taskA1_generic_FH_TUERMODUL_CTRL+0x12c>
 2000b48:	88200037 	lui	v1,0x4000
 2000b4c:	8c418403 	lb	v1,97(v1)
 2000b50:	14401063 	beqz	v1,2000d58 <t0_taskA1_generic_FH_TUERMODUL_CTRL+0x330>
 2000b54:	90200037 	lui	a0,0x4000
 2000b58:	8c80ac03 	lb	v1,43(a0)
 2000b5c:	98000813 	li	a1,2
 2000b60:	14675863 	beq	v1,a1,2000e0c <t0_taskA1_generic_FH_TUERMODUL_CTRL+0x3e4>
 2000b64:	a0000c13 	li	a2,3
 2000b68:	1468f863 	beq	v1,a2,2000de4 <t0_taskA1_generic_FH_TUERMODUL_CTRL+0x3bc>
 2000b6c:	98000413 	li	a1,1
 2000b70:	14665063 	beq	v1,a1,2000d98 <t0_taskA1_generic_FH_TUERMODUL_CTRL+0x370>
 2000b74:	88200037 	lui	v1,0x4000
 2000b78:	0440b423 	sb	zero,45(v1)
 2000b7c:	04a8ac23 	sb	a2,43(a0)
 2000b80:	ffffd067 	j	2000ac0 <t0_taskA1_generic_FH_TUERMODUL_CTRL+0x98>
 2000b84:	88200037 	lui	v1,0x4000
 2000b88:	8c42e103 	lw	v1,184(v1)
 2000b8c:	9000ec13 	li	a0,59
 2000b90:	fc6460e3 	bne	v1,a0,2000ac0 <t0_taskA1_generic_FH_TUERMODUL_CTRL+0x98>
 2000b94:	90200037 	lui	a0,0x4000
 2000b98:	9482c103 	lw	a0,176(a0)
 2000b9c:	fca24863 	beq	a0,v1,2000ac0 <t0_taskA1_generic_FH_TUERMODUL_CTRL+0x98>
 2000ba0:	88200037 	lui	v1,0x4000
 2000ba4:	0440b423 	sb	zero,45(v1)
 2000ba8:	88200037 	lui	v1,0x4000
 2000bac:	04ea9c23 	sb	a3,39(a1)
 2000bb0:	046a9023 	sb	a3,36(v1)
 2000bb4:	ffffc367 	j	2000ac0 <t0_taskA1_generic_FH_TUERMODUL_CTRL+0x98>
 2000bb8:	88200037 	lui	v1,0x4000
 2000bbc:	8c42e103 	lw	v1,184(v1)
 2000bc0:	8c40f513 	slt	v1,v1,61
 2000bc4:	044098e3 	bnez	v1,2000c10 <t0_taskA1_generic_FH_TUERMODUL_CTRL+0x1e8>
 2000bc8:	88200037 	lui	v1,0x4000
 2000bcc:	8c42c103 	lw	v1,176(v1)
 2000bd0:	8c40f513 	slt	v1,v1,61
 2000bd4:	04407863 	beqz	v1,2000c10 <t0_taskA1_generic_FH_TUERMODUL_CTRL+0x1e8>
 2000bd8:	88200037 	lui	v1,0x4000
 2000bdc:	8c41bc03 	lb	v1,111(v1)
 2000be0:	044060e3 	bnez	v1,2000c10 <t0_taskA1_generic_FH_TUERMODUL_CTRL+0x1e8>
 2000be4:	88200037 	lui	v1,0x4000
 2000be8:	8c41c403 	lb	v1,113(v1)
 2000bec:	044048e3 	bnez	v1,2000c10 <t0_taskA1_generic_FH_TUERMODUL_CTRL+0x1e8>
 2000bf0:	88200037 	lui	v1,0x4000
 2000bf4:	0440b423 	sb	zero,45(v1)
 2000bf8:	88200037 	lui	v1,0x4000
 2000bfc:	04416023 	sb	zero,88(v1)
 2000c00:	88200037 	lui	v1,0x4000
 2000c04:	04415423 	sb	zero,85(v1)
 2000c08:	04e49c23 	sb	a0,39(a1)
 2000c0c:	ffffad67 	j	2000ac0 <t0_taskA1_generic_FH_TUERMODUL_CTRL+0x98>
 2000c10:	88200037 	lui	v1,0x4000
 2000c14:	8c418c03 	lb	v1,99(v1)
 2000c18:	0440a863 	beqz	v1,2000c6c <t0_taskA1_generic_FH_TUERMODUL_CTRL+0x244>
 2000c1c:	88200037 	lui	v1,0x4000
 2000c20:	8c418403 	lb	v1,97(v1)
 2000c24:	044090e3 	bnez	v1,2000c6c <t0_taskA1_generic_FH_TUERMODUL_CTRL+0x244>
 2000c28:	88200037 	lui	v1,0x4000
 2000c2c:	8c415803 	lb	v1,86(v1)
 2000c30:	1441d863 	beqz	v1,2000f1c <t0_taskA1_generic_FH_TUERMODUL_CTRL+0x4f4>
 2000c34:	88200037 	lui	v1,0x4000
 2000c38:	9440c103 	lw	a0,48(v1)
 2000c3c:	88200037 	lui	v1,0x4000
 2000c40:	0440b423 	sb	zero,45(v1)
 2000c44:	88200037 	lui	v1,0x4000
 2000c48:	04415423 	sb	zero,85(v1)
 2000c4c:	88200037 	lui	v1,0x4000
 2000c50:	0c651123 	sw	a0,196(v1)
 2000c54:	88000813 	li	v1,2
 2000c58:	04e29c23 	sb	v1,39(a1)
 2000c5c:	90000c13 	li	a0,3
 2000c60:	88200037 	lui	v1,0x4000
 2000c64:	0464ac23 	sb	a0,43(v1)
 2000c68:	ffff9667 	j	2000ac0 <t0_taskA1_generic_FH_TUERMODUL_CTRL+0x98>
 2000c6c:	90200037 	lui	a0,0x4000
 2000c70:	8c809003 	lb	v1,36(a0)
 2000c74:	98000813 	li	a1,2
 2000c78:	14662063 	beq	v1,a1,2000e88 <t0_taskA1_generic_FH_TUERMODUL_CTRL+0x460>
 2000c7c:	a0000c13 	li	a2,3
 2000c80:	0c696863 	beq	v1,a2,2000e34 <t0_taskA1_generic_FH_TUERMODUL_CTRL+0x40c>
 2000c84:	a8000413 	li	a3,1
 2000c88:	0c6a6863 	beq	v1,a3,2000dbc <t0_taskA1_generic_FH_TUERMODUL_CTRL+0x394>
 2000c8c:	88200037 	lui	v1,0x4000
 2000c90:	0440b423 	sb	zero,45(v1)
 2000c94:	04a89023 	sb	a2,36(a0)
 2000c98:	ffff8a67 	j	2000ac0 <t0_taskA1_generic_FH_TUERMODUL_CTRL+0x98>
 2000c9c:	f468a0e3 	bne	v1,a2,2000aec <t0_taskA1_generic_FH_TUERMODUL_CTRL+0xc4>
 2000ca0:	98200037 	lui	a1,0x4000
 2000ca4:	9cc32103 	lw	a1,200(a1)
 2000ca8:	f4c08863 	beqz	a1,2000aec <t0_taskA1_generic_FH_TUERMODUL_CTRL+0xc4>
 2000cac:	a0200037 	lui	a2,0x4000
 2000cb0:	a500c103 	lw	a2,48(a2)
 2000cb4:	a53ff413 	add	a2,a2,-3
 2000cb8:	f4e868e3 	bne	a1,a2,2000aec <t0_taskA1_generic_FH_TUERMODUL_CTRL+0xc4>
 2000cbc:	98200037 	lui	a1,0x4000
 2000cc0:	9cc16403 	lb	a1,89(a1)
 2000cc4:	f4c050e3 	bnez	a1,2000aec <t0_taskA1_generic_FH_TUERMODUL_CTRL+0xc4>
 2000cc8:	98200037 	lui	a1,0x4000
 2000ccc:	9cc15803 	lb	a1,86(a1)
 2000cd0:	f4c038e3 	bnez	a1,2000aec <t0_taskA1_generic_FH_TUERMODUL_CTRL+0xc4>
 2000cd4:	98200037 	lui	a1,0x4000
 2000cd8:	a4c2e103 	lw	a2,184(a1)
 2000cdc:	f02822e3 	blez	a2,2000aec <t0_taskA1_generic_FH_TUERMODUL_CTRL+0xc4>
 2000ce0:	a53ffc13 	add	a2,a2,-1
 2000ce4:	a8200037 	lui	a3,0x4000
 2000ce8:	0540b423 	sb	zero,45(a3)
 2000cec:	0ce8e123 	sw	a2,184(a1)
 2000cf0:	04a29423 	sb	v1,37(a0)
 2000cf4:	ffff7e67 	j	2000aec <t0_taskA1_generic_FH_TUERMODUL_CTRL+0xc4>
 2000cf8:	98200037 	lui	a1,0x4000
 2000cfc:	9cc33103 	lw	a1,204(a1)
 2000d00:	f4c01863 	beqz	a1,2000b0c <t0_taskA1_generic_FH_TUERMODUL_CTRL+0xe4>
 2000d04:	a0200037 	lui	a2,0x4000
 2000d08:	a500c103 	lw	a2,48(a2)
 2000d0c:	9d270033 	sub	a1,a2,a1
 2000d10:	ece3f8e3 	bne	a1,v1,2000b0c <t0_taskA1_generic_FH_TUERMODUL_CTRL+0xe4>
 2000d14:	98200037 	lui	a1,0x4000
 2000d18:	9cc16403 	lb	a1,89(a1)
 2000d1c:	04c020e3 	bnez	a1,2000d2c <t0_taskA1_generic_FH_TUERMODUL_CTRL+0x304>
 2000d20:	98200037 	lui	a1,0x4000
 2000d24:	9cc15803 	lb	a1,86(a1)
 2000d28:	ecc1c863 	beqz	a1,2000b0c <t0_taskA1_generic_FH_TUERMODUL_CTRL+0xe4>
 2000d2c:	98200037 	lui	a1,0x4000
 2000d30:	a4c2e103 	lw	a2,184(a1)
 2000d34:	88000413 	li	v1,1
 2000d38:	a8200037 	lui	a3,0x4000
 2000d3c:	a5000413 	add	a2,a2,1
 2000d40:	04a29823 	sb	v1,38(a0)
 2000d44:	90200037 	lui	a0,0x4000
 2000d48:	0540b423 	sb	zero,45(a3)
 2000d4c:	0ce8e123 	sw	a2,184(a1)
 2000d50:	04a29423 	sb	v1,37(a0)
 2000d54:	ffff6667 	j	2000aec <t0_taskA1_generic_FH_TUERMODUL_CTRL+0xc4>
 2000d58:	88200037 	lui	v1,0x4000
 2000d5c:	8c416403 	lb	v1,89(v1)
 2000d60:	ec41e863 	beqz	v1,2000b54 <t0_taskA1_generic_FH_TUERMODUL_CTRL+0x12c>
 2000d64:	88200037 	lui	v1,0x4000
 2000d68:	a440c103 	lw	a2,48(v1)
 2000d6c:	90200037 	lui	a0,0x4000
 2000d70:	0480b423 	sb	zero,45(a0)
 2000d74:	90200037 	lui	a0,0x4000
 2000d78:	04816023 	sb	zero,88(a0)
 2000d7c:	90200037 	lui	a0,0x4000
 2000d80:	88000c13 	li	v1,3
 2000d84:	0ca8f123 	sw	a2,188(a0)
 2000d88:	90200037 	lui	a0,0x4000
 2000d8c:	04e29c23 	sb	v1,39(a1)
 2000d90:	04a29023 	sb	v1,36(a0)
 2000d94:	ffff4b67 	j	2000ac0 <t0_taskA1_generic_FH_TUERMODUL_CTRL+0x98>
 2000d98:	88200037 	lui	v1,0x4000
 2000d9c:	8c417c03 	lb	v1,95(v1)
 2000da0:	ec4040e3 	bnez	v1,2000ac0 <t0_taskA1_generic_FH_TUERMODUL_CTRL+0x98>
 2000da4:	88200037 	lui	v1,0x4000
 2000da8:	0440b423 	sb	zero,45(v1)
 2000dac:	88200037 	lui	v1,0x4000
 2000db0:	04416023 	sb	zero,88(v1)
 2000db4:	04a8ac23 	sb	a2,43(a0)
 2000db8:	ffff4267 	j	2000ac0 <t0_taskA1_generic_FH_TUERMODUL_CTRL+0x98>
 2000dbc:	a8200037 	lui	a3,0x4000
 2000dc0:	ad429103 	lw	a3,164(a3)
 2000dc4:	ad465513 	slt	a3,a3,405
 2000dc8:	0d4158e3 	bnez	a3,2000f74 <t0_taskA1_generic_FH_TUERMODUL_CTRL+0x54c>
 2000dcc:	88200037 	lui	v1,0x4000
 2000dd0:	0440b423 	sb	zero,45(v1)
 2000dd4:	88200037 	lui	v1,0x4000
 2000dd8:	04415423 	sb	zero,85(v1)
 2000ddc:	04a89023 	sb	a2,36(a0)
 2000de0:	ffff3867 	j	2000ac0 <t0_taskA1_generic_FH_TUERMODUL_CTRL+0x98>
 2000de4:	88200037 	lui	v1,0x4000
 2000de8:	8c417003 	lb	v1,92(v1)
 2000dec:	0c40c063 	beqz	v1,2000f4c <t0_taskA1_generic_FH_TUERMODUL_CTRL+0x524>
 2000df0:	88200037 	lui	v1,0x4000
 2000df4:	0440b423 	sb	zero,45(v1)
 2000df8:	a0000413 	li	a2,1
 2000dfc:	88200037 	lui	v1,0x4000
 2000e00:	04695423 	sb	a2,85(v1)
 2000e04:	04a6ac23 	sb	a1,43(a0)
 2000e08:	ffff2e67 	j	2000ac0 <t0_taskA1_generic_FH_TUERMODUL_CTRL+0x98>
 2000e0c:	88200037 	lui	v1,0x4000
 2000e10:	8c417003 	lb	v1,92(v1)
 2000e14:	e44158e3 	bnez	v1,2000ac0 <t0_taskA1_generic_FH_TUERMODUL_CTRL+0x98>
 2000e18:	88200037 	lui	v1,0x4000
 2000e1c:	0440b423 	sb	zero,45(v1)
 2000e20:	88200037 	lui	v1,0x4000
 2000e24:	04415423 	sb	zero,85(v1)
 2000e28:	88000c13 	li	v1,3
 2000e2c:	04a2ac23 	sb	v1,43(a0)
 2000e30:	ffff2467 	j	2000ac0 <t0_taskA1_generic_FH_TUERMODUL_CTRL+0x98>
 2000e34:	88200037 	lui	v1,0x4000
 2000e38:	8c417c03 	lb	v1,95(v1)
 2000e3c:	04412063 	beqz	v1,2000ecc <t0_taskA1_generic_FH_TUERMODUL_CTRL+0x4a4>
 2000e40:	88200037 	lui	v1,0x4000
 2000e44:	8c417403 	lb	v1,93(v1)
 2000e48:	044108e3 	bnez	v1,2000ecc <t0_taskA1_generic_FH_TUERMODUL_CTRL+0x4a4>
 2000e4c:	88200037 	lui	v1,0x4000
 2000e50:	8c429103 	lw	v1,164(v1)
 2000e54:	0022f2e3 	blez	v1,2000ecc <t0_taskA1_generic_FH_TUERMODUL_CTRL+0x4a4>
 2000e58:	04a69023 	sb	a1,36(a0)
 2000e5c:	90200037 	lui	a0,0x4000
 2000e60:	04a68023 	sb	a1,32(a0)
 2000e64:	90200037 	lui	a0,0x4000
 2000e68:	88000413 	li	v1,1
 2000e6c:	a0200037 	lui	a2,0x4000
 2000e70:	04a68823 	sb	a1,34(a0)
 2000e74:	90200037 	lui	a0,0x4000
 2000e78:	0500b423 	sb	zero,45(a2)
 2000e7c:	04224423 	sb	v1,17(v0)
 2000e80:	04a36023 	sb	v1,88(a0)
 2000e84:	ffff0f67 	j	2000ac0 <t0_taskA1_generic_FH_TUERMODUL_CTRL+0x98>
 2000e88:	98200037 	lui	a1,0x4000
 2000e8c:	9cc29103 	lw	a1,164(a1)
 2000e90:	08260ae3 	blez	a1,2000f94 <t0_taskA1_generic_FH_TUERMODUL_CTRL+0x56c>
 2000e94:	a8200037 	lui	a3,0x4000
 2000e98:	9d408003 	lb	a1,32(a3)
 2000e9c:	a0000413 	li	a2,1
 2000ea0:	0ce8b863 	beq	a1,a2,2000ffc <t0_taskA1_generic_FH_TUERMODUL_CTRL+0x5d4>
 2000ea4:	0ce21863 	beq	a1,v1,2000fb0 <t0_taskA1_generic_FH_TUERMODUL_CTRL+0x588>
 2000ea8:	90200037 	lui	a0,0x4000
 2000eac:	0480b423 	sb	zero,45(a0)
 2000eb0:	90200037 	lui	a0,0x4000
 2000eb4:	05628023 	sb	v1,32(a3)
 2000eb8:	04a28823 	sb	v1,34(a0)
 2000ebc:	88200037 	lui	v1,0x4000
 2000ec0:	04284423 	sb	a2,17(v0)
 2000ec4:	04696023 	sb	a2,88(v1)
 2000ec8:	fffefe67 	j	2000ac0 <t0_taskA1_generic_FH_TUERMODUL_CTRL+0x98>
 2000ecc:	88200037 	lui	v1,0x4000
 2000ed0:	8c417003 	lb	v1,92(v1)
 2000ed4:	dc41d863 	beqz	v1,2000ac0 <t0_taskA1_generic_FH_TUERMODUL_CTRL+0x98>
 2000ed8:	88200037 	lui	v1,0x4000
 2000edc:	8c416803 	lb	v1,90(v1)
 2000ee0:	dc41c0e3 	bnez	v1,2000ac0 <t0_taskA1_generic_FH_TUERMODUL_CTRL+0x98>
 2000ee4:	88200037 	lui	v1,0x4000
 2000ee8:	8c429103 	lw	v1,164(v1)
 2000eec:	8c465513 	slt	v1,v1,405
 2000ef0:	dc41a063 	beqz	v1,2000ac0 <t0_taskA1_generic_FH_TUERMODUL_CTRL+0x98>
 2000ef4:	98200037 	lui	a1,0x4000
 2000ef8:	88000413 	li	v1,1
 2000efc:	04c0b423 	sb	zero,45(a1)
 2000f00:	98200037 	lui	a1,0x4000
 2000f04:	04a29023 	sb	v1,36(a0)
 2000f08:	04e35423 	sb	v1,85(a1)
 2000f0c:	90000813 	li	a0,2
 2000f10:	88200037 	lui	v1,0x4000
 2000f14:	04648423 	sb	a0,33(v1)
 2000f18:	fffeea67 	j	2000ac0 <t0_taskA1_generic_FH_TUERMODUL_CTRL+0x98>
 2000f1c:	88200037 	lui	v1,0x4000
 2000f20:	8c416403 	lb	v1,89(v1)
 2000f24:	ec409063 	beqz	v1,2000c6c <t0_taskA1_generic_FH_TUERMODUL_CTRL+0x244>
 2000f28:	88200037 	lui	v1,0x4000
 2000f2c:	9440c103 	lw	a0,48(v1)
 2000f30:	88200037 	lui	v1,0x4000
 2000f34:	0440b423 	sb	zero,45(v1)
 2000f38:	88200037 	lui	v1,0x4000
 2000f3c:	04416023 	sb	zero,88(v1)
 2000f40:	88200037 	lui	v1,0x4000
 2000f44:	0c650123 	sw	a0,192(v1)
 2000f48:	ffff4367 	j	2000c54 <t0_taskA1_generic_FH_TUERMODUL_CTRL+0x22c>
 2000f4c:	88200037 	lui	v1,0x4000
 2000f50:	8c417c03 	lb	v1,95(v1)
 2000f54:	dc40d863 	beqz	v1,2000ac0 <t0_taskA1_generic_FH_TUERMODUL_CTRL+0x98>
 2000f58:	98200037 	lui	a1,0x4000
 2000f5c:	88000413 	li	v1,1
 2000f60:	04c0b423 	sb	zero,45(a1)
 2000f64:	98200037 	lui	a1,0x4000
 2000f68:	04e36023 	sb	v1,88(a1)
 2000f6c:	04a2ac23 	sb	v1,43(a0)
 2000f70:	fffed467 	j	2000ac0 <t0_taskA1_generic_FH_TUERMODUL_CTRL+0x98>
 2000f74:	a8200037 	lui	a3,0x4000
 2000f78:	a5408403 	lb	a2,33(a3)
 2000f7c:	0d220863 	beq	a2,v1,2001080 <t0_taskA1_generic_FH_TUERMODUL_CTRL+0x658>
 2000f80:	0527b063 	beq	a2,a1,2001058 <t0_taskA1_generic_FH_TUERMODUL_CTRL+0x630>
 2000f84:	88200037 	lui	v1,0x4000
 2000f88:	0440b423 	sb	zero,45(v1)
 2000f8c:	05668423 	sb	a1,33(a3)
 2000f90:	fffecc67 	j	2000ac0 <t0_taskA1_generic_FH_TUERMODUL_CTRL+0x98>
 2000f94:	88200037 	lui	v1,0x4000
 2000f98:	0440b423 	sb	zero,45(v1)
 2000f9c:	88200037 	lui	v1,0x4000
 2000fa0:	04416023 	sb	zero,88(v1)
 2000fa4:	88000c13 	li	v1,3
 2000fa8:	04a29023 	sb	v1,36(a0)
 2000fac:	fffec567 	j	2000ac0 <t0_taskA1_generic_FH_TUERMODUL_CTRL+0x98>
 2000fb0:	88200037 	lui	v1,0x4000
 2000fb4:	8c417c03 	lb	v1,95(v1)
 2000fb8:	044020e3 	bnez	v1,2000fc8 <t0_taskA1_generic_FH_TUERMODUL_CTRL+0x5a0>
 2000fbc:	88200037 	lui	v1,0x4000
 2000fc0:	8c417403 	lb	v1,93(v1)
 2000fc4:	fc41a0e3 	bnez	v1,2000f94 <t0_taskA1_generic_FH_TUERMODUL_CTRL+0x56c>
 2000fc8:	98200037 	lui	a1,0x4000
 2000fcc:	94c08803 	lb	a0,34(a1)
 2000fd0:	88000413 	li	v1,1
 2000fd4:	0ca2c863 	beq	a0,v1,2001138 <t0_taskA1_generic_FH_TUERMODUL_CTRL+0x710>
 2000fd8:	a0000813 	li	a2,2
 2000fdc:	0ca82863 	beq	a0,a2,20010f0 <t0_taskA1_generic_FH_TUERMODUL_CTRL+0x6c8>
 2000fe0:	90200037 	lui	a0,0x4000
 2000fe4:	0480b423 	sb	zero,45(a0)
 2000fe8:	90200037 	lui	a0,0x4000
 2000fec:	04e88823 	sb	a2,34(a1)
 2000ff0:	04224423 	sb	v1,17(v0)
 2000ff4:	04a36023 	sb	v1,88(a0)
 2000ff8:	fffeb267 	j	2000ac0 <t0_taskA1_generic_FH_TUERMODUL_CTRL+0x98>
 2000ffc:	88200037 	lui	v1,0x4000
 2001000:	8c417003 	lb	v1,92(v1)
 2001004:	04402063 	beqz	v1,2001014 <t0_taskA1_generic_FH_TUERMODUL_CTRL+0x5ec>
 2001008:	88200037 	lui	v1,0x4000
 200100c:	8c416803 	lb	v1,90(v1)
 2001010:	fc410863 	beqz	v1,2000f94 <t0_taskA1_generic_FH_TUERMODUL_CTRL+0x56c>
 2001014:	88200037 	lui	v1,0x4000
 2001018:	8c417c03 	lb	v1,95(v1)
 200101c:	04402063 	beqz	v1,200102c <t0_taskA1_generic_FH_TUERMODUL_CTRL+0x604>
 2001020:	88200037 	lui	v1,0x4000
 2001024:	8c417403 	lb	v1,93(v1)
 2001028:	fc40d863 	beqz	v1,2000f94 <t0_taskA1_generic_FH_TUERMODUL_CTRL+0x56c>
 200102c:	98200037 	lui	a1,0x4000
 2001030:	94c08c03 	lb	a0,35(a1)
 2001034:	88000413 	li	v1,1
 2001038:	0ca30863 	beq	a0,v1,20011bc <t0_taskA1_generic_FH_TUERMODUL_CTRL+0x794>
 200103c:	a0000813 	li	a2,2
 2001040:	0ca86863 	beq	a0,a2,2001174 <t0_taskA1_generic_FH_TUERMODUL_CTRL+0x74c>
 2001044:	90200037 	lui	a0,0x4000
 2001048:	0480b423 	sb	zero,45(a0)
 200104c:	04e88c23 	sb	a2,35(a1)
 2001050:	04224423 	sb	v1,17(v0)
 2001054:	fffe9b67 	j	2000ac0 <t0_taskA1_generic_FH_TUERMODUL_CTRL+0x98>
 2001058:	98200037 	lui	a1,0x4000
 200105c:	9cc17c03 	lb	a1,95(a1)
 2001060:	04c0b063 	beqz	a1,20010b8 <t0_taskA1_generic_FH_TUERMODUL_CTRL+0x690>
 2001064:	98200037 	lui	a1,0x4000
 2001068:	9cc17403 	lb	a1,93(a1)
 200106c:	04c098e3 	bnez	a1,20010b8 <t0_taskA1_generic_FH_TUERMODUL_CTRL+0x690>
 2001070:	90200037 	lui	a0,0x4000
 2001074:	0480b423 	sb	zero,45(a0)
 2001078:	05628423 	sb	v1,33(a3)
 200107c:	fffe9167 	j	2000ac0 <t0_taskA1_generic_FH_TUERMODUL_CTRL+0x98>
 2001080:	88200037 	lui	v1,0x4000
 2001084:	8c417c03 	lb	v1,95(v1)
 2001088:	04409863 	beqz	v1,20010d4 <t0_taskA1_generic_FH_TUERMODUL_CTRL+0x6ac>
 200108c:	88200037 	lui	v1,0x4000
 2001090:	8c417403 	lb	v1,93(v1)
 2001094:	044080e3 	bnez	v1,20010d4 <t0_taskA1_generic_FH_TUERMODUL_CTRL+0x6ac>
 2001098:	88200037 	lui	v1,0x4000
 200109c:	0440b423 	sb	zero,45(v1)
 20010a0:	88200037 	lui	v1,0x4000
 20010a4:	04415423 	sb	zero,85(v1)
 20010a8:	88000c13 	li	v1,3
 20010ac:	04a29023 	sb	v1,36(a0)
 20010b0:	05408423 	sb	zero,33(a3)
 20010b4:	fffe8367 	j	2000ac0 <t0_taskA1_generic_FH_TUERMODUL_CTRL+0x98>
 20010b8:	88200037 	lui	v1,0x4000
 20010bc:	8c417003 	lb	v1,92(v1)
 20010c0:	d44000e3 	bnez	v1,2000ac0 <t0_taskA1_generic_FH_TUERMODUL_CTRL+0x98>
 20010c4:	88200037 	lui	v1,0x4000
 20010c8:	8c416803 	lb	v1,90(v1)
 20010cc:	cc41e863 	beqz	v1,2000ac0 <t0_taskA1_generic_FH_TUERMODUL_CTRL+0x98>
 20010d0:	fffff267 	j	2001098 <t0_taskA1_generic_FH_TUERMODUL_CTRL+0x670>
 20010d4:	88200037 	lui	v1,0x4000
 20010d8:	8c417003 	lb	v1,92(v1)
 20010dc:	cc41c863 	beqz	v1,2000ac0 <t0_taskA1_generic_FH_TUERMODUL_CTRL+0x98>
 20010e0:	88200037 	lui	v1,0x4000
 20010e4:	8c416803 	lb	v1,90(v1)
 20010e8:	cc41b0e3 	bnez	v1,2000ac0 <t0_taskA1_generic_FH_TUERMODUL_CTRL+0x98>
 20010ec:	ffffeb67 	j	2001098 <t0_taskA1_generic_FH_TUERMODUL_CTRL+0x670>
 20010f0:	94006003 	lb	a0,24(v0)
 20010f4:	0c800863 	beqz	a0,20011f8 <t0_taskA1_generic_FH_TUERMODUL_CTRL+0x7d0>
 20010f8:	90200037 	lui	a0,0x4000
 20010fc:	a480c103 	lw	a2,48(a0)
 2001100:	90200037 	lui	a0,0x4000
 2001104:	0480b423 	sb	zero,45(a0)
 2001108:	90200037 	lui	a0,0x4000
 200110c:	04816023 	sb	zero,88(a0)
 2001110:	90200037 	lui	a0,0x4000
 2001114:	04a3b823 	sb	v1,110(a0)
 2001118:	90200037 	lui	a0,0x4000
 200111c:	0ca8a123 	sw	a2,168(a0)
 2001120:	90200037 	lui	a0,0x4000
 2001124:	04225c23 	sb	v1,23(v0)
 2001128:	04e28823 	sb	v1,34(a1)
 200112c:	04004423 	sb	zero,17(v0)
 2001130:	04a35423 	sb	v1,85(a0)
 2001134:	fffe6367 	j	2000ac0 <t0_taskA1_generic_FH_TUERMODUL_CTRL+0x98>
 2001138:	8c005803 	lb	v1,22(v0)
 200113c:	04005c23 	sb	zero,23(v0)
 2001140:	cc410063 	beqz	v1,2000ac0 <t0_taskA1_generic_FH_TUERMODUL_CTRL+0x98>
 2001144:	88200037 	lui	v1,0x4000
 2001148:	0440b423 	sb	zero,45(v1)
 200114c:	88200037 	lui	v1,0x4000
 2001150:	0441b823 	sb	zero,110(v1)
 2001154:	88000813 	li	v1,2
 2001158:	04e28823 	sb	v1,34(a1)
 200115c:	88200037 	lui	v1,0x4000
 2001160:	04415423 	sb	zero,85(v1)
 2001164:	88200037 	lui	v1,0x4000
 2001168:	04244423 	sb	a0,17(v0)
 200116c:	04656023 	sb	a0,88(v1)
 2001170:	fffe5467 	j	2000ac0 <t0_taskA1_generic_FH_TUERMODUL_CTRL+0x98>
 2001174:	94006003 	lb	a0,24(v0)
 2001178:	cc809063 	beqz	a0,2000ac0 <t0_taskA1_generic_FH_TUERMODUL_CTRL+0x98>
 200117c:	90200037 	lui	a0,0x4000
 2001180:	a480c103 	lw	a2,48(a0)
 2001184:	90200037 	lui	a0,0x4000
 2001188:	0480b423 	sb	zero,45(a0)
 200118c:	90200037 	lui	a0,0x4000
 2001190:	04a3c023 	sb	v1,112(a0)
 2001194:	90200037 	lui	a0,0x4000
 2001198:	04816023 	sb	zero,88(a0)
 200119c:	90200037 	lui	a0,0x4000
 20011a0:	0ca8b123 	sw	a2,172(a0)
 20011a4:	90200037 	lui	a0,0x4000
 20011a8:	04225c23 	sb	v1,23(v0)
 20011ac:	04e28c23 	sb	v1,35(a1)
 20011b0:	04004423 	sb	zero,17(v0)
 20011b4:	04a35423 	sb	v1,85(a0)
 20011b8:	fffe4267 	j	2000ac0 <t0_taskA1_generic_FH_TUERMODUL_CTRL+0x98>
 20011bc:	8c005803 	lb	v1,22(v0)
 20011c0:	04005c23 	sb	zero,23(v0)
 20011c4:	c441f863 	beqz	v1,2000ac0 <t0_taskA1_generic_FH_TUERMODUL_CTRL+0x98>
 20011c8:	88200037 	lui	v1,0x4000
 20011cc:	0440b423 	sb	zero,45(v1)
 20011d0:	88200037 	lui	v1,0x4000
 20011d4:	04656023 	sb	a0,88(v1)
 20011d8:	88200037 	lui	v1,0x4000
 20011dc:	0441c023 	sb	zero,112(v1)
 20011e0:	88000813 	li	v1,2
 20011e4:	04e28c23 	sb	v1,35(a1)
 20011e8:	88200037 	lui	v1,0x4000
 20011ec:	04415423 	sb	zero,85(v1)
 20011f0:	04244423 	sb	a0,17(v0)
 20011f4:	fffe3367 	j	2000ac0 <t0_taskA1_generic_FH_TUERMODUL_CTRL+0x98>
 20011f8:	90200037 	lui	a0,0x4000
 20011fc:	94817003 	lb	a0,92(a0)
 2001200:	c4818063 	beqz	a0,2000ac0 <t0_taskA1_generic_FH_TUERMODUL_CTRL+0x98>
 2001204:	90200037 	lui	a0,0x4000
 2001208:	94816803 	lb	a0,90(a0)
 200120c:	c48168e3 	bnez	a0,2000ac0 <t0_taskA1_generic_FH_TUERMODUL_CTRL+0x98>
 2001210:	90200037 	lui	a0,0x4000
 2001214:	0480b423 	sb	zero,45(a0)
 2001218:	05628023 	sb	v1,32(a3)
 200121c:	04c08823 	sb	zero,34(a1)
 2001220:	fffe2867 	j	2000ac0 <t0_taskA1_generic_FH_TUERMODUL_CTRL+0x98>

02001224 <t0_taskA1_generic_EINKLEMMSCHUTZ_CTRL>:
 2001224:	80200037 	lui	v0,0x4000
 2001228:	84035013 	add	v0,v0,212
 200122c:	8c004003 	lb	v1,16(v0)
 2001230:	04405063 	beqz	v1,2001258 <t0_taskA1_generic_EINKLEMMSCHUTZ_CTRL+0x34>
 2001234:	90200037 	lui	a0,0x4000
 2001238:	8c807803 	lb	v1,30(a0)
 200123c:	98000413 	li	a1,1
 2001240:	04663863 	beq	v1,a1,200125c <t0_taskA1_generic_EINKLEMMSCHUTZ_CTRL+0x38>
 2001244:	a0000813 	li	a2,2
 2001248:	0468c063 	beq	v1,a2,20012a8 <t0_taskA1_generic_EINKLEMMSCHUTZ_CTRL+0x84>
 200124c:	80200037 	lui	v0,0x4000
 2001250:	0400b423 	sb	zero,45(v0)
 2001254:	04a67823 	sb	a1,30(a0)
 2001258:	004000eb 	ret
 200125c:	88200037 	lui	v1,0x4000
 2001260:	8c414c03 	lb	v1,83(v1)
 2001264:	fc41e863 	beqz	v1,2001258 <t0_taskA1_generic_EINKLEMMSCHUTZ_CTRL+0x34>
 2001268:	88200037 	lui	v1,0x4000
 200126c:	8c414803 	lb	v1,82(v1)
 2001270:	fc41d0e3 	bnez	v1,2001258 <t0_taskA1_generic_EINKLEMMSCHUTZ_CTRL+0x34>
 2001274:	88200037 	lui	v1,0x4000
 2001278:	8c417c03 	lb	v1,95(v1)
 200127c:	04402063 	beqz	v1,200128c <t0_taskA1_generic_EINKLEMMSCHUTZ_CTRL+0x68>
 2001280:	88200037 	lui	v1,0x4000
 2001284:	8c417003 	lb	v1,92(v1)
 2001288:	fc41a0e3 	bnez	v1,2001258 <t0_taskA1_generic_EINKLEMMSCHUTZ_CTRL+0x34>
 200128c:	88200037 	lui	v1,0x4000
 2001290:	0440b423 	sb	zero,45(v1)
 2001294:	88000413 	li	v1,1
 2001298:	04226023 	sb	v1,24(v0)
 200129c:	80000813 	li	v0,2
 20012a0:	04a07823 	sb	v0,30(a0)
 20012a4:	004000eb 	ret
 20012a8:	88200037 	lui	v1,0x4000
 20012ac:	8c414c03 	lb	v1,83(v1)
 20012b0:	04006023 	sb	zero,24(v0)
 20012b4:	fc4148e3 	bnez	v1,2001258 <t0_taskA1_generic_EINKLEMMSCHUTZ_CTRL+0x34>
 20012b8:	80200037 	lui	v0,0x4000
 20012bc:	84014803 	lb	v0,82(v0)
 20012c0:	fc013063 	beqz	v0,2001258 <t0_taskA1_generic_EINKLEMMSCHUTZ_CTRL+0x34>
 20012c4:	80200037 	lui	v0,0x4000
 20012c8:	0400b423 	sb	zero,45(v0)
 20012cc:	04a67823 	sb	a1,30(a0)
 20012d0:	004000eb 	ret

020012d4 <t0_taskA1_generic_BLOCK_ERKENNUNG_CTRL>:
 20012d4:	88200037 	lui	v1,0x4000
 20012d8:	84435013 	add	v0,v1,212
 20012dc:	94004c03 	lb	a0,19(v0)
 20012e0:	048038e3 	bnez	a0,20012fc <t0_taskA1_generic_BLOCK_ERKENNUNG_CTRL+0x28>
 20012e4:	94005403 	lb	a0,21(v0)
 20012e8:	04807063 	beqz	a0,2001320 <t0_taskA1_generic_BLOCK_ERKENNUNG_CTRL+0x4c>
 20012ec:	84005003 	lb	v0,20(v0)
 20012f0:	040060e3 	bnez	v0,2001320 <t0_taskA1_generic_BLOCK_ERKENNUNG_CTRL+0x4c>
 20012f4:	0c415023 	sb	zero,212(v1)
 20012f8:	004000eb 	ret
 20012fc:	90200037 	lui	a0,0x4000
 2001300:	84807003 	lb	v0,28(a0)
 2001304:	98000413 	li	a1,1
 2001308:	04263863 	beq	v0,a1,2001324 <t0_taskA1_generic_BLOCK_ERKENNUNG_CTRL+0x50>
 200130c:	a0000813 	li	a2,2
 2001310:	0428d863 	beq	v0,a2,200137c <t0_taskA1_generic_BLOCK_ERKENNUNG_CTRL+0xa8>
 2001314:	80200037 	lui	v0,0x4000
 2001318:	0400b423 	sb	zero,45(v0)
 200131c:	04a67023 	sb	a1,28(a0)
 2001320:	004000eb 	ret
 2001324:	98200037 	lui	a1,0x4000
 2001328:	a0200037 	lui	a2,0x4000
 200132c:	9cc28103 	lw	a1,160(a1)
 2001330:	a5027103 	lw	a2,156(a2)
 2001334:	fce9d863 	beq	a1,a2,2001320 <t0_taskA1_generic_BLOCK_ERKENNUNG_CTRL+0x4c>
 2001338:	f827d2e3 	blez	a1,2001320 <t0_taskA1_generic_BLOCK_ERKENNUNG_CTRL+0x4c>
 200133c:	98200037 	lui	a1,0x4000
 2001340:	04c0b423 	sb	zero,45(a1)
 2001344:	98200037 	lui	a1,0x4000
 2001348:	04c18823 	sb	zero,98(a1)
 200134c:	98000813 	li	a1,2
 2001350:	04a67023 	sb	a1,28(a0)
 2001354:	90200037 	lui	a0,0x4000
 2001358:	98000813 	li	a1,2
 200135c:	0481f123 	sw	zero,124(a0)
 2001360:	90200037 	lui	a0,0x4000
 2001364:	0ca61123 	sw	a1,132(a0)
 2001368:	98000c13 	li	a1,3
 200136c:	90200037 	lui	a0,0x4000
 2001370:	04a67423 	sb	a1,29(a0)
 2001374:	0c615023 	sb	v0,212(v1)
 2001378:	004000eb 	ret
 200137c:	80200037 	lui	v0,0x4000
 2001380:	84015803 	lb	v0,86(v0)
 2001384:	0400c063 	beqz	v0,20013e4 <t0_taskA1_generic_BLOCK_ERKENNUNG_CTRL+0x110>
 2001388:	80200037 	lui	v0,0x4000
 200138c:	84016403 	lb	v0,89(v0)
 2001390:	040020e3 	bnez	v0,20013a0 <t0_taskA1_generic_BLOCK_ERKENNUNG_CTRL+0xcc>
 2001394:	80200037 	lui	v0,0x4000
 2001398:	84015c03 	lb	v0,87(v0)
 200139c:	0400a8e3 	bnez	v0,20013f0 <t0_taskA1_generic_BLOCK_ERKENNUNG_CTRL+0x11c>
 20013a0:	90200037 	lui	a0,0x4000
 20013a4:	84807403 	lb	v0,29(a0)
 20013a8:	98000813 	li	a1,2
 20013ac:	0427b063 	beq	v0,a1,2001484 <t0_taskA1_generic_BLOCK_ERKENNUNG_CTRL+0x1b0>
 20013b0:	a0000c13 	li	a2,3
 20013b4:	0428b863 	beq	v0,a2,2001410 <t0_taskA1_generic_BLOCK_ERKENNUNG_CTRL+0x13c>
 20013b8:	a8000413 	li	a3,1
 20013bc:	042aa063 	beq	v0,a3,200140c <t0_taskA1_generic_BLOCK_ERKENNUNG_CTRL+0x138>
 20013c0:	80200037 	lui	v0,0x4000
 20013c4:	0400b423 	sb	zero,45(v0)
 20013c8:	80200037 	lui	v0,0x4000
 20013cc:	0401f123 	sw	zero,124(v0)
 20013d0:	80200037 	lui	v0,0x4000
 20013d4:	0c261123 	sw	a1,132(v0)
 20013d8:	04a87423 	sb	a2,29(a0)
 20013dc:	0c6b5023 	sb	a3,212(v1)
 20013e0:	004000eb 	ret
 20013e4:	80200037 	lui	v0,0x4000
 20013e8:	84015003 	lb	v0,84(v0)
 20013ec:	fc013863 	beqz	v0,2001388 <t0_taskA1_generic_BLOCK_ERKENNUNG_CTRL+0xb4>
 20013f0:	80200037 	lui	v0,0x4000
 20013f4:	0400b423 	sb	zero,45(v0)
 20013f8:	80000413 	li	v0,1
 20013fc:	04a07023 	sb	v0,28(a0)
 2001400:	80200037 	lui	v0,0x4000
 2001404:	04007423 	sb	zero,29(v0)
 2001408:	004000eb 	ret
 200140c:	004000eb 	ret
 2001410:	a0200037 	lui	a2,0x4000
 2001414:	8501f103 	lw	v0,124(a2)
 2001418:	0c415023 	sb	zero,212(v1)
 200141c:	88002c13 	li	v1,11
 2001420:	04233063 	beq	v0,v1,20014b8 <t0_taskA1_generic_BLOCK_ERKENNUNG_CTRL+0x1e4>
 2001424:	88200037 	lui	v1,0x4000
 2001428:	9440b003 	lb	a0,44(v1)
 200142c:	88000413 	li	v1,1
 2001430:	f4a3e0e3 	bne	a0,v1,2001320 <t0_taskA1_generic_BLOCK_ERKENNUNG_CTRL+0x4c>
 2001434:	88200037 	lui	v1,0x4000
 2001438:	8c434103 	lw	v1,208(v1)
 200143c:	f441c863 	beqz	v1,2001320 <t0_taskA1_generic_BLOCK_ERKENNUNG_CTRL+0x4c>
 2001440:	90200037 	lui	a0,0x4000
 2001444:	9480c103 	lw	a0,48(a0)
 2001448:	8ca30033 	sub	v1,a0,v1
 200144c:	8c40f0d3 	fcvt.d.wu	fv1,v1
 2001450:	88200037 	lui	v1,0x4000
 2001454:	84402187 	fld	fv0,8(v1)
 2001458:	8c6150d3 	feq.d	v1,fv1,fv0
 200145c:	f4418863 	beqz	v1,2001320 <t0_taskA1_generic_BLOCK_ERKENNUNG_CTRL+0x4c>
 2001460:	88200037 	lui	v1,0x4000
 2001464:	90200037 	lui	a0,0x4000
 2001468:	94828103 	lw	a0,160(a0)
 200146c:	9c421103 	lw	a1,132(v1)
 2001470:	84000413 	add	v0,v0,1
 2001474:	0521f123 	sw	v0,124(a2)
 2001478:	f4e552e3 	ble	a0,a1,2001320 <t0_taskA1_generic_BLOCK_ERKENNUNG_CTRL+0x4c>
 200147c:	0c641123 	sw	a0,132(v1)
 2001480:	004000eb 	ret
 2001484:	80200037 	lui	v0,0x4000
 2001488:	8c021103 	lw	v1,132(v0)
 200148c:	80200037 	lui	v0,0x4000
 2001490:	84028103 	lw	v0,160(v0)
 2001494:	8c7ffc13 	add	v1,v1,-1
 2001498:	f4231263 	blt	v0,v1,2001320 <t0_taskA1_generic_BLOCK_ERKENNUNG_CTRL+0x4c>
 200149c:	88200037 	lui	v1,0x4000
 20014a0:	80000413 	li	v0,1
 20014a4:	0440b423 	sb	zero,45(v1)
 20014a8:	88200037 	lui	v1,0x4000
 20014ac:	04618823 	sb	v0,98(v1)
 20014b0:	04a07423 	sb	v0,29(a0)
 20014b4:	004000eb 	ret
 20014b8:	88200037 	lui	v1,0x4000
 20014bc:	8c41d103 	lw	v1,116(v1)
 20014c0:	fc60c863 	beq	v1,v0,2001424 <t0_taskA1_generic_BLOCK_ERKENNUNG_CTRL+0x150>
 20014c4:	80200037 	lui	v0,0x4000
 20014c8:	0400b423 	sb	zero,45(v0)
 20014cc:	04a67423 	sb	a1,29(a0)
 20014d0:	004000eb 	ret

020014d4 <t0_taskA1_FH_DU>:
 20014d4:	73be2013 	add	sp,sp,-120
 20014d8:	0385c123 	sw	s0,112(sp)
 20014dc:	10200037 	lui	s0,0x4000
 20014e0:	0387b123 	sw	s1,108(sp)
 20014e4:	0389a123 	sw	s2,104(sp)
 20014e8:	038b9123 	sw	s3,100(sp)
 20014ec:	038d8123 	sw	s4,96(sp)
 20014f0:	038f7123 	sw	s5,92(sp)
 20014f4:	03916123 	sw	s6,88(sp)
 20014f8:	03935123 	sw	s7,84(sp)
 20014fc:	03954123 	sw	s8,80(sp)
 2001500:	03973123 	sw	s9,76(sp)
 2001504:	03992123 	sw	s10,72(sp)
 2001508:	039b1123 	sw	s11,68(sp)
 200150c:	0383d123 	sw	ra,116(sp)
 2001510:	10835013 	add	s0,s0,212
 2001514:	88000413 	li	v1,1
 2001518:	80200037 	lui	v0,0x4000
 200151c:	0422c123 	sw	v1,48(v0)
 2001520:	a8804003 	lb	a3,16(s0)
 2001524:	88802803 	lb	v1,10(s0)
 2001528:	b0804c03 	lb	a4,19(s0)
 200152c:	b8803403 	lb	a5,13(s0)
 2001530:	80200037 	lui	v0,0x4000
 2001534:	c0200037 	lui	a6,0x4000
 2001538:	c8200037 	lui	a7,0x4000
 200153c:	0400b023 	sb	zero,44(v0)
 2001540:	03a2a123 	sw	v1,40(sp)
 2001544:	86011803 	lb	v0,70(a6)
 2001548:	03aac123 	sw	a3,48(sp)
 200154c:	03acd123 	sw	a4,52(sp)
 2001550:	03aeb123 	sw	a5,44(sp)
 2001554:	c6411003 	lb	a6,68(a7)
 2001558:	58200037 	lui	s9,0x4000
 200155c:	60200037 	lui	s10,0x4000
 2001560:	20200037 	lui	s2,0x4000
 2001564:	e0200037 	lui	a10,0x4000
 2001568:	18200037 	lui	s1,0x4000
 200156c:	50200037 	lui	s8,0x4000
 2001570:	48200037 	lui	s7,0x4000
 2001574:	40200037 	lui	s6,0x4000
 2001578:	38200037 	lui	s5,0x4000
 200157c:	30200037 	lui	s4,0x4000
 2001580:	28200037 	lui	s3,0x4000
 2001584:	a0200037 	lui	a2,0x4000
 2001588:	98200037 	lui	a1,0x4000
 200158c:	90200037 	lui	a0,0x4000
 2001590:	88200037 	lui	v1,0x4000
 2001594:	68200037 	lui	s11,0x4000
 2001598:	00016e67 	j	2001b50 <t0_taskA1_FH_DU+0x67c>
 200159c:	b0000c13 	li	a4,3
 20015a0:	356c2063 	beq	a3,a4,2001bb0 <t0_taskA1_FH_DU+0x6dc>
 20015a4:	b0000413 	li	a4,1
 20015a8:	356c7863 	beq	a3,a4,2001be4 <t0_taskA1_FH_DU+0x710>
 20015ac:	f8200037 	lui	a13,0x4000
 20015b0:	a8200037 	lui	a3,0x4000
 20015b4:	b8000813 	li	a5,2
 20015b8:	b0200037 	lui	a4,0x4000
 20015bc:	07c0b423 	sb	zero,45(a13)
 20015c0:	0d406123 	sw	zero,152(a3)
 20015c4:	05ae7c23 	sb	a5,31(a4)
 20015c8:	cb80a103 	lw	a7,40(sp)
 20015cc:	064020e3 	bnez	a7,20015dc <t0_taskA1_FH_DU+0x108>
 20015d0:	a8000c13 	li	a3,3
 20015d4:	d0200037 	lui	a8,0x4000
 20015d8:	06aaa023 	sb	a3,40(a8)
 20015dc:	db80c103 	lw	a9,48(sp)
 20015e0:	06c020e3 	bnez	a9,20015f0 <t0_taskA1_FH_DU+0x11c>
 20015e4:	b0000413 	li	a4,1
 20015e8:	a8200037 	lui	a3,0x4000
 20015ec:	056c7823 	sb	a4,30(a3)
 20015f0:	eb80d103 	lw	a11,52(sp)
 20015f4:	074030e3 	bnez	a11,200160c <t0_taskA1_FH_DU+0x138>
 20015f8:	a8200037 	lui	a3,0x4000
 20015fc:	0d415023 	sb	zero,212(a3)
 2001600:	b0000413 	li	a4,1
 2001604:	a8200037 	lui	a3,0x4000
 2001608:	056c7023 	sb	a4,28(a3)
 200160c:	f380b103 	lw	a12,44(sp)
 2001610:	078070e3 	bnez	a12,2001648 <t0_taskA1_FH_DU+0x174>
 2001614:	b0000813 	li	a4,2
 2001618:	f8200037 	lui	a13,0x4000
 200161c:	a8000413 	li	a3,1
 2001620:	07ec9c23 	sb	a4,39(a13)
 2001624:	b0200037 	lui	a4,0x4000
 2001628:	b8200037 	lui	a5,0x4000
 200162c:	05aa9823 	sb	a3,38(a4)
 2001630:	b0200037 	lui	a4,0x4000
 2001634:	00801023 	sb	zero,4(s0)
 2001638:	00801823 	sb	zero,6(s0)
 200163c:	0dc0e123 	sw	zero,184(a5)
 2001640:	00aa1423 	sb	a3,5(s0)
 2001644:	05aa9423 	sb	a3,37(a4)
 2001648:	a8000413 	li	a3,1
 200164c:	00aa2c23 	sb	a3,11(s0)
 2001650:	00aa4423 	sb	a3,17(s0)
 2001654:	00aa5023 	sb	a3,20(s0)
 2001658:	00aa3823 	sb	a3,14(s0)
 200165c:	04302863 	beq	v0,a6,2001670 <t0_taskA1_FH_DU+0x19c>
 2001660:	a8200037 	lui	a3,0x4000
 2001664:	ad40f403 	lb	a3,61(a3)
 2001668:	054010e3 	bnez	a3,2001670 <t0_taskA1_FH_DU+0x19c>
 200166c:	01213823 	sb	v0,78(s2)
 2001670:	c0200037 	lui	a6,0x4000
 2001674:	c8200037 	lui	a7,0x4000
 2001678:	86010c03 	lb	v0,67(a6)
 200167c:	ae410803 	lb	a3,66(a7)
 2001680:	05603063 	beq	a3,v0,2001698 <t0_taskA1_FH_DU+0x1c4>
 2001684:	a8200037 	lui	a3,0x4000
 2001688:	ad40f403 	lb	a3,61(a3)
 200168c:	05401863 	beqz	a3,2001698 <t0_taskA1_FH_DU+0x1c4>
 2001690:	d0200037 	lui	a8,0x4000
 2001694:	06a11823 	sb	v0,70(a8)
 2001698:	d8200037 	lui	a9,0x4000
 200169c:	87012403 	lb	v0,73(a10)
 20016a0:	aec11c03 	lb	a3,71(a9)
 20016a4:	05602863 	beq	a3,v0,20016b8 <t0_taskA1_FH_DU+0x1e4>
 20016a8:	a8200037 	lui	a3,0x4000
 20016ac:	ad40f403 	lb	a3,61(a3)
 20016b0:	054010e3 	bnez	a3,20016b8 <t0_taskA1_FH_DU+0x1e4>
 20016b4:	00e13423 	sb	v0,77(s1)
 20016b8:	e8200037 	lui	a11,0x4000
 20016bc:	f0200037 	lui	a12,0x4000
 20016c0:	87410403 	lb	v0,65(a11)
 20016c4:	af810003 	lb	a3,64(a12)
 20016c8:	05602863 	beq	a3,v0,20016dc <t0_taskA1_FH_DU+0x208>
 20016cc:	a8200037 	lui	a3,0x4000
 20016d0:	ad40f403 	lb	a3,61(a3)
 20016d4:	05401063 	beqz	a3,20016dc <t0_taskA1_FH_DU+0x208>
 20016d8:	07212423 	sb	v0,73(a10)
 20016dc:	d8803203 	lbu	a9,12(s0)
 20016e0:	d0803e03 	lbu	a8,15(s0)
 20016e4:	c8804a03 	lbu	a7,18(s0)
 20016e8:	c0805603 	lbu	a6,21(s0)
 20016ec:	ba40fa03 	lbu	a5,62(s7)
 20016f0:	b0c13603 	lbu	a4,77(s1)
 20016f4:	a980fe03 	lbu	a3,63(s4)
 20016f8:	81013a03 	lbu	v0,78(s2)
 20016fc:	00b62823 	sb	a9,10(s0)
 2001700:	00b43423 	sb	a8,13(s0)
 2001704:	00b24023 	sb	a7,16(s0)
 2001708:	00b04c23 	sb	a6,19(s0)
 200170c:	02af9823 	sb	a5,102(s8)
 2001710:	03b86123 	sw	a10,24(sp)
 2001714:	022da023 	sb	a4,104(s6)
 2001718:	01eba823 	sb	a3,106(s5)
 200171c:	0161b023 	sb	v0,108(s3)
 2001720:	03a25123 	sw	v1,20(sp)
 2001724:	03a48123 	sw	a0,32(sp)
 2001728:	03a64123 	sw	a1,16(sp)
 200172c:	03a87123 	sw	a2,28(sp)
 2001730:	fffbe46f 	jal	20006c0 <t0_taskA1_generic_KINDERSICHERUNG_CTRL>
 2001734:	a3807103 	lw	a2,28(sp)
 2001738:	9b804103 	lw	a1,16(sp)
 200173c:	f8200037 	lui	a13,0x4000
 2001740:	80200037 	lui	v0,0x4000
 2001744:	0fc15a03 	lbu	ra,86(a13)
 2001748:	93808103 	lw	a0,32(sp)
 200174c:	fc016603 	lbu	a13,89(v0)
 2001750:	8b805103 	lw	v1,20(sp)
 2001754:	f5028103 	lw	a12,160(a2)
 2001758:	a8200037 	lui	a3,0x4000
 200175c:	ed414e03 	lbu	a11,83(a3)
 2001760:	dcc29103 	lw	a9,164(a1)
 2001764:	d4818203 	lbu	a8,96(a0)
 2001768:	ac419203 	lbu	a3,100(v1)
 200176c:	ca819a03 	lbu	a7,102(s8)
 2001770:	c201a203 	lbu	a6,104(s6)
 2001774:	b9c1aa03 	lbu	a5,106(s5)
 2001778:	b141b203 	lbu	a4,108(s3)
 200177c:	83418e03 	lbu	v0,99(s11)
 2001780:	02fee423 	sb	a13,57(s9)
 2001784:	f8200037 	lui	a13,0x4000
 2001788:	0ffc3123 	sw	a12,140(a13)
 200178c:	f8200037 	lui	a13,0x4000
 2001790:	f0200037 	lui	a12,0x4000
 2001794:	07bb2c23 	sb	a11,75(a12)
 2001798:	0ff64123 	sw	a9,144(a13)
 200179c:	e8200037 	lui	a11,0x4000
 20017a0:	d8200037 	lui	a9,0x4000
 20017a4:	f0200037 	lui	a12,0x4000
 20017a8:	06f53023 	sb	a8,76(a9)
 20017ac:	076b3c23 	sb	a3,79(a11)
 20017b0:	07a0f023 	sb	v0,60(a12)
 20017b4:	0302d823 	sb	ra,54(s10)
 20017b8:	0272f823 	sb	a7,62(s7)
 20017bc:	00f13423 	sb	a6,77(s1)
 20017c0:	01aefc23 	sb	a5,63(s4)
 20017c4:	012d3823 	sb	a4,78(s2)
 20017c8:	fffc986f 	jal	2000a28 <t0_taskA1_generic_FH_TUERMODUL_CTRL>
 20017cc:	a3807103 	lw	a2,28(sp)
 20017d0:	9b804103 	lw	a1,16(sp)
 20017d4:	f8200037 	lui	a13,0x4000
 20017d8:	80200037 	lui	v0,0x4000
 20017dc:	0fc15a03 	lbu	ra,86(a13)
 20017e0:	93808103 	lw	a0,32(sp)
 20017e4:	fc016603 	lbu	a13,89(v0)
 20017e8:	8b805103 	lw	v1,20(sp)
 20017ec:	f5028103 	lw	a12,160(a2)
 20017f0:	a8200037 	lui	a3,0x4000
 20017f4:	ed414e03 	lbu	a11,83(a3)
 20017f8:	dcc29103 	lw	a9,164(a1)
 20017fc:	d4818203 	lbu	a8,96(a0)
 2001800:	ac419203 	lbu	a3,100(v1)
 2001804:	ca819a03 	lbu	a7,102(s8)
 2001808:	c201a203 	lbu	a6,104(s6)
 200180c:	b9c1aa03 	lbu	a5,106(s5)
 2001810:	b141b203 	lbu	a4,108(s3)
 2001814:	83418e03 	lbu	v0,99(s11)
 2001818:	02fee423 	sb	a13,57(s9)
 200181c:	f8200037 	lui	a13,0x4000
 2001820:	0ffc3123 	sw	a12,140(a13)
 2001824:	f8200037 	lui	a13,0x4000
 2001828:	f0200037 	lui	a12,0x4000
 200182c:	07bb2c23 	sb	a11,75(a12)
 2001830:	0ff64123 	sw	a9,144(a13)
 2001834:	e8200037 	lui	a11,0x4000
 2001838:	d8200037 	lui	a9,0x4000
 200183c:	f0200037 	lui	a12,0x4000
 2001840:	06f53023 	sb	a8,76(a9)
 2001844:	076b3c23 	sb	a3,79(a11)
 2001848:	07a0f023 	sb	v0,60(a12)
 200184c:	0302d823 	sb	ra,54(s10)
 2001850:	0272f823 	sb	a7,62(s7)
 2001854:	00f13423 	sb	a6,77(s1)
 2001858:	01aefc23 	sb	a5,63(s4)
 200185c:	012d3823 	sb	a4,78(s2)
 2001860:	fffe716f 	jal	2001224 <t0_taskA1_generic_EINKLEMMSCHUTZ_CTRL>
 2001864:	a3807103 	lw	a2,28(sp)
 2001868:	9b804103 	lw	a1,16(sp)
 200186c:	f8200037 	lui	a13,0x4000
 2001870:	80200037 	lui	v0,0x4000
 2001874:	0fc15a03 	lbu	ra,86(a13)
 2001878:	93808103 	lw	a0,32(sp)
 200187c:	fc016603 	lbu	a13,89(v0)
 2001880:	8b805103 	lw	v1,20(sp)
 2001884:	f5028103 	lw	a12,160(a2)
 2001888:	a8200037 	lui	a3,0x4000
 200188c:	ed414e03 	lbu	a11,83(a3)
 2001890:	dcc29103 	lw	a9,164(a1)
 2001894:	d4818203 	lbu	a8,96(a0)
 2001898:	ac419203 	lbu	a3,100(v1)
 200189c:	ca819a03 	lbu	a7,102(s8)
 20018a0:	c201a203 	lbu	a6,104(s6)
 20018a4:	b9c1aa03 	lbu	a5,106(s5)
 20018a8:	b141b203 	lbu	a4,108(s3)
 20018ac:	83418e03 	lbu	v0,99(s11)
 20018b0:	02fee423 	sb	a13,57(s9)
 20018b4:	f8200037 	lui	a13,0x4000
 20018b8:	0ffc3123 	sw	a12,140(a13)
 20018bc:	f8200037 	lui	a13,0x4000
 20018c0:	f0200037 	lui	a12,0x4000
 20018c4:	07bb2c23 	sb	a11,75(a12)
 20018c8:	0ff64123 	sw	a9,144(a13)
 20018cc:	e8200037 	lui	a11,0x4000
 20018d0:	d8200037 	lui	a9,0x4000
 20018d4:	f0200037 	lui	a12,0x4000
 20018d8:	06f53023 	sb	a8,76(a9)
 20018dc:	076b3c23 	sb	a3,79(a11)
 20018e0:	07a0f023 	sb	v0,60(a12)
 20018e4:	0272f823 	sb	a7,62(s7)
 20018e8:	00f13423 	sb	a6,77(s1)
 20018ec:	01aefc23 	sb	a5,63(s4)
 20018f0:	012d3823 	sb	a4,78(s2)
 20018f4:	0302d823 	sb	ra,54(s10)
 20018f8:	fffe776f 	jal	20012d4 <t0_taskA1_generic_BLOCK_ERKENNUNG_CTRL>
 20018fc:	d0803403 	lb	a8,13(s0)
 2001900:	d8804003 	lb	a9,16(s0)
 2001904:	a3807103 	lw	a2,28(sp)
 2001908:	c8802803 	lb	a7,10(s0)
 200190c:	f8200037 	lui	a13,0x4000
 2001910:	afc14c03 	lb	a3,83(a13)
 2001914:	b2819803 	lb	a4,102(s8)
 2001918:	f8804c03 	lb	a13,19(s0)
 200191c:	9b804103 	lw	a1,16(sp)
 2001920:	85028103 	lw	v0,160(a2)
 2001924:	ba01a003 	lb	a5,104(s6)
 2001928:	93808103 	lw	a0,32(sp)
 200192c:	03b4b123 	sw	a8,44(sp)
 2001930:	03b6c123 	sw	a9,48(sp)
 2001934:	d0200037 	lui	a8,0x4000
 2001938:	d8200037 	lui	a9,0x4000
 200193c:	03b2a123 	sw	a7,40(sp)
 2001940:	ce82e103 	lw	a7,184(a8)
 2001944:	d6c25103 	lw	a8,148(a9)
 2001948:	d8200037 	lui	a9,0x4000
 200194c:	03ace123 	sw	a4,56(sp)
 2001950:	03bed123 	sw	a13,52(sp)
 2001954:	b4c29103 	lw	a4,164(a1)
 2001958:	fec1f103 	lw	a13,124(a9)
 200195c:	d8200037 	lui	a9,0x4000
 2001960:	03ae3123 	sw	a5,12(sp)
 2001964:	0ee03123 	sw	v0,140(a9)
 2001968:	bc818203 	lbu	a5,96(a0)
 200196c:	d8200037 	lui	a9,0x4000
 2001970:	06eb2c23 	sb	a3,75(a9)
 2001974:	d8200037 	lui	a9,0x4000
 2001978:	0eec4123 	sw	a4,144(a9)
 200197c:	8b805103 	lw	v1,20(sp)
 2001980:	b0200037 	lui	a4,0x4000
 2001984:	05af3023 	sb	a5,76(a4)
 2001988:	db803103 	lw	a9,12(sp)
 200198c:	bb80e103 	lw	a5,56(sp)
 2001990:	c4419203 	lbu	a6,100(v1)
 2001994:	e9c1a803 	lb	a11,106(s5)
 2001998:	f141b003 	lb	a12,108(s3)
 200199c:	026ef823 	sb	a5,62(s7)
 20019a0:	00f73423 	sb	a9,77(s1)
 20019a4:	bb80a103 	lw	a5,40(sp)
 20019a8:	db80c103 	lw	a9,48(sp)
 20019ac:	b0200037 	lui	a4,0x4000
 20019b0:	05b13c23 	sb	a6,79(a4)
 20019b4:	c380b103 	lw	a6,44(sp)
 20019b8:	00ae2c23 	sb	a5,11(s0)
 20019bc:	b8200037 	lui	a5,0x4000
 20019c0:	00b64423 	sb	a9,17(s0)
 20019c4:	b380d103 	lw	a4,52(sp)
 20019c8:	0df2c123 	sw	a7,176(a5)
 20019cc:	d8200037 	lui	a9,0x4000
 20019d0:	c8200037 	lui	a7,0x4000
 20019d4:	00b03823 	sb	a6,14(s0)
 20019d8:	0e746123 	sw	a8,152(a7)
 20019dc:	06ffd123 	sw	a13,116(a9)
 20019e0:	c0200037 	lui	a6,0x4000
 20019e4:	d0200037 	lui	a8,0x4000
 20019e8:	f8200037 	lui	a13,0x4000
 20019ec:	dfc18803 	lb	a9,98(a13)
 20019f0:	0e207123 	sw	v0,156(a6)
 20019f4:	0ea02123 	sw	v0,136(a8)
 20019f8:	b8200037 	lui	a5,0x4000
 20019fc:	80200037 	lui	v0,0x4000
 2001a00:	f8200037 	lui	a13,0x4000
 2001a04:	d4017803 	lb	a8,94(v0)
 2001a08:	c5c16003 	lb	a6,88(a5)
 2001a0c:	00ac5023 	sb	a4,20(s0)
 2001a10:	bfc15403 	lb	a5,85(a13)
 2001a14:	b0200037 	lui	a4,0x4000
 2001a18:	80200037 	lui	v0,0x4000
 2001a1c:	f8200037 	lui	a13,0x4000
 2001a20:	cd816c03 	lb	a7,91(a4)
 2001a24:	b400ec03 	lb	a4,59(v0)
 2001a28:	87c11803 	lb	v0,70(a13)
 2001a2c:	f8200037 	lui	a13,0x4000
 2001a30:	ffc10e03 	lbu	a13,67(a13)
 2001a34:	013d3823 	sb	a12,78(s2)
 2001a38:	01bafc23 	sb	a11,63(s4)
 2001a3c:	03be9c23 	sb	a13,39(sp)
 2001a40:	f8200037 	lui	a13,0x4000
 2001a44:	ffc10603 	lbu	a13,65(a13)
 2001a48:	e3806103 	lw	a10,24(sp)
 2001a4c:	03be9823 	sb	a13,38(sp)
 2001a50:	f8200037 	lui	a13,0x4000
 2001a54:	ffc0e003 	lb	a13,56(a13)
 2001a58:	03bef123 	sw	a13,60(sp)
 2001a5c:	f8200037 	lui	a13,0x4000
 2001a60:	07fdac23 	sb	a12,107(a13)
 2001a64:	f0200037 	lui	a12,0x4000
 2001a68:	07bba423 	sb	a11,105(a12)
 2001a6c:	eb803103 	lw	a11,12(sp)
 2001a70:	f8200037 	lui	a13,0x4000
 2001a74:	f0200037 	lui	a12,0x4000
 2001a78:	07fb9c23 	sb	a11,103(a13)
 2001a7c:	fb80e103 	lw	a13,56(sp)
 2001a80:	e8200037 	lui	a11,0x4000
 2001a84:	07778423 	sb	a9,97(a11)
 2001a88:	07bf9423 	sb	a13,101(a12)
 2001a8c:	f0200037 	lui	a12,0x4000
 2001a90:	f8200037 	lui	a13,0x4000
 2001a94:	07b57c23 	sb	a8,95(a12)
 2001a98:	07f57423 	sb	a8,93(a13)
 2001a9c:	e8200037 	lui	a11,0x4000
 2001aa0:	d0200037 	lui	a8,0x4000
 2001aa4:	03778c23 	sb	a9,99(s11)
 2001aa8:	d8200037 	lui	a9,0x4000
 2001aac:	06b37023 	sb	a7,92(a8)
 2001ab0:	06f36823 	sb	a7,90(a9)
 2001ab4:	07716423 	sb	a6,89(a11)
 2001ab8:	c8200037 	lui	a7,0x4000
 2001abc:	d0200037 	lui	a8,0x4000
 2001ac0:	ef012603 	lbu	a11,73(a10)
 2001ac4:	f0200037 	lui	a12,0x4000
 2001ac8:	066b4823 	sb	a3,82(a7)
 2001acc:	06ab2823 	sb	a3,74(a8)
 2001ad0:	ab809e03 	lbu	a3,39(sp)
 2001ad4:	07b15c23 	sb	a6,87(a12)
 2001ad8:	f8200037 	lui	a13,0x4000
 2001adc:	c0200037 	lui	a6,0x4000
 2001ae0:	d8200037 	lui	a9,0x4000
 2001ae4:	f0200037 	lui	a12,0x4000
 2001ae8:	07ef5823 	sb	a5,86(a13)
 2001aec:	062f5023 	sb	a5,84(a6)
 2001af0:	06fb1c23 	sb	a11,71(a9)
 2001af4:	f8200037 	lui	a13,0x4000
 2001af8:	07a11023 	sb	v0,68(a12)
 2001afc:	c3809a03 	lbu	a6,38(sp)
 2001b00:	c8200037 	lui	a7,0x4000
 2001b04:	d0200037 	lui	a8,0x4000
 2001b08:	e8200037 	lui	a11,0x4000
 2001b0c:	f0200037 	lui	a12,0x4000
 2001b10:	07eb0823 	sb	a3,66(a13)
 2001b14:	db80f103 	lw	a9,60(sp)
 2001b18:	af40d403 	lb	a3,53(a11)
 2001b1c:	066cf023 	sb	a4,60(a7)
 2001b20:	06ace823 	sb	a4,58(a8)
 2001b24:	b780b403 	lb	a4,45(a12)
 2001b28:	b8200037 	lui	a5,0x4000
 2001b2c:	05f10023 	sb	a6,64(a5)
 2001b30:	f8200037 	lui	a13,0x4000
 2001b34:	b8200037 	lui	a5,0x4000
 2001b38:	02f6e423 	sb	a9,57(s9)
 2001b3c:	07f6dc23 	sb	a9,55(a13)
 2001b40:	032ad823 	sb	a3,54(s10)
 2001b44:	05ead023 	sb	a3,52(a5)
 2001b48:	0d8000e3 	bnez	a4,2001c48 <t0_taskA1_FH_DU+0x774>
 2001b4c:	c4000013 	move	a6,v0
 2001b50:	d0200037 	lui	a8,0x4000
 2001b54:	be80b203 	lbu	a5,44(a8)
 2001b58:	d8200037 	lui	a9,0x4000
 2001b5c:	aec07c03 	lb	a3,31(a9)
 2001b60:	b0000413 	li	a4,1
 2001b64:	bdc00413 	add	a5,a5,1
 2001b68:	e8200037 	lui	a11,0x4000
 2001b6c:	f0000813 	li	a12,2
 2001b70:	076cb423 	sb	a4,45(a11)
 2001b74:	06aeb023 	sb	a5,44(a8)
 2001b78:	d57c48e3 	bne	a3,a12,200159c <t0_taskA1_FH_DU+0xc8>
 2001b7c:	aac0e403 	lb	a3,57(s9)
 2001b80:	05412063 	beqz	a3,2001c10 <t0_taskA1_FH_DU+0x73c>
 2001b84:	d0200037 	lui	a8,0x4000
 2001b88:	ae80dc03 	lb	a3,55(a8)
 2001b8c:	054108e3 	bnez	a3,2001c10 <t0_taskA1_FH_DU+0x73c>
 2001b90:	d8200037 	lui	a9,0x4000
 2001b94:	a83e7013 	li	a3,-100
 2001b98:	e8200037 	lui	a11,0x4000
 2001b9c:	f0200037 	lui	a12,0x4000
 2001ba0:	06c0b423 	sb	zero,45(a9)
 2001ba4:	0f6a6123 	sw	a3,152(a11)
 2001ba8:	07ac7c23 	sb	a4,31(a12)
 2001bac:	fffe8767 	j	20015c8 <t0_taskA1_FH_DU+0xf4>
 2001bb0:	ab00d803 	lb	a3,54(s10)
 2001bb4:	d54028e3 	bnez	a3,20015c8 <t0_taskA1_FH_DU+0xf4>
 2001bb8:	c8200037 	lui	a7,0x4000
 2001bbc:	ae40d003 	lb	a3,52(a7)
 2001bc0:	d5401063 	beqz	a3,20015c8 <t0_taskA1_FH_DU+0xf4>
 2001bc4:	d0200037 	lui	a8,0x4000
 2001bc8:	d8200037 	lui	a9,0x4000
 2001bcc:	f0000813 	li	a12,2
 2001bd0:	e8200037 	lui	a11,0x4000
 2001bd4:	0680b423 	sb	zero,45(a8)
 2001bd8:	0ec06123 	sw	zero,152(a9)
 2001bdc:	077c7c23 	sb	a12,31(a11)
 2001be0:	fffe7a67 	j	20015c8 <t0_taskA1_FH_DU+0xf4>
 2001be4:	aac0e403 	lb	a3,57(s9)
 2001be8:	cd41c0e3 	bnez	a3,20015c8 <t0_taskA1_FH_DU+0xf4>
 2001bec:	f8200037 	lui	a13,0x4000
 2001bf0:	afc0dc03 	lb	a3,55(a13)
 2001bf4:	cd41a863 	beqz	a3,20015c8 <t0_taskA1_FH_DU+0xf4>
 2001bf8:	b0200037 	lui	a4,0x4000
 2001bfc:	c8000813 	li	a7,2
 2001c00:	0740b423 	sb	zero,45(a11)
 2001c04:	0d806123 	sw	zero,152(a4)
 2001c08:	06f27c23 	sb	a7,31(a9)
 2001c0c:	fffe6f67 	j	20015c8 <t0_taskA1_FH_DU+0xf4>
 2001c10:	ab00d803 	lb	a3,54(s10)
 2001c14:	cd416863 	beqz	a3,20015c8 <t0_taskA1_FH_DU+0xf4>
 2001c18:	f8200037 	lui	a13,0x4000
 2001c1c:	afc0d003 	lb	a3,52(a13)
 2001c20:	cd4150e3 	bnez	a3,20015c8 <t0_taskA1_FH_DU+0xf4>
 2001c24:	a8200037 	lui	a3,0x4000
 2001c28:	0540b423 	sb	zero,45(a3)
 2001c2c:	b0200037 	lui	a4,0x4000
 2001c30:	a8019013 	li	a3,100
 2001c34:	0daa6123 	sw	a3,152(a4)
 2001c38:	b8200037 	lui	a5,0x4000
 2001c3c:	a8000c13 	li	a3,3
 2001c40:	05ea7c23 	sb	a3,31(a5)
 2001c44:	fffe6167 	j	20015c8 <t0_taskA1_FH_DU+0xf4>
 2001c48:	0b81d103 	lw	ra,116(sp)
 2001c4c:	1381c103 	lw	s0,112(sp)
 2001c50:	1b81b103 	lw	s1,108(sp)
 2001c54:	2381a103 	lw	s2,104(sp)
 2001c58:	2b819103 	lw	s3,100(sp)
 2001c5c:	33818103 	lw	s4,96(sp)
 2001c60:	3b817103 	lw	s5,92(sp)
 2001c64:	43816103 	lw	s6,88(sp)
 2001c68:	4b815103 	lw	s7,84(sp)
 2001c6c:	53814103 	lw	s8,80(sp)
 2001c70:	5b813103 	lw	s9,76(sp)
 2001c74:	63812103 	lw	s10,72(sp)
 2001c78:	6b811103 	lw	s11,68(sp)
 2001c7c:	7381e013 	add	sp,sp,120
 2001c80:	004000eb 	ret

02001c84 <t0_taskA1_main>:
 2001c84:	73bfe013 	add	sp,sp,-8
 2001c88:	03840123 	sw	s0,0(sp)
 2001c8c:	03821123 	sw	ra,4(sp)
 2001c90:	1001a813 	li	s0,106
 2001c94:	10bffc13 	add	s0,s0,-1
 2001c98:	fffa636f 	jal	2000624 <t0_taskA1_init>
 2001c9c:	fffa006f 	jal	200049c <t0_taskA1_interface>
 2001ca0:	fffe0d6f 	jal	20014d4 <t0_taskA1_FH_DU>
 2001ca4:	f881e0e3 	bnez	s0,2001c94 <t0_taskA1_main+0x10>
 2001ca8:	0b801103 	lw	ra,4(sp)
 2001cac:	80000013 	li	v0,0
 2001cb0:	13800103 	lw	s0,0(sp)
 2001cb4:	73802013 	add	sp,sp,8
 2001cb8:	004000eb 	ret

02001cbc <t1_exception_proxy>:
 2001cbc:	73bfe013 	add	sp,sp,-8
 2001cc0:	03821123 	sw	ra,4(sp)
 2001cc4:	7840017b 	mfpcr	tp,cr1
 2001cc8:	73bef013 	add	sp,sp,-68
 2001ccc:	039e1123 	sw	tp,4(sp)
 2001cd0:	03a02123 	sw	v0,8(sp)
 2001cd4:	03a23123 	sw	v1,12(sp)
 2001cd8:	03a44123 	sw	a0,16(sp)
 2001cdc:	03a65123 	sw	a1,20(sp)
 2001ce0:	03a86123 	sw	a2,24(sp)
 2001ce4:	03aa7123 	sw	a3,28(sp)
 2001ce8:	03ac8123 	sw	a4,32(sp)
 2001cec:	03ae9123 	sw	a5,36(sp)
 2001cf0:	03b0a123 	sw	a6,40(sp)
 2001cf4:	03b2b123 	sw	a7,44(sp)
 2001cf8:	03b4c123 	sw	a8,48(sp)
 2001cfc:	03b6d123 	sw	a9,52(sp)
 2001d00:	03b8e123 	sw	a10,56(sp)
 2001d04:	03baf123 	sw	a11,60(sp)
 2001d08:	03bd0123 	sw	a12,64(sp)
 2001d0c:	03bf1123 	sw	a13,68(sp)
 2001d10:	80200237 	lui	v0,0x4004
 2001d14:	84002103 	lw	v0,8(v0)
 2001d18:	0c00006b 	jalr	v0
 2001d1c:	7b801103 	lw	tp,4(sp)
 2001d20:	83802103 	lw	v0,8(sp)
 2001d24:	8b803103 	lw	v1,12(sp)
 2001d28:	93804103 	lw	a0,16(sp)
 2001d2c:	9b805103 	lw	a1,20(sp)
 2001d30:	a3806103 	lw	a2,24(sp)
 2001d34:	ab807103 	lw	a3,28(sp)
 2001d38:	b3808103 	lw	a4,32(sp)
 2001d3c:	bb809103 	lw	a5,36(sp)
 2001d40:	c380a103 	lw	a6,40(sp)
 2001d44:	cb80b103 	lw	a7,44(sp)
 2001d48:	d380c103 	lw	a8,48(sp)
 2001d4c:	db80d103 	lw	a9,52(sp)
 2001d50:	e380e103 	lw	a10,56(sp)
 2001d54:	eb80f103 	lw	a11,60(sp)
 2001d58:	f3810103 	lw	a12,64(sp)
 2001d5c:	fb811103 	lw	a13,68(sp)
 2001d60:	73811013 	add	sp,sp,68
 2001d64:	0b801103 	lw	ra,4(sp)
 2001d68:	73802013 	add	sp,sp,8
 2001d6c:	03c0016b 	jr	tp
 2001d70:	0b801103 	lw	ra,4(sp)
 2001d74:	73802013 	add	sp,sp,8
 2001d78:	004000eb 	ret

02001d7c <t1_main>:
 2001d7c:	73bf6013 	add	sp,sp,-40
 2001d80:	03886123 	sw	s2,24(sp)
 2001d84:	20000c37 	lui	s2,0x18
 2001d88:	03829123 	sw	ra,36(sp)
 2001d8c:	03848123 	sw	s0,32(sp)
 2001d90:	03867123 	sw	s1,28(sp)
 2001d94:	038a5123 	sw	s3,20(sp)
 2001d98:	038c4123 	sw	s4,16(sp)
 2001d9c:	038e3123 	sw	s5,12(sp)
 2001da0:	03902123 	sw	s6,8(sp)
 2001da4:	03921123 	sw	s7,4(sp)
 2001da8:	211a8013 	add	s2,s2,1696
 2001dac:	80000013 	li	v0,0
 2001db0:	1c000013 	move	s1,v0
 2001db4:	11000013 	move	s0,s2
 2001db8:	00c4015b 	0xc4015b
 2001dbc:	42400037 	lui	s6,0x48000
 2001dc0:	3017d7b7 	lui	s4,0x2faf
 2001dc4:	4a000813 	add	s7,s6,2
 2001dc8:	28000013 	li	s3,0
 2001dcc:	3c000037 	lui	s5,0x80000
 2001dd0:	42003013 	add	s6,s6,12
 2001dd4:	31820013 	add	s4,s4,128
 2001dd8:	879201fb 	mtpcr	v0,s7,cr30
 2001ddc:	1000005b 	0x1000005b
 2001de0:	80800013 	move	v0,s0
 2001de4:	840e0333 	or	v0,v0,s5
 2001de8:	87a001fb 	mtpcr	v0,v0,cr30
 2001dec:	0006076f 	jal	2003608 <t1_taskA2_main>
 2001df0:	879001fb 	mtpcr	v0,s6,cr30
 2001df4:	1000005b 	0x1000005b
 2001df8:	80800013 	move	v0,s0
 2001dfc:	840e0333 	or	v0,v0,s5
 2001e00:	87a001fb 	mtpcr	v0,v0,cr30
 2001e04:	210c0033 	add	s2,s2,s4
 2001e08:	810c01b3 	sltu	v0,s2,s4
 2001e0c:	29600033 	add	s3,s3,v0
 2001e10:	19400013 	move	s1,s3
 2001e14:	11000013 	move	s0,s2
 2001e18:	00c4015b 	0xc4015b
 2001e1c:	ffffef67 	j	2001dd8 <t1_main+0x5c>

02001e20 <t1_taskA2_interface>:
 2001e20:	80200237 	lui	v0,0x4004
 2001e24:	8c031013 	add	v1,v0,196
 2001e28:	94401003 	lb	a0,4(v1)
 2001e2c:	0c805063 	beqz	a0,2001f54 <t1_taskA2_interface+0x134>
 2001e30:	88200237 	lui	v1,0x4004
 2001e34:	8c408103 	lw	v1,32(v1)
 2001e38:	90200237 	lui	a0,0x4004
 2001e3c:	0ca2e123 	sw	v1,184(a0)
 2001e40:	90200237 	lui	a0,0x4004
 2001e44:	0ca2f123 	sw	v1,188(a0)
 2001e48:	90200237 	lui	a0,0x4004
 2001e4c:	8c82d103 	lw	v1,180(a0)
 2001e50:	04404863 	beqz	v1,2001e74 <t1_taskA2_interface+0x54>
 2001e54:	98200237 	lui	a1,0x4004
 2001e58:	9cc08103 	lw	a1,32(a1)
 2001e5c:	8ce30033 	sub	v1,a1,v1
 2001e60:	8c40f0d3 	fcvt.d.wu	fv1,v1
 2001e64:	88200037 	lui	v1,0x4000
 2001e68:	84400187 	fld	fv0,0(v1)
 2001e6c:	8c2370d3 	fle.d	v1,fv0,fv1
 2001e70:	0c4050e3 	bnez	v1,2001f98 <t1_taskA2_interface+0x178>
 2001e74:	90200237 	lui	a0,0x4004
 2001e78:	8c82c103 	lw	v1,176(a0)
 2001e7c:	04404863 	beqz	v1,2001ea0 <t1_taskA2_interface+0x80>
 2001e80:	98200237 	lui	a1,0x4004
 2001e84:	9cc08103 	lw	a1,32(a1)
 2001e88:	8ce30033 	sub	v1,a1,v1
 2001e8c:	8c40f0d3 	fcvt.d.wu	fv1,v1
 2001e90:	88200037 	lui	v1,0x4000
 2001e94:	84400187 	fld	fv0,0(v1)
 2001e98:	8c2370d3 	fle.d	v1,fv0,fv1
 2001e9c:	0441d8e3 	bnez	v1,2001f88 <t1_taskA2_interface+0x168>
 2001ea0:	90200237 	lui	a0,0x4004
 2001ea4:	8c82b103 	lw	v1,172(a0)
 2001ea8:	04404863 	beqz	v1,2001ecc <t1_taskA2_interface+0xac>
 2001eac:	98200237 	lui	a1,0x4004
 2001eb0:	9cc08103 	lw	a1,32(a1)
 2001eb4:	8ce30033 	sub	v1,a1,v1
 2001eb8:	8c40f0d3 	fcvt.d.wu	fv1,v1
 2001ebc:	88200037 	lui	v1,0x4000
 2001ec0:	84400187 	fld	fv0,0(v1)
 2001ec4:	8c2370d3 	fle.d	v1,fv0,fv1
 2001ec8:	044160e3 	bnez	v1,2001f78 <t1_taskA2_interface+0x158>
 2001ecc:	90200237 	lui	a0,0x4004
 2001ed0:	8c827103 	lw	v1,156(a0)
 2001ed4:	04404863 	beqz	v1,2001ef8 <t1_taskA2_interface+0xd8>
 2001ed8:	98200237 	lui	a1,0x4004
 2001edc:	9cc08103 	lw	a1,32(a1)
 2001ee0:	8ce30033 	sub	v1,a1,v1
 2001ee4:	8c40f0d3 	fcvt.d.wu	fv1,v1
 2001ee8:	88200037 	lui	v1,0x4000
 2001eec:	84400187 	fld	fv0,0(v1)
 2001ef0:	8c2370d3 	fle.d	v1,fv0,fv1
 2001ef4:	0440f8e3 	bnez	v1,2001f70 <t1_taskA2_interface+0x150>
 2001ef8:	90200237 	lui	a0,0x4004
 2001efc:	8c826103 	lw	v1,152(a0)
 2001f00:	04404863 	beqz	v1,2001f24 <t1_taskA2_interface+0x104>
 2001f04:	98200237 	lui	a1,0x4004
 2001f08:	9cc08103 	lw	a1,32(a1)
 2001f0c:	8ce30033 	sub	v1,a1,v1
 2001f10:	8c40f0d3 	fcvt.d.wu	fv1,v1
 2001f14:	88200037 	lui	v1,0x4000
 2001f18:	84400187 	fld	fv0,0(v1)
 2001f1c:	8c2370d3 	fle.d	v1,fv0,fv1
 2001f20:	044090e3 	bnez	v1,2001f68 <t1_taskA2_interface+0x148>
 2001f24:	84031003 	lb	v0,196(v0)
 2001f28:	040030e3 	bnez	v0,2001f40 <t1_taskA2_interface+0x120>
 2001f2c:	80200237 	lui	v0,0x4004
 2001f30:	8c01b103 	lw	v1,108(v0)
 2001f34:	80200237 	lui	v0,0x4004
 2001f38:	84019103 	lw	v0,100(v0)
 2001f3c:	04602863 	beq	v1,v0,2001f50 <t1_taskA2_interface+0x130>
 2001f40:	80200237 	lui	v0,0x4004
 2001f44:	8c008103 	lw	v1,32(v0)
 2001f48:	80200237 	lui	v0,0x4004
 2001f4c:	0c230123 	sw	v1,192(v0)
 2001f50:	004000eb 	ret
 2001f54:	8c401803 	lb	v1,6(v1)
 2001f58:	f441e063 	beqz	v1,2001e48 <t1_taskA2_interface+0x28>
 2001f5c:	88200237 	lui	v1,0x4004
 2001f60:	8c408103 	lw	v1,32(v1)
 2001f64:	ffffb767 	j	2001e40 <t1_taskA2_interface+0x20>
 2001f68:	0c806123 	sw	zero,152(a0)
 2001f6c:	ffffee67 	j	2001f24 <t1_taskA2_interface+0x104>
 2001f70:	0c807123 	sw	zero,156(a0)
 2001f74:	ffffe167 	j	2001ef8 <t1_taskA2_interface+0xd8>
 2001f78:	88200237 	lui	v1,0x4004
 2001f7c:	04412023 	sb	zero,72(v1)
 2001f80:	0c80b123 	sw	zero,172(a0)
 2001f84:	ffffd267 	j	2001ecc <t1_taskA2_interface+0xac>
 2001f88:	88200237 	lui	v1,0x4004
 2001f8c:	04412023 	sb	zero,72(v1)
 2001f90:	0c80c123 	sw	zero,176(a0)
 2001f94:	ffffc367 	j	2001ea0 <t1_taskA2_interface+0x80>
 2001f98:	88200237 	lui	v1,0x4004
 2001f9c:	04411423 	sb	zero,69(v1)
 2001fa0:	0c80d123 	sw	zero,180(a0)
 2001fa4:	ffffb467 	j	2001e74 <t1_taskA2_interface+0x54>

02001fa8 <t1_taskA2_init>:
 2001fa8:	80200237 	lui	v0,0x4004
 2001fac:	0c010123 	sw	zero,192(v0)
 2001fb0:	80200237 	lui	v0,0x4004
 2001fb4:	0c00f123 	sw	zero,188(v0)
 2001fb8:	80200237 	lui	v0,0x4004
 2001fbc:	0c00e123 	sw	zero,184(v0)
 2001fc0:	80200237 	lui	v0,0x4004
 2001fc4:	04006c23 	sb	zero,27(v0)
 2001fc8:	80200237 	lui	v0,0x4004
 2001fcc:	04006823 	sb	zero,26(v0)
 2001fd0:	80200237 	lui	v0,0x4004
 2001fd4:	04006423 	sb	zero,25(v0)
 2001fd8:	80200237 	lui	v0,0x4004
 2001fdc:	04006023 	sb	zero,24(v0)
 2001fe0:	80200237 	lui	v0,0x4004
 2001fe4:	04005c23 	sb	zero,23(v0)
 2001fe8:	80200237 	lui	v0,0x4004
 2001fec:	04005823 	sb	zero,22(v0)
 2001ff0:	80200237 	lui	v0,0x4004
 2001ff4:	04005423 	sb	zero,21(v0)
 2001ff8:	80200237 	lui	v0,0x4004
 2001ffc:	04005023 	sb	zero,20(v0)
 2002000:	80200237 	lui	v0,0x4004
 2002004:	04004c23 	sb	zero,19(v0)
 2002008:	80200237 	lui	v0,0x4004
 200200c:	04004823 	sb	zero,18(v0)
 2002010:	80200237 	lui	v0,0x4004
 2002014:	04004423 	sb	zero,17(v0)
 2002018:	80200237 	lui	v0,0x4004
 200201c:	04004023 	sb	zero,16(v0)
 2002020:	80200237 	lui	v0,0x4004
 2002024:	04003c23 	sb	zero,15(v0)
 2002028:	80200237 	lui	v0,0x4004
 200202c:	04003823 	sb	zero,14(v0)
 2002030:	80200237 	lui	v0,0x4004
 2002034:	04003423 	sb	zero,13(v0)
 2002038:	80200237 	lui	v0,0x4004
 200203c:	04003023 	sb	zero,12(v0)
 2002040:	004000eb 	ret

02002044 <t1_taskA2_generic_KINDERSICHERUNG_CTRL>:
 2002044:	80200237 	lui	v0,0x4004
 2002048:	84033803 	lb	v0,206(v0)
 200204c:	04006063 	beqz	v0,200207c <t1_taskA2_generic_KINDERSICHERUNG_CTRL+0x38>
 2002050:	88200237 	lui	v1,0x4004
 2002054:	84406003 	lb	v0,24(v1)
 2002058:	90000813 	li	a0,2
 200205c:	04244863 	beq	v0,a0,2002080 <t1_taskA2_generic_KINDERSICHERUNG_CTRL+0x3c>
 2002060:	98000c13 	li	a1,3
 2002064:	0427a863 	beq	v0,a1,2002138 <t1_taskA2_generic_KINDERSICHERUNG_CTRL+0xf4>
 2002068:	90000413 	li	a0,1
 200206c:	04249063 	beq	v0,a0,20020b4 <t1_taskA2_generic_KINDERSICHERUNG_CTRL+0x70>
 2002070:	80200237 	lui	v0,0x4004
 2002074:	04007423 	sb	zero,29(v0)
 2002078:	04666023 	sb	a1,24(v1)
 200207c:	004000eb 	ret
 2002080:	80200237 	lui	v0,0x4004
 2002084:	84015803 	lb	v0,86(v0)
 2002088:	040020e3 	bnez	v0,2002098 <t1_taskA2_generic_KINDERSICHERUNG_CTRL+0x54>
 200208c:	90200237 	lui	a0,0x4004
 2002090:	94816803 	lb	a0,90(a0)
 2002094:	1480d863 	beqz	a0,2002300 <t1_taskA2_generic_KINDERSICHERUNG_CTRL+0x2bc>
 2002098:	88200237 	lui	v1,0x4004
 200209c:	94406403 	lb	a0,25(v1)
 20020a0:	98000413 	li	a1,1
 20020a4:	0ca61863 	beq	a0,a1,20021b0 <t1_taskA2_generic_KINDERSICHERUNG_CTRL+0x16c>
 20020a8:	80200237 	lui	v0,0x4004
 20020ac:	04007423 	sb	zero,29(v0)
 20020b0:	004000eb 	ret
 20020b4:	80200237 	lui	v0,0x4004
 20020b8:	84016003 	lb	v0,88(v0)
 20020bc:	040020e3 	bnez	v0,20020cc <t1_taskA2_generic_KINDERSICHERUNG_CTRL+0x88>
 20020c0:	90200237 	lui	a0,0x4004
 20020c4:	94817003 	lb	a0,92(a0)
 20020c8:	14802063 	beqz	a0,20022d8 <t1_taskA2_generic_KINDERSICHERUNG_CTRL+0x294>
 20020cc:	88200237 	lui	v1,0x4004
 20020d0:	94406803 	lb	a0,26(v1)
 20020d4:	98000413 	li	a1,1
 20020d8:	fca7a0e3 	bne	a0,a1,20020a8 <t1_taskA2_generic_KINDERSICHERUNG_CTRL+0x64>
 20020dc:	04005063 	beqz	v0,2002104 <t1_taskA2_generic_KINDERSICHERUNG_CTRL+0xc0>
 20020e0:	98200237 	lui	a1,0x4004
 20020e4:	9cc15c03 	lb	a1,87(a1)
 20020e8:	04c038e3 	bnez	a1,2002104 <t1_taskA2_generic_KINDERSICHERUNG_CTRL+0xc0>
 20020ec:	80200237 	lui	v0,0x4004
 20020f0:	04007423 	sb	zero,29(v0)
 20020f4:	80200237 	lui	v0,0x4004
 20020f8:	04252c23 	sb	a0,75(v0)
 20020fc:	04646823 	sb	a0,26(v1)
 2002100:	004000eb 	ret
 2002104:	90200237 	lui	a0,0x4004
 2002108:	94817003 	lb	a0,92(a0)
 200210c:	0c80a863 	beqz	a0,2002260 <t1_taskA2_generic_KINDERSICHERUNG_CTRL+0x21c>
 2002110:	98200237 	lui	a1,0x4004
 2002114:	9cc16c03 	lb	a1,91(a1)
 2002118:	0cc090e3 	bnez	a1,2002260 <t1_taskA2_generic_KINDERSICHERUNG_CTRL+0x21c>
 200211c:	90200237 	lui	a0,0x4004
 2002120:	80000413 	li	v0,1
 2002124:	04807423 	sb	zero,29(a0)
 2002128:	90200237 	lui	a0,0x4004
 200212c:	04a13823 	sb	v0,78(a0)
 2002130:	04606823 	sb	v0,26(v1)
 2002134:	004000eb 	ret
 2002138:	80200237 	lui	v0,0x4004
 200213c:	84015003 	lb	v0,84(v0)
 2002140:	040070e3 	bnez	v0,2002178 <t1_taskA2_generic_KINDERSICHERUNG_CTRL+0x134>
 2002144:	98200237 	lui	a1,0x4004
 2002148:	9cc16803 	lb	a1,90(a1)
 200214c:	04c1d863 	beqz	a1,2002238 <t1_taskA2_generic_KINDERSICHERUNG_CTRL+0x1f4>
 2002150:	80200237 	lui	v0,0x4004
 2002154:	84015803 	lb	v0,86(v0)
 2002158:	140060e3 	bnez	v0,2002388 <t1_taskA2_generic_KINDERSICHERUNG_CTRL+0x344>
 200215c:	80200237 	lui	v0,0x4004
 2002160:	04007423 	sb	zero,29(v0)
 2002164:	98000413 	li	a1,1
 2002168:	80200237 	lui	v0,0x4004
 200216c:	04273823 	sb	a1,78(v0)
 2002170:	04646023 	sb	a0,24(v1)
 2002174:	004000eb 	ret
 2002178:	90200237 	lui	a0,0x4004
 200217c:	94817003 	lb	a0,92(a0)
 2002180:	048118e3 	bnez	a0,200220c <t1_taskA2_generic_KINDERSICHERUNG_CTRL+0x1c8>
 2002184:	90200237 	lui	a0,0x4004
 2002188:	94816003 	lb	a0,88(a0)
 200218c:	f481e063 	beqz	a0,200207c <t1_taskA2_generic_KINDERSICHERUNG_CTRL+0x38>
 2002190:	f401d8e3 	bnez	v0,200207c <t1_taskA2_generic_KINDERSICHERUNG_CTRL+0x38>
 2002194:	90200237 	lui	a0,0x4004
 2002198:	80000413 	li	v0,1
 200219c:	04807423 	sb	zero,29(a0)
 20021a0:	90200237 	lui	a0,0x4004
 20021a4:	04a12c23 	sb	v0,75(a0)
 20021a8:	04606023 	sb	v0,24(v1)
 20021ac:	004000eb 	ret
 20021b0:	04005063 	beqz	v0,20021d8 <t1_taskA2_generic_KINDERSICHERUNG_CTRL+0x194>
 20021b4:	98200237 	lui	a1,0x4004
 20021b8:	9cc15403 	lb	a1,85(a1)
 20021bc:	04c038e3 	bnez	a1,20021d8 <t1_taskA2_generic_KINDERSICHERUNG_CTRL+0x194>
 20021c0:	80200237 	lui	v0,0x4004
 20021c4:	04007423 	sb	zero,29(v0)
 20021c8:	80200237 	lui	v0,0x4004
 20021cc:	04252c23 	sb	a0,75(v0)
 20021d0:	04646423 	sb	a0,25(v1)
 20021d4:	004000eb 	ret
 20021d8:	90200237 	lui	a0,0x4004
 20021dc:	94816803 	lb	a0,90(a0)
 20021e0:	04817863 	beqz	a0,200229c <t1_taskA2_generic_KINDERSICHERUNG_CTRL+0x258>
 20021e4:	98200237 	lui	a1,0x4004
 20021e8:	9cc16403 	lb	a1,89(a1)
 20021ec:	04c160e3 	bnez	a1,200229c <t1_taskA2_generic_KINDERSICHERUNG_CTRL+0x258>
 20021f0:	90200237 	lui	a0,0x4004
 20021f4:	80000413 	li	v0,1
 20021f8:	04807423 	sb	zero,29(a0)
 20021fc:	90200237 	lui	a0,0x4004
 2002200:	04a13823 	sb	v0,78(a0)
 2002204:	04606423 	sb	v0,25(v1)
 2002208:	004000eb 	ret
 200220c:	90200237 	lui	a0,0x4004
 2002210:	94816003 	lb	a0,88(a0)
 2002214:	0c8030e3 	bnez	a0,200232c <t1_taskA2_generic_KINDERSICHERUNG_CTRL+0x2e8>
 2002218:	f400c8e3 	bnez	v0,200207c <t1_taskA2_generic_KINDERSICHERUNG_CTRL+0x38>
 200221c:	90200237 	lui	a0,0x4004
 2002220:	80000413 	li	v0,1
 2002224:	04807423 	sb	zero,29(a0)
 2002228:	90200237 	lui	a0,0x4004
 200222c:	04a13823 	sb	v0,78(a0)
 2002230:	04606023 	sb	v0,24(v1)
 2002234:	004000eb 	ret
 2002238:	98200237 	lui	a1,0x4004
 200223c:	9cc15803 	lb	a1,86(a1)
 2002240:	fcc07063 	beqz	a1,2002178 <t1_taskA2_generic_KINDERSICHERUNG_CTRL+0x134>
 2002244:	80200237 	lui	v0,0x4004
 2002248:	04007423 	sb	zero,29(v0)
 200224c:	98000413 	li	a1,1
 2002250:	80200237 	lui	v0,0x4004
 2002254:	04272c23 	sb	a1,75(v0)
 2002258:	04646023 	sb	a0,24(v1)
 200225c:	004000eb 	ret
 2002260:	040020e3 	bnez	v0,2002270 <t1_taskA2_generic_KINDERSICHERUNG_CTRL+0x22c>
 2002264:	80200237 	lui	v0,0x4004
 2002268:	84015c03 	lb	v0,87(v0)
 200226c:	0401c8e3 	bnez	v0,2002350 <t1_taskA2_generic_KINDERSICHERUNG_CTRL+0x30c>
 2002270:	f48018e3 	bnez	a0,200207c <t1_taskA2_generic_KINDERSICHERUNG_CTRL+0x38>
 2002274:	80200237 	lui	v0,0x4004
 2002278:	84016c03 	lb	v0,91(v0)
 200227c:	f4000063 	beqz	v0,200207c <t1_taskA2_generic_KINDERSICHERUNG_CTRL+0x38>
 2002280:	80200237 	lui	v0,0x4004
 2002284:	04007423 	sb	zero,29(v0)
 2002288:	80200237 	lui	v0,0x4004
 200228c:	04013823 	sb	zero,78(v0)
 2002290:	80000413 	li	v0,1
 2002294:	04606823 	sb	v0,26(v1)
 2002298:	004000eb 	ret
 200229c:	040020e3 	bnez	v0,20022ac <t1_taskA2_generic_KINDERSICHERUNG_CTRL+0x268>
 20022a0:	80200237 	lui	v0,0x4004
 20022a4:	84015403 	lb	v0,85(v0)
 20022a8:	040188e3 	bnez	v0,200236c <t1_taskA2_generic_KINDERSICHERUNG_CTRL+0x328>
 20022ac:	ec81a0e3 	bnez	a0,200207c <t1_taskA2_generic_KINDERSICHERUNG_CTRL+0x38>
 20022b0:	80200237 	lui	v0,0x4004
 20022b4:	84016403 	lb	v0,89(v0)
 20022b8:	ec018863 	beqz	v0,200207c <t1_taskA2_generic_KINDERSICHERUNG_CTRL+0x38>
 20022bc:	80200237 	lui	v0,0x4004
 20022c0:	04007423 	sb	zero,29(v0)
 20022c4:	80200237 	lui	v0,0x4004
 20022c8:	04013823 	sb	zero,78(v0)
 20022cc:	80000413 	li	v0,1
 20022d0:	04606423 	sb	v0,25(v1)
 20022d4:	004000eb 	ret
 20022d8:	80200237 	lui	v0,0x4004
 20022dc:	04007423 	sb	zero,29(v0)
 20022e0:	80200237 	lui	v0,0x4004
 20022e4:	04013823 	sb	zero,78(v0)
 20022e8:	80200237 	lui	v0,0x4004
 20022ec:	04012c23 	sb	zero,75(v0)
 20022f0:	80200237 	lui	v0,0x4004
 20022f4:	04666023 	sb	a1,24(v1)
 20022f8:	04006823 	sb	zero,26(v0)
 20022fc:	004000eb 	ret
 2002300:	80200237 	lui	v0,0x4004
 2002304:	04007423 	sb	zero,29(v0)
 2002308:	80200237 	lui	v0,0x4004
 200230c:	04013823 	sb	zero,78(v0)
 2002310:	80200237 	lui	v0,0x4004
 2002314:	04012c23 	sb	zero,75(v0)
 2002318:	80000c13 	li	v0,3
 200231c:	04606023 	sb	v0,24(v1)
 2002320:	80200237 	lui	v0,0x4004
 2002324:	04006423 	sb	zero,25(v0)
 2002328:	004000eb 	ret
 200232c:	90200237 	lui	a0,0x4004
 2002330:	80000413 	li	v0,1
 2002334:	04807423 	sb	zero,29(a0)
 2002338:	90200237 	lui	a0,0x4004
 200233c:	04a12c23 	sb	v0,75(a0)
 2002340:	90200237 	lui	a0,0x4004
 2002344:	04a13823 	sb	v0,78(a0)
 2002348:	04606023 	sb	v0,24(v1)
 200234c:	004000eb 	ret
 2002350:	80200237 	lui	v0,0x4004
 2002354:	04007423 	sb	zero,29(v0)
 2002358:	80200237 	lui	v0,0x4004
 200235c:	04012c23 	sb	zero,75(v0)
 2002360:	80000413 	li	v0,1
 2002364:	04606823 	sb	v0,26(v1)
 2002368:	004000eb 	ret
 200236c:	80200237 	lui	v0,0x4004
 2002370:	04007423 	sb	zero,29(v0)
 2002374:	80200237 	lui	v0,0x4004
 2002378:	04012c23 	sb	zero,75(v0)
 200237c:	80000413 	li	v0,1
 2002380:	04606423 	sb	v0,25(v1)
 2002384:	004000eb 	ret
 2002388:	98200237 	lui	a1,0x4004
 200238c:	80000413 	li	v0,1
 2002390:	04c07423 	sb	zero,29(a1)
 2002394:	98200237 	lui	a1,0x4004
 2002398:	04e13823 	sb	v0,78(a1)
 200239c:	98200237 	lui	a1,0x4004
 20023a0:	04e12c23 	sb	v0,75(a1)
 20023a4:	04646023 	sb	a0,24(v1)
 20023a8:	004000eb 	ret

020023ac <t1_taskA2_generic_FH_TUERMODUL_CTRL>:
 20023ac:	80200237 	lui	v0,0x4004
 20023b0:	84031013 	add	v0,v0,196
 20023b4:	8c003403 	lb	v1,13(v0)
 20023b8:	044048e3 	bnez	v1,20023dc <t1_taskA2_generic_FH_TUERMODUL_CTRL+0x30>
 20023bc:	8c003c03 	lb	v1,15(v0)
 20023c0:	04403063 	beqz	v1,20023d8 <t1_taskA2_generic_FH_TUERMODUL_CTRL+0x2c>
 20023c4:	8c003803 	lb	v1,14(v0)
 20023c8:	044020e3 	bnez	v1,20023d8 <t1_taskA2_generic_FH_TUERMODUL_CTRL+0x2c>
 20023cc:	04001023 	sb	zero,4(v0)
 20023d0:	04001823 	sb	zero,6(v0)
 20023d4:	004000eb 	ret
 20023d8:	004000eb 	ret
 20023dc:	8c002803 	lb	v1,10(v0)
 20023e0:	044020e3 	bnez	v1,20023f0 <t1_taskA2_generic_FH_TUERMODUL_CTRL+0x44>
 20023e4:	90000c13 	li	a0,3
 20023e8:	88200237 	lui	v1,0x4004
 20023ec:	04646023 	sb	a0,24(v1)
 20023f0:	8c004c03 	lb	v1,19(v0)
 20023f4:	044030e3 	bnez	v1,200240c <t1_taskA2_generic_FH_TUERMODUL_CTRL+0x60>
 20023f8:	88200237 	lui	v1,0x4004
 20023fc:	0c411023 	sb	zero,196(v1)
 2002400:	90000413 	li	a0,1
 2002404:	88200237 	lui	v1,0x4004
 2002408:	04643023 	sb	a0,12(v1)
 200240c:	98200237 	lui	a1,0x4004
 2002410:	8cc05c03 	lb	v1,23(a1)
 2002414:	90000413 	li	a0,1
 2002418:	a0000813 	li	a2,2
 200241c:	04242c23 	sb	a0,11(v0)
 2002420:	04245023 	sb	a0,20(v0)
 2002424:	04693863 	beq	v1,a2,20024c0 <t1_taskA2_generic_FH_TUERMODUL_CTRL+0x114>
 2002428:	a8000c13 	li	a3,3
 200242c:	0c6a2063 	beq	v1,a3,200253c <t1_taskA2_generic_FH_TUERMODUL_CTRL+0x190>
 2002430:	90000413 	li	a0,1
 2002434:	0465a863 	beq	v1,a0,2002508 <t1_taskA2_generic_FH_TUERMODUL_CTRL+0x15c>
 2002438:	88200237 	lui	v1,0x4004
 200243c:	04407423 	sb	zero,29(v1)
 2002440:	04e85c23 	sb	a2,23(a1)
 2002444:	90200237 	lui	a0,0x4004
 2002448:	9c805803 	lb	a1,22(a0)
 200244c:	88000413 	li	v1,1
 2002450:	04e26863 	beq	a1,v1,2002484 <t1_taskA2_generic_FH_TUERMODUL_CTRL+0xd8>
 2002454:	98200237 	lui	a1,0x4004
 2002458:	04c07423 	sb	zero,29(a1)
 200245c:	04a25823 	sb	v1,22(a0)
 2002460:	98200237 	lui	a1,0x4004
 2002464:	90200237 	lui	a0,0x4004
 2002468:	0cc0a123 	sw	zero,168(a1)
 200246c:	04a25423 	sb	v1,21(a0)
 2002470:	94001203 	lbu	a0,4(v0)
 2002474:	8c001a03 	lbu	v1,6(v0)
 2002478:	04241423 	sb	a0,5(v0)
 200247c:	04221c23 	sb	v1,7(v0)
 2002480:	004000eb 	ret
 2002484:	88200237 	lui	v1,0x4004
 2002488:	8c407003 	lb	v1,28(v1)
 200248c:	0c67e063 	beq	v1,a1,200267c <t1_taskA2_generic_FH_TUERMODUL_CTRL+0x2d0>
 2002490:	90200237 	lui	a0,0x4004
 2002494:	a4805403 	lb	a2,21(a0)
 2002498:	98000413 	li	a1,1
 200249c:	0d270863 	beq	a2,a1,2002620 <t1_taskA2_generic_FH_TUERMODUL_CTRL+0x274>
 20024a0:	88200237 	lui	v1,0x4004
 20024a4:	04407423 	sb	zero,29(v1)
 20024a8:	04a65423 	sb	a1,21(a0)
 20024ac:	8c001a03 	lbu	v1,6(v0)
 20024b0:	94001203 	lbu	a0,4(v0)
 20024b4:	04221c23 	sb	v1,7(v0)
 20024b8:	04241423 	sb	a0,5(v0)
 20024bc:	004000eb 	ret
 20024c0:	88200237 	lui	v1,0x4004
 20024c4:	8c414c03 	lb	v1,83(v1)
 20024c8:	04402063 	beqz	v1,20024d8 <t1_taskA2_generic_FH_TUERMODUL_CTRL+0x12c>
 20024cc:	88200237 	lui	v1,0x4004
 20024d0:	8c414403 	lb	v1,81(v1)
 20024d4:	14401063 	beqz	v1,20026dc <t1_taskA2_generic_FH_TUERMODUL_CTRL+0x330>
 20024d8:	90200237 	lui	a0,0x4004
 20024dc:	8c806c03 	lb	v1,27(a0)
 20024e0:	98000813 	li	a1,2
 20024e4:	14675863 	beq	v1,a1,2002790 <t1_taskA2_generic_FH_TUERMODUL_CTRL+0x3e4>
 20024e8:	a0000c13 	li	a2,3
 20024ec:	1468f863 	beq	v1,a2,2002768 <t1_taskA2_generic_FH_TUERMODUL_CTRL+0x3bc>
 20024f0:	98000413 	li	a1,1
 20024f4:	14665063 	beq	v1,a1,200271c <t1_taskA2_generic_FH_TUERMODUL_CTRL+0x370>
 20024f8:	88200237 	lui	v1,0x4004
 20024fc:	04407423 	sb	zero,29(v1)
 2002500:	04a86c23 	sb	a2,27(a0)
 2002504:	ffffd067 	j	2002444 <t1_taskA2_generic_FH_TUERMODUL_CTRL+0x98>
 2002508:	88200237 	lui	v1,0x4004
 200250c:	8c42a103 	lw	v1,168(v1)
 2002510:	9000ec13 	li	a0,59
 2002514:	fc6460e3 	bne	v1,a0,2002444 <t1_taskA2_generic_FH_TUERMODUL_CTRL+0x98>
 2002518:	90200237 	lui	a0,0x4004
 200251c:	94828103 	lw	a0,160(a0)
 2002520:	fca24863 	beq	a0,v1,2002444 <t1_taskA2_generic_FH_TUERMODUL_CTRL+0x98>
 2002524:	88200237 	lui	v1,0x4004
 2002528:	04407423 	sb	zero,29(v1)
 200252c:	88200237 	lui	v1,0x4004
 2002530:	04ea5c23 	sb	a3,23(a1)
 2002534:	046a5023 	sb	a3,20(v1)
 2002538:	ffffc367 	j	2002444 <t1_taskA2_generic_FH_TUERMODUL_CTRL+0x98>
 200253c:	88200237 	lui	v1,0x4004
 2002540:	8c42a103 	lw	v1,168(v1)
 2002544:	8c40f513 	slt	v1,v1,61
 2002548:	044098e3 	bnez	v1,2002594 <t1_taskA2_generic_FH_TUERMODUL_CTRL+0x1e8>
 200254c:	88200237 	lui	v1,0x4004
 2002550:	8c428103 	lw	v1,160(v1)
 2002554:	8c40f513 	slt	v1,v1,61
 2002558:	04407863 	beqz	v1,2002594 <t1_taskA2_generic_FH_TUERMODUL_CTRL+0x1e8>
 200255c:	88200237 	lui	v1,0x4004
 2002560:	8c417c03 	lb	v1,95(v1)
 2002564:	044060e3 	bnez	v1,2002594 <t1_taskA2_generic_FH_TUERMODUL_CTRL+0x1e8>
 2002568:	88200237 	lui	v1,0x4004
 200256c:	8c418403 	lb	v1,97(v1)
 2002570:	044048e3 	bnez	v1,2002594 <t1_taskA2_generic_FH_TUERMODUL_CTRL+0x1e8>
 2002574:	88200237 	lui	v1,0x4004
 2002578:	04407423 	sb	zero,29(v1)
 200257c:	88200237 	lui	v1,0x4004
 2002580:	04412023 	sb	zero,72(v1)
 2002584:	88200237 	lui	v1,0x4004
 2002588:	04411423 	sb	zero,69(v1)
 200258c:	04e45c23 	sb	a0,23(a1)
 2002590:	ffffad67 	j	2002444 <t1_taskA2_generic_FH_TUERMODUL_CTRL+0x98>
 2002594:	88200237 	lui	v1,0x4004
 2002598:	8c414c03 	lb	v1,83(v1)
 200259c:	0440a863 	beqz	v1,20025f0 <t1_taskA2_generic_FH_TUERMODUL_CTRL+0x244>
 20025a0:	88200237 	lui	v1,0x4004
 20025a4:	8c414403 	lb	v1,81(v1)
 20025a8:	044090e3 	bnez	v1,20025f0 <t1_taskA2_generic_FH_TUERMODUL_CTRL+0x244>
 20025ac:	88200237 	lui	v1,0x4004
 20025b0:	8c411803 	lb	v1,70(v1)
 20025b4:	1441d863 	beqz	v1,20028a0 <t1_taskA2_generic_FH_TUERMODUL_CTRL+0x4f4>
 20025b8:	88200237 	lui	v1,0x4004
 20025bc:	94408103 	lw	a0,32(v1)
 20025c0:	88200237 	lui	v1,0x4004
 20025c4:	04407423 	sb	zero,29(v1)
 20025c8:	88200237 	lui	v1,0x4004
 20025cc:	04411423 	sb	zero,69(v1)
 20025d0:	88200237 	lui	v1,0x4004
 20025d4:	0c64d123 	sw	a0,180(v1)
 20025d8:	88000813 	li	v1,2
 20025dc:	04e25c23 	sb	v1,23(a1)
 20025e0:	90000c13 	li	a0,3
 20025e4:	88200237 	lui	v1,0x4004
 20025e8:	04646c23 	sb	a0,27(v1)
 20025ec:	ffff9667 	j	2002444 <t1_taskA2_generic_FH_TUERMODUL_CTRL+0x98>
 20025f0:	90200237 	lui	a0,0x4004
 20025f4:	8c805003 	lb	v1,20(a0)
 20025f8:	98000813 	li	a1,2
 20025fc:	14662063 	beq	v1,a1,200280c <t1_taskA2_generic_FH_TUERMODUL_CTRL+0x460>
 2002600:	a0000c13 	li	a2,3
 2002604:	0c696863 	beq	v1,a2,20027b8 <t1_taskA2_generic_FH_TUERMODUL_CTRL+0x40c>
 2002608:	a8000413 	li	a3,1
 200260c:	0c6a6863 	beq	v1,a3,2002740 <t1_taskA2_generic_FH_TUERMODUL_CTRL+0x394>
 2002610:	88200237 	lui	v1,0x4004
 2002614:	04407423 	sb	zero,29(v1)
 2002618:	04a85023 	sb	a2,20(a0)
 200261c:	ffff8a67 	j	2002444 <t1_taskA2_generic_FH_TUERMODUL_CTRL+0x98>
 2002620:	f468a0e3 	bne	v1,a2,2002470 <t1_taskA2_generic_FH_TUERMODUL_CTRL+0xc4>
 2002624:	98200237 	lui	a1,0x4004
 2002628:	9cc2e103 	lw	a1,184(a1)
 200262c:	f4c08863 	beqz	a1,2002470 <t1_taskA2_generic_FH_TUERMODUL_CTRL+0xc4>
 2002630:	a0200237 	lui	a2,0x4004
 2002634:	a5008103 	lw	a2,32(a2)
 2002638:	a53ff413 	add	a2,a2,-3
 200263c:	f4e868e3 	bne	a1,a2,2002470 <t1_taskA2_generic_FH_TUERMODUL_CTRL+0xc4>
 2002640:	98200237 	lui	a1,0x4004
 2002644:	9cc12403 	lb	a1,73(a1)
 2002648:	f4c050e3 	bnez	a1,2002470 <t1_taskA2_generic_FH_TUERMODUL_CTRL+0xc4>
 200264c:	98200237 	lui	a1,0x4004
 2002650:	9cc11803 	lb	a1,70(a1)
 2002654:	f4c038e3 	bnez	a1,2002470 <t1_taskA2_generic_FH_TUERMODUL_CTRL+0xc4>
 2002658:	98200237 	lui	a1,0x4004
 200265c:	a4c2a103 	lw	a2,168(a1)
 2002660:	f02822e3 	blez	a2,2002470 <t1_taskA2_generic_FH_TUERMODUL_CTRL+0xc4>
 2002664:	a53ffc13 	add	a2,a2,-1
 2002668:	a8200237 	lui	a3,0x4004
 200266c:	05407423 	sb	zero,29(a3)
 2002670:	0ce8a123 	sw	a2,168(a1)
 2002674:	04a25423 	sb	v1,21(a0)
 2002678:	ffff7e67 	j	2002470 <t1_taskA2_generic_FH_TUERMODUL_CTRL+0xc4>
 200267c:	98200237 	lui	a1,0x4004
 2002680:	9cc2f103 	lw	a1,188(a1)
 2002684:	f4c01863 	beqz	a1,2002490 <t1_taskA2_generic_FH_TUERMODUL_CTRL+0xe4>
 2002688:	a0200237 	lui	a2,0x4004
 200268c:	a5008103 	lw	a2,32(a2)
 2002690:	9d270033 	sub	a1,a2,a1
 2002694:	ece3f8e3 	bne	a1,v1,2002490 <t1_taskA2_generic_FH_TUERMODUL_CTRL+0xe4>
 2002698:	98200237 	lui	a1,0x4004
 200269c:	9cc12403 	lb	a1,73(a1)
 20026a0:	04c020e3 	bnez	a1,20026b0 <t1_taskA2_generic_FH_TUERMODUL_CTRL+0x304>
 20026a4:	98200237 	lui	a1,0x4004
 20026a8:	9cc11803 	lb	a1,70(a1)
 20026ac:	ecc1c863 	beqz	a1,2002490 <t1_taskA2_generic_FH_TUERMODUL_CTRL+0xe4>
 20026b0:	98200237 	lui	a1,0x4004
 20026b4:	a4c2a103 	lw	a2,168(a1)
 20026b8:	88000413 	li	v1,1
 20026bc:	a8200237 	lui	a3,0x4004
 20026c0:	a5000413 	add	a2,a2,1
 20026c4:	04a25823 	sb	v1,22(a0)
 20026c8:	90200237 	lui	a0,0x4004
 20026cc:	05407423 	sb	zero,29(a3)
 20026d0:	0ce8a123 	sw	a2,168(a1)
 20026d4:	04a25423 	sb	v1,21(a0)
 20026d8:	ffff6667 	j	2002470 <t1_taskA2_generic_FH_TUERMODUL_CTRL+0xc4>
 20026dc:	88200237 	lui	v1,0x4004
 20026e0:	8c412403 	lb	v1,73(v1)
 20026e4:	ec41e863 	beqz	v1,20024d8 <t1_taskA2_generic_FH_TUERMODUL_CTRL+0x12c>
 20026e8:	88200237 	lui	v1,0x4004
 20026ec:	a4408103 	lw	a2,32(v1)
 20026f0:	90200237 	lui	a0,0x4004
 20026f4:	04807423 	sb	zero,29(a0)
 20026f8:	90200237 	lui	a0,0x4004
 20026fc:	04812023 	sb	zero,72(a0)
 2002700:	90200237 	lui	a0,0x4004
 2002704:	88000c13 	li	v1,3
 2002708:	0ca8b123 	sw	a2,172(a0)
 200270c:	90200237 	lui	a0,0x4004
 2002710:	04e25c23 	sb	v1,23(a1)
 2002714:	04a25023 	sb	v1,20(a0)
 2002718:	ffff4b67 	j	2002444 <t1_taskA2_generic_FH_TUERMODUL_CTRL+0x98>
 200271c:	88200237 	lui	v1,0x4004
 2002720:	8c413c03 	lb	v1,79(v1)
 2002724:	ec4040e3 	bnez	v1,2002444 <t1_taskA2_generic_FH_TUERMODUL_CTRL+0x98>
 2002728:	88200237 	lui	v1,0x4004
 200272c:	04407423 	sb	zero,29(v1)
 2002730:	88200237 	lui	v1,0x4004
 2002734:	04412023 	sb	zero,72(v1)
 2002738:	04a86c23 	sb	a2,27(a0)
 200273c:	ffff4267 	j	2002444 <t1_taskA2_generic_FH_TUERMODUL_CTRL+0x98>
 2002740:	a8200237 	lui	a3,0x4004
 2002744:	ad425103 	lw	a3,148(a3)
 2002748:	ad465513 	slt	a3,a3,405
 200274c:	0d4158e3 	bnez	a3,20028f8 <t1_taskA2_generic_FH_TUERMODUL_CTRL+0x54c>
 2002750:	88200237 	lui	v1,0x4004
 2002754:	04407423 	sb	zero,29(v1)
 2002758:	88200237 	lui	v1,0x4004
 200275c:	04411423 	sb	zero,69(v1)
 2002760:	04a85023 	sb	a2,20(a0)
 2002764:	ffff3867 	j	2002444 <t1_taskA2_generic_FH_TUERMODUL_CTRL+0x98>
 2002768:	88200237 	lui	v1,0x4004
 200276c:	8c413003 	lb	v1,76(v1)
 2002770:	0c40c063 	beqz	v1,20028d0 <t1_taskA2_generic_FH_TUERMODUL_CTRL+0x524>
 2002774:	88200237 	lui	v1,0x4004
 2002778:	04407423 	sb	zero,29(v1)
 200277c:	a0000413 	li	a2,1
 2002780:	88200237 	lui	v1,0x4004
 2002784:	04691423 	sb	a2,69(v1)
 2002788:	04a66c23 	sb	a1,27(a0)
 200278c:	ffff2e67 	j	2002444 <t1_taskA2_generic_FH_TUERMODUL_CTRL+0x98>
 2002790:	88200237 	lui	v1,0x4004
 2002794:	8c413003 	lb	v1,76(v1)
 2002798:	e44158e3 	bnez	v1,2002444 <t1_taskA2_generic_FH_TUERMODUL_CTRL+0x98>
 200279c:	88200237 	lui	v1,0x4004
 20027a0:	04407423 	sb	zero,29(v1)
 20027a4:	88200237 	lui	v1,0x4004
 20027a8:	04411423 	sb	zero,69(v1)
 20027ac:	88000c13 	li	v1,3
 20027b0:	04a26c23 	sb	v1,27(a0)
 20027b4:	ffff2467 	j	2002444 <t1_taskA2_generic_FH_TUERMODUL_CTRL+0x98>
 20027b8:	88200237 	lui	v1,0x4004
 20027bc:	8c413c03 	lb	v1,79(v1)
 20027c0:	04412063 	beqz	v1,2002850 <t1_taskA2_generic_FH_TUERMODUL_CTRL+0x4a4>
 20027c4:	88200237 	lui	v1,0x4004
 20027c8:	8c413403 	lb	v1,77(v1)
 20027cc:	044108e3 	bnez	v1,2002850 <t1_taskA2_generic_FH_TUERMODUL_CTRL+0x4a4>
 20027d0:	88200237 	lui	v1,0x4004
 20027d4:	8c425103 	lw	v1,148(v1)
 20027d8:	0022f2e3 	blez	v1,2002850 <t1_taskA2_generic_FH_TUERMODUL_CTRL+0x4a4>
 20027dc:	04a65023 	sb	a1,20(a0)
 20027e0:	90200237 	lui	a0,0x4004
 20027e4:	04a64023 	sb	a1,16(a0)
 20027e8:	90200237 	lui	a0,0x4004
 20027ec:	88000413 	li	v1,1
 20027f0:	a0200237 	lui	a2,0x4004
 20027f4:	04a64823 	sb	a1,18(a0)
 20027f8:	90200237 	lui	a0,0x4004
 20027fc:	05007423 	sb	zero,29(a2)
 2002800:	04224423 	sb	v1,17(v0)
 2002804:	04a32023 	sb	v1,72(a0)
 2002808:	ffff0f67 	j	2002444 <t1_taskA2_generic_FH_TUERMODUL_CTRL+0x98>
 200280c:	98200237 	lui	a1,0x4004
 2002810:	9cc25103 	lw	a1,148(a1)
 2002814:	08260ae3 	blez	a1,2002918 <t1_taskA2_generic_FH_TUERMODUL_CTRL+0x56c>
 2002818:	a8200237 	lui	a3,0x4004
 200281c:	9d404003 	lb	a1,16(a3)
 2002820:	a0000413 	li	a2,1
 2002824:	0ce8b863 	beq	a1,a2,2002980 <t1_taskA2_generic_FH_TUERMODUL_CTRL+0x5d4>
 2002828:	0ce21863 	beq	a1,v1,2002934 <t1_taskA2_generic_FH_TUERMODUL_CTRL+0x588>
 200282c:	90200237 	lui	a0,0x4004
 2002830:	04807423 	sb	zero,29(a0)
 2002834:	90200237 	lui	a0,0x4004
 2002838:	05624023 	sb	v1,16(a3)
 200283c:	04a24823 	sb	v1,18(a0)
 2002840:	88200237 	lui	v1,0x4004
 2002844:	04284423 	sb	a2,17(v0)
 2002848:	04692023 	sb	a2,72(v1)
 200284c:	fffefe67 	j	2002444 <t1_taskA2_generic_FH_TUERMODUL_CTRL+0x98>
 2002850:	88200237 	lui	v1,0x4004
 2002854:	8c413003 	lb	v1,76(v1)
 2002858:	dc41d863 	beqz	v1,2002444 <t1_taskA2_generic_FH_TUERMODUL_CTRL+0x98>
 200285c:	88200237 	lui	v1,0x4004
 2002860:	8c412803 	lb	v1,74(v1)
 2002864:	dc41c0e3 	bnez	v1,2002444 <t1_taskA2_generic_FH_TUERMODUL_CTRL+0x98>
 2002868:	88200237 	lui	v1,0x4004
 200286c:	8c425103 	lw	v1,148(v1)
 2002870:	8c465513 	slt	v1,v1,405
 2002874:	dc41a063 	beqz	v1,2002444 <t1_taskA2_generic_FH_TUERMODUL_CTRL+0x98>
 2002878:	98200237 	lui	a1,0x4004
 200287c:	88000413 	li	v1,1
 2002880:	04c07423 	sb	zero,29(a1)
 2002884:	98200237 	lui	a1,0x4004
 2002888:	04a25023 	sb	v1,20(a0)
 200288c:	04e31423 	sb	v1,69(a1)
 2002890:	90000813 	li	a0,2
 2002894:	88200237 	lui	v1,0x4004
 2002898:	04644423 	sb	a0,17(v1)
 200289c:	fffeea67 	j	2002444 <t1_taskA2_generic_FH_TUERMODUL_CTRL+0x98>
 20028a0:	88200237 	lui	v1,0x4004
 20028a4:	8c412403 	lb	v1,73(v1)
 20028a8:	ec409063 	beqz	v1,20025f0 <t1_taskA2_generic_FH_TUERMODUL_CTRL+0x244>
 20028ac:	88200237 	lui	v1,0x4004
 20028b0:	94408103 	lw	a0,32(v1)
 20028b4:	88200237 	lui	v1,0x4004
 20028b8:	04407423 	sb	zero,29(v1)
 20028bc:	88200237 	lui	v1,0x4004
 20028c0:	04412023 	sb	zero,72(v1)
 20028c4:	88200237 	lui	v1,0x4004
 20028c8:	0c64c123 	sw	a0,176(v1)
 20028cc:	ffff4367 	j	20025d8 <t1_taskA2_generic_FH_TUERMODUL_CTRL+0x22c>
 20028d0:	88200237 	lui	v1,0x4004
 20028d4:	8c413c03 	lb	v1,79(v1)
 20028d8:	dc40d863 	beqz	v1,2002444 <t1_taskA2_generic_FH_TUERMODUL_CTRL+0x98>
 20028dc:	98200237 	lui	a1,0x4004
 20028e0:	88000413 	li	v1,1
 20028e4:	04c07423 	sb	zero,29(a1)
 20028e8:	98200237 	lui	a1,0x4004
 20028ec:	04e32023 	sb	v1,72(a1)
 20028f0:	04a26c23 	sb	v1,27(a0)
 20028f4:	fffed467 	j	2002444 <t1_taskA2_generic_FH_TUERMODUL_CTRL+0x98>
 20028f8:	a8200237 	lui	a3,0x4004
 20028fc:	a5404403 	lb	a2,17(a3)
 2002900:	0d220863 	beq	a2,v1,2002a04 <t1_taskA2_generic_FH_TUERMODUL_CTRL+0x658>
 2002904:	0527b063 	beq	a2,a1,20029dc <t1_taskA2_generic_FH_TUERMODUL_CTRL+0x630>
 2002908:	88200237 	lui	v1,0x4004
 200290c:	04407423 	sb	zero,29(v1)
 2002910:	05664423 	sb	a1,17(a3)
 2002914:	fffecc67 	j	2002444 <t1_taskA2_generic_FH_TUERMODUL_CTRL+0x98>
 2002918:	88200237 	lui	v1,0x4004
 200291c:	04407423 	sb	zero,29(v1)
 2002920:	88200237 	lui	v1,0x4004
 2002924:	04412023 	sb	zero,72(v1)
 2002928:	88000c13 	li	v1,3
 200292c:	04a25023 	sb	v1,20(a0)
 2002930:	fffec567 	j	2002444 <t1_taskA2_generic_FH_TUERMODUL_CTRL+0x98>
 2002934:	88200237 	lui	v1,0x4004
 2002938:	8c413c03 	lb	v1,79(v1)
 200293c:	044020e3 	bnez	v1,200294c <t1_taskA2_generic_FH_TUERMODUL_CTRL+0x5a0>
 2002940:	88200237 	lui	v1,0x4004
 2002944:	8c413403 	lb	v1,77(v1)
 2002948:	fc41a0e3 	bnez	v1,2002918 <t1_taskA2_generic_FH_TUERMODUL_CTRL+0x56c>
 200294c:	98200237 	lui	a1,0x4004
 2002950:	94c04803 	lb	a0,18(a1)
 2002954:	88000413 	li	v1,1
 2002958:	0ca2c863 	beq	a0,v1,2002abc <t1_taskA2_generic_FH_TUERMODUL_CTRL+0x710>
 200295c:	a0000813 	li	a2,2
 2002960:	0ca82863 	beq	a0,a2,2002a74 <t1_taskA2_generic_FH_TUERMODUL_CTRL+0x6c8>
 2002964:	90200237 	lui	a0,0x4004
 2002968:	04807423 	sb	zero,29(a0)
 200296c:	90200237 	lui	a0,0x4004
 2002970:	04e84823 	sb	a2,18(a1)
 2002974:	04224423 	sb	v1,17(v0)
 2002978:	04a32023 	sb	v1,72(a0)
 200297c:	fffeb267 	j	2002444 <t1_taskA2_generic_FH_TUERMODUL_CTRL+0x98>
 2002980:	88200237 	lui	v1,0x4004
 2002984:	8c413003 	lb	v1,76(v1)
 2002988:	04402063 	beqz	v1,2002998 <t1_taskA2_generic_FH_TUERMODUL_CTRL+0x5ec>
 200298c:	88200237 	lui	v1,0x4004
 2002990:	8c412803 	lb	v1,74(v1)
 2002994:	fc410863 	beqz	v1,2002918 <t1_taskA2_generic_FH_TUERMODUL_CTRL+0x56c>
 2002998:	88200237 	lui	v1,0x4004
 200299c:	8c413c03 	lb	v1,79(v1)
 20029a0:	04402063 	beqz	v1,20029b0 <t1_taskA2_generic_FH_TUERMODUL_CTRL+0x604>
 20029a4:	88200237 	lui	v1,0x4004
 20029a8:	8c413403 	lb	v1,77(v1)
 20029ac:	fc40d863 	beqz	v1,2002918 <t1_taskA2_generic_FH_TUERMODUL_CTRL+0x56c>
 20029b0:	98200237 	lui	a1,0x4004
 20029b4:	94c04c03 	lb	a0,19(a1)
 20029b8:	88000413 	li	v1,1
 20029bc:	0ca30863 	beq	a0,v1,2002b40 <t1_taskA2_generic_FH_TUERMODUL_CTRL+0x794>
 20029c0:	a0000813 	li	a2,2
 20029c4:	0ca86863 	beq	a0,a2,2002af8 <t1_taskA2_generic_FH_TUERMODUL_CTRL+0x74c>
 20029c8:	90200237 	lui	a0,0x4004
 20029cc:	04807423 	sb	zero,29(a0)
 20029d0:	04e84c23 	sb	a2,19(a1)
 20029d4:	04224423 	sb	v1,17(v0)
 20029d8:	fffe9b67 	j	2002444 <t1_taskA2_generic_FH_TUERMODUL_CTRL+0x98>
 20029dc:	98200237 	lui	a1,0x4004
 20029e0:	9cc13c03 	lb	a1,79(a1)
 20029e4:	04c0b063 	beqz	a1,2002a3c <t1_taskA2_generic_FH_TUERMODUL_CTRL+0x690>
 20029e8:	98200237 	lui	a1,0x4004
 20029ec:	9cc13403 	lb	a1,77(a1)
 20029f0:	04c098e3 	bnez	a1,2002a3c <t1_taskA2_generic_FH_TUERMODUL_CTRL+0x690>
 20029f4:	90200237 	lui	a0,0x4004
 20029f8:	04807423 	sb	zero,29(a0)
 20029fc:	05624423 	sb	v1,17(a3)
 2002a00:	fffe9167 	j	2002444 <t1_taskA2_generic_FH_TUERMODUL_CTRL+0x98>
 2002a04:	88200237 	lui	v1,0x4004
 2002a08:	8c413c03 	lb	v1,79(v1)
 2002a0c:	04409863 	beqz	v1,2002a58 <t1_taskA2_generic_FH_TUERMODUL_CTRL+0x6ac>
 2002a10:	88200237 	lui	v1,0x4004
 2002a14:	8c413403 	lb	v1,77(v1)
 2002a18:	044080e3 	bnez	v1,2002a58 <t1_taskA2_generic_FH_TUERMODUL_CTRL+0x6ac>
 2002a1c:	88200237 	lui	v1,0x4004
 2002a20:	04407423 	sb	zero,29(v1)
 2002a24:	88200237 	lui	v1,0x4004
 2002a28:	04411423 	sb	zero,69(v1)
 2002a2c:	88000c13 	li	v1,3
 2002a30:	04a25023 	sb	v1,20(a0)
 2002a34:	05404423 	sb	zero,17(a3)
 2002a38:	fffe8367 	j	2002444 <t1_taskA2_generic_FH_TUERMODUL_CTRL+0x98>
 2002a3c:	88200237 	lui	v1,0x4004
 2002a40:	8c413003 	lb	v1,76(v1)
 2002a44:	d44000e3 	bnez	v1,2002444 <t1_taskA2_generic_FH_TUERMODUL_CTRL+0x98>
 2002a48:	88200237 	lui	v1,0x4004
 2002a4c:	8c412803 	lb	v1,74(v1)
 2002a50:	cc41e863 	beqz	v1,2002444 <t1_taskA2_generic_FH_TUERMODUL_CTRL+0x98>
 2002a54:	fffff267 	j	2002a1c <t1_taskA2_generic_FH_TUERMODUL_CTRL+0x670>
 2002a58:	88200237 	lui	v1,0x4004
 2002a5c:	8c413003 	lb	v1,76(v1)
 2002a60:	cc41c863 	beqz	v1,2002444 <t1_taskA2_generic_FH_TUERMODUL_CTRL+0x98>
 2002a64:	88200237 	lui	v1,0x4004
 2002a68:	8c412803 	lb	v1,74(v1)
 2002a6c:	cc41b0e3 	bnez	v1,2002444 <t1_taskA2_generic_FH_TUERMODUL_CTRL+0x98>
 2002a70:	ffffeb67 	j	2002a1c <t1_taskA2_generic_FH_TUERMODUL_CTRL+0x670>
 2002a74:	94006003 	lb	a0,24(v0)
 2002a78:	0c800863 	beqz	a0,2002b7c <t1_taskA2_generic_FH_TUERMODUL_CTRL+0x7d0>
 2002a7c:	90200237 	lui	a0,0x4004
 2002a80:	a4808103 	lw	a2,32(a0)
 2002a84:	90200237 	lui	a0,0x4004
 2002a88:	04807423 	sb	zero,29(a0)
 2002a8c:	90200237 	lui	a0,0x4004
 2002a90:	04812023 	sb	zero,72(a0)
 2002a94:	90200237 	lui	a0,0x4004
 2002a98:	04a37823 	sb	v1,94(a0)
 2002a9c:	90200237 	lui	a0,0x4004
 2002aa0:	0ca86123 	sw	a2,152(a0)
 2002aa4:	90200237 	lui	a0,0x4004
 2002aa8:	04225c23 	sb	v1,23(v0)
 2002aac:	04e24823 	sb	v1,18(a1)
 2002ab0:	04004423 	sb	zero,17(v0)
 2002ab4:	04a31423 	sb	v1,69(a0)
 2002ab8:	fffe6367 	j	2002444 <t1_taskA2_generic_FH_TUERMODUL_CTRL+0x98>
 2002abc:	8c005803 	lb	v1,22(v0)
 2002ac0:	04005c23 	sb	zero,23(v0)
 2002ac4:	cc410063 	beqz	v1,2002444 <t1_taskA2_generic_FH_TUERMODUL_CTRL+0x98>
 2002ac8:	88200237 	lui	v1,0x4004
 2002acc:	04407423 	sb	zero,29(v1)
 2002ad0:	88200237 	lui	v1,0x4004
 2002ad4:	04417823 	sb	zero,94(v1)
 2002ad8:	88000813 	li	v1,2
 2002adc:	04e24823 	sb	v1,18(a1)
 2002ae0:	88200237 	lui	v1,0x4004
 2002ae4:	04411423 	sb	zero,69(v1)
 2002ae8:	88200237 	lui	v1,0x4004
 2002aec:	04244423 	sb	a0,17(v0)
 2002af0:	04652023 	sb	a0,72(v1)
 2002af4:	fffe5467 	j	2002444 <t1_taskA2_generic_FH_TUERMODUL_CTRL+0x98>
 2002af8:	94006003 	lb	a0,24(v0)
 2002afc:	cc809063 	beqz	a0,2002444 <t1_taskA2_generic_FH_TUERMODUL_CTRL+0x98>
 2002b00:	90200237 	lui	a0,0x4004
 2002b04:	a4808103 	lw	a2,32(a0)
 2002b08:	90200237 	lui	a0,0x4004
 2002b0c:	04807423 	sb	zero,29(a0)
 2002b10:	90200237 	lui	a0,0x4004
 2002b14:	04a38023 	sb	v1,96(a0)
 2002b18:	90200237 	lui	a0,0x4004
 2002b1c:	04812023 	sb	zero,72(a0)
 2002b20:	90200237 	lui	a0,0x4004
 2002b24:	0ca87123 	sw	a2,156(a0)
 2002b28:	90200237 	lui	a0,0x4004
 2002b2c:	04225c23 	sb	v1,23(v0)
 2002b30:	04e24c23 	sb	v1,19(a1)
 2002b34:	04004423 	sb	zero,17(v0)
 2002b38:	04a31423 	sb	v1,69(a0)
 2002b3c:	fffe4267 	j	2002444 <t1_taskA2_generic_FH_TUERMODUL_CTRL+0x98>
 2002b40:	8c005803 	lb	v1,22(v0)
 2002b44:	04005c23 	sb	zero,23(v0)
 2002b48:	c441f863 	beqz	v1,2002444 <t1_taskA2_generic_FH_TUERMODUL_CTRL+0x98>
 2002b4c:	88200237 	lui	v1,0x4004
 2002b50:	04407423 	sb	zero,29(v1)
 2002b54:	88200237 	lui	v1,0x4004
 2002b58:	04652023 	sb	a0,72(v1)
 2002b5c:	88200237 	lui	v1,0x4004
 2002b60:	04418023 	sb	zero,96(v1)
 2002b64:	88000813 	li	v1,2
 2002b68:	04e24c23 	sb	v1,19(a1)
 2002b6c:	88200237 	lui	v1,0x4004
 2002b70:	04411423 	sb	zero,69(v1)
 2002b74:	04244423 	sb	a0,17(v0)
 2002b78:	fffe3367 	j	2002444 <t1_taskA2_generic_FH_TUERMODUL_CTRL+0x98>
 2002b7c:	90200237 	lui	a0,0x4004
 2002b80:	94813003 	lb	a0,76(a0)
 2002b84:	c4818063 	beqz	a0,2002444 <t1_taskA2_generic_FH_TUERMODUL_CTRL+0x98>
 2002b88:	90200237 	lui	a0,0x4004
 2002b8c:	94812803 	lb	a0,74(a0)
 2002b90:	c48168e3 	bnez	a0,2002444 <t1_taskA2_generic_FH_TUERMODUL_CTRL+0x98>
 2002b94:	90200237 	lui	a0,0x4004
 2002b98:	04807423 	sb	zero,29(a0)
 2002b9c:	05624023 	sb	v1,16(a3)
 2002ba0:	04c04823 	sb	zero,18(a1)
 2002ba4:	fffe2867 	j	2002444 <t1_taskA2_generic_FH_TUERMODUL_CTRL+0x98>

02002ba8 <t1_taskA2_generic_EINKLEMMSCHUTZ_CTRL>:
 2002ba8:	80200237 	lui	v0,0x4004
 2002bac:	84031013 	add	v0,v0,196
 2002bb0:	8c004003 	lb	v1,16(v0)
 2002bb4:	04405063 	beqz	v1,2002bdc <t1_taskA2_generic_EINKLEMMSCHUTZ_CTRL+0x34>
 2002bb8:	90200237 	lui	a0,0x4004
 2002bbc:	8c803803 	lb	v1,14(a0)
 2002bc0:	98000413 	li	a1,1
 2002bc4:	04663863 	beq	v1,a1,2002be0 <t1_taskA2_generic_EINKLEMMSCHUTZ_CTRL+0x38>
 2002bc8:	a0000813 	li	a2,2
 2002bcc:	0468c063 	beq	v1,a2,2002c2c <t1_taskA2_generic_EINKLEMMSCHUTZ_CTRL+0x84>
 2002bd0:	80200237 	lui	v0,0x4004
 2002bd4:	04007423 	sb	zero,29(v0)
 2002bd8:	04a63823 	sb	a1,14(a0)
 2002bdc:	004000eb 	ret
 2002be0:	88200237 	lui	v1,0x4004
 2002be4:	8c410c03 	lb	v1,67(v1)
 2002be8:	fc41e863 	beqz	v1,2002bdc <t1_taskA2_generic_EINKLEMMSCHUTZ_CTRL+0x34>
 2002bec:	88200237 	lui	v1,0x4004
 2002bf0:	8c410803 	lb	v1,66(v1)
 2002bf4:	fc41d0e3 	bnez	v1,2002bdc <t1_taskA2_generic_EINKLEMMSCHUTZ_CTRL+0x34>
 2002bf8:	88200237 	lui	v1,0x4004
 2002bfc:	8c413c03 	lb	v1,79(v1)
 2002c00:	04402063 	beqz	v1,2002c10 <t1_taskA2_generic_EINKLEMMSCHUTZ_CTRL+0x68>
 2002c04:	88200237 	lui	v1,0x4004
 2002c08:	8c413003 	lb	v1,76(v1)
 2002c0c:	fc41a0e3 	bnez	v1,2002bdc <t1_taskA2_generic_EINKLEMMSCHUTZ_CTRL+0x34>
 2002c10:	88200237 	lui	v1,0x4004
 2002c14:	04407423 	sb	zero,29(v1)
 2002c18:	88000413 	li	v1,1
 2002c1c:	04226023 	sb	v1,24(v0)
 2002c20:	80000813 	li	v0,2
 2002c24:	04a03823 	sb	v0,14(a0)
 2002c28:	004000eb 	ret
 2002c2c:	88200237 	lui	v1,0x4004
 2002c30:	8c410c03 	lb	v1,67(v1)
 2002c34:	04006023 	sb	zero,24(v0)
 2002c38:	fc4148e3 	bnez	v1,2002bdc <t1_taskA2_generic_EINKLEMMSCHUTZ_CTRL+0x34>
 2002c3c:	80200237 	lui	v0,0x4004
 2002c40:	84010803 	lb	v0,66(v0)
 2002c44:	fc013063 	beqz	v0,2002bdc <t1_taskA2_generic_EINKLEMMSCHUTZ_CTRL+0x34>
 2002c48:	80200237 	lui	v0,0x4004
 2002c4c:	04007423 	sb	zero,29(v0)
 2002c50:	04a63823 	sb	a1,14(a0)
 2002c54:	004000eb 	ret

02002c58 <t1_taskA2_generic_BLOCK_ERKENNUNG_CTRL>:
 2002c58:	88200237 	lui	v1,0x4004
 2002c5c:	84431013 	add	v0,v1,196
 2002c60:	94004c03 	lb	a0,19(v0)
 2002c64:	048038e3 	bnez	a0,2002c80 <t1_taskA2_generic_BLOCK_ERKENNUNG_CTRL+0x28>
 2002c68:	94005403 	lb	a0,21(v0)
 2002c6c:	04807063 	beqz	a0,2002ca4 <t1_taskA2_generic_BLOCK_ERKENNUNG_CTRL+0x4c>
 2002c70:	84005003 	lb	v0,20(v0)
 2002c74:	040060e3 	bnez	v0,2002ca4 <t1_taskA2_generic_BLOCK_ERKENNUNG_CTRL+0x4c>
 2002c78:	0c411023 	sb	zero,196(v1)
 2002c7c:	004000eb 	ret
 2002c80:	90200237 	lui	a0,0x4004
 2002c84:	84803003 	lb	v0,12(a0)
 2002c88:	98000413 	li	a1,1
 2002c8c:	04263863 	beq	v0,a1,2002ca8 <t1_taskA2_generic_BLOCK_ERKENNUNG_CTRL+0x50>
 2002c90:	a0000813 	li	a2,2
 2002c94:	0428d863 	beq	v0,a2,2002d00 <t1_taskA2_generic_BLOCK_ERKENNUNG_CTRL+0xa8>
 2002c98:	80200237 	lui	v0,0x4004
 2002c9c:	04007423 	sb	zero,29(v0)
 2002ca0:	04a63023 	sb	a1,12(a0)
 2002ca4:	004000eb 	ret
 2002ca8:	98200237 	lui	a1,0x4004
 2002cac:	a0200237 	lui	a2,0x4004
 2002cb0:	9cc24103 	lw	a1,144(a1)
 2002cb4:	a5023103 	lw	a2,140(a2)
 2002cb8:	fce9d863 	beq	a1,a2,2002ca4 <t1_taskA2_generic_BLOCK_ERKENNUNG_CTRL+0x4c>
 2002cbc:	f827d2e3 	blez	a1,2002ca4 <t1_taskA2_generic_BLOCK_ERKENNUNG_CTRL+0x4c>
 2002cc0:	98200237 	lui	a1,0x4004
 2002cc4:	04c07423 	sb	zero,29(a1)
 2002cc8:	98200237 	lui	a1,0x4004
 2002ccc:	04c14823 	sb	zero,82(a1)
 2002cd0:	98000813 	li	a1,2
 2002cd4:	04a63023 	sb	a1,12(a0)
 2002cd8:	90200237 	lui	a0,0x4004
 2002cdc:	98000813 	li	a1,2
 2002ce0:	0481b123 	sw	zero,108(a0)
 2002ce4:	90200237 	lui	a0,0x4004
 2002ce8:	04a7d123 	sw	a1,116(a0)
 2002cec:	98000c13 	li	a1,3
 2002cf0:	90200237 	lui	a0,0x4004
 2002cf4:	04a63423 	sb	a1,13(a0)
 2002cf8:	0c611023 	sb	v0,196(v1)
 2002cfc:	004000eb 	ret
 2002d00:	80200237 	lui	v0,0x4004
 2002d04:	84011803 	lb	v0,70(v0)
 2002d08:	0400c063 	beqz	v0,2002d68 <t1_taskA2_generic_BLOCK_ERKENNUNG_CTRL+0x110>
 2002d0c:	80200237 	lui	v0,0x4004
 2002d10:	84012403 	lb	v0,73(v0)
 2002d14:	040020e3 	bnez	v0,2002d24 <t1_taskA2_generic_BLOCK_ERKENNUNG_CTRL+0xcc>
 2002d18:	80200237 	lui	v0,0x4004
 2002d1c:	84011c03 	lb	v0,71(v0)
 2002d20:	0400a8e3 	bnez	v0,2002d74 <t1_taskA2_generic_BLOCK_ERKENNUNG_CTRL+0x11c>
 2002d24:	90200237 	lui	a0,0x4004
 2002d28:	84803403 	lb	v0,13(a0)
 2002d2c:	98000813 	li	a1,2
 2002d30:	0427b063 	beq	v0,a1,2002e08 <t1_taskA2_generic_BLOCK_ERKENNUNG_CTRL+0x1b0>
 2002d34:	a0000c13 	li	a2,3
 2002d38:	0428b863 	beq	v0,a2,2002d94 <t1_taskA2_generic_BLOCK_ERKENNUNG_CTRL+0x13c>
 2002d3c:	a8000413 	li	a3,1
 2002d40:	042aa063 	beq	v0,a3,2002d90 <t1_taskA2_generic_BLOCK_ERKENNUNG_CTRL+0x138>
 2002d44:	80200237 	lui	v0,0x4004
 2002d48:	04007423 	sb	zero,29(v0)
 2002d4c:	80200237 	lui	v0,0x4004
 2002d50:	0401b123 	sw	zero,108(v0)
 2002d54:	80200237 	lui	v0,0x4004
 2002d58:	0427d123 	sw	a1,116(v0)
 2002d5c:	04a83423 	sb	a2,13(a0)
 2002d60:	0c6b1023 	sb	a3,196(v1)
 2002d64:	004000eb 	ret
 2002d68:	80200237 	lui	v0,0x4004
 2002d6c:	84011003 	lb	v0,68(v0)
 2002d70:	fc013863 	beqz	v0,2002d0c <t1_taskA2_generic_BLOCK_ERKENNUNG_CTRL+0xb4>
 2002d74:	80200237 	lui	v0,0x4004
 2002d78:	04007423 	sb	zero,29(v0)
 2002d7c:	80000413 	li	v0,1
 2002d80:	04a03023 	sb	v0,12(a0)
 2002d84:	80200237 	lui	v0,0x4004
 2002d88:	04003423 	sb	zero,13(v0)
 2002d8c:	004000eb 	ret
 2002d90:	004000eb 	ret
 2002d94:	a0200237 	lui	a2,0x4004
 2002d98:	8501b103 	lw	v0,108(a2)
 2002d9c:	0c411023 	sb	zero,196(v1)
 2002da0:	88002c13 	li	v1,11
 2002da4:	04233063 	beq	v0,v1,2002e3c <t1_taskA2_generic_BLOCK_ERKENNUNG_CTRL+0x1e4>
 2002da8:	88200237 	lui	v1,0x4004
 2002dac:	94407003 	lb	a0,28(v1)
 2002db0:	88000413 	li	v1,1
 2002db4:	f4a3e0e3 	bne	a0,v1,2002ca4 <t1_taskA2_generic_BLOCK_ERKENNUNG_CTRL+0x4c>
 2002db8:	88200237 	lui	v1,0x4004
 2002dbc:	8c430103 	lw	v1,192(v1)
 2002dc0:	f441c863 	beqz	v1,2002ca4 <t1_taskA2_generic_BLOCK_ERKENNUNG_CTRL+0x4c>
 2002dc4:	90200237 	lui	a0,0x4004
 2002dc8:	94808103 	lw	a0,32(a0)
 2002dcc:	8ca30033 	sub	v1,a0,v1
 2002dd0:	8c40f0d3 	fcvt.d.wu	fv1,v1
 2002dd4:	88200037 	lui	v1,0x4000
 2002dd8:	84402187 	fld	fv0,8(v1)
 2002ddc:	8c6150d3 	feq.d	v1,fv1,fv0
 2002de0:	f4418863 	beqz	v1,2002ca4 <t1_taskA2_generic_BLOCK_ERKENNUNG_CTRL+0x4c>
 2002de4:	88200237 	lui	v1,0x4004
 2002de8:	90200237 	lui	a0,0x4004
 2002dec:	94824103 	lw	a0,144(a0)
 2002df0:	9c41d103 	lw	a1,116(v1)
 2002df4:	84000413 	add	v0,v0,1
 2002df8:	0521b123 	sw	v0,108(a2)
 2002dfc:	f4e552e3 	ble	a0,a1,2002ca4 <t1_taskA2_generic_BLOCK_ERKENNUNG_CTRL+0x4c>
 2002e00:	0465d123 	sw	a0,116(v1)
 2002e04:	004000eb 	ret
 2002e08:	80200237 	lui	v0,0x4004
 2002e0c:	8c01d103 	lw	v1,116(v0)
 2002e10:	80200237 	lui	v0,0x4004
 2002e14:	84024103 	lw	v0,144(v0)
 2002e18:	8c7ffc13 	add	v1,v1,-1
 2002e1c:	f4231263 	blt	v0,v1,2002ca4 <t1_taskA2_generic_BLOCK_ERKENNUNG_CTRL+0x4c>
 2002e20:	88200237 	lui	v1,0x4004
 2002e24:	80000413 	li	v0,1
 2002e28:	04407423 	sb	zero,29(v1)
 2002e2c:	88200237 	lui	v1,0x4004
 2002e30:	04614823 	sb	v0,82(v1)
 2002e34:	04a03423 	sb	v0,13(a0)
 2002e38:	004000eb 	ret
 2002e3c:	88200237 	lui	v1,0x4004
 2002e40:	8c419103 	lw	v1,100(v1)
 2002e44:	fc60c863 	beq	v1,v0,2002da8 <t1_taskA2_generic_BLOCK_ERKENNUNG_CTRL+0x150>
 2002e48:	80200237 	lui	v0,0x4004
 2002e4c:	04007423 	sb	zero,29(v0)
 2002e50:	04a63423 	sb	a1,13(a0)
 2002e54:	004000eb 	ret

02002e58 <t1_taskA2_FH_DU>:
 2002e58:	73be2013 	add	sp,sp,-120
 2002e5c:	0385c123 	sw	s0,112(sp)
 2002e60:	10200237 	lui	s0,0x4004
 2002e64:	0387b123 	sw	s1,108(sp)
 2002e68:	0389a123 	sw	s2,104(sp)
 2002e6c:	038b9123 	sw	s3,100(sp)
 2002e70:	038d8123 	sw	s4,96(sp)
 2002e74:	038f7123 	sw	s5,92(sp)
 2002e78:	03916123 	sw	s6,88(sp)
 2002e7c:	03935123 	sw	s7,84(sp)
 2002e80:	03954123 	sw	s8,80(sp)
 2002e84:	03973123 	sw	s9,76(sp)
 2002e88:	03992123 	sw	s10,72(sp)
 2002e8c:	039b1123 	sw	s11,68(sp)
 2002e90:	0383d123 	sw	ra,116(sp)
 2002e94:	10831013 	add	s0,s0,196
 2002e98:	88000413 	li	v1,1
 2002e9c:	80200237 	lui	v0,0x4004
 2002ea0:	04228123 	sw	v1,32(v0)
 2002ea4:	a8804003 	lb	a3,16(s0)
 2002ea8:	88802803 	lb	v1,10(s0)
 2002eac:	b0804c03 	lb	a4,19(s0)
 2002eb0:	b8803403 	lb	a5,13(s0)
 2002eb4:	80200237 	lui	v0,0x4004
 2002eb8:	c0200237 	lui	a6,0x4004
 2002ebc:	c8200237 	lui	a7,0x4004
 2002ec0:	04007023 	sb	zero,28(v0)
 2002ec4:	03a2a123 	sw	v1,40(sp)
 2002ec8:	8600d803 	lb	v0,54(a6)
 2002ecc:	03aac123 	sw	a3,48(sp)
 2002ed0:	03acd123 	sw	a4,52(sp)
 2002ed4:	03aeb123 	sw	a5,44(sp)
 2002ed8:	c640d003 	lb	a6,52(a7)
 2002edc:	58200237 	lui	s9,0x4004
 2002ee0:	60200237 	lui	s10,0x4004
 2002ee4:	20200237 	lui	s2,0x4004
 2002ee8:	e0200237 	lui	a10,0x4004
 2002eec:	18200237 	lui	s1,0x4004
 2002ef0:	50200237 	lui	s8,0x4004
 2002ef4:	48200237 	lui	s7,0x4004
 2002ef8:	40200237 	lui	s6,0x4004
 2002efc:	38200237 	lui	s5,0x4004
 2002f00:	30200237 	lui	s4,0x4004
 2002f04:	28200237 	lui	s3,0x4004
 2002f08:	a0200237 	lui	a2,0x4004
 2002f0c:	98200237 	lui	a1,0x4004
 2002f10:	90200237 	lui	a0,0x4004
 2002f14:	88200237 	lui	v1,0x4004
 2002f18:	68200237 	lui	s11,0x4004
 2002f1c:	00016e67 	j	20034d4 <t1_taskA2_FH_DU+0x67c>
 2002f20:	b0000c13 	li	a4,3
 2002f24:	356c2063 	beq	a3,a4,2003534 <t1_taskA2_FH_DU+0x6dc>
 2002f28:	b0000413 	li	a4,1
 2002f2c:	356c7863 	beq	a3,a4,2003568 <t1_taskA2_FH_DU+0x710>
 2002f30:	f8200237 	lui	a13,0x4004
 2002f34:	a8200237 	lui	a3,0x4004
 2002f38:	b8000813 	li	a5,2
 2002f3c:	b0200237 	lui	a4,0x4004
 2002f40:	07c07423 	sb	zero,29(a13)
 2002f44:	0d402123 	sw	zero,136(a3)
 2002f48:	05ae3c23 	sb	a5,15(a4)
 2002f4c:	cb80a103 	lw	a7,40(sp)
 2002f50:	064020e3 	bnez	a7,2002f60 <t1_taskA2_FH_DU+0x108>
 2002f54:	a8000c13 	li	a3,3
 2002f58:	d0200237 	lui	a8,0x4004
 2002f5c:	06aa6023 	sb	a3,24(a8)
 2002f60:	db80c103 	lw	a9,48(sp)
 2002f64:	06c020e3 	bnez	a9,2002f74 <t1_taskA2_FH_DU+0x11c>
 2002f68:	b0000413 	li	a4,1
 2002f6c:	a8200237 	lui	a3,0x4004
 2002f70:	056c3823 	sb	a4,14(a3)
 2002f74:	eb80d103 	lw	a11,52(sp)
 2002f78:	074030e3 	bnez	a11,2002f90 <t1_taskA2_FH_DU+0x138>
 2002f7c:	a8200237 	lui	a3,0x4004
 2002f80:	0d411023 	sb	zero,196(a3)
 2002f84:	b0000413 	li	a4,1
 2002f88:	a8200237 	lui	a3,0x4004
 2002f8c:	056c3023 	sb	a4,12(a3)
 2002f90:	f380b103 	lw	a12,44(sp)
 2002f94:	078070e3 	bnez	a12,2002fcc <t1_taskA2_FH_DU+0x174>
 2002f98:	b0000813 	li	a4,2
 2002f9c:	f8200237 	lui	a13,0x4004
 2002fa0:	a8000413 	li	a3,1
 2002fa4:	07ec5c23 	sb	a4,23(a13)
 2002fa8:	b0200237 	lui	a4,0x4004
 2002fac:	b8200237 	lui	a5,0x4004
 2002fb0:	05aa5823 	sb	a3,22(a4)
 2002fb4:	b0200237 	lui	a4,0x4004
 2002fb8:	00801023 	sb	zero,4(s0)
 2002fbc:	00801823 	sb	zero,6(s0)
 2002fc0:	0dc0a123 	sw	zero,168(a5)
 2002fc4:	00aa1423 	sb	a3,5(s0)
 2002fc8:	05aa5423 	sb	a3,21(a4)
 2002fcc:	a8000413 	li	a3,1
 2002fd0:	00aa2c23 	sb	a3,11(s0)
 2002fd4:	00aa4423 	sb	a3,17(s0)
 2002fd8:	00aa5023 	sb	a3,20(s0)
 2002fdc:	00aa3823 	sb	a3,14(s0)
 2002fe0:	04302863 	beq	v0,a6,2002ff4 <t1_taskA2_FH_DU+0x19c>
 2002fe4:	a8200237 	lui	a3,0x4004
 2002fe8:	ad40b403 	lb	a3,45(a3)
 2002fec:	054010e3 	bnez	a3,2002ff4 <t1_taskA2_FH_DU+0x19c>
 2002ff0:	0120f823 	sb	v0,62(s2)
 2002ff4:	c0200237 	lui	a6,0x4004
 2002ff8:	c8200237 	lui	a7,0x4004
 2002ffc:	8600cc03 	lb	v0,51(a6)
 2003000:	ae40c803 	lb	a3,50(a7)
 2003004:	05603063 	beq	a3,v0,200301c <t1_taskA2_FH_DU+0x1c4>
 2003008:	a8200237 	lui	a3,0x4004
 200300c:	ad40b403 	lb	a3,45(a3)
 2003010:	05401863 	beqz	a3,200301c <t1_taskA2_FH_DU+0x1c4>
 2003014:	d0200237 	lui	a8,0x4004
 2003018:	06a0d823 	sb	v0,54(a8)
 200301c:	d8200237 	lui	a9,0x4004
 2003020:	8700e403 	lb	v0,57(a10)
 2003024:	aec0dc03 	lb	a3,55(a9)
 2003028:	05602863 	beq	a3,v0,200303c <t1_taskA2_FH_DU+0x1e4>
 200302c:	a8200237 	lui	a3,0x4004
 2003030:	ad40b403 	lb	a3,45(a3)
 2003034:	054010e3 	bnez	a3,200303c <t1_taskA2_FH_DU+0x1e4>
 2003038:	00e0f423 	sb	v0,61(s1)
 200303c:	e8200237 	lui	a11,0x4004
 2003040:	f0200237 	lui	a12,0x4004
 2003044:	8740c403 	lb	v0,49(a11)
 2003048:	af80c003 	lb	a3,48(a12)
 200304c:	05602863 	beq	a3,v0,2003060 <t1_taskA2_FH_DU+0x208>
 2003050:	a8200237 	lui	a3,0x4004
 2003054:	ad40b403 	lb	a3,45(a3)
 2003058:	05401063 	beqz	a3,2003060 <t1_taskA2_FH_DU+0x208>
 200305c:	0720e423 	sb	v0,57(a10)
 2003060:	d8803203 	lbu	a9,12(s0)
 2003064:	d0803e03 	lbu	a8,15(s0)
 2003068:	c8804a03 	lbu	a7,18(s0)
 200306c:	c0805603 	lbu	a6,21(s0)
 2003070:	ba40ba03 	lbu	a5,46(s7)
 2003074:	b0c0f603 	lbu	a4,61(s1)
 2003078:	a980be03 	lbu	a3,47(s4)
 200307c:	8100fa03 	lbu	v0,62(s2)
 2003080:	00b62823 	sb	a9,10(s0)
 2003084:	00b43423 	sb	a8,13(s0)
 2003088:	00b24023 	sb	a7,16(s0)
 200308c:	00b04c23 	sb	a6,19(s0)
 2003090:	02af5823 	sb	a5,86(s8)
 2003094:	03b86123 	sw	a10,24(sp)
 2003098:	022d6023 	sb	a4,88(s6)
 200309c:	01eb6823 	sb	a3,90(s5)
 20030a0:	01617023 	sb	v0,92(s3)
 20030a4:	03a25123 	sw	v1,20(sp)
 20030a8:	03a48123 	sw	a0,32(sp)
 20030ac:	03a64123 	sw	a1,16(sp)
 20030b0:	03a87123 	sw	a2,28(sp)
 20030b4:	fffbe46f 	jal	2002044 <t1_taskA2_generic_KINDERSICHERUNG_CTRL>
 20030b8:	a3807103 	lw	a2,28(sp)
 20030bc:	9b804103 	lw	a1,16(sp)
 20030c0:	f8200237 	lui	a13,0x4004
 20030c4:	80200237 	lui	v0,0x4004
 20030c8:	0fc11a03 	lbu	ra,70(a13)
 20030cc:	93808103 	lw	a0,32(sp)
 20030d0:	fc012603 	lbu	a13,73(v0)
 20030d4:	8b805103 	lw	v1,20(sp)
 20030d8:	f5024103 	lw	a12,144(a2)
 20030dc:	a8200237 	lui	a3,0x4004
 20030e0:	ed410e03 	lbu	a11,67(a3)
 20030e4:	dcc25103 	lw	a9,148(a1)
 20030e8:	d4814203 	lbu	a8,80(a0)
 20030ec:	ac415203 	lbu	a3,84(v1)
 20030f0:	ca815a03 	lbu	a7,86(s8)
 20030f4:	c2016203 	lbu	a6,88(s6)
 20030f8:	b9c16a03 	lbu	a5,90(s5)
 20030fc:	b1417203 	lbu	a4,92(s3)
 2003100:	83414e03 	lbu	v0,83(s11)
 2003104:	02fea423 	sb	a13,41(s9)
 2003108:	f8200237 	lui	a13,0x4004
 200310c:	07fdf123 	sw	a12,124(a13)
 2003110:	f8200237 	lui	a13,0x4004
 2003114:	f0200237 	lui	a12,0x4004
 2003118:	07baec23 	sb	a11,59(a12)
 200311c:	0ff60123 	sw	a9,128(a13)
 2003120:	e8200237 	lui	a11,0x4004
 2003124:	d8200237 	lui	a9,0x4004
 2003128:	f0200237 	lui	a12,0x4004
 200312c:	06f4f023 	sb	a8,60(a9)
 2003130:	076afc23 	sb	a3,63(a11)
 2003134:	07a0b023 	sb	v0,44(a12)
 2003138:	03029823 	sb	ra,38(s10)
 200313c:	0272b823 	sb	a7,46(s7)
 2003140:	00f0f423 	sb	a6,61(s1)
 2003144:	01aebc23 	sb	a5,47(s4)
 2003148:	012cf823 	sb	a4,62(s2)
 200314c:	fffc986f 	jal	20023ac <t1_taskA2_generic_FH_TUERMODUL_CTRL>
 2003150:	a3807103 	lw	a2,28(sp)
 2003154:	9b804103 	lw	a1,16(sp)
 2003158:	f8200237 	lui	a13,0x4004
 200315c:	80200237 	lui	v0,0x4004
 2003160:	0fc11a03 	lbu	ra,70(a13)
 2003164:	93808103 	lw	a0,32(sp)
 2003168:	fc012603 	lbu	a13,73(v0)
 200316c:	8b805103 	lw	v1,20(sp)
 2003170:	f5024103 	lw	a12,144(a2)
 2003174:	a8200237 	lui	a3,0x4004
 2003178:	ed410e03 	lbu	a11,67(a3)
 200317c:	dcc25103 	lw	a9,148(a1)
 2003180:	d4814203 	lbu	a8,80(a0)
 2003184:	ac415203 	lbu	a3,84(v1)
 2003188:	ca815a03 	lbu	a7,86(s8)
 200318c:	c2016203 	lbu	a6,88(s6)
 2003190:	b9c16a03 	lbu	a5,90(s5)
 2003194:	b1417203 	lbu	a4,92(s3)
 2003198:	83414e03 	lbu	v0,83(s11)
 200319c:	02fea423 	sb	a13,41(s9)
 20031a0:	f8200237 	lui	a13,0x4004
 20031a4:	07fdf123 	sw	a12,124(a13)
 20031a8:	f8200237 	lui	a13,0x4004
 20031ac:	f0200237 	lui	a12,0x4004
 20031b0:	07baec23 	sb	a11,59(a12)
 20031b4:	0ff60123 	sw	a9,128(a13)
 20031b8:	e8200237 	lui	a11,0x4004
 20031bc:	d8200237 	lui	a9,0x4004
 20031c0:	f0200237 	lui	a12,0x4004
 20031c4:	06f4f023 	sb	a8,60(a9)
 20031c8:	076afc23 	sb	a3,63(a11)
 20031cc:	07a0b023 	sb	v0,44(a12)
 20031d0:	03029823 	sb	ra,38(s10)
 20031d4:	0272b823 	sb	a7,46(s7)
 20031d8:	00f0f423 	sb	a6,61(s1)
 20031dc:	01aebc23 	sb	a5,47(s4)
 20031e0:	012cf823 	sb	a4,62(s2)
 20031e4:	fffe716f 	jal	2002ba8 <t1_taskA2_generic_EINKLEMMSCHUTZ_CTRL>
 20031e8:	a3807103 	lw	a2,28(sp)
 20031ec:	9b804103 	lw	a1,16(sp)
 20031f0:	f8200237 	lui	a13,0x4004
 20031f4:	80200237 	lui	v0,0x4004
 20031f8:	0fc11a03 	lbu	ra,70(a13)
 20031fc:	93808103 	lw	a0,32(sp)
 2003200:	fc012603 	lbu	a13,73(v0)
 2003204:	8b805103 	lw	v1,20(sp)
 2003208:	f5024103 	lw	a12,144(a2)
 200320c:	a8200237 	lui	a3,0x4004
 2003210:	ed410e03 	lbu	a11,67(a3)
 2003214:	dcc25103 	lw	a9,148(a1)
 2003218:	d4814203 	lbu	a8,80(a0)
 200321c:	ac415203 	lbu	a3,84(v1)
 2003220:	ca815a03 	lbu	a7,86(s8)
 2003224:	c2016203 	lbu	a6,88(s6)
 2003228:	b9c16a03 	lbu	a5,90(s5)
 200322c:	b1417203 	lbu	a4,92(s3)
 2003230:	83414e03 	lbu	v0,83(s11)
 2003234:	02fea423 	sb	a13,41(s9)
 2003238:	f8200237 	lui	a13,0x4004
 200323c:	07fdf123 	sw	a12,124(a13)
 2003240:	f8200237 	lui	a13,0x4004
 2003244:	f0200237 	lui	a12,0x4004
 2003248:	07baec23 	sb	a11,59(a12)
 200324c:	0ff60123 	sw	a9,128(a13)
 2003250:	e8200237 	lui	a11,0x4004
 2003254:	d8200237 	lui	a9,0x4004
 2003258:	f0200237 	lui	a12,0x4004
 200325c:	06f4f023 	sb	a8,60(a9)
 2003260:	076afc23 	sb	a3,63(a11)
 2003264:	07a0b023 	sb	v0,44(a12)
 2003268:	0272b823 	sb	a7,46(s7)
 200326c:	00f0f423 	sb	a6,61(s1)
 2003270:	01aebc23 	sb	a5,47(s4)
 2003274:	012cf823 	sb	a4,62(s2)
 2003278:	03029823 	sb	ra,38(s10)
 200327c:	fffe776f 	jal	2002c58 <t1_taskA2_generic_BLOCK_ERKENNUNG_CTRL>
 2003280:	d0803403 	lb	a8,13(s0)
 2003284:	d8804003 	lb	a9,16(s0)
 2003288:	a3807103 	lw	a2,28(sp)
 200328c:	c8802803 	lb	a7,10(s0)
 2003290:	f8200237 	lui	a13,0x4004
 2003294:	afc10c03 	lb	a3,67(a13)
 2003298:	b2815803 	lb	a4,86(s8)
 200329c:	f8804c03 	lb	a13,19(s0)
 20032a0:	9b804103 	lw	a1,16(sp)
 20032a4:	85024103 	lw	v0,144(a2)
 20032a8:	ba016003 	lb	a5,88(s6)
 20032ac:	93808103 	lw	a0,32(sp)
 20032b0:	03b4b123 	sw	a8,44(sp)
 20032b4:	03b6c123 	sw	a9,48(sp)
 20032b8:	d0200237 	lui	a8,0x4004
 20032bc:	d8200237 	lui	a9,0x4004
 20032c0:	03b2a123 	sw	a7,40(sp)
 20032c4:	ce82a103 	lw	a7,168(a8)
 20032c8:	d6c21103 	lw	a8,132(a9)
 20032cc:	d8200237 	lui	a9,0x4004
 20032d0:	03ace123 	sw	a4,56(sp)
 20032d4:	03bed123 	sw	a13,52(sp)
 20032d8:	b4c25103 	lw	a4,148(a1)
 20032dc:	fec1b103 	lw	a13,108(a9)
 20032e0:	d8200237 	lui	a9,0x4004
 20032e4:	03ae3123 	sw	a5,12(sp)
 20032e8:	06e1f123 	sw	v0,124(a9)
 20032ec:	bc814203 	lbu	a5,80(a0)
 20032f0:	d8200237 	lui	a9,0x4004
 20032f4:	06eaec23 	sb	a3,59(a9)
 20032f8:	d8200237 	lui	a9,0x4004
 20032fc:	0eec0123 	sw	a4,128(a9)
 2003300:	8b805103 	lw	v1,20(sp)
 2003304:	b0200237 	lui	a4,0x4004
 2003308:	05aef023 	sb	a5,60(a4)
 200330c:	db803103 	lw	a9,12(sp)
 2003310:	bb80e103 	lw	a5,56(sp)
 2003314:	c4415203 	lbu	a6,84(v1)
 2003318:	e9c16803 	lb	a11,90(s5)
 200331c:	f1417003 	lb	a12,92(s3)
 2003320:	026eb823 	sb	a5,46(s7)
 2003324:	00f6f423 	sb	a9,61(s1)
 2003328:	bb80a103 	lw	a5,40(sp)
 200332c:	db80c103 	lw	a9,48(sp)
 2003330:	b0200237 	lui	a4,0x4004
 2003334:	05b0fc23 	sb	a6,63(a4)
 2003338:	c380b103 	lw	a6,44(sp)
 200333c:	00ae2c23 	sb	a5,11(s0)
 2003340:	b8200237 	lui	a5,0x4004
 2003344:	00b64423 	sb	a9,17(s0)
 2003348:	b380d103 	lw	a4,52(sp)
 200334c:	0df28123 	sw	a7,160(a5)
 2003350:	d8200237 	lui	a9,0x4004
 2003354:	c8200237 	lui	a7,0x4004
 2003358:	00b03823 	sb	a6,14(s0)
 200335c:	0e742123 	sw	a8,136(a7)
 2003360:	06ff9123 	sw	a13,100(a9)
 2003364:	c0200237 	lui	a6,0x4004
 2003368:	d0200237 	lui	a8,0x4004
 200336c:	f8200237 	lui	a13,0x4004
 2003370:	dfc14803 	lb	a9,82(a13)
 2003374:	0e203123 	sw	v0,140(a6)
 2003378:	06a1e123 	sw	v0,120(a8)
 200337c:	b8200237 	lui	a5,0x4004
 2003380:	80200237 	lui	v0,0x4004
 2003384:	f8200237 	lui	a13,0x4004
 2003388:	d4013803 	lb	a8,78(v0)
 200338c:	c5c12003 	lb	a6,72(a5)
 2003390:	00ac5023 	sb	a4,20(s0)
 2003394:	bfc11403 	lb	a5,69(a13)
 2003398:	b0200237 	lui	a4,0x4004
 200339c:	80200237 	lui	v0,0x4004
 20033a0:	f8200237 	lui	a13,0x4004
 20033a4:	cd812c03 	lb	a7,75(a4)
 20033a8:	b400ac03 	lb	a4,43(v0)
 20033ac:	87c0d803 	lb	v0,54(a13)
 20033b0:	f8200237 	lui	a13,0x4004
 20033b4:	ffc0ce03 	lbu	a13,51(a13)
 20033b8:	013cf823 	sb	a12,62(s2)
 20033bc:	01babc23 	sb	a11,47(s4)
 20033c0:	03be9c23 	sb	a13,39(sp)
 20033c4:	f8200237 	lui	a13,0x4004
 20033c8:	ffc0c603 	lbu	a13,49(a13)
 20033cc:	e3806103 	lw	a10,24(sp)
 20033d0:	03be9823 	sb	a13,38(sp)
 20033d4:	f8200237 	lui	a13,0x4004
 20033d8:	ffc0a003 	lb	a13,40(a13)
 20033dc:	03bef123 	sw	a13,60(sp)
 20033e0:	f8200237 	lui	a13,0x4004
 20033e4:	07fd6c23 	sb	a12,91(a13)
 20033e8:	f0200237 	lui	a12,0x4004
 20033ec:	07bb6423 	sb	a11,89(a12)
 20033f0:	eb803103 	lw	a11,12(sp)
 20033f4:	f8200237 	lui	a13,0x4004
 20033f8:	f0200237 	lui	a12,0x4004
 20033fc:	07fb5c23 	sb	a11,87(a13)
 2003400:	fb80e103 	lw	a13,56(sp)
 2003404:	e8200237 	lui	a11,0x4004
 2003408:	07774423 	sb	a9,81(a11)
 200340c:	07bf5423 	sb	a13,85(a12)
 2003410:	f0200237 	lui	a12,0x4004
 2003414:	f8200237 	lui	a13,0x4004
 2003418:	07b53c23 	sb	a8,79(a12)
 200341c:	07f53423 	sb	a8,77(a13)
 2003420:	e8200237 	lui	a11,0x4004
 2003424:	d0200237 	lui	a8,0x4004
 2003428:	03774c23 	sb	a9,83(s11)
 200342c:	d8200237 	lui	a9,0x4004
 2003430:	06b33023 	sb	a7,76(a8)
 2003434:	06f32823 	sb	a7,74(a9)
 2003438:	07712423 	sb	a6,73(a11)
 200343c:	c8200237 	lui	a7,0x4004
 2003440:	d0200237 	lui	a8,0x4004
 2003444:	ef00e603 	lbu	a11,57(a10)
 2003448:	f0200237 	lui	a12,0x4004
 200344c:	066b0823 	sb	a3,66(a7)
 2003450:	06aae823 	sb	a3,58(a8)
 2003454:	ab809e03 	lbu	a3,39(sp)
 2003458:	07b11c23 	sb	a6,71(a12)
 200345c:	f8200237 	lui	a13,0x4004
 2003460:	c0200237 	lui	a6,0x4004
 2003464:	d8200237 	lui	a9,0x4004
 2003468:	f0200237 	lui	a12,0x4004
 200346c:	07ef1823 	sb	a5,70(a13)
 2003470:	062f1023 	sb	a5,68(a6)
 2003474:	06fadc23 	sb	a11,55(a9)
 2003478:	f8200237 	lui	a13,0x4004
 200347c:	07a0d023 	sb	v0,52(a12)
 2003480:	c3809a03 	lbu	a6,38(sp)
 2003484:	c8200237 	lui	a7,0x4004
 2003488:	d0200237 	lui	a8,0x4004
 200348c:	e8200237 	lui	a11,0x4004
 2003490:	f0200237 	lui	a12,0x4004
 2003494:	07eac823 	sb	a3,50(a13)
 2003498:	db80f103 	lw	a9,60(sp)
 200349c:	af409403 	lb	a3,37(a11)
 20034a0:	066cb023 	sb	a4,44(a7)
 20034a4:	06aca823 	sb	a4,42(a8)
 20034a8:	b7807403 	lb	a4,29(a12)
 20034ac:	b8200237 	lui	a5,0x4004
 20034b0:	05f0c023 	sb	a6,48(a5)
 20034b4:	f8200237 	lui	a13,0x4004
 20034b8:	b8200237 	lui	a5,0x4004
 20034bc:	02f6a423 	sb	a9,41(s9)
 20034c0:	07f69c23 	sb	a9,39(a13)
 20034c4:	032a9823 	sb	a3,38(s10)
 20034c8:	05ea9023 	sb	a3,36(a5)
 20034cc:	0d8000e3 	bnez	a4,20035cc <t1_taskA2_FH_DU+0x774>
 20034d0:	c4000013 	move	a6,v0
 20034d4:	d0200237 	lui	a8,0x4004
 20034d8:	be807203 	lbu	a5,28(a8)
 20034dc:	d8200237 	lui	a9,0x4004
 20034e0:	aec03c03 	lb	a3,15(a9)
 20034e4:	b0000413 	li	a4,1
 20034e8:	bdc00413 	add	a5,a5,1
 20034ec:	e8200237 	lui	a11,0x4004
 20034f0:	f0000813 	li	a12,2
 20034f4:	076c7423 	sb	a4,29(a11)
 20034f8:	06ae7023 	sb	a5,28(a8)
 20034fc:	d57c48e3 	bne	a3,a12,2002f20 <t1_taskA2_FH_DU+0xc8>
 2003500:	aac0a403 	lb	a3,41(s9)
 2003504:	05412063 	beqz	a3,2003594 <t1_taskA2_FH_DU+0x73c>
 2003508:	d0200237 	lui	a8,0x4004
 200350c:	ae809c03 	lb	a3,39(a8)
 2003510:	054108e3 	bnez	a3,2003594 <t1_taskA2_FH_DU+0x73c>
 2003514:	d8200237 	lui	a9,0x4004
 2003518:	a83e7013 	li	a3,-100
 200351c:	e8200237 	lui	a11,0x4004
 2003520:	f0200237 	lui	a12,0x4004
 2003524:	06c07423 	sb	zero,29(a9)
 2003528:	0f6a2123 	sw	a3,136(a11)
 200352c:	07ac3c23 	sb	a4,15(a12)
 2003530:	fffe8767 	j	2002f4c <t1_taskA2_FH_DU+0xf4>
 2003534:	ab009803 	lb	a3,38(s10)
 2003538:	d54028e3 	bnez	a3,2002f4c <t1_taskA2_FH_DU+0xf4>
 200353c:	c8200237 	lui	a7,0x4004
 2003540:	ae409003 	lb	a3,36(a7)
 2003544:	d5401063 	beqz	a3,2002f4c <t1_taskA2_FH_DU+0xf4>
 2003548:	d0200237 	lui	a8,0x4004
 200354c:	d8200237 	lui	a9,0x4004
 2003550:	f0000813 	li	a12,2
 2003554:	e8200237 	lui	a11,0x4004
 2003558:	06807423 	sb	zero,29(a8)
 200355c:	0ec02123 	sw	zero,136(a9)
 2003560:	077c3c23 	sb	a12,15(a11)
 2003564:	fffe7a67 	j	2002f4c <t1_taskA2_FH_DU+0xf4>
 2003568:	aac0a403 	lb	a3,41(s9)
 200356c:	cd41c0e3 	bnez	a3,2002f4c <t1_taskA2_FH_DU+0xf4>
 2003570:	f8200237 	lui	a13,0x4004
 2003574:	afc09c03 	lb	a3,39(a13)
 2003578:	cd41a863 	beqz	a3,2002f4c <t1_taskA2_FH_DU+0xf4>
 200357c:	b0200237 	lui	a4,0x4004
 2003580:	c8000813 	li	a7,2
 2003584:	07407423 	sb	zero,29(a11)
 2003588:	0d802123 	sw	zero,136(a4)
 200358c:	06f23c23 	sb	a7,15(a9)
 2003590:	fffe6f67 	j	2002f4c <t1_taskA2_FH_DU+0xf4>
 2003594:	ab009803 	lb	a3,38(s10)
 2003598:	cd416863 	beqz	a3,2002f4c <t1_taskA2_FH_DU+0xf4>
 200359c:	f8200237 	lui	a13,0x4004
 20035a0:	afc09003 	lb	a3,36(a13)
 20035a4:	cd4150e3 	bnez	a3,2002f4c <t1_taskA2_FH_DU+0xf4>
 20035a8:	a8200237 	lui	a3,0x4004
 20035ac:	05407423 	sb	zero,29(a3)
 20035b0:	b0200237 	lui	a4,0x4004
 20035b4:	a8019013 	li	a3,100
 20035b8:	0daa2123 	sw	a3,136(a4)
 20035bc:	b8200237 	lui	a5,0x4004
 20035c0:	a8000c13 	li	a3,3
 20035c4:	05ea3c23 	sb	a3,15(a5)
 20035c8:	fffe6167 	j	2002f4c <t1_taskA2_FH_DU+0xf4>
 20035cc:	0b81d103 	lw	ra,116(sp)
 20035d0:	1381c103 	lw	s0,112(sp)
 20035d4:	1b81b103 	lw	s1,108(sp)
 20035d8:	2381a103 	lw	s2,104(sp)
 20035dc:	2b819103 	lw	s3,100(sp)
 20035e0:	33818103 	lw	s4,96(sp)
 20035e4:	3b817103 	lw	s5,92(sp)
 20035e8:	43816103 	lw	s6,88(sp)
 20035ec:	4b815103 	lw	s7,84(sp)
 20035f0:	53814103 	lw	s8,80(sp)
 20035f4:	5b813103 	lw	s9,76(sp)
 20035f8:	63812103 	lw	s10,72(sp)
 20035fc:	6b811103 	lw	s11,68(sp)
 2003600:	7381e013 	add	sp,sp,120
 2003604:	004000eb 	ret

02003608 <t1_taskA2_main>:
 2003608:	73bfe013 	add	sp,sp,-8
 200360c:	03840123 	sw	s0,0(sp)
 2003610:	03821123 	sw	ra,4(sp)
 2003614:	1002b413 	li	s0,173
 2003618:	10bffc13 	add	s0,s0,-1
 200361c:	fffa636f 	jal	2001fa8 <t1_taskA2_init>
 2003620:	fffa006f 	jal	2001e20 <t1_taskA2_interface>
 2003624:	fffe0d6f 	jal	2002e58 <t1_taskA2_FH_DU>
 2003628:	f881e0e3 	bnez	s0,2003618 <t1_taskA2_main+0x10>
 200362c:	0b801103 	lw	ra,4(sp)
 2003630:	80000013 	li	v0,0
 2003634:	13800103 	lw	s0,0(sp)
 2003638:	73802013 	add	sp,sp,8
 200363c:	004000eb 	ret

02003640 <t2_exception_proxy>:
 2003640:	73bfe013 	add	sp,sp,-8
 2003644:	03821123 	sw	ra,4(sp)
 2003648:	7840017b 	mfpcr	tp,cr1
 200364c:	73bef013 	add	sp,sp,-68
 2003650:	039e1123 	sw	tp,4(sp)
 2003654:	03a02123 	sw	v0,8(sp)
 2003658:	03a23123 	sw	v1,12(sp)
 200365c:	03a44123 	sw	a0,16(sp)
 2003660:	03a65123 	sw	a1,20(sp)
 2003664:	03a86123 	sw	a2,24(sp)
 2003668:	03aa7123 	sw	a3,28(sp)
 200366c:	03ac8123 	sw	a4,32(sp)
 2003670:	03ae9123 	sw	a5,36(sp)
 2003674:	03b0a123 	sw	a6,40(sp)
 2003678:	03b2b123 	sw	a7,44(sp)
 200367c:	03b4c123 	sw	a8,48(sp)
 2003680:	03b6d123 	sw	a9,52(sp)
 2003684:	03b8e123 	sw	a10,56(sp)
 2003688:	03baf123 	sw	a11,60(sp)
 200368c:	03bd0123 	sw	a12,64(sp)
 2003690:	03bf1123 	sw	a13,68(sp)
 2003694:	80200437 	lui	v0,0x4008
 2003698:	84002103 	lw	v0,8(v0)
 200369c:	0c00006b 	jalr	v0
 20036a0:	7b801103 	lw	tp,4(sp)
 20036a4:	83802103 	lw	v0,8(sp)
 20036a8:	8b803103 	lw	v1,12(sp)
 20036ac:	93804103 	lw	a0,16(sp)
 20036b0:	9b805103 	lw	a1,20(sp)
 20036b4:	a3806103 	lw	a2,24(sp)
 20036b8:	ab807103 	lw	a3,28(sp)
 20036bc:	b3808103 	lw	a4,32(sp)
 20036c0:	bb809103 	lw	a5,36(sp)
 20036c4:	c380a103 	lw	a6,40(sp)
 20036c8:	cb80b103 	lw	a7,44(sp)
 20036cc:	d380c103 	lw	a8,48(sp)
 20036d0:	db80d103 	lw	a9,52(sp)
 20036d4:	e380e103 	lw	a10,56(sp)
 20036d8:	eb80f103 	lw	a11,60(sp)
 20036dc:	f3810103 	lw	a12,64(sp)
 20036e0:	fb811103 	lw	a13,68(sp)
 20036e4:	73811013 	add	sp,sp,68
 20036e8:	0b801103 	lw	ra,4(sp)
 20036ec:	73802013 	add	sp,sp,8
 20036f0:	03c0016b 	jr	tp
 20036f4:	0b801103 	lw	ra,4(sp)
 20036f8:	73802013 	add	sp,sp,8
 20036fc:	004000eb 	ret

02003700 <t2_main>:
 2003700:	73bf6013 	add	sp,sp,-40
 2003704:	03886123 	sw	s2,24(sp)
 2003708:	20000c37 	lui	s2,0x18
 200370c:	03829123 	sw	ra,36(sp)
 2003710:	03848123 	sw	s0,32(sp)
 2003714:	03867123 	sw	s1,28(sp)
 2003718:	038a5123 	sw	s3,20(sp)
 200371c:	038c4123 	sw	s4,16(sp)
 2003720:	038e3123 	sw	s5,12(sp)
 2003724:	03902123 	sw	s6,8(sp)
 2003728:	03921123 	sw	s7,4(sp)
 200372c:	211a8013 	add	s2,s2,1696
 2003730:	80000013 	li	v0,0
 2003734:	1c000013 	move	s1,v0
 2003738:	11000013 	move	s0,s2
 200373c:	00c4015b 	0xc4015b
 2003740:	42800037 	lui	s6,0x50000
 2003744:	302faf37 	lui	s4,0x5f5e
 2003748:	4a000c13 	add	s7,s6,3
 200374c:	28000013 	li	s3,0
 2003750:	3c000037 	lui	s5,0x80000
 2003754:	42003413 	add	s6,s6,13
 2003758:	31840013 	add	s4,s4,256
 200375c:	879201fb 	mtpcr	v0,s7,cr30
 2003760:	1000005b 	0x1000005b
 2003764:	80800013 	move	v0,s0
 2003768:	840e0333 	or	v0,v0,s5
 200376c:	87a001fb 	mtpcr	v0,v0,cr30
 2003770:	0006076f 	jal	2004f8c <t2_taskA3_main>
 2003774:	879001fb 	mtpcr	v0,s6,cr30
 2003778:	1000005b 	0x1000005b
 200377c:	80800013 	move	v0,s0
 2003780:	840e0333 	or	v0,v0,s5
 2003784:	87a001fb 	mtpcr	v0,v0,cr30
 2003788:	210c0033 	add	s2,s2,s4
 200378c:	810c01b3 	sltu	v0,s2,s4
 2003790:	29600033 	add	s3,s3,v0
 2003794:	19400013 	move	s1,s3
 2003798:	11000013 	move	s0,s2
 200379c:	00c4015b 	0xc4015b
 20037a0:	ffffef67 	j	200375c <t2_main+0x5c>

020037a4 <t2_taskA3_interface>:
 20037a4:	80200437 	lui	v0,0x4008
 20037a8:	8c031013 	add	v1,v0,196
 20037ac:	94401003 	lb	a0,4(v1)
 20037b0:	0c805063 	beqz	a0,20038d8 <t2_taskA3_interface+0x134>
 20037b4:	88200437 	lui	v1,0x4008
 20037b8:	8c408103 	lw	v1,32(v1)
 20037bc:	90200437 	lui	a0,0x4008
 20037c0:	0ca2e123 	sw	v1,184(a0)
 20037c4:	90200437 	lui	a0,0x4008
 20037c8:	0ca2f123 	sw	v1,188(a0)
 20037cc:	90200437 	lui	a0,0x4008
 20037d0:	8c82d103 	lw	v1,180(a0)
 20037d4:	04404863 	beqz	v1,20037f8 <t2_taskA3_interface+0x54>
 20037d8:	98200437 	lui	a1,0x4008
 20037dc:	9cc08103 	lw	a1,32(a1)
 20037e0:	8ce30033 	sub	v1,a1,v1
 20037e4:	8c40f0d3 	fcvt.d.wu	fv1,v1
 20037e8:	88200037 	lui	v1,0x4000
 20037ec:	84400187 	fld	fv0,0(v1)
 20037f0:	8c2370d3 	fle.d	v1,fv0,fv1
 20037f4:	0c4050e3 	bnez	v1,200391c <t2_taskA3_interface+0x178>
 20037f8:	90200437 	lui	a0,0x4008
 20037fc:	8c82c103 	lw	v1,176(a0)
 2003800:	04404863 	beqz	v1,2003824 <t2_taskA3_interface+0x80>
 2003804:	98200437 	lui	a1,0x4008
 2003808:	9cc08103 	lw	a1,32(a1)
 200380c:	8ce30033 	sub	v1,a1,v1
 2003810:	8c40f0d3 	fcvt.d.wu	fv1,v1
 2003814:	88200037 	lui	v1,0x4000
 2003818:	84400187 	fld	fv0,0(v1)
 200381c:	8c2370d3 	fle.d	v1,fv0,fv1
 2003820:	0441d8e3 	bnez	v1,200390c <t2_taskA3_interface+0x168>
 2003824:	90200437 	lui	a0,0x4008
 2003828:	8c82b103 	lw	v1,172(a0)
 200382c:	04404863 	beqz	v1,2003850 <t2_taskA3_interface+0xac>
 2003830:	98200437 	lui	a1,0x4008
 2003834:	9cc08103 	lw	a1,32(a1)
 2003838:	8ce30033 	sub	v1,a1,v1
 200383c:	8c40f0d3 	fcvt.d.wu	fv1,v1
 2003840:	88200037 	lui	v1,0x4000
 2003844:	84400187 	fld	fv0,0(v1)
 2003848:	8c2370d3 	fle.d	v1,fv0,fv1
 200384c:	044160e3 	bnez	v1,20038fc <t2_taskA3_interface+0x158>
 2003850:	90200437 	lui	a0,0x4008
 2003854:	8c827103 	lw	v1,156(a0)
 2003858:	04404863 	beqz	v1,200387c <t2_taskA3_interface+0xd8>
 200385c:	98200437 	lui	a1,0x4008
 2003860:	9cc08103 	lw	a1,32(a1)
 2003864:	8ce30033 	sub	v1,a1,v1
 2003868:	8c40f0d3 	fcvt.d.wu	fv1,v1
 200386c:	88200037 	lui	v1,0x4000
 2003870:	84400187 	fld	fv0,0(v1)
 2003874:	8c2370d3 	fle.d	v1,fv0,fv1
 2003878:	0440f8e3 	bnez	v1,20038f4 <t2_taskA3_interface+0x150>
 200387c:	90200437 	lui	a0,0x4008
 2003880:	8c826103 	lw	v1,152(a0)
 2003884:	04404863 	beqz	v1,20038a8 <t2_taskA3_interface+0x104>
 2003888:	98200437 	lui	a1,0x4008
 200388c:	9cc08103 	lw	a1,32(a1)
 2003890:	8ce30033 	sub	v1,a1,v1
 2003894:	8c40f0d3 	fcvt.d.wu	fv1,v1
 2003898:	88200037 	lui	v1,0x4000
 200389c:	84400187 	fld	fv0,0(v1)
 20038a0:	8c2370d3 	fle.d	v1,fv0,fv1
 20038a4:	044090e3 	bnez	v1,20038ec <t2_taskA3_interface+0x148>
 20038a8:	84031003 	lb	v0,196(v0)
 20038ac:	040030e3 	bnez	v0,20038c4 <t2_taskA3_interface+0x120>
 20038b0:	80200437 	lui	v0,0x4008
 20038b4:	8c01b103 	lw	v1,108(v0)
 20038b8:	80200437 	lui	v0,0x4008
 20038bc:	84019103 	lw	v0,100(v0)
 20038c0:	04602863 	beq	v1,v0,20038d4 <t2_taskA3_interface+0x130>
 20038c4:	80200437 	lui	v0,0x4008
 20038c8:	8c008103 	lw	v1,32(v0)
 20038cc:	80200437 	lui	v0,0x4008
 20038d0:	0c230123 	sw	v1,192(v0)
 20038d4:	004000eb 	ret
 20038d8:	8c401803 	lb	v1,6(v1)
 20038dc:	f441e063 	beqz	v1,20037cc <t2_taskA3_interface+0x28>
 20038e0:	88200437 	lui	v1,0x4008
 20038e4:	8c408103 	lw	v1,32(v1)
 20038e8:	ffffb767 	j	20037c4 <t2_taskA3_interface+0x20>
 20038ec:	0c806123 	sw	zero,152(a0)
 20038f0:	ffffee67 	j	20038a8 <t2_taskA3_interface+0x104>
 20038f4:	0c807123 	sw	zero,156(a0)
 20038f8:	ffffe167 	j	200387c <t2_taskA3_interface+0xd8>
 20038fc:	88200437 	lui	v1,0x4008
 2003900:	04412023 	sb	zero,72(v1)
 2003904:	0c80b123 	sw	zero,172(a0)
 2003908:	ffffd267 	j	2003850 <t2_taskA3_interface+0xac>
 200390c:	88200437 	lui	v1,0x4008
 2003910:	04412023 	sb	zero,72(v1)
 2003914:	0c80c123 	sw	zero,176(a0)
 2003918:	ffffc367 	j	2003824 <t2_taskA3_interface+0x80>
 200391c:	88200437 	lui	v1,0x4008
 2003920:	04411423 	sb	zero,69(v1)
 2003924:	0c80d123 	sw	zero,180(a0)
 2003928:	ffffb467 	j	20037f8 <t2_taskA3_interface+0x54>

0200392c <t2_taskA3_init>:
 200392c:	80200437 	lui	v0,0x4008
 2003930:	0c010123 	sw	zero,192(v0)
 2003934:	80200437 	lui	v0,0x4008
 2003938:	0c00f123 	sw	zero,188(v0)
 200393c:	80200437 	lui	v0,0x4008
 2003940:	0c00e123 	sw	zero,184(v0)
 2003944:	80200437 	lui	v0,0x4008
 2003948:	04006c23 	sb	zero,27(v0)
 200394c:	80200437 	lui	v0,0x4008
 2003950:	04006823 	sb	zero,26(v0)
 2003954:	80200437 	lui	v0,0x4008
 2003958:	04006423 	sb	zero,25(v0)
 200395c:	80200437 	lui	v0,0x4008
 2003960:	04006023 	sb	zero,24(v0)
 2003964:	80200437 	lui	v0,0x4008
 2003968:	04005c23 	sb	zero,23(v0)
 200396c:	80200437 	lui	v0,0x4008
 2003970:	04005823 	sb	zero,22(v0)
 2003974:	80200437 	lui	v0,0x4008
 2003978:	04005423 	sb	zero,21(v0)
 200397c:	80200437 	lui	v0,0x4008
 2003980:	04005023 	sb	zero,20(v0)
 2003984:	80200437 	lui	v0,0x4008
 2003988:	04004c23 	sb	zero,19(v0)
 200398c:	80200437 	lui	v0,0x4008
 2003990:	04004823 	sb	zero,18(v0)
 2003994:	80200437 	lui	v0,0x4008
 2003998:	04004423 	sb	zero,17(v0)
 200399c:	80200437 	lui	v0,0x4008
 20039a0:	04004023 	sb	zero,16(v0)
 20039a4:	80200437 	lui	v0,0x4008
 20039a8:	04003c23 	sb	zero,15(v0)
 20039ac:	80200437 	lui	v0,0x4008
 20039b0:	04003823 	sb	zero,14(v0)
 20039b4:	80200437 	lui	v0,0x4008
 20039b8:	04003423 	sb	zero,13(v0)
 20039bc:	80200437 	lui	v0,0x4008
 20039c0:	04003023 	sb	zero,12(v0)
 20039c4:	004000eb 	ret

020039c8 <t2_taskA3_generic_KINDERSICHERUNG_CTRL>:
 20039c8:	80200437 	lui	v0,0x4008
 20039cc:	84033803 	lb	v0,206(v0)
 20039d0:	04006063 	beqz	v0,2003a00 <t2_taskA3_generic_KINDERSICHERUNG_CTRL+0x38>
 20039d4:	88200437 	lui	v1,0x4008
 20039d8:	84406003 	lb	v0,24(v1)
 20039dc:	90000813 	li	a0,2
 20039e0:	04244863 	beq	v0,a0,2003a04 <t2_taskA3_generic_KINDERSICHERUNG_CTRL+0x3c>
 20039e4:	98000c13 	li	a1,3
 20039e8:	0427a863 	beq	v0,a1,2003abc <t2_taskA3_generic_KINDERSICHERUNG_CTRL+0xf4>
 20039ec:	90000413 	li	a0,1
 20039f0:	04249063 	beq	v0,a0,2003a38 <t2_taskA3_generic_KINDERSICHERUNG_CTRL+0x70>
 20039f4:	80200437 	lui	v0,0x4008
 20039f8:	04007423 	sb	zero,29(v0)
 20039fc:	04666023 	sb	a1,24(v1)
 2003a00:	004000eb 	ret
 2003a04:	80200437 	lui	v0,0x4008
 2003a08:	84015803 	lb	v0,86(v0)
 2003a0c:	040020e3 	bnez	v0,2003a1c <t2_taskA3_generic_KINDERSICHERUNG_CTRL+0x54>
 2003a10:	90200437 	lui	a0,0x4008
 2003a14:	94816803 	lb	a0,90(a0)
 2003a18:	1480d863 	beqz	a0,2003c84 <t2_taskA3_generic_KINDERSICHERUNG_CTRL+0x2bc>
 2003a1c:	88200437 	lui	v1,0x4008
 2003a20:	94406403 	lb	a0,25(v1)
 2003a24:	98000413 	li	a1,1
 2003a28:	0ca61863 	beq	a0,a1,2003b34 <t2_taskA3_generic_KINDERSICHERUNG_CTRL+0x16c>
 2003a2c:	80200437 	lui	v0,0x4008
 2003a30:	04007423 	sb	zero,29(v0)
 2003a34:	004000eb 	ret
 2003a38:	80200437 	lui	v0,0x4008
 2003a3c:	84016003 	lb	v0,88(v0)
 2003a40:	040020e3 	bnez	v0,2003a50 <t2_taskA3_generic_KINDERSICHERUNG_CTRL+0x88>
 2003a44:	90200437 	lui	a0,0x4008
 2003a48:	94817003 	lb	a0,92(a0)
 2003a4c:	14802063 	beqz	a0,2003c5c <t2_taskA3_generic_KINDERSICHERUNG_CTRL+0x294>
 2003a50:	88200437 	lui	v1,0x4008
 2003a54:	94406803 	lb	a0,26(v1)
 2003a58:	98000413 	li	a1,1
 2003a5c:	fca7a0e3 	bne	a0,a1,2003a2c <t2_taskA3_generic_KINDERSICHERUNG_CTRL+0x64>
 2003a60:	04005063 	beqz	v0,2003a88 <t2_taskA3_generic_KINDERSICHERUNG_CTRL+0xc0>
 2003a64:	98200437 	lui	a1,0x4008
 2003a68:	9cc15c03 	lb	a1,87(a1)
 2003a6c:	04c038e3 	bnez	a1,2003a88 <t2_taskA3_generic_KINDERSICHERUNG_CTRL+0xc0>
 2003a70:	80200437 	lui	v0,0x4008
 2003a74:	04007423 	sb	zero,29(v0)
 2003a78:	80200437 	lui	v0,0x4008
 2003a7c:	04252c23 	sb	a0,75(v0)
 2003a80:	04646823 	sb	a0,26(v1)
 2003a84:	004000eb 	ret
 2003a88:	90200437 	lui	a0,0x4008
 2003a8c:	94817003 	lb	a0,92(a0)
 2003a90:	0c80a863 	beqz	a0,2003be4 <t2_taskA3_generic_KINDERSICHERUNG_CTRL+0x21c>
 2003a94:	98200437 	lui	a1,0x4008
 2003a98:	9cc16c03 	lb	a1,91(a1)
 2003a9c:	0cc090e3 	bnez	a1,2003be4 <t2_taskA3_generic_KINDERSICHERUNG_CTRL+0x21c>
 2003aa0:	90200437 	lui	a0,0x4008
 2003aa4:	80000413 	li	v0,1
 2003aa8:	04807423 	sb	zero,29(a0)
 2003aac:	90200437 	lui	a0,0x4008
 2003ab0:	04a13823 	sb	v0,78(a0)
 2003ab4:	04606823 	sb	v0,26(v1)
 2003ab8:	004000eb 	ret
 2003abc:	80200437 	lui	v0,0x4008
 2003ac0:	84015003 	lb	v0,84(v0)
 2003ac4:	040070e3 	bnez	v0,2003afc <t2_taskA3_generic_KINDERSICHERUNG_CTRL+0x134>
 2003ac8:	98200437 	lui	a1,0x4008
 2003acc:	9cc16803 	lb	a1,90(a1)
 2003ad0:	04c1d863 	beqz	a1,2003bbc <t2_taskA3_generic_KINDERSICHERUNG_CTRL+0x1f4>
 2003ad4:	80200437 	lui	v0,0x4008
 2003ad8:	84015803 	lb	v0,86(v0)
 2003adc:	140060e3 	bnez	v0,2003d0c <t2_taskA3_generic_KINDERSICHERUNG_CTRL+0x344>
 2003ae0:	80200437 	lui	v0,0x4008
 2003ae4:	04007423 	sb	zero,29(v0)
 2003ae8:	98000413 	li	a1,1
 2003aec:	80200437 	lui	v0,0x4008
 2003af0:	04273823 	sb	a1,78(v0)
 2003af4:	04646023 	sb	a0,24(v1)
 2003af8:	004000eb 	ret
 2003afc:	90200437 	lui	a0,0x4008
 2003b00:	94817003 	lb	a0,92(a0)
 2003b04:	048118e3 	bnez	a0,2003b90 <t2_taskA3_generic_KINDERSICHERUNG_CTRL+0x1c8>
 2003b08:	90200437 	lui	a0,0x4008
 2003b0c:	94816003 	lb	a0,88(a0)
 2003b10:	f481e063 	beqz	a0,2003a00 <t2_taskA3_generic_KINDERSICHERUNG_CTRL+0x38>
 2003b14:	f401d8e3 	bnez	v0,2003a00 <t2_taskA3_generic_KINDERSICHERUNG_CTRL+0x38>
 2003b18:	90200437 	lui	a0,0x4008
 2003b1c:	80000413 	li	v0,1
 2003b20:	04807423 	sb	zero,29(a0)
 2003b24:	90200437 	lui	a0,0x4008
 2003b28:	04a12c23 	sb	v0,75(a0)
 2003b2c:	04606023 	sb	v0,24(v1)
 2003b30:	004000eb 	ret
 2003b34:	04005063 	beqz	v0,2003b5c <t2_taskA3_generic_KINDERSICHERUNG_CTRL+0x194>
 2003b38:	98200437 	lui	a1,0x4008
 2003b3c:	9cc15403 	lb	a1,85(a1)
 2003b40:	04c038e3 	bnez	a1,2003b5c <t2_taskA3_generic_KINDERSICHERUNG_CTRL+0x194>
 2003b44:	80200437 	lui	v0,0x4008
 2003b48:	04007423 	sb	zero,29(v0)
 2003b4c:	80200437 	lui	v0,0x4008
 2003b50:	04252c23 	sb	a0,75(v0)
 2003b54:	04646423 	sb	a0,25(v1)
 2003b58:	004000eb 	ret
 2003b5c:	90200437 	lui	a0,0x4008
 2003b60:	94816803 	lb	a0,90(a0)
 2003b64:	04817863 	beqz	a0,2003c20 <t2_taskA3_generic_KINDERSICHERUNG_CTRL+0x258>
 2003b68:	98200437 	lui	a1,0x4008
 2003b6c:	9cc16403 	lb	a1,89(a1)
 2003b70:	04c160e3 	bnez	a1,2003c20 <t2_taskA3_generic_KINDERSICHERUNG_CTRL+0x258>
 2003b74:	90200437 	lui	a0,0x4008
 2003b78:	80000413 	li	v0,1
 2003b7c:	04807423 	sb	zero,29(a0)
 2003b80:	90200437 	lui	a0,0x4008
 2003b84:	04a13823 	sb	v0,78(a0)
 2003b88:	04606423 	sb	v0,25(v1)
 2003b8c:	004000eb 	ret
 2003b90:	90200437 	lui	a0,0x4008
 2003b94:	94816003 	lb	a0,88(a0)
 2003b98:	0c8030e3 	bnez	a0,2003cb0 <t2_taskA3_generic_KINDERSICHERUNG_CTRL+0x2e8>
 2003b9c:	f400c8e3 	bnez	v0,2003a00 <t2_taskA3_generic_KINDERSICHERUNG_CTRL+0x38>
 2003ba0:	90200437 	lui	a0,0x4008
 2003ba4:	80000413 	li	v0,1
 2003ba8:	04807423 	sb	zero,29(a0)
 2003bac:	90200437 	lui	a0,0x4008
 2003bb0:	04a13823 	sb	v0,78(a0)
 2003bb4:	04606023 	sb	v0,24(v1)
 2003bb8:	004000eb 	ret
 2003bbc:	98200437 	lui	a1,0x4008
 2003bc0:	9cc15803 	lb	a1,86(a1)
 2003bc4:	fcc07063 	beqz	a1,2003afc <t2_taskA3_generic_KINDERSICHERUNG_CTRL+0x134>
 2003bc8:	80200437 	lui	v0,0x4008
 2003bcc:	04007423 	sb	zero,29(v0)
 2003bd0:	98000413 	li	a1,1
 2003bd4:	80200437 	lui	v0,0x4008
 2003bd8:	04272c23 	sb	a1,75(v0)
 2003bdc:	04646023 	sb	a0,24(v1)
 2003be0:	004000eb 	ret
 2003be4:	040020e3 	bnez	v0,2003bf4 <t2_taskA3_generic_KINDERSICHERUNG_CTRL+0x22c>
 2003be8:	80200437 	lui	v0,0x4008
 2003bec:	84015c03 	lb	v0,87(v0)
 2003bf0:	0401c8e3 	bnez	v0,2003cd4 <t2_taskA3_generic_KINDERSICHERUNG_CTRL+0x30c>
 2003bf4:	f48018e3 	bnez	a0,2003a00 <t2_taskA3_generic_KINDERSICHERUNG_CTRL+0x38>
 2003bf8:	80200437 	lui	v0,0x4008
 2003bfc:	84016c03 	lb	v0,91(v0)
 2003c00:	f4000063 	beqz	v0,2003a00 <t2_taskA3_generic_KINDERSICHERUNG_CTRL+0x38>
 2003c04:	80200437 	lui	v0,0x4008
 2003c08:	04007423 	sb	zero,29(v0)
 2003c0c:	80200437 	lui	v0,0x4008
 2003c10:	04013823 	sb	zero,78(v0)
 2003c14:	80000413 	li	v0,1
 2003c18:	04606823 	sb	v0,26(v1)
 2003c1c:	004000eb 	ret
 2003c20:	040020e3 	bnez	v0,2003c30 <t2_taskA3_generic_KINDERSICHERUNG_CTRL+0x268>
 2003c24:	80200437 	lui	v0,0x4008
 2003c28:	84015403 	lb	v0,85(v0)
 2003c2c:	040188e3 	bnez	v0,2003cf0 <t2_taskA3_generic_KINDERSICHERUNG_CTRL+0x328>
 2003c30:	ec81a0e3 	bnez	a0,2003a00 <t2_taskA3_generic_KINDERSICHERUNG_CTRL+0x38>
 2003c34:	80200437 	lui	v0,0x4008
 2003c38:	84016403 	lb	v0,89(v0)
 2003c3c:	ec018863 	beqz	v0,2003a00 <t2_taskA3_generic_KINDERSICHERUNG_CTRL+0x38>
 2003c40:	80200437 	lui	v0,0x4008
 2003c44:	04007423 	sb	zero,29(v0)
 2003c48:	80200437 	lui	v0,0x4008
 2003c4c:	04013823 	sb	zero,78(v0)
 2003c50:	80000413 	li	v0,1
 2003c54:	04606423 	sb	v0,25(v1)
 2003c58:	004000eb 	ret
 2003c5c:	80200437 	lui	v0,0x4008
 2003c60:	04007423 	sb	zero,29(v0)
 2003c64:	80200437 	lui	v0,0x4008
 2003c68:	04013823 	sb	zero,78(v0)
 2003c6c:	80200437 	lui	v0,0x4008
 2003c70:	04012c23 	sb	zero,75(v0)
 2003c74:	80200437 	lui	v0,0x4008
 2003c78:	04666023 	sb	a1,24(v1)
 2003c7c:	04006823 	sb	zero,26(v0)
 2003c80:	004000eb 	ret
 2003c84:	80200437 	lui	v0,0x4008
 2003c88:	04007423 	sb	zero,29(v0)
 2003c8c:	80200437 	lui	v0,0x4008
 2003c90:	04013823 	sb	zero,78(v0)
 2003c94:	80200437 	lui	v0,0x4008
 2003c98:	04012c23 	sb	zero,75(v0)
 2003c9c:	80000c13 	li	v0,3
 2003ca0:	04606023 	sb	v0,24(v1)
 2003ca4:	80200437 	lui	v0,0x4008
 2003ca8:	04006423 	sb	zero,25(v0)
 2003cac:	004000eb 	ret
 2003cb0:	90200437 	lui	a0,0x4008
 2003cb4:	80000413 	li	v0,1
 2003cb8:	04807423 	sb	zero,29(a0)
 2003cbc:	90200437 	lui	a0,0x4008
 2003cc0:	04a12c23 	sb	v0,75(a0)
 2003cc4:	90200437 	lui	a0,0x4008
 2003cc8:	04a13823 	sb	v0,78(a0)
 2003ccc:	04606023 	sb	v0,24(v1)
 2003cd0:	004000eb 	ret
 2003cd4:	80200437 	lui	v0,0x4008
 2003cd8:	04007423 	sb	zero,29(v0)
 2003cdc:	80200437 	lui	v0,0x4008
 2003ce0:	04012c23 	sb	zero,75(v0)
 2003ce4:	80000413 	li	v0,1
 2003ce8:	04606823 	sb	v0,26(v1)
 2003cec:	004000eb 	ret
 2003cf0:	80200437 	lui	v0,0x4008
 2003cf4:	04007423 	sb	zero,29(v0)
 2003cf8:	80200437 	lui	v0,0x4008
 2003cfc:	04012c23 	sb	zero,75(v0)
 2003d00:	80000413 	li	v0,1
 2003d04:	04606423 	sb	v0,25(v1)
 2003d08:	004000eb 	ret
 2003d0c:	98200437 	lui	a1,0x4008
 2003d10:	80000413 	li	v0,1
 2003d14:	04c07423 	sb	zero,29(a1)
 2003d18:	98200437 	lui	a1,0x4008
 2003d1c:	04e13823 	sb	v0,78(a1)
 2003d20:	98200437 	lui	a1,0x4008
 2003d24:	04e12c23 	sb	v0,75(a1)
 2003d28:	04646023 	sb	a0,24(v1)
 2003d2c:	004000eb 	ret

02003d30 <t2_taskA3_generic_FH_TUERMODUL_CTRL>:
 2003d30:	80200437 	lui	v0,0x4008
 2003d34:	84031013 	add	v0,v0,196
 2003d38:	8c003403 	lb	v1,13(v0)
 2003d3c:	044048e3 	bnez	v1,2003d60 <t2_taskA3_generic_FH_TUERMODUL_CTRL+0x30>
 2003d40:	8c003c03 	lb	v1,15(v0)
 2003d44:	04403063 	beqz	v1,2003d5c <t2_taskA3_generic_FH_TUERMODUL_CTRL+0x2c>
 2003d48:	8c003803 	lb	v1,14(v0)
 2003d4c:	044020e3 	bnez	v1,2003d5c <t2_taskA3_generic_FH_TUERMODUL_CTRL+0x2c>
 2003d50:	04001023 	sb	zero,4(v0)
 2003d54:	04001823 	sb	zero,6(v0)
 2003d58:	004000eb 	ret
 2003d5c:	004000eb 	ret
 2003d60:	8c002803 	lb	v1,10(v0)
 2003d64:	044020e3 	bnez	v1,2003d74 <t2_taskA3_generic_FH_TUERMODUL_CTRL+0x44>
 2003d68:	90000c13 	li	a0,3
 2003d6c:	88200437 	lui	v1,0x4008
 2003d70:	04646023 	sb	a0,24(v1)
 2003d74:	8c004c03 	lb	v1,19(v0)
 2003d78:	044030e3 	bnez	v1,2003d90 <t2_taskA3_generic_FH_TUERMODUL_CTRL+0x60>
 2003d7c:	88200437 	lui	v1,0x4008
 2003d80:	0c411023 	sb	zero,196(v1)
 2003d84:	90000413 	li	a0,1
 2003d88:	88200437 	lui	v1,0x4008
 2003d8c:	04643023 	sb	a0,12(v1)
 2003d90:	98200437 	lui	a1,0x4008
 2003d94:	8cc05c03 	lb	v1,23(a1)
 2003d98:	90000413 	li	a0,1
 2003d9c:	a0000813 	li	a2,2
 2003da0:	04242c23 	sb	a0,11(v0)
 2003da4:	04245023 	sb	a0,20(v0)
 2003da8:	04693863 	beq	v1,a2,2003e44 <t2_taskA3_generic_FH_TUERMODUL_CTRL+0x114>
 2003dac:	a8000c13 	li	a3,3
 2003db0:	0c6a2063 	beq	v1,a3,2003ec0 <t2_taskA3_generic_FH_TUERMODUL_CTRL+0x190>
 2003db4:	90000413 	li	a0,1
 2003db8:	0465a863 	beq	v1,a0,2003e8c <t2_taskA3_generic_FH_TUERMODUL_CTRL+0x15c>
 2003dbc:	88200437 	lui	v1,0x4008
 2003dc0:	04407423 	sb	zero,29(v1)
 2003dc4:	04e85c23 	sb	a2,23(a1)
 2003dc8:	90200437 	lui	a0,0x4008
 2003dcc:	9c805803 	lb	a1,22(a0)
 2003dd0:	88000413 	li	v1,1
 2003dd4:	04e26863 	beq	a1,v1,2003e08 <t2_taskA3_generic_FH_TUERMODUL_CTRL+0xd8>
 2003dd8:	98200437 	lui	a1,0x4008
 2003ddc:	04c07423 	sb	zero,29(a1)
 2003de0:	04a25823 	sb	v1,22(a0)
 2003de4:	98200437 	lui	a1,0x4008
 2003de8:	90200437 	lui	a0,0x4008
 2003dec:	0cc0a123 	sw	zero,168(a1)
 2003df0:	04a25423 	sb	v1,21(a0)
 2003df4:	94001203 	lbu	a0,4(v0)
 2003df8:	8c001a03 	lbu	v1,6(v0)
 2003dfc:	04241423 	sb	a0,5(v0)
 2003e00:	04221c23 	sb	v1,7(v0)
 2003e04:	004000eb 	ret
 2003e08:	88200437 	lui	v1,0x4008
 2003e0c:	8c407003 	lb	v1,28(v1)
 2003e10:	0c67e063 	beq	v1,a1,2004000 <t2_taskA3_generic_FH_TUERMODUL_CTRL+0x2d0>
 2003e14:	90200437 	lui	a0,0x4008
 2003e18:	a4805403 	lb	a2,21(a0)
 2003e1c:	98000413 	li	a1,1
 2003e20:	0d270863 	beq	a2,a1,2003fa4 <t2_taskA3_generic_FH_TUERMODUL_CTRL+0x274>
 2003e24:	88200437 	lui	v1,0x4008
 2003e28:	04407423 	sb	zero,29(v1)
 2003e2c:	04a65423 	sb	a1,21(a0)
 2003e30:	8c001a03 	lbu	v1,6(v0)
 2003e34:	94001203 	lbu	a0,4(v0)
 2003e38:	04221c23 	sb	v1,7(v0)
 2003e3c:	04241423 	sb	a0,5(v0)
 2003e40:	004000eb 	ret
 2003e44:	88200437 	lui	v1,0x4008
 2003e48:	8c414c03 	lb	v1,83(v1)
 2003e4c:	04402063 	beqz	v1,2003e5c <t2_taskA3_generic_FH_TUERMODUL_CTRL+0x12c>
 2003e50:	88200437 	lui	v1,0x4008
 2003e54:	8c414403 	lb	v1,81(v1)
 2003e58:	14401063 	beqz	v1,2004060 <t2_taskA3_generic_FH_TUERMODUL_CTRL+0x330>
 2003e5c:	90200437 	lui	a0,0x4008
 2003e60:	8c806c03 	lb	v1,27(a0)
 2003e64:	98000813 	li	a1,2
 2003e68:	14675863 	beq	v1,a1,2004114 <t2_taskA3_generic_FH_TUERMODUL_CTRL+0x3e4>
 2003e6c:	a0000c13 	li	a2,3
 2003e70:	1468f863 	beq	v1,a2,20040ec <t2_taskA3_generic_FH_TUERMODUL_CTRL+0x3bc>
 2003e74:	98000413 	li	a1,1
 2003e78:	14665063 	beq	v1,a1,20040a0 <t2_taskA3_generic_FH_TUERMODUL_CTRL+0x370>
 2003e7c:	88200437 	lui	v1,0x4008
 2003e80:	04407423 	sb	zero,29(v1)
 2003e84:	04a86c23 	sb	a2,27(a0)
 2003e88:	ffffd067 	j	2003dc8 <t2_taskA3_generic_FH_TUERMODUL_CTRL+0x98>
 2003e8c:	88200437 	lui	v1,0x4008
 2003e90:	8c42a103 	lw	v1,168(v1)
 2003e94:	9000ec13 	li	a0,59
 2003e98:	fc6460e3 	bne	v1,a0,2003dc8 <t2_taskA3_generic_FH_TUERMODUL_CTRL+0x98>
 2003e9c:	90200437 	lui	a0,0x4008
 2003ea0:	94828103 	lw	a0,160(a0)
 2003ea4:	fca24863 	beq	a0,v1,2003dc8 <t2_taskA3_generic_FH_TUERMODUL_CTRL+0x98>
 2003ea8:	88200437 	lui	v1,0x4008
 2003eac:	04407423 	sb	zero,29(v1)
 2003eb0:	88200437 	lui	v1,0x4008
 2003eb4:	04ea5c23 	sb	a3,23(a1)
 2003eb8:	046a5023 	sb	a3,20(v1)
 2003ebc:	ffffc367 	j	2003dc8 <t2_taskA3_generic_FH_TUERMODUL_CTRL+0x98>
 2003ec0:	88200437 	lui	v1,0x4008
 2003ec4:	8c42a103 	lw	v1,168(v1)
 2003ec8:	8c40f513 	slt	v1,v1,61
 2003ecc:	044098e3 	bnez	v1,2003f18 <t2_taskA3_generic_FH_TUERMODUL_CTRL+0x1e8>
 2003ed0:	88200437 	lui	v1,0x4008
 2003ed4:	8c428103 	lw	v1,160(v1)
 2003ed8:	8c40f513 	slt	v1,v1,61
 2003edc:	04407863 	beqz	v1,2003f18 <t2_taskA3_generic_FH_TUERMODUL_CTRL+0x1e8>
 2003ee0:	88200437 	lui	v1,0x4008
 2003ee4:	8c417c03 	lb	v1,95(v1)
 2003ee8:	044060e3 	bnez	v1,2003f18 <t2_taskA3_generic_FH_TUERMODUL_CTRL+0x1e8>
 2003eec:	88200437 	lui	v1,0x4008
 2003ef0:	8c418403 	lb	v1,97(v1)
 2003ef4:	044048e3 	bnez	v1,2003f18 <t2_taskA3_generic_FH_TUERMODUL_CTRL+0x1e8>
 2003ef8:	88200437 	lui	v1,0x4008
 2003efc:	04407423 	sb	zero,29(v1)
 2003f00:	88200437 	lui	v1,0x4008
 2003f04:	04412023 	sb	zero,72(v1)
 2003f08:	88200437 	lui	v1,0x4008
 2003f0c:	04411423 	sb	zero,69(v1)
 2003f10:	04e45c23 	sb	a0,23(a1)
 2003f14:	ffffad67 	j	2003dc8 <t2_taskA3_generic_FH_TUERMODUL_CTRL+0x98>
 2003f18:	88200437 	lui	v1,0x4008
 2003f1c:	8c414c03 	lb	v1,83(v1)
 2003f20:	0440a863 	beqz	v1,2003f74 <t2_taskA3_generic_FH_TUERMODUL_CTRL+0x244>
 2003f24:	88200437 	lui	v1,0x4008
 2003f28:	8c414403 	lb	v1,81(v1)
 2003f2c:	044090e3 	bnez	v1,2003f74 <t2_taskA3_generic_FH_TUERMODUL_CTRL+0x244>
 2003f30:	88200437 	lui	v1,0x4008
 2003f34:	8c411803 	lb	v1,70(v1)
 2003f38:	1441d863 	beqz	v1,2004224 <t2_taskA3_generic_FH_TUERMODUL_CTRL+0x4f4>
 2003f3c:	88200437 	lui	v1,0x4008
 2003f40:	94408103 	lw	a0,32(v1)
 2003f44:	88200437 	lui	v1,0x4008
 2003f48:	04407423 	sb	zero,29(v1)
 2003f4c:	88200437 	lui	v1,0x4008
 2003f50:	04411423 	sb	zero,69(v1)
 2003f54:	88200437 	lui	v1,0x4008
 2003f58:	0c64d123 	sw	a0,180(v1)
 2003f5c:	88000813 	li	v1,2
 2003f60:	04e25c23 	sb	v1,23(a1)
 2003f64:	90000c13 	li	a0,3
 2003f68:	88200437 	lui	v1,0x4008
 2003f6c:	04646c23 	sb	a0,27(v1)
 2003f70:	ffff9667 	j	2003dc8 <t2_taskA3_generic_FH_TUERMODUL_CTRL+0x98>
 2003f74:	90200437 	lui	a0,0x4008
 2003f78:	8c805003 	lb	v1,20(a0)
 2003f7c:	98000813 	li	a1,2
 2003f80:	14662063 	beq	v1,a1,2004190 <t2_taskA3_generic_FH_TUERMODUL_CTRL+0x460>
 2003f84:	a0000c13 	li	a2,3
 2003f88:	0c696863 	beq	v1,a2,200413c <t2_taskA3_generic_FH_TUERMODUL_CTRL+0x40c>
 2003f8c:	a8000413 	li	a3,1
 2003f90:	0c6a6863 	beq	v1,a3,20040c4 <t2_taskA3_generic_FH_TUERMODUL_CTRL+0x394>
 2003f94:	88200437 	lui	v1,0x4008
 2003f98:	04407423 	sb	zero,29(v1)
 2003f9c:	04a85023 	sb	a2,20(a0)
 2003fa0:	ffff8a67 	j	2003dc8 <t2_taskA3_generic_FH_TUERMODUL_CTRL+0x98>
 2003fa4:	f468a0e3 	bne	v1,a2,2003df4 <t2_taskA3_generic_FH_TUERMODUL_CTRL+0xc4>
 2003fa8:	98200437 	lui	a1,0x4008
 2003fac:	9cc2e103 	lw	a1,184(a1)
 2003fb0:	f4c08863 	beqz	a1,2003df4 <t2_taskA3_generic_FH_TUERMODUL_CTRL+0xc4>
 2003fb4:	a0200437 	lui	a2,0x4008
 2003fb8:	a5008103 	lw	a2,32(a2)
 2003fbc:	a53ff413 	add	a2,a2,-3
 2003fc0:	f4e868e3 	bne	a1,a2,2003df4 <t2_taskA3_generic_FH_TUERMODUL_CTRL+0xc4>
 2003fc4:	98200437 	lui	a1,0x4008
 2003fc8:	9cc12403 	lb	a1,73(a1)
 2003fcc:	f4c050e3 	bnez	a1,2003df4 <t2_taskA3_generic_FH_TUERMODUL_CTRL+0xc4>
 2003fd0:	98200437 	lui	a1,0x4008
 2003fd4:	9cc11803 	lb	a1,70(a1)
 2003fd8:	f4c038e3 	bnez	a1,2003df4 <t2_taskA3_generic_FH_TUERMODUL_CTRL+0xc4>
 2003fdc:	98200437 	lui	a1,0x4008
 2003fe0:	a4c2a103 	lw	a2,168(a1)
 2003fe4:	f02822e3 	blez	a2,2003df4 <t2_taskA3_generic_FH_TUERMODUL_CTRL+0xc4>
 2003fe8:	a53ffc13 	add	a2,a2,-1
 2003fec:	a8200437 	lui	a3,0x4008
 2003ff0:	05407423 	sb	zero,29(a3)
 2003ff4:	0ce8a123 	sw	a2,168(a1)
 2003ff8:	04a25423 	sb	v1,21(a0)
 2003ffc:	ffff7e67 	j	2003df4 <t2_taskA3_generic_FH_TUERMODUL_CTRL+0xc4>
 2004000:	98200437 	lui	a1,0x4008
 2004004:	9cc2f103 	lw	a1,188(a1)
 2004008:	f4c01863 	beqz	a1,2003e14 <t2_taskA3_generic_FH_TUERMODUL_CTRL+0xe4>
 200400c:	a0200437 	lui	a2,0x4008
 2004010:	a5008103 	lw	a2,32(a2)
 2004014:	9d270033 	sub	a1,a2,a1
 2004018:	ece3f8e3 	bne	a1,v1,2003e14 <t2_taskA3_generic_FH_TUERMODUL_CTRL+0xe4>
 200401c:	98200437 	lui	a1,0x4008
 2004020:	9cc12403 	lb	a1,73(a1)
 2004024:	04c020e3 	bnez	a1,2004034 <t2_taskA3_generic_FH_TUERMODUL_CTRL+0x304>
 2004028:	98200437 	lui	a1,0x4008
 200402c:	9cc11803 	lb	a1,70(a1)
 2004030:	ecc1c863 	beqz	a1,2003e14 <t2_taskA3_generic_FH_TUERMODUL_CTRL+0xe4>
 2004034:	98200437 	lui	a1,0x4008
 2004038:	a4c2a103 	lw	a2,168(a1)
 200403c:	88000413 	li	v1,1
 2004040:	a8200437 	lui	a3,0x4008
 2004044:	a5000413 	add	a2,a2,1
 2004048:	04a25823 	sb	v1,22(a0)
 200404c:	90200437 	lui	a0,0x4008
 2004050:	05407423 	sb	zero,29(a3)
 2004054:	0ce8a123 	sw	a2,168(a1)
 2004058:	04a25423 	sb	v1,21(a0)
 200405c:	ffff6667 	j	2003df4 <t2_taskA3_generic_FH_TUERMODUL_CTRL+0xc4>
 2004060:	88200437 	lui	v1,0x4008
 2004064:	8c412403 	lb	v1,73(v1)
 2004068:	ec41e863 	beqz	v1,2003e5c <t2_taskA3_generic_FH_TUERMODUL_CTRL+0x12c>
 200406c:	88200437 	lui	v1,0x4008
 2004070:	a4408103 	lw	a2,32(v1)
 2004074:	90200437 	lui	a0,0x4008
 2004078:	04807423 	sb	zero,29(a0)
 200407c:	90200437 	lui	a0,0x4008
 2004080:	04812023 	sb	zero,72(a0)
 2004084:	90200437 	lui	a0,0x4008
 2004088:	88000c13 	li	v1,3
 200408c:	0ca8b123 	sw	a2,172(a0)
 2004090:	90200437 	lui	a0,0x4008
 2004094:	04e25c23 	sb	v1,23(a1)
 2004098:	04a25023 	sb	v1,20(a0)
 200409c:	ffff4b67 	j	2003dc8 <t2_taskA3_generic_FH_TUERMODUL_CTRL+0x98>
 20040a0:	88200437 	lui	v1,0x4008
 20040a4:	8c413c03 	lb	v1,79(v1)
 20040a8:	ec4040e3 	bnez	v1,2003dc8 <t2_taskA3_generic_FH_TUERMODUL_CTRL+0x98>
 20040ac:	88200437 	lui	v1,0x4008
 20040b0:	04407423 	sb	zero,29(v1)
 20040b4:	88200437 	lui	v1,0x4008
 20040b8:	04412023 	sb	zero,72(v1)
 20040bc:	04a86c23 	sb	a2,27(a0)
 20040c0:	ffff4267 	j	2003dc8 <t2_taskA3_generic_FH_TUERMODUL_CTRL+0x98>
 20040c4:	a8200437 	lui	a3,0x4008
 20040c8:	ad425103 	lw	a3,148(a3)
 20040cc:	ad465513 	slt	a3,a3,405
 20040d0:	0d4158e3 	bnez	a3,200427c <t2_taskA3_generic_FH_TUERMODUL_CTRL+0x54c>
 20040d4:	88200437 	lui	v1,0x4008
 20040d8:	04407423 	sb	zero,29(v1)
 20040dc:	88200437 	lui	v1,0x4008
 20040e0:	04411423 	sb	zero,69(v1)
 20040e4:	04a85023 	sb	a2,20(a0)
 20040e8:	ffff3867 	j	2003dc8 <t2_taskA3_generic_FH_TUERMODUL_CTRL+0x98>
 20040ec:	88200437 	lui	v1,0x4008
 20040f0:	8c413003 	lb	v1,76(v1)
 20040f4:	0c40c063 	beqz	v1,2004254 <t2_taskA3_generic_FH_TUERMODUL_CTRL+0x524>
 20040f8:	88200437 	lui	v1,0x4008
 20040fc:	04407423 	sb	zero,29(v1)
 2004100:	a0000413 	li	a2,1
 2004104:	88200437 	lui	v1,0x4008
 2004108:	04691423 	sb	a2,69(v1)
 200410c:	04a66c23 	sb	a1,27(a0)
 2004110:	ffff2e67 	j	2003dc8 <t2_taskA3_generic_FH_TUERMODUL_CTRL+0x98>
 2004114:	88200437 	lui	v1,0x4008
 2004118:	8c413003 	lb	v1,76(v1)
 200411c:	e44158e3 	bnez	v1,2003dc8 <t2_taskA3_generic_FH_TUERMODUL_CTRL+0x98>
 2004120:	88200437 	lui	v1,0x4008
 2004124:	04407423 	sb	zero,29(v1)
 2004128:	88200437 	lui	v1,0x4008
 200412c:	04411423 	sb	zero,69(v1)
 2004130:	88000c13 	li	v1,3
 2004134:	04a26c23 	sb	v1,27(a0)
 2004138:	ffff2467 	j	2003dc8 <t2_taskA3_generic_FH_TUERMODUL_CTRL+0x98>
 200413c:	88200437 	lui	v1,0x4008
 2004140:	8c413c03 	lb	v1,79(v1)
 2004144:	04412063 	beqz	v1,20041d4 <t2_taskA3_generic_FH_TUERMODUL_CTRL+0x4a4>
 2004148:	88200437 	lui	v1,0x4008
 200414c:	8c413403 	lb	v1,77(v1)
 2004150:	044108e3 	bnez	v1,20041d4 <t2_taskA3_generic_FH_TUERMODUL_CTRL+0x4a4>
 2004154:	88200437 	lui	v1,0x4008
 2004158:	8c425103 	lw	v1,148(v1)
 200415c:	0022f2e3 	blez	v1,20041d4 <t2_taskA3_generic_FH_TUERMODUL_CTRL+0x4a4>
 2004160:	04a65023 	sb	a1,20(a0)
 2004164:	90200437 	lui	a0,0x4008
 2004168:	04a64023 	sb	a1,16(a0)
 200416c:	90200437 	lui	a0,0x4008
 2004170:	88000413 	li	v1,1
 2004174:	a0200437 	lui	a2,0x4008
 2004178:	04a64823 	sb	a1,18(a0)
 200417c:	90200437 	lui	a0,0x4008
 2004180:	05007423 	sb	zero,29(a2)
 2004184:	04224423 	sb	v1,17(v0)
 2004188:	04a32023 	sb	v1,72(a0)
 200418c:	ffff0f67 	j	2003dc8 <t2_taskA3_generic_FH_TUERMODUL_CTRL+0x98>
 2004190:	98200437 	lui	a1,0x4008
 2004194:	9cc25103 	lw	a1,148(a1)
 2004198:	08260ae3 	blez	a1,200429c <t2_taskA3_generic_FH_TUERMODUL_CTRL+0x56c>
 200419c:	a8200437 	lui	a3,0x4008
 20041a0:	9d404003 	lb	a1,16(a3)
 20041a4:	a0000413 	li	a2,1
 20041a8:	0ce8b863 	beq	a1,a2,2004304 <t2_taskA3_generic_FH_TUERMODUL_CTRL+0x5d4>
 20041ac:	0ce21863 	beq	a1,v1,20042b8 <t2_taskA3_generic_FH_TUERMODUL_CTRL+0x588>
 20041b0:	90200437 	lui	a0,0x4008
 20041b4:	04807423 	sb	zero,29(a0)
 20041b8:	90200437 	lui	a0,0x4008
 20041bc:	05624023 	sb	v1,16(a3)
 20041c0:	04a24823 	sb	v1,18(a0)
 20041c4:	88200437 	lui	v1,0x4008
 20041c8:	04284423 	sb	a2,17(v0)
 20041cc:	04692023 	sb	a2,72(v1)
 20041d0:	fffefe67 	j	2003dc8 <t2_taskA3_generic_FH_TUERMODUL_CTRL+0x98>
 20041d4:	88200437 	lui	v1,0x4008
 20041d8:	8c413003 	lb	v1,76(v1)
 20041dc:	dc41d863 	beqz	v1,2003dc8 <t2_taskA3_generic_FH_TUERMODUL_CTRL+0x98>
 20041e0:	88200437 	lui	v1,0x4008
 20041e4:	8c412803 	lb	v1,74(v1)
 20041e8:	dc41c0e3 	bnez	v1,2003dc8 <t2_taskA3_generic_FH_TUERMODUL_CTRL+0x98>
 20041ec:	88200437 	lui	v1,0x4008
 20041f0:	8c425103 	lw	v1,148(v1)
 20041f4:	8c465513 	slt	v1,v1,405
 20041f8:	dc41a063 	beqz	v1,2003dc8 <t2_taskA3_generic_FH_TUERMODUL_CTRL+0x98>
 20041fc:	98200437 	lui	a1,0x4008
 2004200:	88000413 	li	v1,1
 2004204:	04c07423 	sb	zero,29(a1)
 2004208:	98200437 	lui	a1,0x4008
 200420c:	04a25023 	sb	v1,20(a0)
 2004210:	04e31423 	sb	v1,69(a1)
 2004214:	90000813 	li	a0,2
 2004218:	88200437 	lui	v1,0x4008
 200421c:	04644423 	sb	a0,17(v1)
 2004220:	fffeea67 	j	2003dc8 <t2_taskA3_generic_FH_TUERMODUL_CTRL+0x98>
 2004224:	88200437 	lui	v1,0x4008
 2004228:	8c412403 	lb	v1,73(v1)
 200422c:	ec409063 	beqz	v1,2003f74 <t2_taskA3_generic_FH_TUERMODUL_CTRL+0x244>
 2004230:	88200437 	lui	v1,0x4008
 2004234:	94408103 	lw	a0,32(v1)
 2004238:	88200437 	lui	v1,0x4008
 200423c:	04407423 	sb	zero,29(v1)
 2004240:	88200437 	lui	v1,0x4008
 2004244:	04412023 	sb	zero,72(v1)
 2004248:	88200437 	lui	v1,0x4008
 200424c:	0c64c123 	sw	a0,176(v1)
 2004250:	ffff4367 	j	2003f5c <t2_taskA3_generic_FH_TUERMODUL_CTRL+0x22c>
 2004254:	88200437 	lui	v1,0x4008
 2004258:	8c413c03 	lb	v1,79(v1)
 200425c:	dc40d863 	beqz	v1,2003dc8 <t2_taskA3_generic_FH_TUERMODUL_CTRL+0x98>
 2004260:	98200437 	lui	a1,0x4008
 2004264:	88000413 	li	v1,1
 2004268:	04c07423 	sb	zero,29(a1)
 200426c:	98200437 	lui	a1,0x4008
 2004270:	04e32023 	sb	v1,72(a1)
 2004274:	04a26c23 	sb	v1,27(a0)
 2004278:	fffed467 	j	2003dc8 <t2_taskA3_generic_FH_TUERMODUL_CTRL+0x98>
 200427c:	a8200437 	lui	a3,0x4008
 2004280:	a5404403 	lb	a2,17(a3)
 2004284:	0d220863 	beq	a2,v1,2004388 <t2_taskA3_generic_FH_TUERMODUL_CTRL+0x658>
 2004288:	0527b063 	beq	a2,a1,2004360 <t2_taskA3_generic_FH_TUERMODUL_CTRL+0x630>
 200428c:	88200437 	lui	v1,0x4008
 2004290:	04407423 	sb	zero,29(v1)
 2004294:	05664423 	sb	a1,17(a3)
 2004298:	fffecc67 	j	2003dc8 <t2_taskA3_generic_FH_TUERMODUL_CTRL+0x98>
 200429c:	88200437 	lui	v1,0x4008
 20042a0:	04407423 	sb	zero,29(v1)
 20042a4:	88200437 	lui	v1,0x4008
 20042a8:	04412023 	sb	zero,72(v1)
 20042ac:	88000c13 	li	v1,3
 20042b0:	04a25023 	sb	v1,20(a0)
 20042b4:	fffec567 	j	2003dc8 <t2_taskA3_generic_FH_TUERMODUL_CTRL+0x98>
 20042b8:	88200437 	lui	v1,0x4008
 20042bc:	8c413c03 	lb	v1,79(v1)
 20042c0:	044020e3 	bnez	v1,20042d0 <t2_taskA3_generic_FH_TUERMODUL_CTRL+0x5a0>
 20042c4:	88200437 	lui	v1,0x4008
 20042c8:	8c413403 	lb	v1,77(v1)
 20042cc:	fc41a0e3 	bnez	v1,200429c <t2_taskA3_generic_FH_TUERMODUL_CTRL+0x56c>
 20042d0:	98200437 	lui	a1,0x4008
 20042d4:	94c04803 	lb	a0,18(a1)
 20042d8:	88000413 	li	v1,1
 20042dc:	0ca2c863 	beq	a0,v1,2004440 <t2_taskA3_generic_FH_TUERMODUL_CTRL+0x710>
 20042e0:	a0000813 	li	a2,2
 20042e4:	0ca82863 	beq	a0,a2,20043f8 <t2_taskA3_generic_FH_TUERMODUL_CTRL+0x6c8>
 20042e8:	90200437 	lui	a0,0x4008
 20042ec:	04807423 	sb	zero,29(a0)
 20042f0:	90200437 	lui	a0,0x4008
 20042f4:	04e84823 	sb	a2,18(a1)
 20042f8:	04224423 	sb	v1,17(v0)
 20042fc:	04a32023 	sb	v1,72(a0)
 2004300:	fffeb267 	j	2003dc8 <t2_taskA3_generic_FH_TUERMODUL_CTRL+0x98>
 2004304:	88200437 	lui	v1,0x4008
 2004308:	8c413003 	lb	v1,76(v1)
 200430c:	04402063 	beqz	v1,200431c <t2_taskA3_generic_FH_TUERMODUL_CTRL+0x5ec>
 2004310:	88200437 	lui	v1,0x4008
 2004314:	8c412803 	lb	v1,74(v1)
 2004318:	fc410863 	beqz	v1,200429c <t2_taskA3_generic_FH_TUERMODUL_CTRL+0x56c>
 200431c:	88200437 	lui	v1,0x4008
 2004320:	8c413c03 	lb	v1,79(v1)
 2004324:	04402063 	beqz	v1,2004334 <t2_taskA3_generic_FH_TUERMODUL_CTRL+0x604>
 2004328:	88200437 	lui	v1,0x4008
 200432c:	8c413403 	lb	v1,77(v1)
 2004330:	fc40d863 	beqz	v1,200429c <t2_taskA3_generic_FH_TUERMODUL_CTRL+0x56c>
 2004334:	98200437 	lui	a1,0x4008
 2004338:	94c04c03 	lb	a0,19(a1)
 200433c:	88000413 	li	v1,1
 2004340:	0ca30863 	beq	a0,v1,20044c4 <t2_taskA3_generic_FH_TUERMODUL_CTRL+0x794>
 2004344:	a0000813 	li	a2,2
 2004348:	0ca86863 	beq	a0,a2,200447c <t2_taskA3_generic_FH_TUERMODUL_CTRL+0x74c>
 200434c:	90200437 	lui	a0,0x4008
 2004350:	04807423 	sb	zero,29(a0)
 2004354:	04e84c23 	sb	a2,19(a1)
 2004358:	04224423 	sb	v1,17(v0)
 200435c:	fffe9b67 	j	2003dc8 <t2_taskA3_generic_FH_TUERMODUL_CTRL+0x98>
 2004360:	98200437 	lui	a1,0x4008
 2004364:	9cc13c03 	lb	a1,79(a1)
 2004368:	04c0b063 	beqz	a1,20043c0 <t2_taskA3_generic_FH_TUERMODUL_CTRL+0x690>
 200436c:	98200437 	lui	a1,0x4008
 2004370:	9cc13403 	lb	a1,77(a1)
 2004374:	04c098e3 	bnez	a1,20043c0 <t2_taskA3_generic_FH_TUERMODUL_CTRL+0x690>
 2004378:	90200437 	lui	a0,0x4008
 200437c:	04807423 	sb	zero,29(a0)
 2004380:	05624423 	sb	v1,17(a3)
 2004384:	fffe9167 	j	2003dc8 <t2_taskA3_generic_FH_TUERMODUL_CTRL+0x98>
 2004388:	88200437 	lui	v1,0x4008
 200438c:	8c413c03 	lb	v1,79(v1)
 2004390:	04409863 	beqz	v1,20043dc <t2_taskA3_generic_FH_TUERMODUL_CTRL+0x6ac>
 2004394:	88200437 	lui	v1,0x4008
 2004398:	8c413403 	lb	v1,77(v1)
 200439c:	044080e3 	bnez	v1,20043dc <t2_taskA3_generic_FH_TUERMODUL_CTRL+0x6ac>
 20043a0:	88200437 	lui	v1,0x4008
 20043a4:	04407423 	sb	zero,29(v1)
 20043a8:	88200437 	lui	v1,0x4008
 20043ac:	04411423 	sb	zero,69(v1)
 20043b0:	88000c13 	li	v1,3
 20043b4:	04a25023 	sb	v1,20(a0)
 20043b8:	05404423 	sb	zero,17(a3)
 20043bc:	fffe8367 	j	2003dc8 <t2_taskA3_generic_FH_TUERMODUL_CTRL+0x98>
 20043c0:	88200437 	lui	v1,0x4008
 20043c4:	8c413003 	lb	v1,76(v1)
 20043c8:	d44000e3 	bnez	v1,2003dc8 <t2_taskA3_generic_FH_TUERMODUL_CTRL+0x98>
 20043cc:	88200437 	lui	v1,0x4008
 20043d0:	8c412803 	lb	v1,74(v1)
 20043d4:	cc41e863 	beqz	v1,2003dc8 <t2_taskA3_generic_FH_TUERMODUL_CTRL+0x98>
 20043d8:	fffff267 	j	20043a0 <t2_taskA3_generic_FH_TUERMODUL_CTRL+0x670>
 20043dc:	88200437 	lui	v1,0x4008
 20043e0:	8c413003 	lb	v1,76(v1)
 20043e4:	cc41c863 	beqz	v1,2003dc8 <t2_taskA3_generic_FH_TUERMODUL_CTRL+0x98>
 20043e8:	88200437 	lui	v1,0x4008
 20043ec:	8c412803 	lb	v1,74(v1)
 20043f0:	cc41b0e3 	bnez	v1,2003dc8 <t2_taskA3_generic_FH_TUERMODUL_CTRL+0x98>
 20043f4:	ffffeb67 	j	20043a0 <t2_taskA3_generic_FH_TUERMODUL_CTRL+0x670>
 20043f8:	94006003 	lb	a0,24(v0)
 20043fc:	0c800863 	beqz	a0,2004500 <t2_taskA3_generic_FH_TUERMODUL_CTRL+0x7d0>
 2004400:	90200437 	lui	a0,0x4008
 2004404:	a4808103 	lw	a2,32(a0)
 2004408:	90200437 	lui	a0,0x4008
 200440c:	04807423 	sb	zero,29(a0)
 2004410:	90200437 	lui	a0,0x4008
 2004414:	04812023 	sb	zero,72(a0)
 2004418:	90200437 	lui	a0,0x4008
 200441c:	04a37823 	sb	v1,94(a0)
 2004420:	90200437 	lui	a0,0x4008
 2004424:	0ca86123 	sw	a2,152(a0)
 2004428:	90200437 	lui	a0,0x4008
 200442c:	04225c23 	sb	v1,23(v0)
 2004430:	04e24823 	sb	v1,18(a1)
 2004434:	04004423 	sb	zero,17(v0)
 2004438:	04a31423 	sb	v1,69(a0)
 200443c:	fffe6367 	j	2003dc8 <t2_taskA3_generic_FH_TUERMODUL_CTRL+0x98>
 2004440:	8c005803 	lb	v1,22(v0)
 2004444:	04005c23 	sb	zero,23(v0)
 2004448:	cc410063 	beqz	v1,2003dc8 <t2_taskA3_generic_FH_TUERMODUL_CTRL+0x98>
 200444c:	88200437 	lui	v1,0x4008
 2004450:	04407423 	sb	zero,29(v1)
 2004454:	88200437 	lui	v1,0x4008
 2004458:	04417823 	sb	zero,94(v1)
 200445c:	88000813 	li	v1,2
 2004460:	04e24823 	sb	v1,18(a1)
 2004464:	88200437 	lui	v1,0x4008
 2004468:	04411423 	sb	zero,69(v1)
 200446c:	88200437 	lui	v1,0x4008
 2004470:	04244423 	sb	a0,17(v0)
 2004474:	04652023 	sb	a0,72(v1)
 2004478:	fffe5467 	j	2003dc8 <t2_taskA3_generic_FH_TUERMODUL_CTRL+0x98>
 200447c:	94006003 	lb	a0,24(v0)
 2004480:	cc809063 	beqz	a0,2003dc8 <t2_taskA3_generic_FH_TUERMODUL_CTRL+0x98>
 2004484:	90200437 	lui	a0,0x4008
 2004488:	a4808103 	lw	a2,32(a0)
 200448c:	90200437 	lui	a0,0x4008
 2004490:	04807423 	sb	zero,29(a0)
 2004494:	90200437 	lui	a0,0x4008
 2004498:	04a38023 	sb	v1,96(a0)
 200449c:	90200437 	lui	a0,0x4008
 20044a0:	04812023 	sb	zero,72(a0)
 20044a4:	90200437 	lui	a0,0x4008
 20044a8:	0ca87123 	sw	a2,156(a0)
 20044ac:	90200437 	lui	a0,0x4008
 20044b0:	04225c23 	sb	v1,23(v0)
 20044b4:	04e24c23 	sb	v1,19(a1)
 20044b8:	04004423 	sb	zero,17(v0)
 20044bc:	04a31423 	sb	v1,69(a0)
 20044c0:	fffe4267 	j	2003dc8 <t2_taskA3_generic_FH_TUERMODUL_CTRL+0x98>
 20044c4:	8c005803 	lb	v1,22(v0)
 20044c8:	04005c23 	sb	zero,23(v0)
 20044cc:	c441f863 	beqz	v1,2003dc8 <t2_taskA3_generic_FH_TUERMODUL_CTRL+0x98>
 20044d0:	88200437 	lui	v1,0x4008
 20044d4:	04407423 	sb	zero,29(v1)
 20044d8:	88200437 	lui	v1,0x4008
 20044dc:	04652023 	sb	a0,72(v1)
 20044e0:	88200437 	lui	v1,0x4008
 20044e4:	04418023 	sb	zero,96(v1)
 20044e8:	88000813 	li	v1,2
 20044ec:	04e24c23 	sb	v1,19(a1)
 20044f0:	88200437 	lui	v1,0x4008
 20044f4:	04411423 	sb	zero,69(v1)
 20044f8:	04244423 	sb	a0,17(v0)
 20044fc:	fffe3367 	j	2003dc8 <t2_taskA3_generic_FH_TUERMODUL_CTRL+0x98>
 2004500:	90200437 	lui	a0,0x4008
 2004504:	94813003 	lb	a0,76(a0)
 2004508:	c4818063 	beqz	a0,2003dc8 <t2_taskA3_generic_FH_TUERMODUL_CTRL+0x98>
 200450c:	90200437 	lui	a0,0x4008
 2004510:	94812803 	lb	a0,74(a0)
 2004514:	c48168e3 	bnez	a0,2003dc8 <t2_taskA3_generic_FH_TUERMODUL_CTRL+0x98>
 2004518:	90200437 	lui	a0,0x4008
 200451c:	04807423 	sb	zero,29(a0)
 2004520:	05624023 	sb	v1,16(a3)
 2004524:	04c04823 	sb	zero,18(a1)
 2004528:	fffe2867 	j	2003dc8 <t2_taskA3_generic_FH_TUERMODUL_CTRL+0x98>

0200452c <t2_taskA3_generic_EINKLEMMSCHUTZ_CTRL>:
 200452c:	80200437 	lui	v0,0x4008
 2004530:	84031013 	add	v0,v0,196
 2004534:	8c004003 	lb	v1,16(v0)
 2004538:	04405063 	beqz	v1,2004560 <t2_taskA3_generic_EINKLEMMSCHUTZ_CTRL+0x34>
 200453c:	90200437 	lui	a0,0x4008
 2004540:	8c803803 	lb	v1,14(a0)
 2004544:	98000413 	li	a1,1
 2004548:	04663863 	beq	v1,a1,2004564 <t2_taskA3_generic_EINKLEMMSCHUTZ_CTRL+0x38>
 200454c:	a0000813 	li	a2,2
 2004550:	0468c063 	beq	v1,a2,20045b0 <t2_taskA3_generic_EINKLEMMSCHUTZ_CTRL+0x84>
 2004554:	80200437 	lui	v0,0x4008
 2004558:	04007423 	sb	zero,29(v0)
 200455c:	04a63823 	sb	a1,14(a0)
 2004560:	004000eb 	ret
 2004564:	88200437 	lui	v1,0x4008
 2004568:	8c410c03 	lb	v1,67(v1)
 200456c:	fc41e863 	beqz	v1,2004560 <t2_taskA3_generic_EINKLEMMSCHUTZ_CTRL+0x34>
 2004570:	88200437 	lui	v1,0x4008
 2004574:	8c410803 	lb	v1,66(v1)
 2004578:	fc41d0e3 	bnez	v1,2004560 <t2_taskA3_generic_EINKLEMMSCHUTZ_CTRL+0x34>
 200457c:	88200437 	lui	v1,0x4008
 2004580:	8c413c03 	lb	v1,79(v1)
 2004584:	04402063 	beqz	v1,2004594 <t2_taskA3_generic_EINKLEMMSCHUTZ_CTRL+0x68>
 2004588:	88200437 	lui	v1,0x4008
 200458c:	8c413003 	lb	v1,76(v1)
 2004590:	fc41a0e3 	bnez	v1,2004560 <t2_taskA3_generic_EINKLEMMSCHUTZ_CTRL+0x34>
 2004594:	88200437 	lui	v1,0x4008
 2004598:	04407423 	sb	zero,29(v1)
 200459c:	88000413 	li	v1,1
 20045a0:	04226023 	sb	v1,24(v0)
 20045a4:	80000813 	li	v0,2
 20045a8:	04a03823 	sb	v0,14(a0)
 20045ac:	004000eb 	ret
 20045b0:	88200437 	lui	v1,0x4008
 20045b4:	8c410c03 	lb	v1,67(v1)
 20045b8:	04006023 	sb	zero,24(v0)
 20045bc:	fc4148e3 	bnez	v1,2004560 <t2_taskA3_generic_EINKLEMMSCHUTZ_CTRL+0x34>
 20045c0:	80200437 	lui	v0,0x4008
 20045c4:	84010803 	lb	v0,66(v0)
 20045c8:	fc013063 	beqz	v0,2004560 <t2_taskA3_generic_EINKLEMMSCHUTZ_CTRL+0x34>
 20045cc:	80200437 	lui	v0,0x4008
 20045d0:	04007423 	sb	zero,29(v0)
 20045d4:	04a63823 	sb	a1,14(a0)
 20045d8:	004000eb 	ret

020045dc <t2_taskA3_generic_BLOCK_ERKENNUNG_CTRL>:
 20045dc:	88200437 	lui	v1,0x4008
 20045e0:	84431013 	add	v0,v1,196
 20045e4:	94004c03 	lb	a0,19(v0)
 20045e8:	048038e3 	bnez	a0,2004604 <t2_taskA3_generic_BLOCK_ERKENNUNG_CTRL+0x28>
 20045ec:	94005403 	lb	a0,21(v0)
 20045f0:	04807063 	beqz	a0,2004628 <t2_taskA3_generic_BLOCK_ERKENNUNG_CTRL+0x4c>
 20045f4:	84005003 	lb	v0,20(v0)
 20045f8:	040060e3 	bnez	v0,2004628 <t2_taskA3_generic_BLOCK_ERKENNUNG_CTRL+0x4c>
 20045fc:	0c411023 	sb	zero,196(v1)
 2004600:	004000eb 	ret
 2004604:	90200437 	lui	a0,0x4008
 2004608:	84803003 	lb	v0,12(a0)
 200460c:	98000413 	li	a1,1
 2004610:	04263863 	beq	v0,a1,200462c <t2_taskA3_generic_BLOCK_ERKENNUNG_CTRL+0x50>
 2004614:	a0000813 	li	a2,2
 2004618:	0428d863 	beq	v0,a2,2004684 <t2_taskA3_generic_BLOCK_ERKENNUNG_CTRL+0xa8>
 200461c:	80200437 	lui	v0,0x4008
 2004620:	04007423 	sb	zero,29(v0)
 2004624:	04a63023 	sb	a1,12(a0)
 2004628:	004000eb 	ret
 200462c:	98200437 	lui	a1,0x4008
 2004630:	a0200437 	lui	a2,0x4008
 2004634:	9cc24103 	lw	a1,144(a1)
 2004638:	a5023103 	lw	a2,140(a2)
 200463c:	fce9d863 	beq	a1,a2,2004628 <t2_taskA3_generic_BLOCK_ERKENNUNG_CTRL+0x4c>
 2004640:	f827d2e3 	blez	a1,2004628 <t2_taskA3_generic_BLOCK_ERKENNUNG_CTRL+0x4c>
 2004644:	98200437 	lui	a1,0x4008
 2004648:	04c07423 	sb	zero,29(a1)
 200464c:	98200437 	lui	a1,0x4008
 2004650:	04c14823 	sb	zero,82(a1)
 2004654:	98000813 	li	a1,2
 2004658:	04a63023 	sb	a1,12(a0)
 200465c:	90200437 	lui	a0,0x4008
 2004660:	98000813 	li	a1,2
 2004664:	0481b123 	sw	zero,108(a0)
 2004668:	90200437 	lui	a0,0x4008
 200466c:	04a7d123 	sw	a1,116(a0)
 2004670:	98000c13 	li	a1,3
 2004674:	90200437 	lui	a0,0x4008
 2004678:	04a63423 	sb	a1,13(a0)
 200467c:	0c611023 	sb	v0,196(v1)
 2004680:	004000eb 	ret
 2004684:	80200437 	lui	v0,0x4008
 2004688:	84011803 	lb	v0,70(v0)
 200468c:	0400c063 	beqz	v0,20046ec <t2_taskA3_generic_BLOCK_ERKENNUNG_CTRL+0x110>
 2004690:	80200437 	lui	v0,0x4008
 2004694:	84012403 	lb	v0,73(v0)
 2004698:	040020e3 	bnez	v0,20046a8 <t2_taskA3_generic_BLOCK_ERKENNUNG_CTRL+0xcc>
 200469c:	80200437 	lui	v0,0x4008
 20046a0:	84011c03 	lb	v0,71(v0)
 20046a4:	0400a8e3 	bnez	v0,20046f8 <t2_taskA3_generic_BLOCK_ERKENNUNG_CTRL+0x11c>
 20046a8:	90200437 	lui	a0,0x4008
 20046ac:	84803403 	lb	v0,13(a0)
 20046b0:	98000813 	li	a1,2
 20046b4:	0427b063 	beq	v0,a1,200478c <t2_taskA3_generic_BLOCK_ERKENNUNG_CTRL+0x1b0>
 20046b8:	a0000c13 	li	a2,3
 20046bc:	0428b863 	beq	v0,a2,2004718 <t2_taskA3_generic_BLOCK_ERKENNUNG_CTRL+0x13c>
 20046c0:	a8000413 	li	a3,1
 20046c4:	042aa063 	beq	v0,a3,2004714 <t2_taskA3_generic_BLOCK_ERKENNUNG_CTRL+0x138>
 20046c8:	80200437 	lui	v0,0x4008
 20046cc:	04007423 	sb	zero,29(v0)
 20046d0:	80200437 	lui	v0,0x4008
 20046d4:	0401b123 	sw	zero,108(v0)
 20046d8:	80200437 	lui	v0,0x4008
 20046dc:	0427d123 	sw	a1,116(v0)
 20046e0:	04a83423 	sb	a2,13(a0)
 20046e4:	0c6b1023 	sb	a3,196(v1)
 20046e8:	004000eb 	ret
 20046ec:	80200437 	lui	v0,0x4008
 20046f0:	84011003 	lb	v0,68(v0)
 20046f4:	fc013863 	beqz	v0,2004690 <t2_taskA3_generic_BLOCK_ERKENNUNG_CTRL+0xb4>
 20046f8:	80200437 	lui	v0,0x4008
 20046fc:	04007423 	sb	zero,29(v0)
 2004700:	80000413 	li	v0,1
 2004704:	04a03023 	sb	v0,12(a0)
 2004708:	80200437 	lui	v0,0x4008
 200470c:	04003423 	sb	zero,13(v0)
 2004710:	004000eb 	ret
 2004714:	004000eb 	ret
 2004718:	a0200437 	lui	a2,0x4008
 200471c:	8501b103 	lw	v0,108(a2)
 2004720:	0c411023 	sb	zero,196(v1)
 2004724:	88002c13 	li	v1,11
 2004728:	04233063 	beq	v0,v1,20047c0 <t2_taskA3_generic_BLOCK_ERKENNUNG_CTRL+0x1e4>
 200472c:	88200437 	lui	v1,0x4008
 2004730:	94407003 	lb	a0,28(v1)
 2004734:	88000413 	li	v1,1
 2004738:	f4a3e0e3 	bne	a0,v1,2004628 <t2_taskA3_generic_BLOCK_ERKENNUNG_CTRL+0x4c>
 200473c:	88200437 	lui	v1,0x4008
 2004740:	8c430103 	lw	v1,192(v1)
 2004744:	f441c863 	beqz	v1,2004628 <t2_taskA3_generic_BLOCK_ERKENNUNG_CTRL+0x4c>
 2004748:	90200437 	lui	a0,0x4008
 200474c:	94808103 	lw	a0,32(a0)
 2004750:	8ca30033 	sub	v1,a0,v1
 2004754:	8c40f0d3 	fcvt.d.wu	fv1,v1
 2004758:	88200037 	lui	v1,0x4000
 200475c:	84402187 	fld	fv0,8(v1)
 2004760:	8c6150d3 	feq.d	v1,fv1,fv0
 2004764:	f4418863 	beqz	v1,2004628 <t2_taskA3_generic_BLOCK_ERKENNUNG_CTRL+0x4c>
 2004768:	88200437 	lui	v1,0x4008
 200476c:	90200437 	lui	a0,0x4008
 2004770:	94824103 	lw	a0,144(a0)
 2004774:	9c41d103 	lw	a1,116(v1)
 2004778:	84000413 	add	v0,v0,1
 200477c:	0521b123 	sw	v0,108(a2)
 2004780:	f4e552e3 	ble	a0,a1,2004628 <t2_taskA3_generic_BLOCK_ERKENNUNG_CTRL+0x4c>
 2004784:	0465d123 	sw	a0,116(v1)
 2004788:	004000eb 	ret
 200478c:	80200437 	lui	v0,0x4008
 2004790:	8c01d103 	lw	v1,116(v0)
 2004794:	80200437 	lui	v0,0x4008
 2004798:	84024103 	lw	v0,144(v0)
 200479c:	8c7ffc13 	add	v1,v1,-1
 20047a0:	f4231263 	blt	v0,v1,2004628 <t2_taskA3_generic_BLOCK_ERKENNUNG_CTRL+0x4c>
 20047a4:	88200437 	lui	v1,0x4008
 20047a8:	80000413 	li	v0,1
 20047ac:	04407423 	sb	zero,29(v1)
 20047b0:	88200437 	lui	v1,0x4008
 20047b4:	04614823 	sb	v0,82(v1)
 20047b8:	04a03423 	sb	v0,13(a0)
 20047bc:	004000eb 	ret
 20047c0:	88200437 	lui	v1,0x4008
 20047c4:	8c419103 	lw	v1,100(v1)
 20047c8:	fc60c863 	beq	v1,v0,200472c <t2_taskA3_generic_BLOCK_ERKENNUNG_CTRL+0x150>
 20047cc:	80200437 	lui	v0,0x4008
 20047d0:	04007423 	sb	zero,29(v0)
 20047d4:	04a63423 	sb	a1,13(a0)
 20047d8:	004000eb 	ret

020047dc <t2_taskA3_FH_DU>:
 20047dc:	73be2013 	add	sp,sp,-120
 20047e0:	0385c123 	sw	s0,112(sp)
 20047e4:	10200437 	lui	s0,0x4008
 20047e8:	0387b123 	sw	s1,108(sp)
 20047ec:	0389a123 	sw	s2,104(sp)
 20047f0:	038b9123 	sw	s3,100(sp)
 20047f4:	038d8123 	sw	s4,96(sp)
 20047f8:	038f7123 	sw	s5,92(sp)
 20047fc:	03916123 	sw	s6,88(sp)
 2004800:	03935123 	sw	s7,84(sp)
 2004804:	03954123 	sw	s8,80(sp)
 2004808:	03973123 	sw	s9,76(sp)
 200480c:	03992123 	sw	s10,72(sp)
 2004810:	039b1123 	sw	s11,68(sp)
 2004814:	0383d123 	sw	ra,116(sp)
 2004818:	10831013 	add	s0,s0,196
 200481c:	88000413 	li	v1,1
 2004820:	80200437 	lui	v0,0x4008
 2004824:	04228123 	sw	v1,32(v0)
 2004828:	a8804003 	lb	a3,16(s0)
 200482c:	88802803 	lb	v1,10(s0)
 2004830:	b0804c03 	lb	a4,19(s0)
 2004834:	b8803403 	lb	a5,13(s0)
 2004838:	80200437 	lui	v0,0x4008
 200483c:	c0200437 	lui	a6,0x4008
 2004840:	c8200437 	lui	a7,0x4008
 2004844:	04007023 	sb	zero,28(v0)
 2004848:	03a2a123 	sw	v1,40(sp)
 200484c:	8600d803 	lb	v0,54(a6)
 2004850:	03aac123 	sw	a3,48(sp)
 2004854:	03acd123 	sw	a4,52(sp)
 2004858:	03aeb123 	sw	a5,44(sp)
 200485c:	c640d003 	lb	a6,52(a7)
 2004860:	58200437 	lui	s9,0x4008
 2004864:	60200437 	lui	s10,0x4008
 2004868:	20200437 	lui	s2,0x4008
 200486c:	e0200437 	lui	a10,0x4008
 2004870:	18200437 	lui	s1,0x4008
 2004874:	50200437 	lui	s8,0x4008
 2004878:	48200437 	lui	s7,0x4008
 200487c:	40200437 	lui	s6,0x4008
 2004880:	38200437 	lui	s5,0x4008
 2004884:	30200437 	lui	s4,0x4008
 2004888:	28200437 	lui	s3,0x4008
 200488c:	a0200437 	lui	a2,0x4008
 2004890:	98200437 	lui	a1,0x4008
 2004894:	90200437 	lui	a0,0x4008
 2004898:	88200437 	lui	v1,0x4008
 200489c:	68200437 	lui	s11,0x4008
 20048a0:	00016e67 	j	2004e58 <t2_taskA3_FH_DU+0x67c>
 20048a4:	b0000c13 	li	a4,3
 20048a8:	356c2063 	beq	a3,a4,2004eb8 <t2_taskA3_FH_DU+0x6dc>
 20048ac:	b0000413 	li	a4,1
 20048b0:	356c7863 	beq	a3,a4,2004eec <t2_taskA3_FH_DU+0x710>
 20048b4:	f8200437 	lui	a13,0x4008
 20048b8:	a8200437 	lui	a3,0x4008
 20048bc:	b8000813 	li	a5,2
 20048c0:	b0200437 	lui	a4,0x4008
 20048c4:	07c07423 	sb	zero,29(a13)
 20048c8:	0d402123 	sw	zero,136(a3)
 20048cc:	05ae3c23 	sb	a5,15(a4)
 20048d0:	cb80a103 	lw	a7,40(sp)
 20048d4:	064020e3 	bnez	a7,20048e4 <t2_taskA3_FH_DU+0x108>
 20048d8:	a8000c13 	li	a3,3
 20048dc:	d0200437 	lui	a8,0x4008
 20048e0:	06aa6023 	sb	a3,24(a8)
 20048e4:	db80c103 	lw	a9,48(sp)
 20048e8:	06c020e3 	bnez	a9,20048f8 <t2_taskA3_FH_DU+0x11c>
 20048ec:	b0000413 	li	a4,1
 20048f0:	a8200437 	lui	a3,0x4008
 20048f4:	056c3823 	sb	a4,14(a3)
 20048f8:	eb80d103 	lw	a11,52(sp)
 20048fc:	074030e3 	bnez	a11,2004914 <t2_taskA3_FH_DU+0x138>
 2004900:	a8200437 	lui	a3,0x4008
 2004904:	0d411023 	sb	zero,196(a3)
 2004908:	b0000413 	li	a4,1
 200490c:	a8200437 	lui	a3,0x4008
 2004910:	056c3023 	sb	a4,12(a3)
 2004914:	f380b103 	lw	a12,44(sp)
 2004918:	078070e3 	bnez	a12,2004950 <t2_taskA3_FH_DU+0x174>
 200491c:	b0000813 	li	a4,2
 2004920:	f8200437 	lui	a13,0x4008
 2004924:	a8000413 	li	a3,1
 2004928:	07ec5c23 	sb	a4,23(a13)
 200492c:	b0200437 	lui	a4,0x4008
 2004930:	b8200437 	lui	a5,0x4008
 2004934:	05aa5823 	sb	a3,22(a4)
 2004938:	b0200437 	lui	a4,0x4008
 200493c:	00801023 	sb	zero,4(s0)
 2004940:	00801823 	sb	zero,6(s0)
 2004944:	0dc0a123 	sw	zero,168(a5)
 2004948:	00aa1423 	sb	a3,5(s0)
 200494c:	05aa5423 	sb	a3,21(a4)
 2004950:	a8000413 	li	a3,1
 2004954:	00aa2c23 	sb	a3,11(s0)
 2004958:	00aa4423 	sb	a3,17(s0)
 200495c:	00aa5023 	sb	a3,20(s0)
 2004960:	00aa3823 	sb	a3,14(s0)
 2004964:	04302863 	beq	v0,a6,2004978 <t2_taskA3_FH_DU+0x19c>
 2004968:	a8200437 	lui	a3,0x4008
 200496c:	ad40b403 	lb	a3,45(a3)
 2004970:	054010e3 	bnez	a3,2004978 <t2_taskA3_FH_DU+0x19c>
 2004974:	0120f823 	sb	v0,62(s2)
 2004978:	c0200437 	lui	a6,0x4008
 200497c:	c8200437 	lui	a7,0x4008
 2004980:	8600cc03 	lb	v0,51(a6)
 2004984:	ae40c803 	lb	a3,50(a7)
 2004988:	05603063 	beq	a3,v0,20049a0 <t2_taskA3_FH_DU+0x1c4>
 200498c:	a8200437 	lui	a3,0x4008
 2004990:	ad40b403 	lb	a3,45(a3)
 2004994:	05401863 	beqz	a3,20049a0 <t2_taskA3_FH_DU+0x1c4>
 2004998:	d0200437 	lui	a8,0x4008
 200499c:	06a0d823 	sb	v0,54(a8)
 20049a0:	d8200437 	lui	a9,0x4008
 20049a4:	8700e403 	lb	v0,57(a10)
 20049a8:	aec0dc03 	lb	a3,55(a9)
 20049ac:	05602863 	beq	a3,v0,20049c0 <t2_taskA3_FH_DU+0x1e4>
 20049b0:	a8200437 	lui	a3,0x4008
 20049b4:	ad40b403 	lb	a3,45(a3)
 20049b8:	054010e3 	bnez	a3,20049c0 <t2_taskA3_FH_DU+0x1e4>
 20049bc:	00e0f423 	sb	v0,61(s1)
 20049c0:	e8200437 	lui	a11,0x4008
 20049c4:	f0200437 	lui	a12,0x4008
 20049c8:	8740c403 	lb	v0,49(a11)
 20049cc:	af80c003 	lb	a3,48(a12)
 20049d0:	05602863 	beq	a3,v0,20049e4 <t2_taskA3_FH_DU+0x208>
 20049d4:	a8200437 	lui	a3,0x4008
 20049d8:	ad40b403 	lb	a3,45(a3)
 20049dc:	05401063 	beqz	a3,20049e4 <t2_taskA3_FH_DU+0x208>
 20049e0:	0720e423 	sb	v0,57(a10)
 20049e4:	d8803203 	lbu	a9,12(s0)
 20049e8:	d0803e03 	lbu	a8,15(s0)
 20049ec:	c8804a03 	lbu	a7,18(s0)
 20049f0:	c0805603 	lbu	a6,21(s0)
 20049f4:	ba40ba03 	lbu	a5,46(s7)
 20049f8:	b0c0f603 	lbu	a4,61(s1)
 20049fc:	a980be03 	lbu	a3,47(s4)
 2004a00:	8100fa03 	lbu	v0,62(s2)
 2004a04:	00b62823 	sb	a9,10(s0)
 2004a08:	00b43423 	sb	a8,13(s0)
 2004a0c:	00b24023 	sb	a7,16(s0)
 2004a10:	00b04c23 	sb	a6,19(s0)
 2004a14:	02af5823 	sb	a5,86(s8)
 2004a18:	03b86123 	sw	a10,24(sp)
 2004a1c:	022d6023 	sb	a4,88(s6)
 2004a20:	01eb6823 	sb	a3,90(s5)
 2004a24:	01617023 	sb	v0,92(s3)
 2004a28:	03a25123 	sw	v1,20(sp)
 2004a2c:	03a48123 	sw	a0,32(sp)
 2004a30:	03a64123 	sw	a1,16(sp)
 2004a34:	03a87123 	sw	a2,28(sp)
 2004a38:	fffbe46f 	jal	20039c8 <t2_taskA3_generic_KINDERSICHERUNG_CTRL>
 2004a3c:	a3807103 	lw	a2,28(sp)
 2004a40:	9b804103 	lw	a1,16(sp)
 2004a44:	f8200437 	lui	a13,0x4008
 2004a48:	80200437 	lui	v0,0x4008
 2004a4c:	0fc11a03 	lbu	ra,70(a13)
 2004a50:	93808103 	lw	a0,32(sp)
 2004a54:	fc012603 	lbu	a13,73(v0)
 2004a58:	8b805103 	lw	v1,20(sp)
 2004a5c:	f5024103 	lw	a12,144(a2)
 2004a60:	a8200437 	lui	a3,0x4008
 2004a64:	ed410e03 	lbu	a11,67(a3)
 2004a68:	dcc25103 	lw	a9,148(a1)
 2004a6c:	d4814203 	lbu	a8,80(a0)
 2004a70:	ac415203 	lbu	a3,84(v1)
 2004a74:	ca815a03 	lbu	a7,86(s8)
 2004a78:	c2016203 	lbu	a6,88(s6)
 2004a7c:	b9c16a03 	lbu	a5,90(s5)
 2004a80:	b1417203 	lbu	a4,92(s3)
 2004a84:	83414e03 	lbu	v0,83(s11)
 2004a88:	02fea423 	sb	a13,41(s9)
 2004a8c:	f8200437 	lui	a13,0x4008
 2004a90:	07fdf123 	sw	a12,124(a13)
 2004a94:	f8200437 	lui	a13,0x4008
 2004a98:	f0200437 	lui	a12,0x4008
 2004a9c:	07baec23 	sb	a11,59(a12)
 2004aa0:	0ff60123 	sw	a9,128(a13)
 2004aa4:	e8200437 	lui	a11,0x4008
 2004aa8:	d8200437 	lui	a9,0x4008
 2004aac:	f0200437 	lui	a12,0x4008
 2004ab0:	06f4f023 	sb	a8,60(a9)
 2004ab4:	076afc23 	sb	a3,63(a11)
 2004ab8:	07a0b023 	sb	v0,44(a12)
 2004abc:	03029823 	sb	ra,38(s10)
 2004ac0:	0272b823 	sb	a7,46(s7)
 2004ac4:	00f0f423 	sb	a6,61(s1)
 2004ac8:	01aebc23 	sb	a5,47(s4)
 2004acc:	012cf823 	sb	a4,62(s2)
 2004ad0:	fffc986f 	jal	2003d30 <t2_taskA3_generic_FH_TUERMODUL_CTRL>
 2004ad4:	a3807103 	lw	a2,28(sp)
 2004ad8:	9b804103 	lw	a1,16(sp)
 2004adc:	f8200437 	lui	a13,0x4008
 2004ae0:	80200437 	lui	v0,0x4008
 2004ae4:	0fc11a03 	lbu	ra,70(a13)
 2004ae8:	93808103 	lw	a0,32(sp)
 2004aec:	fc012603 	lbu	a13,73(v0)
 2004af0:	8b805103 	lw	v1,20(sp)
 2004af4:	f5024103 	lw	a12,144(a2)
 2004af8:	a8200437 	lui	a3,0x4008
 2004afc:	ed410e03 	lbu	a11,67(a3)
 2004b00:	dcc25103 	lw	a9,148(a1)
 2004b04:	d4814203 	lbu	a8,80(a0)
 2004b08:	ac415203 	lbu	a3,84(v1)
 2004b0c:	ca815a03 	lbu	a7,86(s8)
 2004b10:	c2016203 	lbu	a6,88(s6)
 2004b14:	b9c16a03 	lbu	a5,90(s5)
 2004b18:	b1417203 	lbu	a4,92(s3)
 2004b1c:	83414e03 	lbu	v0,83(s11)
 2004b20:	02fea423 	sb	a13,41(s9)
 2004b24:	f8200437 	lui	a13,0x4008
 2004b28:	07fdf123 	sw	a12,124(a13)
 2004b2c:	f8200437 	lui	a13,0x4008
 2004b30:	f0200437 	lui	a12,0x4008
 2004b34:	07baec23 	sb	a11,59(a12)
 2004b38:	0ff60123 	sw	a9,128(a13)
 2004b3c:	e8200437 	lui	a11,0x4008
 2004b40:	d8200437 	lui	a9,0x4008
 2004b44:	f0200437 	lui	a12,0x4008
 2004b48:	06f4f023 	sb	a8,60(a9)
 2004b4c:	076afc23 	sb	a3,63(a11)
 2004b50:	07a0b023 	sb	v0,44(a12)
 2004b54:	03029823 	sb	ra,38(s10)
 2004b58:	0272b823 	sb	a7,46(s7)
 2004b5c:	00f0f423 	sb	a6,61(s1)
 2004b60:	01aebc23 	sb	a5,47(s4)
 2004b64:	012cf823 	sb	a4,62(s2)
 2004b68:	fffe716f 	jal	200452c <t2_taskA3_generic_EINKLEMMSCHUTZ_CTRL>
 2004b6c:	a3807103 	lw	a2,28(sp)
 2004b70:	9b804103 	lw	a1,16(sp)
 2004b74:	f8200437 	lui	a13,0x4008
 2004b78:	80200437 	lui	v0,0x4008
 2004b7c:	0fc11a03 	lbu	ra,70(a13)
 2004b80:	93808103 	lw	a0,32(sp)
 2004b84:	fc012603 	lbu	a13,73(v0)
 2004b88:	8b805103 	lw	v1,20(sp)
 2004b8c:	f5024103 	lw	a12,144(a2)
 2004b90:	a8200437 	lui	a3,0x4008
 2004b94:	ed410e03 	lbu	a11,67(a3)
 2004b98:	dcc25103 	lw	a9,148(a1)
 2004b9c:	d4814203 	lbu	a8,80(a0)
 2004ba0:	ac415203 	lbu	a3,84(v1)
 2004ba4:	ca815a03 	lbu	a7,86(s8)
 2004ba8:	c2016203 	lbu	a6,88(s6)
 2004bac:	b9c16a03 	lbu	a5,90(s5)
 2004bb0:	b1417203 	lbu	a4,92(s3)
 2004bb4:	83414e03 	lbu	v0,83(s11)
 2004bb8:	02fea423 	sb	a13,41(s9)
 2004bbc:	f8200437 	lui	a13,0x4008
 2004bc0:	07fdf123 	sw	a12,124(a13)
 2004bc4:	f8200437 	lui	a13,0x4008
 2004bc8:	f0200437 	lui	a12,0x4008
 2004bcc:	07baec23 	sb	a11,59(a12)
 2004bd0:	0ff60123 	sw	a9,128(a13)
 2004bd4:	e8200437 	lui	a11,0x4008
 2004bd8:	d8200437 	lui	a9,0x4008
 2004bdc:	f0200437 	lui	a12,0x4008
 2004be0:	06f4f023 	sb	a8,60(a9)
 2004be4:	076afc23 	sb	a3,63(a11)
 2004be8:	07a0b023 	sb	v0,44(a12)
 2004bec:	0272b823 	sb	a7,46(s7)
 2004bf0:	00f0f423 	sb	a6,61(s1)
 2004bf4:	01aebc23 	sb	a5,47(s4)
 2004bf8:	012cf823 	sb	a4,62(s2)
 2004bfc:	03029823 	sb	ra,38(s10)
 2004c00:	fffe776f 	jal	20045dc <t2_taskA3_generic_BLOCK_ERKENNUNG_CTRL>
 2004c04:	d0803403 	lb	a8,13(s0)
 2004c08:	d8804003 	lb	a9,16(s0)
 2004c0c:	a3807103 	lw	a2,28(sp)
 2004c10:	c8802803 	lb	a7,10(s0)
 2004c14:	f8200437 	lui	a13,0x4008
 2004c18:	afc10c03 	lb	a3,67(a13)
 2004c1c:	b2815803 	lb	a4,86(s8)
 2004c20:	f8804c03 	lb	a13,19(s0)
 2004c24:	9b804103 	lw	a1,16(sp)
 2004c28:	85024103 	lw	v0,144(a2)
 2004c2c:	ba016003 	lb	a5,88(s6)
 2004c30:	93808103 	lw	a0,32(sp)
 2004c34:	03b4b123 	sw	a8,44(sp)
 2004c38:	03b6c123 	sw	a9,48(sp)
 2004c3c:	d0200437 	lui	a8,0x4008
 2004c40:	d8200437 	lui	a9,0x4008
 2004c44:	03b2a123 	sw	a7,40(sp)
 2004c48:	ce82a103 	lw	a7,168(a8)
 2004c4c:	d6c21103 	lw	a8,132(a9)
 2004c50:	d8200437 	lui	a9,0x4008
 2004c54:	03ace123 	sw	a4,56(sp)
 2004c58:	03bed123 	sw	a13,52(sp)
 2004c5c:	b4c25103 	lw	a4,148(a1)
 2004c60:	fec1b103 	lw	a13,108(a9)
 2004c64:	d8200437 	lui	a9,0x4008
 2004c68:	03ae3123 	sw	a5,12(sp)
 2004c6c:	06e1f123 	sw	v0,124(a9)
 2004c70:	bc814203 	lbu	a5,80(a0)
 2004c74:	d8200437 	lui	a9,0x4008
 2004c78:	06eaec23 	sb	a3,59(a9)
 2004c7c:	d8200437 	lui	a9,0x4008
 2004c80:	0eec0123 	sw	a4,128(a9)
 2004c84:	8b805103 	lw	v1,20(sp)
 2004c88:	b0200437 	lui	a4,0x4008
 2004c8c:	05aef023 	sb	a5,60(a4)
 2004c90:	db803103 	lw	a9,12(sp)
 2004c94:	bb80e103 	lw	a5,56(sp)
 2004c98:	c4415203 	lbu	a6,84(v1)
 2004c9c:	e9c16803 	lb	a11,90(s5)
 2004ca0:	f1417003 	lb	a12,92(s3)
 2004ca4:	026eb823 	sb	a5,46(s7)
 2004ca8:	00f6f423 	sb	a9,61(s1)
 2004cac:	bb80a103 	lw	a5,40(sp)
 2004cb0:	db80c103 	lw	a9,48(sp)
 2004cb4:	b0200437 	lui	a4,0x4008
 2004cb8:	05b0fc23 	sb	a6,63(a4)
 2004cbc:	c380b103 	lw	a6,44(sp)
 2004cc0:	00ae2c23 	sb	a5,11(s0)
 2004cc4:	b8200437 	lui	a5,0x4008
 2004cc8:	00b64423 	sb	a9,17(s0)
 2004ccc:	b380d103 	lw	a4,52(sp)
 2004cd0:	0df28123 	sw	a7,160(a5)
 2004cd4:	d8200437 	lui	a9,0x4008
 2004cd8:	c8200437 	lui	a7,0x4008
 2004cdc:	00b03823 	sb	a6,14(s0)
 2004ce0:	0e742123 	sw	a8,136(a7)
 2004ce4:	06ff9123 	sw	a13,100(a9)
 2004ce8:	c0200437 	lui	a6,0x4008
 2004cec:	d0200437 	lui	a8,0x4008
 2004cf0:	f8200437 	lui	a13,0x4008
 2004cf4:	dfc14803 	lb	a9,82(a13)
 2004cf8:	0e203123 	sw	v0,140(a6)
 2004cfc:	06a1e123 	sw	v0,120(a8)
 2004d00:	b8200437 	lui	a5,0x4008
 2004d04:	80200437 	lui	v0,0x4008
 2004d08:	f8200437 	lui	a13,0x4008
 2004d0c:	d4013803 	lb	a8,78(v0)
 2004d10:	c5c12003 	lb	a6,72(a5)
 2004d14:	00ac5023 	sb	a4,20(s0)
 2004d18:	bfc11403 	lb	a5,69(a13)
 2004d1c:	b0200437 	lui	a4,0x4008
 2004d20:	80200437 	lui	v0,0x4008
 2004d24:	f8200437 	lui	a13,0x4008
 2004d28:	cd812c03 	lb	a7,75(a4)
 2004d2c:	b400ac03 	lb	a4,43(v0)
 2004d30:	87c0d803 	lb	v0,54(a13)
 2004d34:	f8200437 	lui	a13,0x4008
 2004d38:	ffc0ce03 	lbu	a13,51(a13)
 2004d3c:	013cf823 	sb	a12,62(s2)
 2004d40:	01babc23 	sb	a11,47(s4)
 2004d44:	03be9c23 	sb	a13,39(sp)
 2004d48:	f8200437 	lui	a13,0x4008
 2004d4c:	ffc0c603 	lbu	a13,49(a13)
 2004d50:	e3806103 	lw	a10,24(sp)
 2004d54:	03be9823 	sb	a13,38(sp)
 2004d58:	f8200437 	lui	a13,0x4008
 2004d5c:	ffc0a003 	lb	a13,40(a13)
 2004d60:	03bef123 	sw	a13,60(sp)
 2004d64:	f8200437 	lui	a13,0x4008
 2004d68:	07fd6c23 	sb	a12,91(a13)
 2004d6c:	f0200437 	lui	a12,0x4008
 2004d70:	07bb6423 	sb	a11,89(a12)
 2004d74:	eb803103 	lw	a11,12(sp)
 2004d78:	f8200437 	lui	a13,0x4008
 2004d7c:	f0200437 	lui	a12,0x4008
 2004d80:	07fb5c23 	sb	a11,87(a13)
 2004d84:	fb80e103 	lw	a13,56(sp)
 2004d88:	e8200437 	lui	a11,0x4008
 2004d8c:	07774423 	sb	a9,81(a11)
 2004d90:	07bf5423 	sb	a13,85(a12)
 2004d94:	f0200437 	lui	a12,0x4008
 2004d98:	f8200437 	lui	a13,0x4008
 2004d9c:	07b53c23 	sb	a8,79(a12)
 2004da0:	07f53423 	sb	a8,77(a13)
 2004da4:	e8200437 	lui	a11,0x4008
 2004da8:	d0200437 	lui	a8,0x4008
 2004dac:	03774c23 	sb	a9,83(s11)
 2004db0:	d8200437 	lui	a9,0x4008
 2004db4:	06b33023 	sb	a7,76(a8)
 2004db8:	06f32823 	sb	a7,74(a9)
 2004dbc:	07712423 	sb	a6,73(a11)
 2004dc0:	c8200437 	lui	a7,0x4008
 2004dc4:	d0200437 	lui	a8,0x4008
 2004dc8:	ef00e603 	lbu	a11,57(a10)
 2004dcc:	f0200437 	lui	a12,0x4008
 2004dd0:	066b0823 	sb	a3,66(a7)
 2004dd4:	06aae823 	sb	a3,58(a8)
 2004dd8:	ab809e03 	lbu	a3,39(sp)
 2004ddc:	07b11c23 	sb	a6,71(a12)
 2004de0:	f8200437 	lui	a13,0x4008
 2004de4:	c0200437 	lui	a6,0x4008
 2004de8:	d8200437 	lui	a9,0x4008
 2004dec:	f0200437 	lui	a12,0x4008
 2004df0:	07ef1823 	sb	a5,70(a13)
 2004df4:	062f1023 	sb	a5,68(a6)
 2004df8:	06fadc23 	sb	a11,55(a9)
 2004dfc:	f8200437 	lui	a13,0x4008
 2004e00:	07a0d023 	sb	v0,52(a12)
 2004e04:	c3809a03 	lbu	a6,38(sp)
 2004e08:	c8200437 	lui	a7,0x4008
 2004e0c:	d0200437 	lui	a8,0x4008
 2004e10:	e8200437 	lui	a11,0x4008
 2004e14:	f0200437 	lui	a12,0x4008
 2004e18:	07eac823 	sb	a3,50(a13)
 2004e1c:	db80f103 	lw	a9,60(sp)
 2004e20:	af409403 	lb	a3,37(a11)
 2004e24:	066cb023 	sb	a4,44(a7)
 2004e28:	06aca823 	sb	a4,42(a8)
 2004e2c:	b7807403 	lb	a4,29(a12)
 2004e30:	b8200437 	lui	a5,0x4008
 2004e34:	05f0c023 	sb	a6,48(a5)
 2004e38:	f8200437 	lui	a13,0x4008
 2004e3c:	b8200437 	lui	a5,0x4008
 2004e40:	02f6a423 	sb	a9,41(s9)
 2004e44:	07f69c23 	sb	a9,39(a13)
 2004e48:	032a9823 	sb	a3,38(s10)
 2004e4c:	05ea9023 	sb	a3,36(a5)
 2004e50:	0d8000e3 	bnez	a4,2004f50 <t2_taskA3_FH_DU+0x774>
 2004e54:	c4000013 	move	a6,v0
 2004e58:	d0200437 	lui	a8,0x4008
 2004e5c:	be807203 	lbu	a5,28(a8)
 2004e60:	d8200437 	lui	a9,0x4008
 2004e64:	aec03c03 	lb	a3,15(a9)
 2004e68:	b0000413 	li	a4,1
 2004e6c:	bdc00413 	add	a5,a5,1
 2004e70:	e8200437 	lui	a11,0x4008
 2004e74:	f0000813 	li	a12,2
 2004e78:	076c7423 	sb	a4,29(a11)
 2004e7c:	06ae7023 	sb	a5,28(a8)
 2004e80:	d57c48e3 	bne	a3,a12,20048a4 <t2_taskA3_FH_DU+0xc8>
 2004e84:	aac0a403 	lb	a3,41(s9)
 2004e88:	05412063 	beqz	a3,2004f18 <t2_taskA3_FH_DU+0x73c>
 2004e8c:	d0200437 	lui	a8,0x4008
 2004e90:	ae809c03 	lb	a3,39(a8)
 2004e94:	054108e3 	bnez	a3,2004f18 <t2_taskA3_FH_DU+0x73c>
 2004e98:	d8200437 	lui	a9,0x4008
 2004e9c:	a83e7013 	li	a3,-100
 2004ea0:	e8200437 	lui	a11,0x4008
 2004ea4:	f0200437 	lui	a12,0x4008
 2004ea8:	06c07423 	sb	zero,29(a9)
 2004eac:	0f6a2123 	sw	a3,136(a11)
 2004eb0:	07ac3c23 	sb	a4,15(a12)
 2004eb4:	fffe8767 	j	20048d0 <t2_taskA3_FH_DU+0xf4>
 2004eb8:	ab009803 	lb	a3,38(s10)
 2004ebc:	d54028e3 	bnez	a3,20048d0 <t2_taskA3_FH_DU+0xf4>
 2004ec0:	c8200437 	lui	a7,0x4008
 2004ec4:	ae409003 	lb	a3,36(a7)
 2004ec8:	d5401063 	beqz	a3,20048d0 <t2_taskA3_FH_DU+0xf4>
 2004ecc:	d0200437 	lui	a8,0x4008
 2004ed0:	d8200437 	lui	a9,0x4008
 2004ed4:	f0000813 	li	a12,2
 2004ed8:	e8200437 	lui	a11,0x4008
 2004edc:	06807423 	sb	zero,29(a8)
 2004ee0:	0ec02123 	sw	zero,136(a9)
 2004ee4:	077c3c23 	sb	a12,15(a11)
 2004ee8:	fffe7a67 	j	20048d0 <t2_taskA3_FH_DU+0xf4>
 2004eec:	aac0a403 	lb	a3,41(s9)
 2004ef0:	cd41c0e3 	bnez	a3,20048d0 <t2_taskA3_FH_DU+0xf4>
 2004ef4:	f8200437 	lui	a13,0x4008
 2004ef8:	afc09c03 	lb	a3,39(a13)
 2004efc:	cd41a863 	beqz	a3,20048d0 <t2_taskA3_FH_DU+0xf4>
 2004f00:	b0200437 	lui	a4,0x4008
 2004f04:	c8000813 	li	a7,2
 2004f08:	07407423 	sb	zero,29(a11)
 2004f0c:	0d802123 	sw	zero,136(a4)
 2004f10:	06f23c23 	sb	a7,15(a9)
 2004f14:	fffe6f67 	j	20048d0 <t2_taskA3_FH_DU+0xf4>
 2004f18:	ab009803 	lb	a3,38(s10)
 2004f1c:	cd416863 	beqz	a3,20048d0 <t2_taskA3_FH_DU+0xf4>
 2004f20:	f8200437 	lui	a13,0x4008
 2004f24:	afc09003 	lb	a3,36(a13)
 2004f28:	cd4150e3 	bnez	a3,20048d0 <t2_taskA3_FH_DU+0xf4>
 2004f2c:	a8200437 	lui	a3,0x4008
 2004f30:	05407423 	sb	zero,29(a3)
 2004f34:	b0200437 	lui	a4,0x4008
 2004f38:	a8019013 	li	a3,100
 2004f3c:	0daa2123 	sw	a3,136(a4)
 2004f40:	b8200437 	lui	a5,0x4008
 2004f44:	a8000c13 	li	a3,3
 2004f48:	05ea3c23 	sb	a3,15(a5)
 2004f4c:	fffe6167 	j	20048d0 <t2_taskA3_FH_DU+0xf4>
 2004f50:	0b81d103 	lw	ra,116(sp)
 2004f54:	1381c103 	lw	s0,112(sp)
 2004f58:	1b81b103 	lw	s1,108(sp)
 2004f5c:	2381a103 	lw	s2,104(sp)
 2004f60:	2b819103 	lw	s3,100(sp)
 2004f64:	33818103 	lw	s4,96(sp)
 2004f68:	3b817103 	lw	s5,92(sp)
 2004f6c:	43816103 	lw	s6,88(sp)
 2004f70:	4b815103 	lw	s7,84(sp)
 2004f74:	53814103 	lw	s8,80(sp)
 2004f78:	5b813103 	lw	s9,76(sp)
 2004f7c:	63812103 	lw	s10,72(sp)
 2004f80:	6b811103 	lw	s11,68(sp)
 2004f84:	7381e013 	add	sp,sp,120
 2004f88:	004000eb 	ret

02004f8c <t2_taskA3_main>:
 2004f8c:	73bfe013 	add	sp,sp,-8
 2004f90:	03840123 	sw	s0,0(sp)
 2004f94:	03821123 	sw	ra,4(sp)
 2004f98:	10030013 	li	s0,192
 2004f9c:	10bffc13 	add	s0,s0,-1
 2004fa0:	fffa636f 	jal	200392c <t2_taskA3_init>
 2004fa4:	fffa006f 	jal	20037a4 <t2_taskA3_interface>
 2004fa8:	fffe0d6f 	jal	20047dc <t2_taskA3_FH_DU>
 2004fac:	f881e0e3 	bnez	s0,2004f9c <t2_taskA3_main+0x10>
 2004fb0:	0b801103 	lw	ra,4(sp)
 2004fb4:	80000013 	li	v0,0
 2004fb8:	13800103 	lw	s0,0(sp)
 2004fbc:	73802013 	add	sp,sp,8
 2004fc0:	004000eb 	ret

02004fc4 <t3_exception_proxy>:
 2004fc4:	73bfe013 	add	sp,sp,-8
 2004fc8:	03821123 	sw	ra,4(sp)
 2004fcc:	7840017b 	mfpcr	tp,cr1
 2004fd0:	73bef013 	add	sp,sp,-68
 2004fd4:	039e1123 	sw	tp,4(sp)
 2004fd8:	03a02123 	sw	v0,8(sp)
 2004fdc:	03a23123 	sw	v1,12(sp)
 2004fe0:	03a44123 	sw	a0,16(sp)
 2004fe4:	03a65123 	sw	a1,20(sp)
 2004fe8:	03a86123 	sw	a2,24(sp)
 2004fec:	03aa7123 	sw	a3,28(sp)
 2004ff0:	03ac8123 	sw	a4,32(sp)
 2004ff4:	03ae9123 	sw	a5,36(sp)
 2004ff8:	03b0a123 	sw	a6,40(sp)
 2004ffc:	03b2b123 	sw	a7,44(sp)
 2005000:	03b4c123 	sw	a8,48(sp)
 2005004:	03b6d123 	sw	a9,52(sp)
 2005008:	03b8e123 	sw	a10,56(sp)
 200500c:	03baf123 	sw	a11,60(sp)
 2005010:	03bd0123 	sw	a12,64(sp)
 2005014:	03bf1123 	sw	a13,68(sp)
 2005018:	80200637 	lui	v0,0x400c
 200501c:	84002103 	lw	v0,8(v0)
 2005020:	0c00006b 	jalr	v0
 2005024:	7b801103 	lw	tp,4(sp)
 2005028:	83802103 	lw	v0,8(sp)
 200502c:	8b803103 	lw	v1,12(sp)
 2005030:	93804103 	lw	a0,16(sp)
 2005034:	9b805103 	lw	a1,20(sp)
 2005038:	a3806103 	lw	a2,24(sp)
 200503c:	ab807103 	lw	a3,28(sp)
 2005040:	b3808103 	lw	a4,32(sp)
 2005044:	bb809103 	lw	a5,36(sp)
 2005048:	c380a103 	lw	a6,40(sp)
 200504c:	cb80b103 	lw	a7,44(sp)
 2005050:	d380c103 	lw	a8,48(sp)
 2005054:	db80d103 	lw	a9,52(sp)
 2005058:	e380e103 	lw	a10,56(sp)
 200505c:	eb80f103 	lw	a11,60(sp)
 2005060:	f3810103 	lw	a12,64(sp)
 2005064:	fb811103 	lw	a13,68(sp)
 2005068:	73811013 	add	sp,sp,68
 200506c:	0b801103 	lw	ra,4(sp)
 2005070:	73802013 	add	sp,sp,8
 2005074:	03c0016b 	jr	tp
 2005078:	0b801103 	lw	ra,4(sp)
 200507c:	73802013 	add	sp,sp,8
 2005080:	004000eb 	ret

02005084 <t3_main>:
 2005084:	73bf6013 	add	sp,sp,-40
 2005088:	03886123 	sw	s2,24(sp)
 200508c:	20000c37 	lui	s2,0x18
 2005090:	03829123 	sw	ra,36(sp)
 2005094:	03848123 	sw	s0,32(sp)
 2005098:	03867123 	sw	s1,28(sp)
 200509c:	038a5123 	sw	s3,20(sp)
 20050a0:	038c4123 	sw	s4,16(sp)
 20050a4:	038e3123 	sw	s5,12(sp)
 20050a8:	03902123 	sw	s6,8(sp)
 20050ac:	03921123 	sw	s7,4(sp)
 20050b0:	211a8013 	add	s2,s2,1696
 20050b4:	80000013 	li	v0,0
 20050b8:	1c000013 	move	s1,v0
 20050bc:	11000013 	move	s0,s2
 20050c0:	00c4015b 	0xc4015b
 20050c4:	42c00037 	lui	s6,0x58000
 20050c8:	305f5e37 	lui	s4,0xbebc
 20050cc:	4a001013 	add	s7,s6,4
 20050d0:	28000013 	li	s3,0
 20050d4:	3c000037 	lui	s5,0x80000
 20050d8:	42003813 	add	s6,s6,14
 20050dc:	31880013 	add	s4,s4,512
 20050e0:	879201fb 	mtpcr	v0,s7,cr30
 20050e4:	1000005b 	0x1000005b
 20050e8:	80800013 	move	v0,s0
 20050ec:	840e0333 	or	v0,v0,s5
 20050f0:	87a001fb 	mtpcr	v0,v0,cr30
 20050f4:	0006076f 	jal	2006910 <t3_taskA4_main>
 20050f8:	879001fb 	mtpcr	v0,s6,cr30
 20050fc:	1000005b 	0x1000005b
 2005100:	80800013 	move	v0,s0
 2005104:	840e0333 	or	v0,v0,s5
 2005108:	87a001fb 	mtpcr	v0,v0,cr30
 200510c:	210c0033 	add	s2,s2,s4
 2005110:	810c01b3 	sltu	v0,s2,s4
 2005114:	29600033 	add	s3,s3,v0
 2005118:	19400013 	move	s1,s3
 200511c:	11000013 	move	s0,s2
 2005120:	00c4015b 	0xc4015b
 2005124:	ffffef67 	j	20050e0 <t3_main+0x5c>

02005128 <t3_taskA4_interface>:
 2005128:	80200637 	lui	v0,0x400c
 200512c:	8c031013 	add	v1,v0,196
 2005130:	94401003 	lb	a0,4(v1)
 2005134:	0c805063 	beqz	a0,200525c <t3_taskA4_interface+0x134>
 2005138:	88200637 	lui	v1,0x400c
 200513c:	8c408103 	lw	v1,32(v1)
 2005140:	90200637 	lui	a0,0x400c
 2005144:	0ca2e123 	sw	v1,184(a0)
 2005148:	90200637 	lui	a0,0x400c
 200514c:	0ca2f123 	sw	v1,188(a0)
 2005150:	90200637 	lui	a0,0x400c
 2005154:	8c82d103 	lw	v1,180(a0)
 2005158:	04404863 	beqz	v1,200517c <t3_taskA4_interface+0x54>
 200515c:	98200637 	lui	a1,0x400c
 2005160:	9cc08103 	lw	a1,32(a1)
 2005164:	8ce30033 	sub	v1,a1,v1
 2005168:	8c40f0d3 	fcvt.d.wu	fv1,v1
 200516c:	88200037 	lui	v1,0x4000
 2005170:	84400187 	fld	fv0,0(v1)
 2005174:	8c2370d3 	fle.d	v1,fv0,fv1
 2005178:	0c4050e3 	bnez	v1,20052a0 <t3_taskA4_interface+0x178>
 200517c:	90200637 	lui	a0,0x400c
 2005180:	8c82c103 	lw	v1,176(a0)
 2005184:	04404863 	beqz	v1,20051a8 <t3_taskA4_interface+0x80>
 2005188:	98200637 	lui	a1,0x400c
 200518c:	9cc08103 	lw	a1,32(a1)
 2005190:	8ce30033 	sub	v1,a1,v1
 2005194:	8c40f0d3 	fcvt.d.wu	fv1,v1
 2005198:	88200037 	lui	v1,0x4000
 200519c:	84400187 	fld	fv0,0(v1)
 20051a0:	8c2370d3 	fle.d	v1,fv0,fv1
 20051a4:	0441d8e3 	bnez	v1,2005290 <t3_taskA4_interface+0x168>
 20051a8:	90200637 	lui	a0,0x400c
 20051ac:	8c82b103 	lw	v1,172(a0)
 20051b0:	04404863 	beqz	v1,20051d4 <t3_taskA4_interface+0xac>
 20051b4:	98200637 	lui	a1,0x400c
 20051b8:	9cc08103 	lw	a1,32(a1)
 20051bc:	8ce30033 	sub	v1,a1,v1
 20051c0:	8c40f0d3 	fcvt.d.wu	fv1,v1
 20051c4:	88200037 	lui	v1,0x4000
 20051c8:	84400187 	fld	fv0,0(v1)
 20051cc:	8c2370d3 	fle.d	v1,fv0,fv1
 20051d0:	044160e3 	bnez	v1,2005280 <t3_taskA4_interface+0x158>
 20051d4:	90200637 	lui	a0,0x400c
 20051d8:	8c827103 	lw	v1,156(a0)
 20051dc:	04404863 	beqz	v1,2005200 <t3_taskA4_interface+0xd8>
 20051e0:	98200637 	lui	a1,0x400c
 20051e4:	9cc08103 	lw	a1,32(a1)
 20051e8:	8ce30033 	sub	v1,a1,v1
 20051ec:	8c40f0d3 	fcvt.d.wu	fv1,v1
 20051f0:	88200037 	lui	v1,0x4000
 20051f4:	84400187 	fld	fv0,0(v1)
 20051f8:	8c2370d3 	fle.d	v1,fv0,fv1
 20051fc:	0440f8e3 	bnez	v1,2005278 <t3_taskA4_interface+0x150>
 2005200:	90200637 	lui	a0,0x400c
 2005204:	8c826103 	lw	v1,152(a0)
 2005208:	04404863 	beqz	v1,200522c <t3_taskA4_interface+0x104>
 200520c:	98200637 	lui	a1,0x400c
 2005210:	9cc08103 	lw	a1,32(a1)
 2005214:	8ce30033 	sub	v1,a1,v1
 2005218:	8c40f0d3 	fcvt.d.wu	fv1,v1
 200521c:	88200037 	lui	v1,0x4000
 2005220:	84400187 	fld	fv0,0(v1)
 2005224:	8c2370d3 	fle.d	v1,fv0,fv1
 2005228:	044090e3 	bnez	v1,2005270 <t3_taskA4_interface+0x148>
 200522c:	84031003 	lb	v0,196(v0)
 2005230:	040030e3 	bnez	v0,2005248 <t3_taskA4_interface+0x120>
 2005234:	80200637 	lui	v0,0x400c
 2005238:	8c01b103 	lw	v1,108(v0)
 200523c:	80200637 	lui	v0,0x400c
 2005240:	84019103 	lw	v0,100(v0)
 2005244:	04602863 	beq	v1,v0,2005258 <t3_taskA4_interface+0x130>
 2005248:	80200637 	lui	v0,0x400c
 200524c:	8c008103 	lw	v1,32(v0)
 2005250:	80200637 	lui	v0,0x400c
 2005254:	0c230123 	sw	v1,192(v0)
 2005258:	004000eb 	ret
 200525c:	8c401803 	lb	v1,6(v1)
 2005260:	f441e063 	beqz	v1,2005150 <t3_taskA4_interface+0x28>
 2005264:	88200637 	lui	v1,0x400c
 2005268:	8c408103 	lw	v1,32(v1)
 200526c:	ffffb767 	j	2005148 <t3_taskA4_interface+0x20>
 2005270:	0c806123 	sw	zero,152(a0)
 2005274:	ffffee67 	j	200522c <t3_taskA4_interface+0x104>
 2005278:	0c807123 	sw	zero,156(a0)
 200527c:	ffffe167 	j	2005200 <t3_taskA4_interface+0xd8>
 2005280:	88200637 	lui	v1,0x400c
 2005284:	04412023 	sb	zero,72(v1)
 2005288:	0c80b123 	sw	zero,172(a0)
 200528c:	ffffd267 	j	20051d4 <t3_taskA4_interface+0xac>
 2005290:	88200637 	lui	v1,0x400c
 2005294:	04412023 	sb	zero,72(v1)
 2005298:	0c80c123 	sw	zero,176(a0)
 200529c:	ffffc367 	j	20051a8 <t3_taskA4_interface+0x80>
 20052a0:	88200637 	lui	v1,0x400c
 20052a4:	04411423 	sb	zero,69(v1)
 20052a8:	0c80d123 	sw	zero,180(a0)
 20052ac:	ffffb467 	j	200517c <t3_taskA4_interface+0x54>

020052b0 <t3_taskA4_init>:
 20052b0:	80200637 	lui	v0,0x400c
 20052b4:	0c010123 	sw	zero,192(v0)
 20052b8:	80200637 	lui	v0,0x400c
 20052bc:	0c00f123 	sw	zero,188(v0)
 20052c0:	80200637 	lui	v0,0x400c
 20052c4:	0c00e123 	sw	zero,184(v0)
 20052c8:	80200637 	lui	v0,0x400c
 20052cc:	04006c23 	sb	zero,27(v0)
 20052d0:	80200637 	lui	v0,0x400c
 20052d4:	04006823 	sb	zero,26(v0)
 20052d8:	80200637 	lui	v0,0x400c
 20052dc:	04006423 	sb	zero,25(v0)
 20052e0:	80200637 	lui	v0,0x400c
 20052e4:	04006023 	sb	zero,24(v0)
 20052e8:	80200637 	lui	v0,0x400c
 20052ec:	04005c23 	sb	zero,23(v0)
 20052f0:	80200637 	lui	v0,0x400c
 20052f4:	04005823 	sb	zero,22(v0)
 20052f8:	80200637 	lui	v0,0x400c
 20052fc:	04005423 	sb	zero,21(v0)
 2005300:	80200637 	lui	v0,0x400c
 2005304:	04005023 	sb	zero,20(v0)
 2005308:	80200637 	lui	v0,0x400c
 200530c:	04004c23 	sb	zero,19(v0)
 2005310:	80200637 	lui	v0,0x400c
 2005314:	04004823 	sb	zero,18(v0)
 2005318:	80200637 	lui	v0,0x400c
 200531c:	04004423 	sb	zero,17(v0)
 2005320:	80200637 	lui	v0,0x400c
 2005324:	04004023 	sb	zero,16(v0)
 2005328:	80200637 	lui	v0,0x400c
 200532c:	04003c23 	sb	zero,15(v0)
 2005330:	80200637 	lui	v0,0x400c
 2005334:	04003823 	sb	zero,14(v0)
 2005338:	80200637 	lui	v0,0x400c
 200533c:	04003423 	sb	zero,13(v0)
 2005340:	80200637 	lui	v0,0x400c
 2005344:	04003023 	sb	zero,12(v0)
 2005348:	004000eb 	ret

0200534c <t3_taskA4_generic_KINDERSICHERUNG_CTRL>:
 200534c:	80200637 	lui	v0,0x400c
 2005350:	84033803 	lb	v0,206(v0)
 2005354:	04006063 	beqz	v0,2005384 <t3_taskA4_generic_KINDERSICHERUNG_CTRL+0x38>
 2005358:	88200637 	lui	v1,0x400c
 200535c:	84406003 	lb	v0,24(v1)
 2005360:	90000813 	li	a0,2
 2005364:	04244863 	beq	v0,a0,2005388 <t3_taskA4_generic_KINDERSICHERUNG_CTRL+0x3c>
 2005368:	98000c13 	li	a1,3
 200536c:	0427a863 	beq	v0,a1,2005440 <t3_taskA4_generic_KINDERSICHERUNG_CTRL+0xf4>
 2005370:	90000413 	li	a0,1
 2005374:	04249063 	beq	v0,a0,20053bc <t3_taskA4_generic_KINDERSICHERUNG_CTRL+0x70>
 2005378:	80200637 	lui	v0,0x400c
 200537c:	04007423 	sb	zero,29(v0)
 2005380:	04666023 	sb	a1,24(v1)
 2005384:	004000eb 	ret
 2005388:	80200637 	lui	v0,0x400c
 200538c:	84015803 	lb	v0,86(v0)
 2005390:	040020e3 	bnez	v0,20053a0 <t3_taskA4_generic_KINDERSICHERUNG_CTRL+0x54>
 2005394:	90200637 	lui	a0,0x400c
 2005398:	94816803 	lb	a0,90(a0)
 200539c:	1480d863 	beqz	a0,2005608 <t3_taskA4_generic_KINDERSICHERUNG_CTRL+0x2bc>
 20053a0:	88200637 	lui	v1,0x400c
 20053a4:	94406403 	lb	a0,25(v1)
 20053a8:	98000413 	li	a1,1
 20053ac:	0ca61863 	beq	a0,a1,20054b8 <t3_taskA4_generic_KINDERSICHERUNG_CTRL+0x16c>
 20053b0:	80200637 	lui	v0,0x400c
 20053b4:	04007423 	sb	zero,29(v0)
 20053b8:	004000eb 	ret
 20053bc:	80200637 	lui	v0,0x400c
 20053c0:	84016003 	lb	v0,88(v0)
 20053c4:	040020e3 	bnez	v0,20053d4 <t3_taskA4_generic_KINDERSICHERUNG_CTRL+0x88>
 20053c8:	90200637 	lui	a0,0x400c
 20053cc:	94817003 	lb	a0,92(a0)
 20053d0:	14802063 	beqz	a0,20055e0 <t3_taskA4_generic_KINDERSICHERUNG_CTRL+0x294>
 20053d4:	88200637 	lui	v1,0x400c
 20053d8:	94406803 	lb	a0,26(v1)
 20053dc:	98000413 	li	a1,1
 20053e0:	fca7a0e3 	bne	a0,a1,20053b0 <t3_taskA4_generic_KINDERSICHERUNG_CTRL+0x64>
 20053e4:	04005063 	beqz	v0,200540c <t3_taskA4_generic_KINDERSICHERUNG_CTRL+0xc0>
 20053e8:	98200637 	lui	a1,0x400c
 20053ec:	9cc15c03 	lb	a1,87(a1)
 20053f0:	04c038e3 	bnez	a1,200540c <t3_taskA4_generic_KINDERSICHERUNG_CTRL+0xc0>
 20053f4:	80200637 	lui	v0,0x400c
 20053f8:	04007423 	sb	zero,29(v0)
 20053fc:	80200637 	lui	v0,0x400c
 2005400:	04252c23 	sb	a0,75(v0)
 2005404:	04646823 	sb	a0,26(v1)
 2005408:	004000eb 	ret
 200540c:	90200637 	lui	a0,0x400c
 2005410:	94817003 	lb	a0,92(a0)
 2005414:	0c80a863 	beqz	a0,2005568 <t3_taskA4_generic_KINDERSICHERUNG_CTRL+0x21c>
 2005418:	98200637 	lui	a1,0x400c
 200541c:	9cc16c03 	lb	a1,91(a1)
 2005420:	0cc090e3 	bnez	a1,2005568 <t3_taskA4_generic_KINDERSICHERUNG_CTRL+0x21c>
 2005424:	90200637 	lui	a0,0x400c
 2005428:	80000413 	li	v0,1
 200542c:	04807423 	sb	zero,29(a0)
 2005430:	90200637 	lui	a0,0x400c
 2005434:	04a13823 	sb	v0,78(a0)
 2005438:	04606823 	sb	v0,26(v1)
 200543c:	004000eb 	ret
 2005440:	80200637 	lui	v0,0x400c
 2005444:	84015003 	lb	v0,84(v0)
 2005448:	040070e3 	bnez	v0,2005480 <t3_taskA4_generic_KINDERSICHERUNG_CTRL+0x134>
 200544c:	98200637 	lui	a1,0x400c
 2005450:	9cc16803 	lb	a1,90(a1)
 2005454:	04c1d863 	beqz	a1,2005540 <t3_taskA4_generic_KINDERSICHERUNG_CTRL+0x1f4>
 2005458:	80200637 	lui	v0,0x400c
 200545c:	84015803 	lb	v0,86(v0)
 2005460:	140060e3 	bnez	v0,2005690 <t3_taskA4_generic_KINDERSICHERUNG_CTRL+0x344>
 2005464:	80200637 	lui	v0,0x400c
 2005468:	04007423 	sb	zero,29(v0)
 200546c:	98000413 	li	a1,1
 2005470:	80200637 	lui	v0,0x400c
 2005474:	04273823 	sb	a1,78(v0)
 2005478:	04646023 	sb	a0,24(v1)
 200547c:	004000eb 	ret
 2005480:	90200637 	lui	a0,0x400c
 2005484:	94817003 	lb	a0,92(a0)
 2005488:	048118e3 	bnez	a0,2005514 <t3_taskA4_generic_KINDERSICHERUNG_CTRL+0x1c8>
 200548c:	90200637 	lui	a0,0x400c
 2005490:	94816003 	lb	a0,88(a0)
 2005494:	f481e063 	beqz	a0,2005384 <t3_taskA4_generic_KINDERSICHERUNG_CTRL+0x38>
 2005498:	f401d8e3 	bnez	v0,2005384 <t3_taskA4_generic_KINDERSICHERUNG_CTRL+0x38>
 200549c:	90200637 	lui	a0,0x400c
 20054a0:	80000413 	li	v0,1
 20054a4:	04807423 	sb	zero,29(a0)
 20054a8:	90200637 	lui	a0,0x400c
 20054ac:	04a12c23 	sb	v0,75(a0)
 20054b0:	04606023 	sb	v0,24(v1)
 20054b4:	004000eb 	ret
 20054b8:	04005063 	beqz	v0,20054e0 <t3_taskA4_generic_KINDERSICHERUNG_CTRL+0x194>
 20054bc:	98200637 	lui	a1,0x400c
 20054c0:	9cc15403 	lb	a1,85(a1)
 20054c4:	04c038e3 	bnez	a1,20054e0 <t3_taskA4_generic_KINDERSICHERUNG_CTRL+0x194>
 20054c8:	80200637 	lui	v0,0x400c
 20054cc:	04007423 	sb	zero,29(v0)
 20054d0:	80200637 	lui	v0,0x400c
 20054d4:	04252c23 	sb	a0,75(v0)
 20054d8:	04646423 	sb	a0,25(v1)
 20054dc:	004000eb 	ret
 20054e0:	90200637 	lui	a0,0x400c
 20054e4:	94816803 	lb	a0,90(a0)
 20054e8:	04817863 	beqz	a0,20055a4 <t3_taskA4_generic_KINDERSICHERUNG_CTRL+0x258>
 20054ec:	98200637 	lui	a1,0x400c
 20054f0:	9cc16403 	lb	a1,89(a1)
 20054f4:	04c160e3 	bnez	a1,20055a4 <t3_taskA4_generic_KINDERSICHERUNG_CTRL+0x258>
 20054f8:	90200637 	lui	a0,0x400c
 20054fc:	80000413 	li	v0,1
 2005500:	04807423 	sb	zero,29(a0)
 2005504:	90200637 	lui	a0,0x400c
 2005508:	04a13823 	sb	v0,78(a0)
 200550c:	04606423 	sb	v0,25(v1)
 2005510:	004000eb 	ret
 2005514:	90200637 	lui	a0,0x400c
 2005518:	94816003 	lb	a0,88(a0)
 200551c:	0c8030e3 	bnez	a0,2005634 <t3_taskA4_generic_KINDERSICHERUNG_CTRL+0x2e8>
 2005520:	f400c8e3 	bnez	v0,2005384 <t3_taskA4_generic_KINDERSICHERUNG_CTRL+0x38>
 2005524:	90200637 	lui	a0,0x400c
 2005528:	80000413 	li	v0,1
 200552c:	04807423 	sb	zero,29(a0)
 2005530:	90200637 	lui	a0,0x400c
 2005534:	04a13823 	sb	v0,78(a0)
 2005538:	04606023 	sb	v0,24(v1)
 200553c:	004000eb 	ret
 2005540:	98200637 	lui	a1,0x400c
 2005544:	9cc15803 	lb	a1,86(a1)
 2005548:	fcc07063 	beqz	a1,2005480 <t3_taskA4_generic_KINDERSICHERUNG_CTRL+0x134>
 200554c:	80200637 	lui	v0,0x400c
 2005550:	04007423 	sb	zero,29(v0)
 2005554:	98000413 	li	a1,1
 2005558:	80200637 	lui	v0,0x400c
 200555c:	04272c23 	sb	a1,75(v0)
 2005560:	04646023 	sb	a0,24(v1)
 2005564:	004000eb 	ret
 2005568:	040020e3 	bnez	v0,2005578 <t3_taskA4_generic_KINDERSICHERUNG_CTRL+0x22c>
 200556c:	80200637 	lui	v0,0x400c
 2005570:	84015c03 	lb	v0,87(v0)
 2005574:	0401c8e3 	bnez	v0,2005658 <t3_taskA4_generic_KINDERSICHERUNG_CTRL+0x30c>
 2005578:	f48018e3 	bnez	a0,2005384 <t3_taskA4_generic_KINDERSICHERUNG_CTRL+0x38>
 200557c:	80200637 	lui	v0,0x400c
 2005580:	84016c03 	lb	v0,91(v0)
 2005584:	f4000063 	beqz	v0,2005384 <t3_taskA4_generic_KINDERSICHERUNG_CTRL+0x38>
 2005588:	80200637 	lui	v0,0x400c
 200558c:	04007423 	sb	zero,29(v0)
 2005590:	80200637 	lui	v0,0x400c
 2005594:	04013823 	sb	zero,78(v0)
 2005598:	80000413 	li	v0,1
 200559c:	04606823 	sb	v0,26(v1)
 20055a0:	004000eb 	ret
 20055a4:	040020e3 	bnez	v0,20055b4 <t3_taskA4_generic_KINDERSICHERUNG_CTRL+0x268>
 20055a8:	80200637 	lui	v0,0x400c
 20055ac:	84015403 	lb	v0,85(v0)
 20055b0:	040188e3 	bnez	v0,2005674 <t3_taskA4_generic_KINDERSICHERUNG_CTRL+0x328>
 20055b4:	ec81a0e3 	bnez	a0,2005384 <t3_taskA4_generic_KINDERSICHERUNG_CTRL+0x38>
 20055b8:	80200637 	lui	v0,0x400c
 20055bc:	84016403 	lb	v0,89(v0)
 20055c0:	ec018863 	beqz	v0,2005384 <t3_taskA4_generic_KINDERSICHERUNG_CTRL+0x38>
 20055c4:	80200637 	lui	v0,0x400c
 20055c8:	04007423 	sb	zero,29(v0)
 20055cc:	80200637 	lui	v0,0x400c
 20055d0:	04013823 	sb	zero,78(v0)
 20055d4:	80000413 	li	v0,1
 20055d8:	04606423 	sb	v0,25(v1)
 20055dc:	004000eb 	ret
 20055e0:	80200637 	lui	v0,0x400c
 20055e4:	04007423 	sb	zero,29(v0)
 20055e8:	80200637 	lui	v0,0x400c
 20055ec:	04013823 	sb	zero,78(v0)
 20055f0:	80200637 	lui	v0,0x400c
 20055f4:	04012c23 	sb	zero,75(v0)
 20055f8:	80200637 	lui	v0,0x400c
 20055fc:	04666023 	sb	a1,24(v1)
 2005600:	04006823 	sb	zero,26(v0)
 2005604:	004000eb 	ret
 2005608:	80200637 	lui	v0,0x400c
 200560c:	04007423 	sb	zero,29(v0)
 2005610:	80200637 	lui	v0,0x400c
 2005614:	04013823 	sb	zero,78(v0)
 2005618:	80200637 	lui	v0,0x400c
 200561c:	04012c23 	sb	zero,75(v0)
 2005620:	80000c13 	li	v0,3
 2005624:	04606023 	sb	v0,24(v1)
 2005628:	80200637 	lui	v0,0x400c
 200562c:	04006423 	sb	zero,25(v0)
 2005630:	004000eb 	ret
 2005634:	90200637 	lui	a0,0x400c
 2005638:	80000413 	li	v0,1
 200563c:	04807423 	sb	zero,29(a0)
 2005640:	90200637 	lui	a0,0x400c
 2005644:	04a12c23 	sb	v0,75(a0)
 2005648:	90200637 	lui	a0,0x400c
 200564c:	04a13823 	sb	v0,78(a0)
 2005650:	04606023 	sb	v0,24(v1)
 2005654:	004000eb 	ret
 2005658:	80200637 	lui	v0,0x400c
 200565c:	04007423 	sb	zero,29(v0)
 2005660:	80200637 	lui	v0,0x400c
 2005664:	04012c23 	sb	zero,75(v0)
 2005668:	80000413 	li	v0,1
 200566c:	04606823 	sb	v0,26(v1)
 2005670:	004000eb 	ret
 2005674:	80200637 	lui	v0,0x400c
 2005678:	04007423 	sb	zero,29(v0)
 200567c:	80200637 	lui	v0,0x400c
 2005680:	04012c23 	sb	zero,75(v0)
 2005684:	80000413 	li	v0,1
 2005688:	04606423 	sb	v0,25(v1)
 200568c:	004000eb 	ret
 2005690:	98200637 	lui	a1,0x400c
 2005694:	80000413 	li	v0,1
 2005698:	04c07423 	sb	zero,29(a1)
 200569c:	98200637 	lui	a1,0x400c
 20056a0:	04e13823 	sb	v0,78(a1)
 20056a4:	98200637 	lui	a1,0x400c
 20056a8:	04e12c23 	sb	v0,75(a1)
 20056ac:	04646023 	sb	a0,24(v1)
 20056b0:	004000eb 	ret

020056b4 <t3_taskA4_generic_FH_TUERMODUL_CTRL>:
 20056b4:	80200637 	lui	v0,0x400c
 20056b8:	84031013 	add	v0,v0,196
 20056bc:	8c003403 	lb	v1,13(v0)
 20056c0:	044048e3 	bnez	v1,20056e4 <t3_taskA4_generic_FH_TUERMODUL_CTRL+0x30>
 20056c4:	8c003c03 	lb	v1,15(v0)
 20056c8:	04403063 	beqz	v1,20056e0 <t3_taskA4_generic_FH_TUERMODUL_CTRL+0x2c>
 20056cc:	8c003803 	lb	v1,14(v0)
 20056d0:	044020e3 	bnez	v1,20056e0 <t3_taskA4_generic_FH_TUERMODUL_CTRL+0x2c>
 20056d4:	04001023 	sb	zero,4(v0)
 20056d8:	04001823 	sb	zero,6(v0)
 20056dc:	004000eb 	ret
 20056e0:	004000eb 	ret
 20056e4:	8c002803 	lb	v1,10(v0)
 20056e8:	044020e3 	bnez	v1,20056f8 <t3_taskA4_generic_FH_TUERMODUL_CTRL+0x44>
 20056ec:	90000c13 	li	a0,3
 20056f0:	88200637 	lui	v1,0x400c
 20056f4:	04646023 	sb	a0,24(v1)
 20056f8:	8c004c03 	lb	v1,19(v0)
 20056fc:	044030e3 	bnez	v1,2005714 <t3_taskA4_generic_FH_TUERMODUL_CTRL+0x60>
 2005700:	88200637 	lui	v1,0x400c
 2005704:	0c411023 	sb	zero,196(v1)
 2005708:	90000413 	li	a0,1
 200570c:	88200637 	lui	v1,0x400c
 2005710:	04643023 	sb	a0,12(v1)
 2005714:	98200637 	lui	a1,0x400c
 2005718:	8cc05c03 	lb	v1,23(a1)
 200571c:	90000413 	li	a0,1
 2005720:	a0000813 	li	a2,2
 2005724:	04242c23 	sb	a0,11(v0)
 2005728:	04245023 	sb	a0,20(v0)
 200572c:	04693863 	beq	v1,a2,20057c8 <t3_taskA4_generic_FH_TUERMODUL_CTRL+0x114>
 2005730:	a8000c13 	li	a3,3
 2005734:	0c6a2063 	beq	v1,a3,2005844 <t3_taskA4_generic_FH_TUERMODUL_CTRL+0x190>
 2005738:	90000413 	li	a0,1
 200573c:	0465a863 	beq	v1,a0,2005810 <t3_taskA4_generic_FH_TUERMODUL_CTRL+0x15c>
 2005740:	88200637 	lui	v1,0x400c
 2005744:	04407423 	sb	zero,29(v1)
 2005748:	04e85c23 	sb	a2,23(a1)
 200574c:	90200637 	lui	a0,0x400c
 2005750:	9c805803 	lb	a1,22(a0)
 2005754:	88000413 	li	v1,1
 2005758:	04e26863 	beq	a1,v1,200578c <t3_taskA4_generic_FH_TUERMODUL_CTRL+0xd8>
 200575c:	98200637 	lui	a1,0x400c
 2005760:	04c07423 	sb	zero,29(a1)
 2005764:	04a25823 	sb	v1,22(a0)
 2005768:	98200637 	lui	a1,0x400c
 200576c:	90200637 	lui	a0,0x400c
 2005770:	0cc0a123 	sw	zero,168(a1)
 2005774:	04a25423 	sb	v1,21(a0)
 2005778:	94001203 	lbu	a0,4(v0)
 200577c:	8c001a03 	lbu	v1,6(v0)
 2005780:	04241423 	sb	a0,5(v0)
 2005784:	04221c23 	sb	v1,7(v0)
 2005788:	004000eb 	ret
 200578c:	88200637 	lui	v1,0x400c
 2005790:	8c407003 	lb	v1,28(v1)
 2005794:	0c67e063 	beq	v1,a1,2005984 <t3_taskA4_generic_FH_TUERMODUL_CTRL+0x2d0>
 2005798:	90200637 	lui	a0,0x400c
 200579c:	a4805403 	lb	a2,21(a0)
 20057a0:	98000413 	li	a1,1
 20057a4:	0d270863 	beq	a2,a1,2005928 <t3_taskA4_generic_FH_TUERMODUL_CTRL+0x274>
 20057a8:	88200637 	lui	v1,0x400c
 20057ac:	04407423 	sb	zero,29(v1)
 20057b0:	04a65423 	sb	a1,21(a0)
 20057b4:	8c001a03 	lbu	v1,6(v0)
 20057b8:	94001203 	lbu	a0,4(v0)
 20057bc:	04221c23 	sb	v1,7(v0)
 20057c0:	04241423 	sb	a0,5(v0)
 20057c4:	004000eb 	ret
 20057c8:	88200637 	lui	v1,0x400c
 20057cc:	8c414c03 	lb	v1,83(v1)
 20057d0:	04402063 	beqz	v1,20057e0 <t3_taskA4_generic_FH_TUERMODUL_CTRL+0x12c>
 20057d4:	88200637 	lui	v1,0x400c
 20057d8:	8c414403 	lb	v1,81(v1)
 20057dc:	14401063 	beqz	v1,20059e4 <t3_taskA4_generic_FH_TUERMODUL_CTRL+0x330>
 20057e0:	90200637 	lui	a0,0x400c
 20057e4:	8c806c03 	lb	v1,27(a0)
 20057e8:	98000813 	li	a1,2
 20057ec:	14675863 	beq	v1,a1,2005a98 <t3_taskA4_generic_FH_TUERMODUL_CTRL+0x3e4>
 20057f0:	a0000c13 	li	a2,3
 20057f4:	1468f863 	beq	v1,a2,2005a70 <t3_taskA4_generic_FH_TUERMODUL_CTRL+0x3bc>
 20057f8:	98000413 	li	a1,1
 20057fc:	14665063 	beq	v1,a1,2005a24 <t3_taskA4_generic_FH_TUERMODUL_CTRL+0x370>
 2005800:	88200637 	lui	v1,0x400c
 2005804:	04407423 	sb	zero,29(v1)
 2005808:	04a86c23 	sb	a2,27(a0)
 200580c:	ffffd067 	j	200574c <t3_taskA4_generic_FH_TUERMODUL_CTRL+0x98>
 2005810:	88200637 	lui	v1,0x400c
 2005814:	8c42a103 	lw	v1,168(v1)
 2005818:	9000ec13 	li	a0,59
 200581c:	fc6460e3 	bne	v1,a0,200574c <t3_taskA4_generic_FH_TUERMODUL_CTRL+0x98>
 2005820:	90200637 	lui	a0,0x400c
 2005824:	94828103 	lw	a0,160(a0)
 2005828:	fca24863 	beq	a0,v1,200574c <t3_taskA4_generic_FH_TUERMODUL_CTRL+0x98>
 200582c:	88200637 	lui	v1,0x400c
 2005830:	04407423 	sb	zero,29(v1)
 2005834:	88200637 	lui	v1,0x400c
 2005838:	04ea5c23 	sb	a3,23(a1)
 200583c:	046a5023 	sb	a3,20(v1)
 2005840:	ffffc367 	j	200574c <t3_taskA4_generic_FH_TUERMODUL_CTRL+0x98>
 2005844:	88200637 	lui	v1,0x400c
 2005848:	8c42a103 	lw	v1,168(v1)
 200584c:	8c40f513 	slt	v1,v1,61
 2005850:	044098e3 	bnez	v1,200589c <t3_taskA4_generic_FH_TUERMODUL_CTRL+0x1e8>
 2005854:	88200637 	lui	v1,0x400c
 2005858:	8c428103 	lw	v1,160(v1)
 200585c:	8c40f513 	slt	v1,v1,61
 2005860:	04407863 	beqz	v1,200589c <t3_taskA4_generic_FH_TUERMODUL_CTRL+0x1e8>
 2005864:	88200637 	lui	v1,0x400c
 2005868:	8c417c03 	lb	v1,95(v1)
 200586c:	044060e3 	bnez	v1,200589c <t3_taskA4_generic_FH_TUERMODUL_CTRL+0x1e8>
 2005870:	88200637 	lui	v1,0x400c
 2005874:	8c418403 	lb	v1,97(v1)
 2005878:	044048e3 	bnez	v1,200589c <t3_taskA4_generic_FH_TUERMODUL_CTRL+0x1e8>
 200587c:	88200637 	lui	v1,0x400c
 2005880:	04407423 	sb	zero,29(v1)
 2005884:	88200637 	lui	v1,0x400c
 2005888:	04412023 	sb	zero,72(v1)
 200588c:	88200637 	lui	v1,0x400c
 2005890:	04411423 	sb	zero,69(v1)
 2005894:	04e45c23 	sb	a0,23(a1)
 2005898:	ffffad67 	j	200574c <t3_taskA4_generic_FH_TUERMODUL_CTRL+0x98>
 200589c:	88200637 	lui	v1,0x400c
 20058a0:	8c414c03 	lb	v1,83(v1)
 20058a4:	0440a863 	beqz	v1,20058f8 <t3_taskA4_generic_FH_TUERMODUL_CTRL+0x244>
 20058a8:	88200637 	lui	v1,0x400c
 20058ac:	8c414403 	lb	v1,81(v1)
 20058b0:	044090e3 	bnez	v1,20058f8 <t3_taskA4_generic_FH_TUERMODUL_CTRL+0x244>
 20058b4:	88200637 	lui	v1,0x400c
 20058b8:	8c411803 	lb	v1,70(v1)
 20058bc:	1441d863 	beqz	v1,2005ba8 <t3_taskA4_generic_FH_TUERMODUL_CTRL+0x4f4>
 20058c0:	88200637 	lui	v1,0x400c
 20058c4:	94408103 	lw	a0,32(v1)
 20058c8:	88200637 	lui	v1,0x400c
 20058cc:	04407423 	sb	zero,29(v1)
 20058d0:	88200637 	lui	v1,0x400c
 20058d4:	04411423 	sb	zero,69(v1)
 20058d8:	88200637 	lui	v1,0x400c
 20058dc:	0c64d123 	sw	a0,180(v1)
 20058e0:	88000813 	li	v1,2
 20058e4:	04e25c23 	sb	v1,23(a1)
 20058e8:	90000c13 	li	a0,3
 20058ec:	88200637 	lui	v1,0x400c
 20058f0:	04646c23 	sb	a0,27(v1)
 20058f4:	ffff9667 	j	200574c <t3_taskA4_generic_FH_TUERMODUL_CTRL+0x98>
 20058f8:	90200637 	lui	a0,0x400c
 20058fc:	8c805003 	lb	v1,20(a0)
 2005900:	98000813 	li	a1,2
 2005904:	14662063 	beq	v1,a1,2005b14 <t3_taskA4_generic_FH_TUERMODUL_CTRL+0x460>
 2005908:	a0000c13 	li	a2,3
 200590c:	0c696863 	beq	v1,a2,2005ac0 <t3_taskA4_generic_FH_TUERMODUL_CTRL+0x40c>
 2005910:	a8000413 	li	a3,1
 2005914:	0c6a6863 	beq	v1,a3,2005a48 <t3_taskA4_generic_FH_TUERMODUL_CTRL+0x394>
 2005918:	88200637 	lui	v1,0x400c
 200591c:	04407423 	sb	zero,29(v1)
 2005920:	04a85023 	sb	a2,20(a0)
 2005924:	ffff8a67 	j	200574c <t3_taskA4_generic_FH_TUERMODUL_CTRL+0x98>
 2005928:	f468a0e3 	bne	v1,a2,2005778 <t3_taskA4_generic_FH_TUERMODUL_CTRL+0xc4>
 200592c:	98200637 	lui	a1,0x400c
 2005930:	9cc2e103 	lw	a1,184(a1)
 2005934:	f4c08863 	beqz	a1,2005778 <t3_taskA4_generic_FH_TUERMODUL_CTRL+0xc4>
 2005938:	a0200637 	lui	a2,0x400c
 200593c:	a5008103 	lw	a2,32(a2)
 2005940:	a53ff413 	add	a2,a2,-3
 2005944:	f4e868e3 	bne	a1,a2,2005778 <t3_taskA4_generic_FH_TUERMODUL_CTRL+0xc4>
 2005948:	98200637 	lui	a1,0x400c
 200594c:	9cc12403 	lb	a1,73(a1)
 2005950:	f4c050e3 	bnez	a1,2005778 <t3_taskA4_generic_FH_TUERMODUL_CTRL+0xc4>
 2005954:	98200637 	lui	a1,0x400c
 2005958:	9cc11803 	lb	a1,70(a1)
 200595c:	f4c038e3 	bnez	a1,2005778 <t3_taskA4_generic_FH_TUERMODUL_CTRL+0xc4>
 2005960:	98200637 	lui	a1,0x400c
 2005964:	a4c2a103 	lw	a2,168(a1)
 2005968:	f02822e3 	blez	a2,2005778 <t3_taskA4_generic_FH_TUERMODUL_CTRL+0xc4>
 200596c:	a53ffc13 	add	a2,a2,-1
 2005970:	a8200637 	lui	a3,0x400c
 2005974:	05407423 	sb	zero,29(a3)
 2005978:	0ce8a123 	sw	a2,168(a1)
 200597c:	04a25423 	sb	v1,21(a0)
 2005980:	ffff7e67 	j	2005778 <t3_taskA4_generic_FH_TUERMODUL_CTRL+0xc4>
 2005984:	98200637 	lui	a1,0x400c
 2005988:	9cc2f103 	lw	a1,188(a1)
 200598c:	f4c01863 	beqz	a1,2005798 <t3_taskA4_generic_FH_TUERMODUL_CTRL+0xe4>
 2005990:	a0200637 	lui	a2,0x400c
 2005994:	a5008103 	lw	a2,32(a2)
 2005998:	9d270033 	sub	a1,a2,a1
 200599c:	ece3f8e3 	bne	a1,v1,2005798 <t3_taskA4_generic_FH_TUERMODUL_CTRL+0xe4>
 20059a0:	98200637 	lui	a1,0x400c
 20059a4:	9cc12403 	lb	a1,73(a1)
 20059a8:	04c020e3 	bnez	a1,20059b8 <t3_taskA4_generic_FH_TUERMODUL_CTRL+0x304>
 20059ac:	98200637 	lui	a1,0x400c
 20059b0:	9cc11803 	lb	a1,70(a1)
 20059b4:	ecc1c863 	beqz	a1,2005798 <t3_taskA4_generic_FH_TUERMODUL_CTRL+0xe4>
 20059b8:	98200637 	lui	a1,0x400c
 20059bc:	a4c2a103 	lw	a2,168(a1)
 20059c0:	88000413 	li	v1,1
 20059c4:	a8200637 	lui	a3,0x400c
 20059c8:	a5000413 	add	a2,a2,1
 20059cc:	04a25823 	sb	v1,22(a0)
 20059d0:	90200637 	lui	a0,0x400c
 20059d4:	05407423 	sb	zero,29(a3)
 20059d8:	0ce8a123 	sw	a2,168(a1)
 20059dc:	04a25423 	sb	v1,21(a0)
 20059e0:	ffff6667 	j	2005778 <t3_taskA4_generic_FH_TUERMODUL_CTRL+0xc4>
 20059e4:	88200637 	lui	v1,0x400c
 20059e8:	8c412403 	lb	v1,73(v1)
 20059ec:	ec41e863 	beqz	v1,20057e0 <t3_taskA4_generic_FH_TUERMODUL_CTRL+0x12c>
 20059f0:	88200637 	lui	v1,0x400c
 20059f4:	a4408103 	lw	a2,32(v1)
 20059f8:	90200637 	lui	a0,0x400c
 20059fc:	04807423 	sb	zero,29(a0)
 2005a00:	90200637 	lui	a0,0x400c
 2005a04:	04812023 	sb	zero,72(a0)
 2005a08:	90200637 	lui	a0,0x400c
 2005a0c:	88000c13 	li	v1,3
 2005a10:	0ca8b123 	sw	a2,172(a0)
 2005a14:	90200637 	lui	a0,0x400c
 2005a18:	04e25c23 	sb	v1,23(a1)
 2005a1c:	04a25023 	sb	v1,20(a0)
 2005a20:	ffff4b67 	j	200574c <t3_taskA4_generic_FH_TUERMODUL_CTRL+0x98>
 2005a24:	88200637 	lui	v1,0x400c
 2005a28:	8c413c03 	lb	v1,79(v1)
 2005a2c:	ec4040e3 	bnez	v1,200574c <t3_taskA4_generic_FH_TUERMODUL_CTRL+0x98>
 2005a30:	88200637 	lui	v1,0x400c
 2005a34:	04407423 	sb	zero,29(v1)
 2005a38:	88200637 	lui	v1,0x400c
 2005a3c:	04412023 	sb	zero,72(v1)
 2005a40:	04a86c23 	sb	a2,27(a0)
 2005a44:	ffff4267 	j	200574c <t3_taskA4_generic_FH_TUERMODUL_CTRL+0x98>
 2005a48:	a8200637 	lui	a3,0x400c
 2005a4c:	ad425103 	lw	a3,148(a3)
 2005a50:	ad465513 	slt	a3,a3,405
 2005a54:	0d4158e3 	bnez	a3,2005c00 <t3_taskA4_generic_FH_TUERMODUL_CTRL+0x54c>
 2005a58:	88200637 	lui	v1,0x400c
 2005a5c:	04407423 	sb	zero,29(v1)
 2005a60:	88200637 	lui	v1,0x400c
 2005a64:	04411423 	sb	zero,69(v1)
 2005a68:	04a85023 	sb	a2,20(a0)
 2005a6c:	ffff3867 	j	200574c <t3_taskA4_generic_FH_TUERMODUL_CTRL+0x98>
 2005a70:	88200637 	lui	v1,0x400c
 2005a74:	8c413003 	lb	v1,76(v1)
 2005a78:	0c40c063 	beqz	v1,2005bd8 <t3_taskA4_generic_FH_TUERMODUL_CTRL+0x524>
 2005a7c:	88200637 	lui	v1,0x400c
 2005a80:	04407423 	sb	zero,29(v1)
 2005a84:	a0000413 	li	a2,1
 2005a88:	88200637 	lui	v1,0x400c
 2005a8c:	04691423 	sb	a2,69(v1)
 2005a90:	04a66c23 	sb	a1,27(a0)
 2005a94:	ffff2e67 	j	200574c <t3_taskA4_generic_FH_TUERMODUL_CTRL+0x98>
 2005a98:	88200637 	lui	v1,0x400c
 2005a9c:	8c413003 	lb	v1,76(v1)
 2005aa0:	e44158e3 	bnez	v1,200574c <t3_taskA4_generic_FH_TUERMODUL_CTRL+0x98>
 2005aa4:	88200637 	lui	v1,0x400c
 2005aa8:	04407423 	sb	zero,29(v1)
 2005aac:	88200637 	lui	v1,0x400c
 2005ab0:	04411423 	sb	zero,69(v1)
 2005ab4:	88000c13 	li	v1,3
 2005ab8:	04a26c23 	sb	v1,27(a0)
 2005abc:	ffff2467 	j	200574c <t3_taskA4_generic_FH_TUERMODUL_CTRL+0x98>
 2005ac0:	88200637 	lui	v1,0x400c
 2005ac4:	8c413c03 	lb	v1,79(v1)
 2005ac8:	04412063 	beqz	v1,2005b58 <t3_taskA4_generic_FH_TUERMODUL_CTRL+0x4a4>
 2005acc:	88200637 	lui	v1,0x400c
 2005ad0:	8c413403 	lb	v1,77(v1)
 2005ad4:	044108e3 	bnez	v1,2005b58 <t3_taskA4_generic_FH_TUERMODUL_CTRL+0x4a4>
 2005ad8:	88200637 	lui	v1,0x400c
 2005adc:	8c425103 	lw	v1,148(v1)
 2005ae0:	0022f2e3 	blez	v1,2005b58 <t3_taskA4_generic_FH_TUERMODUL_CTRL+0x4a4>
 2005ae4:	04a65023 	sb	a1,20(a0)
 2005ae8:	90200637 	lui	a0,0x400c
 2005aec:	04a64023 	sb	a1,16(a0)
 2005af0:	90200637 	lui	a0,0x400c
 2005af4:	88000413 	li	v1,1
 2005af8:	a0200637 	lui	a2,0x400c
 2005afc:	04a64823 	sb	a1,18(a0)
 2005b00:	90200637 	lui	a0,0x400c
 2005b04:	05007423 	sb	zero,29(a2)
 2005b08:	04224423 	sb	v1,17(v0)
 2005b0c:	04a32023 	sb	v1,72(a0)
 2005b10:	ffff0f67 	j	200574c <t3_taskA4_generic_FH_TUERMODUL_CTRL+0x98>
 2005b14:	98200637 	lui	a1,0x400c
 2005b18:	9cc25103 	lw	a1,148(a1)
 2005b1c:	08260ae3 	blez	a1,2005c20 <t3_taskA4_generic_FH_TUERMODUL_CTRL+0x56c>
 2005b20:	a8200637 	lui	a3,0x400c
 2005b24:	9d404003 	lb	a1,16(a3)
 2005b28:	a0000413 	li	a2,1
 2005b2c:	0ce8b863 	beq	a1,a2,2005c88 <t3_taskA4_generic_FH_TUERMODUL_CTRL+0x5d4>
 2005b30:	0ce21863 	beq	a1,v1,2005c3c <t3_taskA4_generic_FH_TUERMODUL_CTRL+0x588>
 2005b34:	90200637 	lui	a0,0x400c
 2005b38:	04807423 	sb	zero,29(a0)
 2005b3c:	90200637 	lui	a0,0x400c
 2005b40:	05624023 	sb	v1,16(a3)
 2005b44:	04a24823 	sb	v1,18(a0)
 2005b48:	88200637 	lui	v1,0x400c
 2005b4c:	04284423 	sb	a2,17(v0)
 2005b50:	04692023 	sb	a2,72(v1)
 2005b54:	fffefe67 	j	200574c <t3_taskA4_generic_FH_TUERMODUL_CTRL+0x98>
 2005b58:	88200637 	lui	v1,0x400c
 2005b5c:	8c413003 	lb	v1,76(v1)
 2005b60:	dc41d863 	beqz	v1,200574c <t3_taskA4_generic_FH_TUERMODUL_CTRL+0x98>
 2005b64:	88200637 	lui	v1,0x400c
 2005b68:	8c412803 	lb	v1,74(v1)
 2005b6c:	dc41c0e3 	bnez	v1,200574c <t3_taskA4_generic_FH_TUERMODUL_CTRL+0x98>
 2005b70:	88200637 	lui	v1,0x400c
 2005b74:	8c425103 	lw	v1,148(v1)
 2005b78:	8c465513 	slt	v1,v1,405
 2005b7c:	dc41a063 	beqz	v1,200574c <t3_taskA4_generic_FH_TUERMODUL_CTRL+0x98>
 2005b80:	98200637 	lui	a1,0x400c
 2005b84:	88000413 	li	v1,1
 2005b88:	04c07423 	sb	zero,29(a1)
 2005b8c:	98200637 	lui	a1,0x400c
 2005b90:	04a25023 	sb	v1,20(a0)
 2005b94:	04e31423 	sb	v1,69(a1)
 2005b98:	90000813 	li	a0,2
 2005b9c:	88200637 	lui	v1,0x400c
 2005ba0:	04644423 	sb	a0,17(v1)
 2005ba4:	fffeea67 	j	200574c <t3_taskA4_generic_FH_TUERMODUL_CTRL+0x98>
 2005ba8:	88200637 	lui	v1,0x400c
 2005bac:	8c412403 	lb	v1,73(v1)
 2005bb0:	ec409063 	beqz	v1,20058f8 <t3_taskA4_generic_FH_TUERMODUL_CTRL+0x244>
 2005bb4:	88200637 	lui	v1,0x400c
 2005bb8:	94408103 	lw	a0,32(v1)
 2005bbc:	88200637 	lui	v1,0x400c
 2005bc0:	04407423 	sb	zero,29(v1)
 2005bc4:	88200637 	lui	v1,0x400c
 2005bc8:	04412023 	sb	zero,72(v1)
 2005bcc:	88200637 	lui	v1,0x400c
 2005bd0:	0c64c123 	sw	a0,176(v1)
 2005bd4:	ffff4367 	j	20058e0 <t3_taskA4_generic_FH_TUERMODUL_CTRL+0x22c>
 2005bd8:	88200637 	lui	v1,0x400c
 2005bdc:	8c413c03 	lb	v1,79(v1)
 2005be0:	dc40d863 	beqz	v1,200574c <t3_taskA4_generic_FH_TUERMODUL_CTRL+0x98>
 2005be4:	98200637 	lui	a1,0x400c
 2005be8:	88000413 	li	v1,1
 2005bec:	04c07423 	sb	zero,29(a1)
 2005bf0:	98200637 	lui	a1,0x400c
 2005bf4:	04e32023 	sb	v1,72(a1)
 2005bf8:	04a26c23 	sb	v1,27(a0)
 2005bfc:	fffed467 	j	200574c <t3_taskA4_generic_FH_TUERMODUL_CTRL+0x98>
 2005c00:	a8200637 	lui	a3,0x400c
 2005c04:	a5404403 	lb	a2,17(a3)
 2005c08:	0d220863 	beq	a2,v1,2005d0c <t3_taskA4_generic_FH_TUERMODUL_CTRL+0x658>
 2005c0c:	0527b063 	beq	a2,a1,2005ce4 <t3_taskA4_generic_FH_TUERMODUL_CTRL+0x630>
 2005c10:	88200637 	lui	v1,0x400c
 2005c14:	04407423 	sb	zero,29(v1)
 2005c18:	05664423 	sb	a1,17(a3)
 2005c1c:	fffecc67 	j	200574c <t3_taskA4_generic_FH_TUERMODUL_CTRL+0x98>
 2005c20:	88200637 	lui	v1,0x400c
 2005c24:	04407423 	sb	zero,29(v1)
 2005c28:	88200637 	lui	v1,0x400c
 2005c2c:	04412023 	sb	zero,72(v1)
 2005c30:	88000c13 	li	v1,3
 2005c34:	04a25023 	sb	v1,20(a0)
 2005c38:	fffec567 	j	200574c <t3_taskA4_generic_FH_TUERMODUL_CTRL+0x98>
 2005c3c:	88200637 	lui	v1,0x400c
 2005c40:	8c413c03 	lb	v1,79(v1)
 2005c44:	044020e3 	bnez	v1,2005c54 <t3_taskA4_generic_FH_TUERMODUL_CTRL+0x5a0>
 2005c48:	88200637 	lui	v1,0x400c
 2005c4c:	8c413403 	lb	v1,77(v1)
 2005c50:	fc41a0e3 	bnez	v1,2005c20 <t3_taskA4_generic_FH_TUERMODUL_CTRL+0x56c>
 2005c54:	98200637 	lui	a1,0x400c
 2005c58:	94c04803 	lb	a0,18(a1)
 2005c5c:	88000413 	li	v1,1
 2005c60:	0ca2c863 	beq	a0,v1,2005dc4 <t3_taskA4_generic_FH_TUERMODUL_CTRL+0x710>
 2005c64:	a0000813 	li	a2,2
 2005c68:	0ca82863 	beq	a0,a2,2005d7c <t3_taskA4_generic_FH_TUERMODUL_CTRL+0x6c8>
 2005c6c:	90200637 	lui	a0,0x400c
 2005c70:	04807423 	sb	zero,29(a0)
 2005c74:	90200637 	lui	a0,0x400c
 2005c78:	04e84823 	sb	a2,18(a1)
 2005c7c:	04224423 	sb	v1,17(v0)
 2005c80:	04a32023 	sb	v1,72(a0)
 2005c84:	fffeb267 	j	200574c <t3_taskA4_generic_FH_TUERMODUL_CTRL+0x98>
 2005c88:	88200637 	lui	v1,0x400c
 2005c8c:	8c413003 	lb	v1,76(v1)
 2005c90:	04402063 	beqz	v1,2005ca0 <t3_taskA4_generic_FH_TUERMODUL_CTRL+0x5ec>
 2005c94:	88200637 	lui	v1,0x400c
 2005c98:	8c412803 	lb	v1,74(v1)
 2005c9c:	fc410863 	beqz	v1,2005c20 <t3_taskA4_generic_FH_TUERMODUL_CTRL+0x56c>
 2005ca0:	88200637 	lui	v1,0x400c
 2005ca4:	8c413c03 	lb	v1,79(v1)
 2005ca8:	04402063 	beqz	v1,2005cb8 <t3_taskA4_generic_FH_TUERMODUL_CTRL+0x604>
 2005cac:	88200637 	lui	v1,0x400c
 2005cb0:	8c413403 	lb	v1,77(v1)
 2005cb4:	fc40d863 	beqz	v1,2005c20 <t3_taskA4_generic_FH_TUERMODUL_CTRL+0x56c>
 2005cb8:	98200637 	lui	a1,0x400c
 2005cbc:	94c04c03 	lb	a0,19(a1)
 2005cc0:	88000413 	li	v1,1
 2005cc4:	0ca30863 	beq	a0,v1,2005e48 <t3_taskA4_generic_FH_TUERMODUL_CTRL+0x794>
 2005cc8:	a0000813 	li	a2,2
 2005ccc:	0ca86863 	beq	a0,a2,2005e00 <t3_taskA4_generic_FH_TUERMODUL_CTRL+0x74c>
 2005cd0:	90200637 	lui	a0,0x400c
 2005cd4:	04807423 	sb	zero,29(a0)
 2005cd8:	04e84c23 	sb	a2,19(a1)
 2005cdc:	04224423 	sb	v1,17(v0)
 2005ce0:	fffe9b67 	j	200574c <t3_taskA4_generic_FH_TUERMODUL_CTRL+0x98>
 2005ce4:	98200637 	lui	a1,0x400c
 2005ce8:	9cc13c03 	lb	a1,79(a1)
 2005cec:	04c0b063 	beqz	a1,2005d44 <t3_taskA4_generic_FH_TUERMODUL_CTRL+0x690>
 2005cf0:	98200637 	lui	a1,0x400c
 2005cf4:	9cc13403 	lb	a1,77(a1)
 2005cf8:	04c098e3 	bnez	a1,2005d44 <t3_taskA4_generic_FH_TUERMODUL_CTRL+0x690>
 2005cfc:	90200637 	lui	a0,0x400c
 2005d00:	04807423 	sb	zero,29(a0)
 2005d04:	05624423 	sb	v1,17(a3)
 2005d08:	fffe9167 	j	200574c <t3_taskA4_generic_FH_TUERMODUL_CTRL+0x98>
 2005d0c:	88200637 	lui	v1,0x400c
 2005d10:	8c413c03 	lb	v1,79(v1)
 2005d14:	04409863 	beqz	v1,2005d60 <t3_taskA4_generic_FH_TUERMODUL_CTRL+0x6ac>
 2005d18:	88200637 	lui	v1,0x400c
 2005d1c:	8c413403 	lb	v1,77(v1)
 2005d20:	044080e3 	bnez	v1,2005d60 <t3_taskA4_generic_FH_TUERMODUL_CTRL+0x6ac>
 2005d24:	88200637 	lui	v1,0x400c
 2005d28:	04407423 	sb	zero,29(v1)
 2005d2c:	88200637 	lui	v1,0x400c
 2005d30:	04411423 	sb	zero,69(v1)
 2005d34:	88000c13 	li	v1,3
 2005d38:	04a25023 	sb	v1,20(a0)
 2005d3c:	05404423 	sb	zero,17(a3)
 2005d40:	fffe8367 	j	200574c <t3_taskA4_generic_FH_TUERMODUL_CTRL+0x98>
 2005d44:	88200637 	lui	v1,0x400c
 2005d48:	8c413003 	lb	v1,76(v1)
 2005d4c:	d44000e3 	bnez	v1,200574c <t3_taskA4_generic_FH_TUERMODUL_CTRL+0x98>
 2005d50:	88200637 	lui	v1,0x400c
 2005d54:	8c412803 	lb	v1,74(v1)
 2005d58:	cc41e863 	beqz	v1,200574c <t3_taskA4_generic_FH_TUERMODUL_CTRL+0x98>
 2005d5c:	fffff267 	j	2005d24 <t3_taskA4_generic_FH_TUERMODUL_CTRL+0x670>
 2005d60:	88200637 	lui	v1,0x400c
 2005d64:	8c413003 	lb	v1,76(v1)
 2005d68:	cc41c863 	beqz	v1,200574c <t3_taskA4_generic_FH_TUERMODUL_CTRL+0x98>
 2005d6c:	88200637 	lui	v1,0x400c
 2005d70:	8c412803 	lb	v1,74(v1)
 2005d74:	cc41b0e3 	bnez	v1,200574c <t3_taskA4_generic_FH_TUERMODUL_CTRL+0x98>
 2005d78:	ffffeb67 	j	2005d24 <t3_taskA4_generic_FH_TUERMODUL_CTRL+0x670>
 2005d7c:	94006003 	lb	a0,24(v0)
 2005d80:	0c800863 	beqz	a0,2005e84 <t3_taskA4_generic_FH_TUERMODUL_CTRL+0x7d0>
 2005d84:	90200637 	lui	a0,0x400c
 2005d88:	a4808103 	lw	a2,32(a0)
 2005d8c:	90200637 	lui	a0,0x400c
 2005d90:	04807423 	sb	zero,29(a0)
 2005d94:	90200637 	lui	a0,0x400c
 2005d98:	04812023 	sb	zero,72(a0)
 2005d9c:	90200637 	lui	a0,0x400c
 2005da0:	04a37823 	sb	v1,94(a0)
 2005da4:	90200637 	lui	a0,0x400c
 2005da8:	0ca86123 	sw	a2,152(a0)
 2005dac:	90200637 	lui	a0,0x400c
 2005db0:	04225c23 	sb	v1,23(v0)
 2005db4:	04e24823 	sb	v1,18(a1)
 2005db8:	04004423 	sb	zero,17(v0)
 2005dbc:	04a31423 	sb	v1,69(a0)
 2005dc0:	fffe6367 	j	200574c <t3_taskA4_generic_FH_TUERMODUL_CTRL+0x98>
 2005dc4:	8c005803 	lb	v1,22(v0)
 2005dc8:	04005c23 	sb	zero,23(v0)
 2005dcc:	cc410063 	beqz	v1,200574c <t3_taskA4_generic_FH_TUERMODUL_CTRL+0x98>
 2005dd0:	88200637 	lui	v1,0x400c
 2005dd4:	04407423 	sb	zero,29(v1)
 2005dd8:	88200637 	lui	v1,0x400c
 2005ddc:	04417823 	sb	zero,94(v1)
 2005de0:	88000813 	li	v1,2
 2005de4:	04e24823 	sb	v1,18(a1)
 2005de8:	88200637 	lui	v1,0x400c
 2005dec:	04411423 	sb	zero,69(v1)
 2005df0:	88200637 	lui	v1,0x400c
 2005df4:	04244423 	sb	a0,17(v0)
 2005df8:	04652023 	sb	a0,72(v1)
 2005dfc:	fffe5467 	j	200574c <t3_taskA4_generic_FH_TUERMODUL_CTRL+0x98>
 2005e00:	94006003 	lb	a0,24(v0)
 2005e04:	cc809063 	beqz	a0,200574c <t3_taskA4_generic_FH_TUERMODUL_CTRL+0x98>
 2005e08:	90200637 	lui	a0,0x400c
 2005e0c:	a4808103 	lw	a2,32(a0)
 2005e10:	90200637 	lui	a0,0x400c
 2005e14:	04807423 	sb	zero,29(a0)
 2005e18:	90200637 	lui	a0,0x400c
 2005e1c:	04a38023 	sb	v1,96(a0)
 2005e20:	90200637 	lui	a0,0x400c
 2005e24:	04812023 	sb	zero,72(a0)
 2005e28:	90200637 	lui	a0,0x400c
 2005e2c:	0ca87123 	sw	a2,156(a0)
 2005e30:	90200637 	lui	a0,0x400c
 2005e34:	04225c23 	sb	v1,23(v0)
 2005e38:	04e24c23 	sb	v1,19(a1)
 2005e3c:	04004423 	sb	zero,17(v0)
 2005e40:	04a31423 	sb	v1,69(a0)
 2005e44:	fffe4267 	j	200574c <t3_taskA4_generic_FH_TUERMODUL_CTRL+0x98>
 2005e48:	8c005803 	lb	v1,22(v0)
 2005e4c:	04005c23 	sb	zero,23(v0)
 2005e50:	c441f863 	beqz	v1,200574c <t3_taskA4_generic_FH_TUERMODUL_CTRL+0x98>
 2005e54:	88200637 	lui	v1,0x400c
 2005e58:	04407423 	sb	zero,29(v1)
 2005e5c:	88200637 	lui	v1,0x400c
 2005e60:	04652023 	sb	a0,72(v1)
 2005e64:	88200637 	lui	v1,0x400c
 2005e68:	04418023 	sb	zero,96(v1)
 2005e6c:	88000813 	li	v1,2
 2005e70:	04e24c23 	sb	v1,19(a1)
 2005e74:	88200637 	lui	v1,0x400c
 2005e78:	04411423 	sb	zero,69(v1)
 2005e7c:	04244423 	sb	a0,17(v0)
 2005e80:	fffe3367 	j	200574c <t3_taskA4_generic_FH_TUERMODUL_CTRL+0x98>
 2005e84:	90200637 	lui	a0,0x400c
 2005e88:	94813003 	lb	a0,76(a0)
 2005e8c:	c4818063 	beqz	a0,200574c <t3_taskA4_generic_FH_TUERMODUL_CTRL+0x98>
 2005e90:	90200637 	lui	a0,0x400c
 2005e94:	94812803 	lb	a0,74(a0)
 2005e98:	c48168e3 	bnez	a0,200574c <t3_taskA4_generic_FH_TUERMODUL_CTRL+0x98>
 2005e9c:	90200637 	lui	a0,0x400c
 2005ea0:	04807423 	sb	zero,29(a0)
 2005ea4:	05624023 	sb	v1,16(a3)
 2005ea8:	04c04823 	sb	zero,18(a1)
 2005eac:	fffe2867 	j	200574c <t3_taskA4_generic_FH_TUERMODUL_CTRL+0x98>

02005eb0 <t3_taskA4_generic_EINKLEMMSCHUTZ_CTRL>:
 2005eb0:	80200637 	lui	v0,0x400c
 2005eb4:	84031013 	add	v0,v0,196
 2005eb8:	8c004003 	lb	v1,16(v0)
 2005ebc:	04405063 	beqz	v1,2005ee4 <t3_taskA4_generic_EINKLEMMSCHUTZ_CTRL+0x34>
 2005ec0:	90200637 	lui	a0,0x400c
 2005ec4:	8c803803 	lb	v1,14(a0)
 2005ec8:	98000413 	li	a1,1
 2005ecc:	04663863 	beq	v1,a1,2005ee8 <t3_taskA4_generic_EINKLEMMSCHUTZ_CTRL+0x38>
 2005ed0:	a0000813 	li	a2,2
 2005ed4:	0468c063 	beq	v1,a2,2005f34 <t3_taskA4_generic_EINKLEMMSCHUTZ_CTRL+0x84>
 2005ed8:	80200637 	lui	v0,0x400c
 2005edc:	04007423 	sb	zero,29(v0)
 2005ee0:	04a63823 	sb	a1,14(a0)
 2005ee4:	004000eb 	ret
 2005ee8:	88200637 	lui	v1,0x400c
 2005eec:	8c410c03 	lb	v1,67(v1)
 2005ef0:	fc41e863 	beqz	v1,2005ee4 <t3_taskA4_generic_EINKLEMMSCHUTZ_CTRL+0x34>
 2005ef4:	88200637 	lui	v1,0x400c
 2005ef8:	8c410803 	lb	v1,66(v1)
 2005efc:	fc41d0e3 	bnez	v1,2005ee4 <t3_taskA4_generic_EINKLEMMSCHUTZ_CTRL+0x34>
 2005f00:	88200637 	lui	v1,0x400c
 2005f04:	8c413c03 	lb	v1,79(v1)
 2005f08:	04402063 	beqz	v1,2005f18 <t3_taskA4_generic_EINKLEMMSCHUTZ_CTRL+0x68>
 2005f0c:	88200637 	lui	v1,0x400c
 2005f10:	8c413003 	lb	v1,76(v1)
 2005f14:	fc41a0e3 	bnez	v1,2005ee4 <t3_taskA4_generic_EINKLEMMSCHUTZ_CTRL+0x34>
 2005f18:	88200637 	lui	v1,0x400c
 2005f1c:	04407423 	sb	zero,29(v1)
 2005f20:	88000413 	li	v1,1
 2005f24:	04226023 	sb	v1,24(v0)
 2005f28:	80000813 	li	v0,2
 2005f2c:	04a03823 	sb	v0,14(a0)
 2005f30:	004000eb 	ret
 2005f34:	88200637 	lui	v1,0x400c
 2005f38:	8c410c03 	lb	v1,67(v1)
 2005f3c:	04006023 	sb	zero,24(v0)
 2005f40:	fc4148e3 	bnez	v1,2005ee4 <t3_taskA4_generic_EINKLEMMSCHUTZ_CTRL+0x34>
 2005f44:	80200637 	lui	v0,0x400c
 2005f48:	84010803 	lb	v0,66(v0)
 2005f4c:	fc013063 	beqz	v0,2005ee4 <t3_taskA4_generic_EINKLEMMSCHUTZ_CTRL+0x34>
 2005f50:	80200637 	lui	v0,0x400c
 2005f54:	04007423 	sb	zero,29(v0)
 2005f58:	04a63823 	sb	a1,14(a0)
 2005f5c:	004000eb 	ret

02005f60 <t3_taskA4_generic_BLOCK_ERKENNUNG_CTRL>:
 2005f60:	88200637 	lui	v1,0x400c
 2005f64:	84431013 	add	v0,v1,196
 2005f68:	94004c03 	lb	a0,19(v0)
 2005f6c:	048038e3 	bnez	a0,2005f88 <t3_taskA4_generic_BLOCK_ERKENNUNG_CTRL+0x28>
 2005f70:	94005403 	lb	a0,21(v0)
 2005f74:	04807063 	beqz	a0,2005fac <t3_taskA4_generic_BLOCK_ERKENNUNG_CTRL+0x4c>
 2005f78:	84005003 	lb	v0,20(v0)
 2005f7c:	040060e3 	bnez	v0,2005fac <t3_taskA4_generic_BLOCK_ERKENNUNG_CTRL+0x4c>
 2005f80:	0c411023 	sb	zero,196(v1)
 2005f84:	004000eb 	ret
 2005f88:	90200637 	lui	a0,0x400c
 2005f8c:	84803003 	lb	v0,12(a0)
 2005f90:	98000413 	li	a1,1
 2005f94:	04263863 	beq	v0,a1,2005fb0 <t3_taskA4_generic_BLOCK_ERKENNUNG_CTRL+0x50>
 2005f98:	a0000813 	li	a2,2
 2005f9c:	0428d863 	beq	v0,a2,2006008 <t3_taskA4_generic_BLOCK_ERKENNUNG_CTRL+0xa8>
 2005fa0:	80200637 	lui	v0,0x400c
 2005fa4:	04007423 	sb	zero,29(v0)
 2005fa8:	04a63023 	sb	a1,12(a0)
 2005fac:	004000eb 	ret
 2005fb0:	98200637 	lui	a1,0x400c
 2005fb4:	a0200637 	lui	a2,0x400c
 2005fb8:	9cc24103 	lw	a1,144(a1)
 2005fbc:	a5023103 	lw	a2,140(a2)
 2005fc0:	fce9d863 	beq	a1,a2,2005fac <t3_taskA4_generic_BLOCK_ERKENNUNG_CTRL+0x4c>
 2005fc4:	f827d2e3 	blez	a1,2005fac <t3_taskA4_generic_BLOCK_ERKENNUNG_CTRL+0x4c>
 2005fc8:	98200637 	lui	a1,0x400c
 2005fcc:	04c07423 	sb	zero,29(a1)
 2005fd0:	98200637 	lui	a1,0x400c
 2005fd4:	04c14823 	sb	zero,82(a1)
 2005fd8:	98000813 	li	a1,2
 2005fdc:	04a63023 	sb	a1,12(a0)
 2005fe0:	90200637 	lui	a0,0x400c
 2005fe4:	98000813 	li	a1,2
 2005fe8:	0481b123 	sw	zero,108(a0)
 2005fec:	90200637 	lui	a0,0x400c
 2005ff0:	04a7d123 	sw	a1,116(a0)
 2005ff4:	98000c13 	li	a1,3
 2005ff8:	90200637 	lui	a0,0x400c
 2005ffc:	04a63423 	sb	a1,13(a0)
 2006000:	0c611023 	sb	v0,196(v1)
 2006004:	004000eb 	ret
 2006008:	80200637 	lui	v0,0x400c
 200600c:	84011803 	lb	v0,70(v0)
 2006010:	0400c063 	beqz	v0,2006070 <t3_taskA4_generic_BLOCK_ERKENNUNG_CTRL+0x110>
 2006014:	80200637 	lui	v0,0x400c
 2006018:	84012403 	lb	v0,73(v0)
 200601c:	040020e3 	bnez	v0,200602c <t3_taskA4_generic_BLOCK_ERKENNUNG_CTRL+0xcc>
 2006020:	80200637 	lui	v0,0x400c
 2006024:	84011c03 	lb	v0,71(v0)
 2006028:	0400a8e3 	bnez	v0,200607c <t3_taskA4_generic_BLOCK_ERKENNUNG_CTRL+0x11c>
 200602c:	90200637 	lui	a0,0x400c
 2006030:	84803403 	lb	v0,13(a0)
 2006034:	98000813 	li	a1,2
 2006038:	0427b063 	beq	v0,a1,2006110 <t3_taskA4_generic_BLOCK_ERKENNUNG_CTRL+0x1b0>
 200603c:	a0000c13 	li	a2,3
 2006040:	0428b863 	beq	v0,a2,200609c <t3_taskA4_generic_BLOCK_ERKENNUNG_CTRL+0x13c>
 2006044:	a8000413 	li	a3,1
 2006048:	042aa063 	beq	v0,a3,2006098 <t3_taskA4_generic_BLOCK_ERKENNUNG_CTRL+0x138>
 200604c:	80200637 	lui	v0,0x400c
 2006050:	04007423 	sb	zero,29(v0)
 2006054:	80200637 	lui	v0,0x400c
 2006058:	0401b123 	sw	zero,108(v0)
 200605c:	80200637 	lui	v0,0x400c
 2006060:	0427d123 	sw	a1,116(v0)
 2006064:	04a83423 	sb	a2,13(a0)
 2006068:	0c6b1023 	sb	a3,196(v1)
 200606c:	004000eb 	ret
 2006070:	80200637 	lui	v0,0x400c
 2006074:	84011003 	lb	v0,68(v0)
 2006078:	fc013863 	beqz	v0,2006014 <t3_taskA4_generic_BLOCK_ERKENNUNG_CTRL+0xb4>
 200607c:	80200637 	lui	v0,0x400c
 2006080:	04007423 	sb	zero,29(v0)
 2006084:	80000413 	li	v0,1
 2006088:	04a03023 	sb	v0,12(a0)
 200608c:	80200637 	lui	v0,0x400c
 2006090:	04003423 	sb	zero,13(v0)
 2006094:	004000eb 	ret
 2006098:	004000eb 	ret
 200609c:	a0200637 	lui	a2,0x400c
 20060a0:	8501b103 	lw	v0,108(a2)
 20060a4:	0c411023 	sb	zero,196(v1)
 20060a8:	88002c13 	li	v1,11
 20060ac:	04233063 	beq	v0,v1,2006144 <t3_taskA4_generic_BLOCK_ERKENNUNG_CTRL+0x1e4>
 20060b0:	88200637 	lui	v1,0x400c
 20060b4:	94407003 	lb	a0,28(v1)
 20060b8:	88000413 	li	v1,1
 20060bc:	f4a3e0e3 	bne	a0,v1,2005fac <t3_taskA4_generic_BLOCK_ERKENNUNG_CTRL+0x4c>
 20060c0:	88200637 	lui	v1,0x400c
 20060c4:	8c430103 	lw	v1,192(v1)
 20060c8:	f441c863 	beqz	v1,2005fac <t3_taskA4_generic_BLOCK_ERKENNUNG_CTRL+0x4c>
 20060cc:	90200637 	lui	a0,0x400c
 20060d0:	94808103 	lw	a0,32(a0)
 20060d4:	8ca30033 	sub	v1,a0,v1
 20060d8:	8c40f0d3 	fcvt.d.wu	fv1,v1
 20060dc:	88200037 	lui	v1,0x4000
 20060e0:	84402187 	fld	fv0,8(v1)
 20060e4:	8c6150d3 	feq.d	v1,fv1,fv0
 20060e8:	f4418863 	beqz	v1,2005fac <t3_taskA4_generic_BLOCK_ERKENNUNG_CTRL+0x4c>
 20060ec:	88200637 	lui	v1,0x400c
 20060f0:	90200637 	lui	a0,0x400c
 20060f4:	94824103 	lw	a0,144(a0)
 20060f8:	9c41d103 	lw	a1,116(v1)
 20060fc:	84000413 	add	v0,v0,1
 2006100:	0521b123 	sw	v0,108(a2)
 2006104:	f4e552e3 	ble	a0,a1,2005fac <t3_taskA4_generic_BLOCK_ERKENNUNG_CTRL+0x4c>
 2006108:	0465d123 	sw	a0,116(v1)
 200610c:	004000eb 	ret
 2006110:	80200637 	lui	v0,0x400c
 2006114:	8c01d103 	lw	v1,116(v0)
 2006118:	80200637 	lui	v0,0x400c
 200611c:	84024103 	lw	v0,144(v0)
 2006120:	8c7ffc13 	add	v1,v1,-1
 2006124:	f4231263 	blt	v0,v1,2005fac <t3_taskA4_generic_BLOCK_ERKENNUNG_CTRL+0x4c>
 2006128:	88200637 	lui	v1,0x400c
 200612c:	80000413 	li	v0,1
 2006130:	04407423 	sb	zero,29(v1)
 2006134:	88200637 	lui	v1,0x400c
 2006138:	04614823 	sb	v0,82(v1)
 200613c:	04a03423 	sb	v0,13(a0)
 2006140:	004000eb 	ret
 2006144:	88200637 	lui	v1,0x400c
 2006148:	8c419103 	lw	v1,100(v1)
 200614c:	fc60c863 	beq	v1,v0,20060b0 <t3_taskA4_generic_BLOCK_ERKENNUNG_CTRL+0x150>
 2006150:	80200637 	lui	v0,0x400c
 2006154:	04007423 	sb	zero,29(v0)
 2006158:	04a63423 	sb	a1,13(a0)
 200615c:	004000eb 	ret

02006160 <t3_taskA4_FH_DU>:
 2006160:	73be2013 	add	sp,sp,-120
 2006164:	0385c123 	sw	s0,112(sp)
 2006168:	10200637 	lui	s0,0x400c
 200616c:	0387b123 	sw	s1,108(sp)
 2006170:	0389a123 	sw	s2,104(sp)
 2006174:	038b9123 	sw	s3,100(sp)
 2006178:	038d8123 	sw	s4,96(sp)
 200617c:	038f7123 	sw	s5,92(sp)
 2006180:	03916123 	sw	s6,88(sp)
 2006184:	03935123 	sw	s7,84(sp)
 2006188:	03954123 	sw	s8,80(sp)
 200618c:	03973123 	sw	s9,76(sp)
 2006190:	03992123 	sw	s10,72(sp)
 2006194:	039b1123 	sw	s11,68(sp)
 2006198:	0383d123 	sw	ra,116(sp)
 200619c:	10831013 	add	s0,s0,196
 20061a0:	88000413 	li	v1,1
 20061a4:	80200637 	lui	v0,0x400c
 20061a8:	04228123 	sw	v1,32(v0)
 20061ac:	a8804003 	lb	a3,16(s0)
 20061b0:	88802803 	lb	v1,10(s0)
 20061b4:	b0804c03 	lb	a4,19(s0)
 20061b8:	b8803403 	lb	a5,13(s0)
 20061bc:	80200637 	lui	v0,0x400c
 20061c0:	c0200637 	lui	a6,0x400c
 20061c4:	c8200637 	lui	a7,0x400c
 20061c8:	04007023 	sb	zero,28(v0)
 20061cc:	03a2a123 	sw	v1,40(sp)
 20061d0:	8600d803 	lb	v0,54(a6)
 20061d4:	03aac123 	sw	a3,48(sp)
 20061d8:	03acd123 	sw	a4,52(sp)
 20061dc:	03aeb123 	sw	a5,44(sp)
 20061e0:	c640d003 	lb	a6,52(a7)
 20061e4:	58200637 	lui	s9,0x400c
 20061e8:	60200637 	lui	s10,0x400c
 20061ec:	20200637 	lui	s2,0x400c
 20061f0:	e0200637 	lui	a10,0x400c
 20061f4:	18200637 	lui	s1,0x400c
 20061f8:	50200637 	lui	s8,0x400c
 20061fc:	48200637 	lui	s7,0x400c
 2006200:	40200637 	lui	s6,0x400c
 2006204:	38200637 	lui	s5,0x400c
 2006208:	30200637 	lui	s4,0x400c
 200620c:	28200637 	lui	s3,0x400c
 2006210:	a0200637 	lui	a2,0x400c
 2006214:	98200637 	lui	a1,0x400c
 2006218:	90200637 	lui	a0,0x400c
 200621c:	88200637 	lui	v1,0x400c
 2006220:	68200637 	lui	s11,0x400c
 2006224:	00016e67 	j	20067dc <t3_taskA4_FH_DU+0x67c>
 2006228:	b0000c13 	li	a4,3
 200622c:	356c2063 	beq	a3,a4,200683c <t3_taskA4_FH_DU+0x6dc>
 2006230:	b0000413 	li	a4,1
 2006234:	356c7863 	beq	a3,a4,2006870 <t3_taskA4_FH_DU+0x710>
 2006238:	f8200637 	lui	a13,0x400c
 200623c:	a8200637 	lui	a3,0x400c
 2006240:	b8000813 	li	a5,2
 2006244:	b0200637 	lui	a4,0x400c
 2006248:	07c07423 	sb	zero,29(a13)
 200624c:	0d402123 	sw	zero,136(a3)
 2006250:	05ae3c23 	sb	a5,15(a4)
 2006254:	cb80a103 	lw	a7,40(sp)
 2006258:	064020e3 	bnez	a7,2006268 <t3_taskA4_FH_DU+0x108>
 200625c:	a8000c13 	li	a3,3
 2006260:	d0200637 	lui	a8,0x400c
 2006264:	06aa6023 	sb	a3,24(a8)
 2006268:	db80c103 	lw	a9,48(sp)
 200626c:	06c020e3 	bnez	a9,200627c <t3_taskA4_FH_DU+0x11c>
 2006270:	b0000413 	li	a4,1
 2006274:	a8200637 	lui	a3,0x400c
 2006278:	056c3823 	sb	a4,14(a3)
 200627c:	eb80d103 	lw	a11,52(sp)
 2006280:	074030e3 	bnez	a11,2006298 <t3_taskA4_FH_DU+0x138>
 2006284:	a8200637 	lui	a3,0x400c
 2006288:	0d411023 	sb	zero,196(a3)
 200628c:	b0000413 	li	a4,1
 2006290:	a8200637 	lui	a3,0x400c
 2006294:	056c3023 	sb	a4,12(a3)
 2006298:	f380b103 	lw	a12,44(sp)
 200629c:	078070e3 	bnez	a12,20062d4 <t3_taskA4_FH_DU+0x174>
 20062a0:	b0000813 	li	a4,2
 20062a4:	f8200637 	lui	a13,0x400c
 20062a8:	a8000413 	li	a3,1
 20062ac:	07ec5c23 	sb	a4,23(a13)
 20062b0:	b0200637 	lui	a4,0x400c
 20062b4:	b8200637 	lui	a5,0x400c
 20062b8:	05aa5823 	sb	a3,22(a4)
 20062bc:	b0200637 	lui	a4,0x400c
 20062c0:	00801023 	sb	zero,4(s0)
 20062c4:	00801823 	sb	zero,6(s0)
 20062c8:	0dc0a123 	sw	zero,168(a5)
 20062cc:	00aa1423 	sb	a3,5(s0)
 20062d0:	05aa5423 	sb	a3,21(a4)
 20062d4:	a8000413 	li	a3,1
 20062d8:	00aa2c23 	sb	a3,11(s0)
 20062dc:	00aa4423 	sb	a3,17(s0)
 20062e0:	00aa5023 	sb	a3,20(s0)
 20062e4:	00aa3823 	sb	a3,14(s0)
 20062e8:	04302863 	beq	v0,a6,20062fc <t3_taskA4_FH_DU+0x19c>
 20062ec:	a8200637 	lui	a3,0x400c
 20062f0:	ad40b403 	lb	a3,45(a3)
 20062f4:	054010e3 	bnez	a3,20062fc <t3_taskA4_FH_DU+0x19c>
 20062f8:	0120f823 	sb	v0,62(s2)
 20062fc:	c0200637 	lui	a6,0x400c
 2006300:	c8200637 	lui	a7,0x400c
 2006304:	8600cc03 	lb	v0,51(a6)
 2006308:	ae40c803 	lb	a3,50(a7)
 200630c:	05603063 	beq	a3,v0,2006324 <t3_taskA4_FH_DU+0x1c4>
 2006310:	a8200637 	lui	a3,0x400c
 2006314:	ad40b403 	lb	a3,45(a3)
 2006318:	05401863 	beqz	a3,2006324 <t3_taskA4_FH_DU+0x1c4>
 200631c:	d0200637 	lui	a8,0x400c
 2006320:	06a0d823 	sb	v0,54(a8)
 2006324:	d8200637 	lui	a9,0x400c
 2006328:	8700e403 	lb	v0,57(a10)
 200632c:	aec0dc03 	lb	a3,55(a9)
 2006330:	05602863 	beq	a3,v0,2006344 <t3_taskA4_FH_DU+0x1e4>
 2006334:	a8200637 	lui	a3,0x400c
 2006338:	ad40b403 	lb	a3,45(a3)
 200633c:	054010e3 	bnez	a3,2006344 <t3_taskA4_FH_DU+0x1e4>
 2006340:	00e0f423 	sb	v0,61(s1)
 2006344:	e8200637 	lui	a11,0x400c
 2006348:	f0200637 	lui	a12,0x400c
 200634c:	8740c403 	lb	v0,49(a11)
 2006350:	af80c003 	lb	a3,48(a12)
 2006354:	05602863 	beq	a3,v0,2006368 <t3_taskA4_FH_DU+0x208>
 2006358:	a8200637 	lui	a3,0x400c
 200635c:	ad40b403 	lb	a3,45(a3)
 2006360:	05401063 	beqz	a3,2006368 <t3_taskA4_FH_DU+0x208>
 2006364:	0720e423 	sb	v0,57(a10)
 2006368:	d8803203 	lbu	a9,12(s0)
 200636c:	d0803e03 	lbu	a8,15(s0)
 2006370:	c8804a03 	lbu	a7,18(s0)
 2006374:	c0805603 	lbu	a6,21(s0)
 2006378:	ba40ba03 	lbu	a5,46(s7)
 200637c:	b0c0f603 	lbu	a4,61(s1)
 2006380:	a980be03 	lbu	a3,47(s4)
 2006384:	8100fa03 	lbu	v0,62(s2)
 2006388:	00b62823 	sb	a9,10(s0)
 200638c:	00b43423 	sb	a8,13(s0)
 2006390:	00b24023 	sb	a7,16(s0)
 2006394:	00b04c23 	sb	a6,19(s0)
 2006398:	02af5823 	sb	a5,86(s8)
 200639c:	03b86123 	sw	a10,24(sp)
 20063a0:	022d6023 	sb	a4,88(s6)
 20063a4:	01eb6823 	sb	a3,90(s5)
 20063a8:	01617023 	sb	v0,92(s3)
 20063ac:	03a25123 	sw	v1,20(sp)
 20063b0:	03a48123 	sw	a0,32(sp)
 20063b4:	03a64123 	sw	a1,16(sp)
 20063b8:	03a87123 	sw	a2,28(sp)
 20063bc:	fffbe46f 	jal	200534c <t3_taskA4_generic_KINDERSICHERUNG_CTRL>
 20063c0:	a3807103 	lw	a2,28(sp)
 20063c4:	9b804103 	lw	a1,16(sp)
 20063c8:	f8200637 	lui	a13,0x400c
 20063cc:	80200637 	lui	v0,0x400c
 20063d0:	0fc11a03 	lbu	ra,70(a13)
 20063d4:	93808103 	lw	a0,32(sp)
 20063d8:	fc012603 	lbu	a13,73(v0)
 20063dc:	8b805103 	lw	v1,20(sp)
 20063e0:	f5024103 	lw	a12,144(a2)
 20063e4:	a8200637 	lui	a3,0x400c
 20063e8:	ed410e03 	lbu	a11,67(a3)
 20063ec:	dcc25103 	lw	a9,148(a1)
 20063f0:	d4814203 	lbu	a8,80(a0)
 20063f4:	ac415203 	lbu	a3,84(v1)
 20063f8:	ca815a03 	lbu	a7,86(s8)
 20063fc:	c2016203 	lbu	a6,88(s6)
 2006400:	b9c16a03 	lbu	a5,90(s5)
 2006404:	b1417203 	lbu	a4,92(s3)
 2006408:	83414e03 	lbu	v0,83(s11)
 200640c:	02fea423 	sb	a13,41(s9)
 2006410:	f8200637 	lui	a13,0x400c
 2006414:	07fdf123 	sw	a12,124(a13)
 2006418:	f8200637 	lui	a13,0x400c
 200641c:	f0200637 	lui	a12,0x400c
 2006420:	07baec23 	sb	a11,59(a12)
 2006424:	0ff60123 	sw	a9,128(a13)
 2006428:	e8200637 	lui	a11,0x400c
 200642c:	d8200637 	lui	a9,0x400c
 2006430:	f0200637 	lui	a12,0x400c
 2006434:	06f4f023 	sb	a8,60(a9)
 2006438:	076afc23 	sb	a3,63(a11)
 200643c:	07a0b023 	sb	v0,44(a12)
 2006440:	03029823 	sb	ra,38(s10)
 2006444:	0272b823 	sb	a7,46(s7)
 2006448:	00f0f423 	sb	a6,61(s1)
 200644c:	01aebc23 	sb	a5,47(s4)
 2006450:	012cf823 	sb	a4,62(s2)
 2006454:	fffc986f 	jal	20056b4 <t3_taskA4_generic_FH_TUERMODUL_CTRL>
 2006458:	a3807103 	lw	a2,28(sp)
 200645c:	9b804103 	lw	a1,16(sp)
 2006460:	f8200637 	lui	a13,0x400c
 2006464:	80200637 	lui	v0,0x400c
 2006468:	0fc11a03 	lbu	ra,70(a13)
 200646c:	93808103 	lw	a0,32(sp)
 2006470:	fc012603 	lbu	a13,73(v0)
 2006474:	8b805103 	lw	v1,20(sp)
 2006478:	f5024103 	lw	a12,144(a2)
 200647c:	a8200637 	lui	a3,0x400c
 2006480:	ed410e03 	lbu	a11,67(a3)
 2006484:	dcc25103 	lw	a9,148(a1)
 2006488:	d4814203 	lbu	a8,80(a0)
 200648c:	ac415203 	lbu	a3,84(v1)
 2006490:	ca815a03 	lbu	a7,86(s8)
 2006494:	c2016203 	lbu	a6,88(s6)
 2006498:	b9c16a03 	lbu	a5,90(s5)
 200649c:	b1417203 	lbu	a4,92(s3)
 20064a0:	83414e03 	lbu	v0,83(s11)
 20064a4:	02fea423 	sb	a13,41(s9)
 20064a8:	f8200637 	lui	a13,0x400c
 20064ac:	07fdf123 	sw	a12,124(a13)
 20064b0:	f8200637 	lui	a13,0x400c
 20064b4:	f0200637 	lui	a12,0x400c
 20064b8:	07baec23 	sb	a11,59(a12)
 20064bc:	0ff60123 	sw	a9,128(a13)
 20064c0:	e8200637 	lui	a11,0x400c
 20064c4:	d8200637 	lui	a9,0x400c
 20064c8:	f0200637 	lui	a12,0x400c
 20064cc:	06f4f023 	sb	a8,60(a9)
 20064d0:	076afc23 	sb	a3,63(a11)
 20064d4:	07a0b023 	sb	v0,44(a12)
 20064d8:	03029823 	sb	ra,38(s10)
 20064dc:	0272b823 	sb	a7,46(s7)
 20064e0:	00f0f423 	sb	a6,61(s1)
 20064e4:	01aebc23 	sb	a5,47(s4)
 20064e8:	012cf823 	sb	a4,62(s2)
 20064ec:	fffe716f 	jal	2005eb0 <t3_taskA4_generic_EINKLEMMSCHUTZ_CTRL>
 20064f0:	a3807103 	lw	a2,28(sp)
 20064f4:	9b804103 	lw	a1,16(sp)
 20064f8:	f8200637 	lui	a13,0x400c
 20064fc:	80200637 	lui	v0,0x400c
 2006500:	0fc11a03 	lbu	ra,70(a13)
 2006504:	93808103 	lw	a0,32(sp)
 2006508:	fc012603 	lbu	a13,73(v0)
 200650c:	8b805103 	lw	v1,20(sp)
 2006510:	f5024103 	lw	a12,144(a2)
 2006514:	a8200637 	lui	a3,0x400c
 2006518:	ed410e03 	lbu	a11,67(a3)
 200651c:	dcc25103 	lw	a9,148(a1)
 2006520:	d4814203 	lbu	a8,80(a0)
 2006524:	ac415203 	lbu	a3,84(v1)
 2006528:	ca815a03 	lbu	a7,86(s8)
 200652c:	c2016203 	lbu	a6,88(s6)
 2006530:	b9c16a03 	lbu	a5,90(s5)
 2006534:	b1417203 	lbu	a4,92(s3)
 2006538:	83414e03 	lbu	v0,83(s11)
 200653c:	02fea423 	sb	a13,41(s9)
 2006540:	f8200637 	lui	a13,0x400c
 2006544:	07fdf123 	sw	a12,124(a13)
 2006548:	f8200637 	lui	a13,0x400c
 200654c:	f0200637 	lui	a12,0x400c
 2006550:	07baec23 	sb	a11,59(a12)
 2006554:	0ff60123 	sw	a9,128(a13)
 2006558:	e8200637 	lui	a11,0x400c
 200655c:	d8200637 	lui	a9,0x400c
 2006560:	f0200637 	lui	a12,0x400c
 2006564:	06f4f023 	sb	a8,60(a9)
 2006568:	076afc23 	sb	a3,63(a11)
 200656c:	07a0b023 	sb	v0,44(a12)
 2006570:	0272b823 	sb	a7,46(s7)
 2006574:	00f0f423 	sb	a6,61(s1)
 2006578:	01aebc23 	sb	a5,47(s4)
 200657c:	012cf823 	sb	a4,62(s2)
 2006580:	03029823 	sb	ra,38(s10)
 2006584:	fffe776f 	jal	2005f60 <t3_taskA4_generic_BLOCK_ERKENNUNG_CTRL>
 2006588:	d0803403 	lb	a8,13(s0)
 200658c:	d8804003 	lb	a9,16(s0)
 2006590:	a3807103 	lw	a2,28(sp)
 2006594:	c8802803 	lb	a7,10(s0)
 2006598:	f8200637 	lui	a13,0x400c
 200659c:	afc10c03 	lb	a3,67(a13)
 20065a0:	b2815803 	lb	a4,86(s8)
 20065a4:	f8804c03 	lb	a13,19(s0)
 20065a8:	9b804103 	lw	a1,16(sp)
 20065ac:	85024103 	lw	v0,144(a2)
 20065b0:	ba016003 	lb	a5,88(s6)
 20065b4:	93808103 	lw	a0,32(sp)
 20065b8:	03b4b123 	sw	a8,44(sp)
 20065bc:	03b6c123 	sw	a9,48(sp)
 20065c0:	d0200637 	lui	a8,0x400c
 20065c4:	d8200637 	lui	a9,0x400c
 20065c8:	03b2a123 	sw	a7,40(sp)
 20065cc:	ce82a103 	lw	a7,168(a8)
 20065d0:	d6c21103 	lw	a8,132(a9)
 20065d4:	d8200637 	lui	a9,0x400c
 20065d8:	03ace123 	sw	a4,56(sp)
 20065dc:	03bed123 	sw	a13,52(sp)
 20065e0:	b4c25103 	lw	a4,148(a1)
 20065e4:	fec1b103 	lw	a13,108(a9)
 20065e8:	d8200637 	lui	a9,0x400c
 20065ec:	03ae3123 	sw	a5,12(sp)
 20065f0:	06e1f123 	sw	v0,124(a9)
 20065f4:	bc814203 	lbu	a5,80(a0)
 20065f8:	d8200637 	lui	a9,0x400c
 20065fc:	06eaec23 	sb	a3,59(a9)
 2006600:	d8200637 	lui	a9,0x400c
 2006604:	0eec0123 	sw	a4,128(a9)
 2006608:	8b805103 	lw	v1,20(sp)
 200660c:	b0200637 	lui	a4,0x400c
 2006610:	05aef023 	sb	a5,60(a4)
 2006614:	db803103 	lw	a9,12(sp)
 2006618:	bb80e103 	lw	a5,56(sp)
 200661c:	c4415203 	lbu	a6,84(v1)
 2006620:	e9c16803 	lb	a11,90(s5)
 2006624:	f1417003 	lb	a12,92(s3)
 2006628:	026eb823 	sb	a5,46(s7)
 200662c:	00f6f423 	sb	a9,61(s1)
 2006630:	bb80a103 	lw	a5,40(sp)
 2006634:	db80c103 	lw	a9,48(sp)
 2006638:	b0200637 	lui	a4,0x400c
 200663c:	05b0fc23 	sb	a6,63(a4)
 2006640:	c380b103 	lw	a6,44(sp)
 2006644:	00ae2c23 	sb	a5,11(s0)
 2006648:	b8200637 	lui	a5,0x400c
 200664c:	00b64423 	sb	a9,17(s0)
 2006650:	b380d103 	lw	a4,52(sp)
 2006654:	0df28123 	sw	a7,160(a5)
 2006658:	d8200637 	lui	a9,0x400c
 200665c:	c8200637 	lui	a7,0x400c
 2006660:	00b03823 	sb	a6,14(s0)
 2006664:	0e742123 	sw	a8,136(a7)
 2006668:	06ff9123 	sw	a13,100(a9)
 200666c:	c0200637 	lui	a6,0x400c
 2006670:	d0200637 	lui	a8,0x400c
 2006674:	f8200637 	lui	a13,0x400c
 2006678:	dfc14803 	lb	a9,82(a13)
 200667c:	0e203123 	sw	v0,140(a6)
 2006680:	06a1e123 	sw	v0,120(a8)
 2006684:	b8200637 	lui	a5,0x400c
 2006688:	80200637 	lui	v0,0x400c
 200668c:	f8200637 	lui	a13,0x400c
 2006690:	d4013803 	lb	a8,78(v0)
 2006694:	c5c12003 	lb	a6,72(a5)
 2006698:	00ac5023 	sb	a4,20(s0)
 200669c:	bfc11403 	lb	a5,69(a13)
 20066a0:	b0200637 	lui	a4,0x400c
 20066a4:	80200637 	lui	v0,0x400c
 20066a8:	f8200637 	lui	a13,0x400c
 20066ac:	cd812c03 	lb	a7,75(a4)
 20066b0:	b400ac03 	lb	a4,43(v0)
 20066b4:	87c0d803 	lb	v0,54(a13)
 20066b8:	f8200637 	lui	a13,0x400c
 20066bc:	ffc0ce03 	lbu	a13,51(a13)
 20066c0:	013cf823 	sb	a12,62(s2)
 20066c4:	01babc23 	sb	a11,47(s4)
 20066c8:	03be9c23 	sb	a13,39(sp)
 20066cc:	f8200637 	lui	a13,0x400c
 20066d0:	ffc0c603 	lbu	a13,49(a13)
 20066d4:	e3806103 	lw	a10,24(sp)
 20066d8:	03be9823 	sb	a13,38(sp)
 20066dc:	f8200637 	lui	a13,0x400c
 20066e0:	ffc0a003 	lb	a13,40(a13)
 20066e4:	03bef123 	sw	a13,60(sp)
 20066e8:	f8200637 	lui	a13,0x400c
 20066ec:	07fd6c23 	sb	a12,91(a13)
 20066f0:	f0200637 	lui	a12,0x400c
 20066f4:	07bb6423 	sb	a11,89(a12)
 20066f8:	eb803103 	lw	a11,12(sp)
 20066fc:	f8200637 	lui	a13,0x400c
 2006700:	f0200637 	lui	a12,0x400c
 2006704:	07fb5c23 	sb	a11,87(a13)
 2006708:	fb80e103 	lw	a13,56(sp)
 200670c:	e8200637 	lui	a11,0x400c
 2006710:	07774423 	sb	a9,81(a11)
 2006714:	07bf5423 	sb	a13,85(a12)
 2006718:	f0200637 	lui	a12,0x400c
 200671c:	f8200637 	lui	a13,0x400c
 2006720:	07b53c23 	sb	a8,79(a12)
 2006724:	07f53423 	sb	a8,77(a13)
 2006728:	e8200637 	lui	a11,0x400c
 200672c:	d0200637 	lui	a8,0x400c
 2006730:	03774c23 	sb	a9,83(s11)
 2006734:	d8200637 	lui	a9,0x400c
 2006738:	06b33023 	sb	a7,76(a8)
 200673c:	06f32823 	sb	a7,74(a9)
 2006740:	07712423 	sb	a6,73(a11)
 2006744:	c8200637 	lui	a7,0x400c
 2006748:	d0200637 	lui	a8,0x400c
 200674c:	ef00e603 	lbu	a11,57(a10)
 2006750:	f0200637 	lui	a12,0x400c
 2006754:	066b0823 	sb	a3,66(a7)
 2006758:	06aae823 	sb	a3,58(a8)
 200675c:	ab809e03 	lbu	a3,39(sp)
 2006760:	07b11c23 	sb	a6,71(a12)
 2006764:	f8200637 	lui	a13,0x400c
 2006768:	c0200637 	lui	a6,0x400c
 200676c:	d8200637 	lui	a9,0x400c
 2006770:	f0200637 	lui	a12,0x400c
 2006774:	07ef1823 	sb	a5,70(a13)
 2006778:	062f1023 	sb	a5,68(a6)
 200677c:	06fadc23 	sb	a11,55(a9)
 2006780:	f8200637 	lui	a13,0x400c
 2006784:	07a0d023 	sb	v0,52(a12)
 2006788:	c3809a03 	lbu	a6,38(sp)
 200678c:	c8200637 	lui	a7,0x400c
 2006790:	d0200637 	lui	a8,0x400c
 2006794:	e8200637 	lui	a11,0x400c
 2006798:	f0200637 	lui	a12,0x400c
 200679c:	07eac823 	sb	a3,50(a13)
 20067a0:	db80f103 	lw	a9,60(sp)
 20067a4:	af409403 	lb	a3,37(a11)
 20067a8:	066cb023 	sb	a4,44(a7)
 20067ac:	06aca823 	sb	a4,42(a8)
 20067b0:	b7807403 	lb	a4,29(a12)
 20067b4:	b8200637 	lui	a5,0x400c
 20067b8:	05f0c023 	sb	a6,48(a5)
 20067bc:	f8200637 	lui	a13,0x400c
 20067c0:	b8200637 	lui	a5,0x400c
 20067c4:	02f6a423 	sb	a9,41(s9)
 20067c8:	07f69c23 	sb	a9,39(a13)
 20067cc:	032a9823 	sb	a3,38(s10)
 20067d0:	05ea9023 	sb	a3,36(a5)
 20067d4:	0d8000e3 	bnez	a4,20068d4 <t3_taskA4_FH_DU+0x774>
 20067d8:	c4000013 	move	a6,v0
 20067dc:	d0200637 	lui	a8,0x400c
 20067e0:	be807203 	lbu	a5,28(a8)
 20067e4:	d8200637 	lui	a9,0x400c
 20067e8:	aec03c03 	lb	a3,15(a9)
 20067ec:	b0000413 	li	a4,1
 20067f0:	bdc00413 	add	a5,a5,1
 20067f4:	e8200637 	lui	a11,0x400c
 20067f8:	f0000813 	li	a12,2
 20067fc:	076c7423 	sb	a4,29(a11)
 2006800:	06ae7023 	sb	a5,28(a8)
 2006804:	d57c48e3 	bne	a3,a12,2006228 <t3_taskA4_FH_DU+0xc8>
 2006808:	aac0a403 	lb	a3,41(s9)
 200680c:	05412063 	beqz	a3,200689c <t3_taskA4_FH_DU+0x73c>
 2006810:	d0200637 	lui	a8,0x400c
 2006814:	ae809c03 	lb	a3,39(a8)
 2006818:	054108e3 	bnez	a3,200689c <t3_taskA4_FH_DU+0x73c>
 200681c:	d8200637 	lui	a9,0x400c
 2006820:	a83e7013 	li	a3,-100
 2006824:	e8200637 	lui	a11,0x400c
 2006828:	f0200637 	lui	a12,0x400c
 200682c:	06c07423 	sb	zero,29(a9)
 2006830:	0f6a2123 	sw	a3,136(a11)
 2006834:	07ac3c23 	sb	a4,15(a12)
 2006838:	fffe8767 	j	2006254 <t3_taskA4_FH_DU+0xf4>
 200683c:	ab009803 	lb	a3,38(s10)
 2006840:	d54028e3 	bnez	a3,2006254 <t3_taskA4_FH_DU+0xf4>
 2006844:	c8200637 	lui	a7,0x400c
 2006848:	ae409003 	lb	a3,36(a7)
 200684c:	d5401063 	beqz	a3,2006254 <t3_taskA4_FH_DU+0xf4>
 2006850:	d0200637 	lui	a8,0x400c
 2006854:	d8200637 	lui	a9,0x400c
 2006858:	f0000813 	li	a12,2
 200685c:	e8200637 	lui	a11,0x400c
 2006860:	06807423 	sb	zero,29(a8)
 2006864:	0ec02123 	sw	zero,136(a9)
 2006868:	077c3c23 	sb	a12,15(a11)
 200686c:	fffe7a67 	j	2006254 <t3_taskA4_FH_DU+0xf4>
 2006870:	aac0a403 	lb	a3,41(s9)
 2006874:	cd41c0e3 	bnez	a3,2006254 <t3_taskA4_FH_DU+0xf4>
 2006878:	f8200637 	lui	a13,0x400c
 200687c:	afc09c03 	lb	a3,39(a13)
 2006880:	cd41a863 	beqz	a3,2006254 <t3_taskA4_FH_DU+0xf4>
 2006884:	b0200637 	lui	a4,0x400c
 2006888:	c8000813 	li	a7,2
 200688c:	07407423 	sb	zero,29(a11)
 2006890:	0d802123 	sw	zero,136(a4)
 2006894:	06f23c23 	sb	a7,15(a9)
 2006898:	fffe6f67 	j	2006254 <t3_taskA4_FH_DU+0xf4>
 200689c:	ab009803 	lb	a3,38(s10)
 20068a0:	cd416863 	beqz	a3,2006254 <t3_taskA4_FH_DU+0xf4>
 20068a4:	f8200637 	lui	a13,0x400c
 20068a8:	afc09003 	lb	a3,36(a13)
 20068ac:	cd4150e3 	bnez	a3,2006254 <t3_taskA4_FH_DU+0xf4>
 20068b0:	a8200637 	lui	a3,0x400c
 20068b4:	05407423 	sb	zero,29(a3)
 20068b8:	b0200637 	lui	a4,0x400c
 20068bc:	a8019013 	li	a3,100
 20068c0:	0daa2123 	sw	a3,136(a4)
 20068c4:	b8200637 	lui	a5,0x400c
 20068c8:	a8000c13 	li	a3,3
 20068cc:	05ea3c23 	sb	a3,15(a5)
 20068d0:	fffe6167 	j	2006254 <t3_taskA4_FH_DU+0xf4>
 20068d4:	0b81d103 	lw	ra,116(sp)
 20068d8:	1381c103 	lw	s0,112(sp)
 20068dc:	1b81b103 	lw	s1,108(sp)
 20068e0:	2381a103 	lw	s2,104(sp)
 20068e4:	2b819103 	lw	s3,100(sp)
 20068e8:	33818103 	lw	s4,96(sp)
 20068ec:	3b817103 	lw	s5,92(sp)
 20068f0:	43816103 	lw	s6,88(sp)
 20068f4:	4b815103 	lw	s7,84(sp)
 20068f8:	53814103 	lw	s8,80(sp)
 20068fc:	5b813103 	lw	s9,76(sp)
 2006900:	63812103 	lw	s10,72(sp)
 2006904:	6b811103 	lw	s11,68(sp)
 2006908:	7381e013 	add	sp,sp,120
 200690c:	004000eb 	ret

02006910 <t3_taskA4_main>:
 2006910:	73bfe013 	add	sp,sp,-8
 2006914:	03840123 	sw	s0,0(sp)
 2006918:	03821123 	sw	ra,4(sp)
 200691c:	1007f813 	li	s0,510
 2006920:	10bffc13 	add	s0,s0,-1
 2006924:	fffa636f 	jal	20052b0 <t3_taskA4_init>
 2006928:	fffa006f 	jal	2005128 <t3_taskA4_interface>
 200692c:	fffe0d6f 	jal	2006160 <t3_taskA4_FH_DU>
 2006930:	f881e0e3 	bnez	s0,2006920 <t3_taskA4_main+0x10>
 2006934:	0b801103 	lw	ra,4(sp)
 2006938:	80000013 	li	v0,0
 200693c:	13800103 	lw	s0,0(sp)
 2006940:	73802013 	add	sp,sp,8
 2006944:	004000eb 	ret

02006948 <t4_exception_proxy>:
 2006948:	73bfe013 	add	sp,sp,-8
 200694c:	03821123 	sw	ra,4(sp)
 2006950:	7840017b 	mfpcr	tp,cr1
 2006954:	73bef013 	add	sp,sp,-68
 2006958:	039e1123 	sw	tp,4(sp)
 200695c:	03a02123 	sw	v0,8(sp)
 2006960:	03a23123 	sw	v1,12(sp)
 2006964:	03a44123 	sw	a0,16(sp)
 2006968:	03a65123 	sw	a1,20(sp)
 200696c:	03a86123 	sw	a2,24(sp)
 2006970:	03aa7123 	sw	a3,28(sp)
 2006974:	03ac8123 	sw	a4,32(sp)
 2006978:	03ae9123 	sw	a5,36(sp)
 200697c:	03b0a123 	sw	a6,40(sp)
 2006980:	03b2b123 	sw	a7,44(sp)
 2006984:	03b4c123 	sw	a8,48(sp)
 2006988:	03b6d123 	sw	a9,52(sp)
 200698c:	03b8e123 	sw	a10,56(sp)
 2006990:	03baf123 	sw	a11,60(sp)
 2006994:	03bd0123 	sw	a12,64(sp)
 2006998:	03bf1123 	sw	a13,68(sp)
 200699c:	80200837 	lui	v0,0x4010
 20069a0:	84002103 	lw	v0,8(v0)
 20069a4:	0c00006b 	jalr	v0
 20069a8:	7b801103 	lw	tp,4(sp)
 20069ac:	83802103 	lw	v0,8(sp)
 20069b0:	8b803103 	lw	v1,12(sp)
 20069b4:	93804103 	lw	a0,16(sp)
 20069b8:	9b805103 	lw	a1,20(sp)
 20069bc:	a3806103 	lw	a2,24(sp)
 20069c0:	ab807103 	lw	a3,28(sp)
 20069c4:	b3808103 	lw	a4,32(sp)
 20069c8:	bb809103 	lw	a5,36(sp)
 20069cc:	c380a103 	lw	a6,40(sp)
 20069d0:	cb80b103 	lw	a7,44(sp)
 20069d4:	d380c103 	lw	a8,48(sp)
 20069d8:	db80d103 	lw	a9,52(sp)
 20069dc:	e380e103 	lw	a10,56(sp)
 20069e0:	eb80f103 	lw	a11,60(sp)
 20069e4:	f3810103 	lw	a12,64(sp)
 20069e8:	fb811103 	lw	a13,68(sp)
 20069ec:	73811013 	add	sp,sp,68
 20069f0:	0b801103 	lw	ra,4(sp)
 20069f4:	73802013 	add	sp,sp,8
 20069f8:	03c0016b 	jr	tp
 20069fc:	0b801103 	lw	ra,4(sp)
 2006a00:	73802013 	add	sp,sp,8
 2006a04:	004000eb 	ret

02006a08 <t4_main>:
 2006a08:	73bf2013 	add	sp,sp,-56
 2006a0c:	0388a123 	sw	s2,40(sp)
 2006a10:	20000c37 	lui	s2,0x18
 2006a14:	0382d123 	sw	ra,52(sp)
 2006a18:	0384c123 	sw	s0,48(sp)
 2006a1c:	0386b123 	sw	s1,44(sp)
 2006a20:	038a9123 	sw	s3,36(sp)
 2006a24:	038c8123 	sw	s4,32(sp)
 2006a28:	038e7123 	sw	s5,28(sp)
 2006a2c:	03906123 	sw	s6,24(sp)
 2006a30:	03925123 	sw	s7,20(sp)
 2006a34:	03944123 	sw	s8,16(sp)
 2006a38:	03963123 	sw	s9,12(sp)
 2006a3c:	03982123 	sw	s10,8(sp)
 2006a40:	039a1123 	sw	s11,4(sp)
 2006a44:	211a8013 	add	s2,s2,1696
 2006a48:	80000013 	li	v0,0
 2006a4c:	1c000013 	move	s1,v0
 2006a50:	11000013 	move	s0,s2
 2006a54:	00c4015b 	0xc4015b
 2006a58:	53000037 	lui	s8,0x60000
 2006a5c:	300bec37 	lui	s4,0x17d8
 2006a60:	4a800413 	add	s7,s8,1
 2006a64:	42802c13 	add	s6,s8,11
 2006a68:	6a800c13 	add	s11,s8,3
 2006a6c:	62803413 	add	s10,s8,13
 2006a70:	5a800813 	add	s9,s8,2
 2006a74:	38000013 	li	s5,0
 2006a78:	28000013 	li	s3,0
 2006a7c:	52803013 	add	s8,s8,12
 2006a80:	31a10013 	add	s4,s4,-1984
 2006a84:	00001367 	j	2006ad0 <t4_main+0xc8>
 2006a88:	879601fb 	mtpcr	v0,s9,cr30
 2006a8c:	1000005b 	0x1000005b
 2006a90:	80800013 	move	v0,s0
 2006a94:	84060333 	or	v0,v0,s1
 2006a98:	87a001fb 	mtpcr	v0,v0,cr30
 2006a9c:	000c296f 	jal	2009b40 <t4_taskB2_main>
 2006aa0:	879401fb 	mtpcr	v0,s8,cr30
 2006aa4:	1000005b 	0x1000005b
 2006aa8:	80800013 	move	v0,s0
 2006aac:	1c060333 	or	s1,v0,s1
 2006ab0:	1f8601fb 	mtpcr	s1,s1,cr30
 2006ab4:	38000413 	li	s5,1
 2006ab8:	210c0033 	add	s2,s2,s4
 2006abc:	810c01b3 	sltu	v0,s2,s4
 2006ac0:	29600033 	add	s3,s3,v0
 2006ac4:	19400013 	move	s1,s3
 2006ac8:	11000013 	move	s0,s2
 2006acc:	00c4015b 	0xc4015b
 2006ad0:	879201fb 	mtpcr	v0,s7,cr30
 2006ad4:	1000005b 	0x1000005b
 2006ad8:	80800013 	move	v0,s0
 2006adc:	1c000037 	lui	s1,0x80000
 2006ae0:	84060333 	or	v0,v0,s1
 2006ae4:	87a001fb 	mtpcr	v0,v0,cr30
 2006ae8:	00060e6f 	jal	2008320 <t4_taskB1_main>
 2006aec:	879001fb 	mtpcr	v0,s6,cr30
 2006af0:	1000005b 	0x1000005b
 2006af4:	80800013 	move	v0,s0
 2006af8:	84060333 	or	v0,v0,s1
 2006afc:	87a001fb 	mtpcr	v0,v0,cr30
 2006b00:	f9c11063 	beqz	s5,2006a88 <t4_main+0x80>
 2006b04:	879a01fb 	mtpcr	v0,s11,cr30
 2006b08:	1000005b 	0x1000005b
 2006b0c:	80800013 	move	v0,s0
 2006b10:	84060333 	or	v0,v0,s1
 2006b14:	87a001fb 	mtpcr	v0,v0,cr30
 2006b18:	0012126f 	jal	200b360 <t4_taskB3_main>
 2006b1c:	879801fb 	mtpcr	v0,s10,cr30
 2006b20:	1000005b 	0x1000005b
 2006b24:	80800013 	move	v0,s0
 2006b28:	1c060333 	or	s1,v0,s1
 2006b2c:	1f8601fb 	mtpcr	s1,s1,cr30
 2006b30:	38000013 	li	s5,0
 2006b34:	ffffe167 	j	2006ab8 <t4_main+0xb0>

02006b38 <t4_taskB1_interface>:
 2006b38:	80200837 	lui	v0,0x4010
 2006b3c:	8c031013 	add	v1,v0,196
 2006b40:	94401003 	lb	a0,4(v1)
 2006b44:	0c805063 	beqz	a0,2006c6c <t4_taskB1_interface+0x134>
 2006b48:	88200837 	lui	v1,0x4010
 2006b4c:	8c408103 	lw	v1,32(v1)
 2006b50:	90200837 	lui	a0,0x4010
 2006b54:	0ca2e123 	sw	v1,184(a0)
 2006b58:	90200837 	lui	a0,0x4010
 2006b5c:	0ca2f123 	sw	v1,188(a0)
 2006b60:	90200837 	lui	a0,0x4010
 2006b64:	8c82d103 	lw	v1,180(a0)
 2006b68:	04404863 	beqz	v1,2006b8c <t4_taskB1_interface+0x54>
 2006b6c:	98200837 	lui	a1,0x4010
 2006b70:	9cc08103 	lw	a1,32(a1)
 2006b74:	8ce30033 	sub	v1,a1,v1
 2006b78:	8c40f0d3 	fcvt.d.wu	fv1,v1
 2006b7c:	88200037 	lui	v1,0x4000
 2006b80:	84400187 	fld	fv0,0(v1)
 2006b84:	8c2370d3 	fle.d	v1,fv0,fv1
 2006b88:	0c4050e3 	bnez	v1,2006cb0 <t4_taskB1_interface+0x178>
 2006b8c:	90200837 	lui	a0,0x4010
 2006b90:	8c82c103 	lw	v1,176(a0)
 2006b94:	04404863 	beqz	v1,2006bb8 <t4_taskB1_interface+0x80>
 2006b98:	98200837 	lui	a1,0x4010
 2006b9c:	9cc08103 	lw	a1,32(a1)
 2006ba0:	8ce30033 	sub	v1,a1,v1
 2006ba4:	8c40f0d3 	fcvt.d.wu	fv1,v1
 2006ba8:	88200037 	lui	v1,0x4000
 2006bac:	84400187 	fld	fv0,0(v1)
 2006bb0:	8c2370d3 	fle.d	v1,fv0,fv1
 2006bb4:	0441d8e3 	bnez	v1,2006ca0 <t4_taskB1_interface+0x168>
 2006bb8:	90200837 	lui	a0,0x4010
 2006bbc:	8c82b103 	lw	v1,172(a0)
 2006bc0:	04404863 	beqz	v1,2006be4 <t4_taskB1_interface+0xac>
 2006bc4:	98200837 	lui	a1,0x4010
 2006bc8:	9cc08103 	lw	a1,32(a1)
 2006bcc:	8ce30033 	sub	v1,a1,v1
 2006bd0:	8c40f0d3 	fcvt.d.wu	fv1,v1
 2006bd4:	88200037 	lui	v1,0x4000
 2006bd8:	84400187 	fld	fv0,0(v1)
 2006bdc:	8c2370d3 	fle.d	v1,fv0,fv1
 2006be0:	044160e3 	bnez	v1,2006c90 <t4_taskB1_interface+0x158>
 2006be4:	90200837 	lui	a0,0x4010
 2006be8:	8c827103 	lw	v1,156(a0)
 2006bec:	04404863 	beqz	v1,2006c10 <t4_taskB1_interface+0xd8>
 2006bf0:	98200837 	lui	a1,0x4010
 2006bf4:	9cc08103 	lw	a1,32(a1)
 2006bf8:	8ce30033 	sub	v1,a1,v1
 2006bfc:	8c40f0d3 	fcvt.d.wu	fv1,v1
 2006c00:	88200037 	lui	v1,0x4000
 2006c04:	84400187 	fld	fv0,0(v1)
 2006c08:	8c2370d3 	fle.d	v1,fv0,fv1
 2006c0c:	0440f8e3 	bnez	v1,2006c88 <t4_taskB1_interface+0x150>
 2006c10:	90200837 	lui	a0,0x4010
 2006c14:	8c826103 	lw	v1,152(a0)
 2006c18:	04404863 	beqz	v1,2006c3c <t4_taskB1_interface+0x104>
 2006c1c:	98200837 	lui	a1,0x4010
 2006c20:	9cc08103 	lw	a1,32(a1)
 2006c24:	8ce30033 	sub	v1,a1,v1
 2006c28:	8c40f0d3 	fcvt.d.wu	fv1,v1
 2006c2c:	88200037 	lui	v1,0x4000
 2006c30:	84400187 	fld	fv0,0(v1)
 2006c34:	8c2370d3 	fle.d	v1,fv0,fv1
 2006c38:	044090e3 	bnez	v1,2006c80 <t4_taskB1_interface+0x148>
 2006c3c:	84031003 	lb	v0,196(v0)
 2006c40:	040030e3 	bnez	v0,2006c58 <t4_taskB1_interface+0x120>
 2006c44:	80200837 	lui	v0,0x4010
 2006c48:	8c01b103 	lw	v1,108(v0)
 2006c4c:	80200837 	lui	v0,0x4010
 2006c50:	84019103 	lw	v0,100(v0)
 2006c54:	04602863 	beq	v1,v0,2006c68 <t4_taskB1_interface+0x130>
 2006c58:	80200837 	lui	v0,0x4010
 2006c5c:	8c008103 	lw	v1,32(v0)
 2006c60:	80200837 	lui	v0,0x4010
 2006c64:	0c230123 	sw	v1,192(v0)
 2006c68:	004000eb 	ret
 2006c6c:	8c401803 	lb	v1,6(v1)
 2006c70:	f441e063 	beqz	v1,2006b60 <t4_taskB1_interface+0x28>
 2006c74:	88200837 	lui	v1,0x4010
 2006c78:	8c408103 	lw	v1,32(v1)
 2006c7c:	ffffb767 	j	2006b58 <t4_taskB1_interface+0x20>
 2006c80:	0c806123 	sw	zero,152(a0)
 2006c84:	ffffee67 	j	2006c3c <t4_taskB1_interface+0x104>
 2006c88:	0c807123 	sw	zero,156(a0)
 2006c8c:	ffffe167 	j	2006c10 <t4_taskB1_interface+0xd8>
 2006c90:	88200837 	lui	v1,0x4010
 2006c94:	04412023 	sb	zero,72(v1)
 2006c98:	0c80b123 	sw	zero,172(a0)
 2006c9c:	ffffd267 	j	2006be4 <t4_taskB1_interface+0xac>
 2006ca0:	88200837 	lui	v1,0x4010
 2006ca4:	04412023 	sb	zero,72(v1)
 2006ca8:	0c80c123 	sw	zero,176(a0)
 2006cac:	ffffc367 	j	2006bb8 <t4_taskB1_interface+0x80>
 2006cb0:	88200837 	lui	v1,0x4010
 2006cb4:	04411423 	sb	zero,69(v1)
 2006cb8:	0c80d123 	sw	zero,180(a0)
 2006cbc:	ffffb467 	j	2006b8c <t4_taskB1_interface+0x54>

02006cc0 <t4_taskB1_init>:
 2006cc0:	80200837 	lui	v0,0x4010
 2006cc4:	0c010123 	sw	zero,192(v0)
 2006cc8:	80200837 	lui	v0,0x4010
 2006ccc:	0c00f123 	sw	zero,188(v0)
 2006cd0:	80200837 	lui	v0,0x4010
 2006cd4:	0c00e123 	sw	zero,184(v0)
 2006cd8:	80200837 	lui	v0,0x4010
 2006cdc:	04006c23 	sb	zero,27(v0)
 2006ce0:	80200837 	lui	v0,0x4010
 2006ce4:	04006823 	sb	zero,26(v0)
 2006ce8:	80200837 	lui	v0,0x4010
 2006cec:	04006423 	sb	zero,25(v0)
 2006cf0:	80200837 	lui	v0,0x4010
 2006cf4:	04006023 	sb	zero,24(v0)
 2006cf8:	80200837 	lui	v0,0x4010
 2006cfc:	04005c23 	sb	zero,23(v0)
 2006d00:	80200837 	lui	v0,0x4010
 2006d04:	04005823 	sb	zero,22(v0)
 2006d08:	80200837 	lui	v0,0x4010
 2006d0c:	04005423 	sb	zero,21(v0)
 2006d10:	80200837 	lui	v0,0x4010
 2006d14:	04005023 	sb	zero,20(v0)
 2006d18:	80200837 	lui	v0,0x4010
 2006d1c:	04004c23 	sb	zero,19(v0)
 2006d20:	80200837 	lui	v0,0x4010
 2006d24:	04004823 	sb	zero,18(v0)
 2006d28:	80200837 	lui	v0,0x4010
 2006d2c:	04004423 	sb	zero,17(v0)
 2006d30:	80200837 	lui	v0,0x4010
 2006d34:	04004023 	sb	zero,16(v0)
 2006d38:	80200837 	lui	v0,0x4010
 2006d3c:	04003c23 	sb	zero,15(v0)
 2006d40:	80200837 	lui	v0,0x4010
 2006d44:	04003823 	sb	zero,14(v0)
 2006d48:	80200837 	lui	v0,0x4010
 2006d4c:	04003423 	sb	zero,13(v0)
 2006d50:	80200837 	lui	v0,0x4010
 2006d54:	04003023 	sb	zero,12(v0)
 2006d58:	004000eb 	ret

02006d5c <t4_taskB1_generic_KINDERSICHERUNG_CTRL>:
 2006d5c:	80200837 	lui	v0,0x4010
 2006d60:	84033803 	lb	v0,206(v0)
 2006d64:	04006063 	beqz	v0,2006d94 <t4_taskB1_generic_KINDERSICHERUNG_CTRL+0x38>
 2006d68:	88200837 	lui	v1,0x4010
 2006d6c:	84406003 	lb	v0,24(v1)
 2006d70:	90000813 	li	a0,2
 2006d74:	04244863 	beq	v0,a0,2006d98 <t4_taskB1_generic_KINDERSICHERUNG_CTRL+0x3c>
 2006d78:	98000c13 	li	a1,3
 2006d7c:	0427a863 	beq	v0,a1,2006e50 <t4_taskB1_generic_KINDERSICHERUNG_CTRL+0xf4>
 2006d80:	90000413 	li	a0,1
 2006d84:	04249063 	beq	v0,a0,2006dcc <t4_taskB1_generic_KINDERSICHERUNG_CTRL+0x70>
 2006d88:	80200837 	lui	v0,0x4010
 2006d8c:	04007423 	sb	zero,29(v0)
 2006d90:	04666023 	sb	a1,24(v1)
 2006d94:	004000eb 	ret
 2006d98:	80200837 	lui	v0,0x4010
 2006d9c:	84015803 	lb	v0,86(v0)
 2006da0:	040020e3 	bnez	v0,2006db0 <t4_taskB1_generic_KINDERSICHERUNG_CTRL+0x54>
 2006da4:	90200837 	lui	a0,0x4010
 2006da8:	94816803 	lb	a0,90(a0)
 2006dac:	1480d863 	beqz	a0,2007018 <t4_taskB1_generic_KINDERSICHERUNG_CTRL+0x2bc>
 2006db0:	88200837 	lui	v1,0x4010
 2006db4:	94406403 	lb	a0,25(v1)
 2006db8:	98000413 	li	a1,1
 2006dbc:	0ca61863 	beq	a0,a1,2006ec8 <t4_taskB1_generic_KINDERSICHERUNG_CTRL+0x16c>
 2006dc0:	80200837 	lui	v0,0x4010
 2006dc4:	04007423 	sb	zero,29(v0)
 2006dc8:	004000eb 	ret
 2006dcc:	80200837 	lui	v0,0x4010
 2006dd0:	84016003 	lb	v0,88(v0)
 2006dd4:	040020e3 	bnez	v0,2006de4 <t4_taskB1_generic_KINDERSICHERUNG_CTRL+0x88>
 2006dd8:	90200837 	lui	a0,0x4010
 2006ddc:	94817003 	lb	a0,92(a0)
 2006de0:	14802063 	beqz	a0,2006ff0 <t4_taskB1_generic_KINDERSICHERUNG_CTRL+0x294>
 2006de4:	88200837 	lui	v1,0x4010
 2006de8:	94406803 	lb	a0,26(v1)
 2006dec:	98000413 	li	a1,1
 2006df0:	fca7a0e3 	bne	a0,a1,2006dc0 <t4_taskB1_generic_KINDERSICHERUNG_CTRL+0x64>
 2006df4:	04005063 	beqz	v0,2006e1c <t4_taskB1_generic_KINDERSICHERUNG_CTRL+0xc0>
 2006df8:	98200837 	lui	a1,0x4010
 2006dfc:	9cc15c03 	lb	a1,87(a1)
 2006e00:	04c038e3 	bnez	a1,2006e1c <t4_taskB1_generic_KINDERSICHERUNG_CTRL+0xc0>
 2006e04:	80200837 	lui	v0,0x4010
 2006e08:	04007423 	sb	zero,29(v0)
 2006e0c:	80200837 	lui	v0,0x4010
 2006e10:	04252c23 	sb	a0,75(v0)
 2006e14:	04646823 	sb	a0,26(v1)
 2006e18:	004000eb 	ret
 2006e1c:	90200837 	lui	a0,0x4010
 2006e20:	94817003 	lb	a0,92(a0)
 2006e24:	0c80a863 	beqz	a0,2006f78 <t4_taskB1_generic_KINDERSICHERUNG_CTRL+0x21c>
 2006e28:	98200837 	lui	a1,0x4010
 2006e2c:	9cc16c03 	lb	a1,91(a1)
 2006e30:	0cc090e3 	bnez	a1,2006f78 <t4_taskB1_generic_KINDERSICHERUNG_CTRL+0x21c>
 2006e34:	90200837 	lui	a0,0x4010
 2006e38:	80000413 	li	v0,1
 2006e3c:	04807423 	sb	zero,29(a0)
 2006e40:	90200837 	lui	a0,0x4010
 2006e44:	04a13823 	sb	v0,78(a0)
 2006e48:	04606823 	sb	v0,26(v1)
 2006e4c:	004000eb 	ret
 2006e50:	80200837 	lui	v0,0x4010
 2006e54:	84015003 	lb	v0,84(v0)
 2006e58:	040070e3 	bnez	v0,2006e90 <t4_taskB1_generic_KINDERSICHERUNG_CTRL+0x134>
 2006e5c:	98200837 	lui	a1,0x4010
 2006e60:	9cc16803 	lb	a1,90(a1)
 2006e64:	04c1d863 	beqz	a1,2006f50 <t4_taskB1_generic_KINDERSICHERUNG_CTRL+0x1f4>
 2006e68:	80200837 	lui	v0,0x4010
 2006e6c:	84015803 	lb	v0,86(v0)
 2006e70:	140060e3 	bnez	v0,20070a0 <t4_taskB1_generic_KINDERSICHERUNG_CTRL+0x344>
 2006e74:	80200837 	lui	v0,0x4010
 2006e78:	04007423 	sb	zero,29(v0)
 2006e7c:	98000413 	li	a1,1
 2006e80:	80200837 	lui	v0,0x4010
 2006e84:	04273823 	sb	a1,78(v0)
 2006e88:	04646023 	sb	a0,24(v1)
 2006e8c:	004000eb 	ret
 2006e90:	90200837 	lui	a0,0x4010
 2006e94:	94817003 	lb	a0,92(a0)
 2006e98:	048118e3 	bnez	a0,2006f24 <t4_taskB1_generic_KINDERSICHERUNG_CTRL+0x1c8>
 2006e9c:	90200837 	lui	a0,0x4010
 2006ea0:	94816003 	lb	a0,88(a0)
 2006ea4:	f481e063 	beqz	a0,2006d94 <t4_taskB1_generic_KINDERSICHERUNG_CTRL+0x38>
 2006ea8:	f401d8e3 	bnez	v0,2006d94 <t4_taskB1_generic_KINDERSICHERUNG_CTRL+0x38>
 2006eac:	90200837 	lui	a0,0x4010
 2006eb0:	80000413 	li	v0,1
 2006eb4:	04807423 	sb	zero,29(a0)
 2006eb8:	90200837 	lui	a0,0x4010
 2006ebc:	04a12c23 	sb	v0,75(a0)
 2006ec0:	04606023 	sb	v0,24(v1)
 2006ec4:	004000eb 	ret
 2006ec8:	04005063 	beqz	v0,2006ef0 <t4_taskB1_generic_KINDERSICHERUNG_CTRL+0x194>
 2006ecc:	98200837 	lui	a1,0x4010
 2006ed0:	9cc15403 	lb	a1,85(a1)
 2006ed4:	04c038e3 	bnez	a1,2006ef0 <t4_taskB1_generic_KINDERSICHERUNG_CTRL+0x194>
 2006ed8:	80200837 	lui	v0,0x4010
 2006edc:	04007423 	sb	zero,29(v0)
 2006ee0:	80200837 	lui	v0,0x4010
 2006ee4:	04252c23 	sb	a0,75(v0)
 2006ee8:	04646423 	sb	a0,25(v1)
 2006eec:	004000eb 	ret
 2006ef0:	90200837 	lui	a0,0x4010
 2006ef4:	94816803 	lb	a0,90(a0)
 2006ef8:	04817863 	beqz	a0,2006fb4 <t4_taskB1_generic_KINDERSICHERUNG_CTRL+0x258>
 2006efc:	98200837 	lui	a1,0x4010
 2006f00:	9cc16403 	lb	a1,89(a1)
 2006f04:	04c160e3 	bnez	a1,2006fb4 <t4_taskB1_generic_KINDERSICHERUNG_CTRL+0x258>
 2006f08:	90200837 	lui	a0,0x4010
 2006f0c:	80000413 	li	v0,1
 2006f10:	04807423 	sb	zero,29(a0)
 2006f14:	90200837 	lui	a0,0x4010
 2006f18:	04a13823 	sb	v0,78(a0)
 2006f1c:	04606423 	sb	v0,25(v1)
 2006f20:	004000eb 	ret
 2006f24:	90200837 	lui	a0,0x4010
 2006f28:	94816003 	lb	a0,88(a0)
 2006f2c:	0c8030e3 	bnez	a0,2007044 <t4_taskB1_generic_KINDERSICHERUNG_CTRL+0x2e8>
 2006f30:	f400c8e3 	bnez	v0,2006d94 <t4_taskB1_generic_KINDERSICHERUNG_CTRL+0x38>
 2006f34:	90200837 	lui	a0,0x4010
 2006f38:	80000413 	li	v0,1
 2006f3c:	04807423 	sb	zero,29(a0)
 2006f40:	90200837 	lui	a0,0x4010
 2006f44:	04a13823 	sb	v0,78(a0)
 2006f48:	04606023 	sb	v0,24(v1)
 2006f4c:	004000eb 	ret
 2006f50:	98200837 	lui	a1,0x4010
 2006f54:	9cc15803 	lb	a1,86(a1)
 2006f58:	fcc07063 	beqz	a1,2006e90 <t4_taskB1_generic_KINDERSICHERUNG_CTRL+0x134>
 2006f5c:	80200837 	lui	v0,0x4010
 2006f60:	04007423 	sb	zero,29(v0)
 2006f64:	98000413 	li	a1,1
 2006f68:	80200837 	lui	v0,0x4010
 2006f6c:	04272c23 	sb	a1,75(v0)
 2006f70:	04646023 	sb	a0,24(v1)
 2006f74:	004000eb 	ret
 2006f78:	040020e3 	bnez	v0,2006f88 <t4_taskB1_generic_KINDERSICHERUNG_CTRL+0x22c>
 2006f7c:	80200837 	lui	v0,0x4010
 2006f80:	84015c03 	lb	v0,87(v0)
 2006f84:	0401c8e3 	bnez	v0,2007068 <t4_taskB1_generic_KINDERSICHERUNG_CTRL+0x30c>
 2006f88:	f48018e3 	bnez	a0,2006d94 <t4_taskB1_generic_KINDERSICHERUNG_CTRL+0x38>
 2006f8c:	80200837 	lui	v0,0x4010
 2006f90:	84016c03 	lb	v0,91(v0)
 2006f94:	f4000063 	beqz	v0,2006d94 <t4_taskB1_generic_KINDERSICHERUNG_CTRL+0x38>
 2006f98:	80200837 	lui	v0,0x4010
 2006f9c:	04007423 	sb	zero,29(v0)
 2006fa0:	80200837 	lui	v0,0x4010
 2006fa4:	04013823 	sb	zero,78(v0)
 2006fa8:	80000413 	li	v0,1
 2006fac:	04606823 	sb	v0,26(v1)
 2006fb0:	004000eb 	ret
 2006fb4:	040020e3 	bnez	v0,2006fc4 <t4_taskB1_generic_KINDERSICHERUNG_CTRL+0x268>
 2006fb8:	80200837 	lui	v0,0x4010
 2006fbc:	84015403 	lb	v0,85(v0)
 2006fc0:	040188e3 	bnez	v0,2007084 <t4_taskB1_generic_KINDERSICHERUNG_CTRL+0x328>
 2006fc4:	ec81a0e3 	bnez	a0,2006d94 <t4_taskB1_generic_KINDERSICHERUNG_CTRL+0x38>
 2006fc8:	80200837 	lui	v0,0x4010
 2006fcc:	84016403 	lb	v0,89(v0)
 2006fd0:	ec018863 	beqz	v0,2006d94 <t4_taskB1_generic_KINDERSICHERUNG_CTRL+0x38>
 2006fd4:	80200837 	lui	v0,0x4010
 2006fd8:	04007423 	sb	zero,29(v0)
 2006fdc:	80200837 	lui	v0,0x4010
 2006fe0:	04013823 	sb	zero,78(v0)
 2006fe4:	80000413 	li	v0,1
 2006fe8:	04606423 	sb	v0,25(v1)
 2006fec:	004000eb 	ret
 2006ff0:	80200837 	lui	v0,0x4010
 2006ff4:	04007423 	sb	zero,29(v0)
 2006ff8:	80200837 	lui	v0,0x4010
 2006ffc:	04013823 	sb	zero,78(v0)
 2007000:	80200837 	lui	v0,0x4010
 2007004:	04012c23 	sb	zero,75(v0)
 2007008:	80200837 	lui	v0,0x4010
 200700c:	04666023 	sb	a1,24(v1)
 2007010:	04006823 	sb	zero,26(v0)
 2007014:	004000eb 	ret
 2007018:	80200837 	lui	v0,0x4010
 200701c:	04007423 	sb	zero,29(v0)
 2007020:	80200837 	lui	v0,0x4010
 2007024:	04013823 	sb	zero,78(v0)
 2007028:	80200837 	lui	v0,0x4010
 200702c:	04012c23 	sb	zero,75(v0)
 2007030:	80000c13 	li	v0,3
 2007034:	04606023 	sb	v0,24(v1)
 2007038:	80200837 	lui	v0,0x4010
 200703c:	04006423 	sb	zero,25(v0)
 2007040:	004000eb 	ret
 2007044:	90200837 	lui	a0,0x4010
 2007048:	80000413 	li	v0,1
 200704c:	04807423 	sb	zero,29(a0)
 2007050:	90200837 	lui	a0,0x4010
 2007054:	04a12c23 	sb	v0,75(a0)
 2007058:	90200837 	lui	a0,0x4010
 200705c:	04a13823 	sb	v0,78(a0)
 2007060:	04606023 	sb	v0,24(v1)
 2007064:	004000eb 	ret
 2007068:	80200837 	lui	v0,0x4010
 200706c:	04007423 	sb	zero,29(v0)
 2007070:	80200837 	lui	v0,0x4010
 2007074:	04012c23 	sb	zero,75(v0)
 2007078:	80000413 	li	v0,1
 200707c:	04606823 	sb	v0,26(v1)
 2007080:	004000eb 	ret
 2007084:	80200837 	lui	v0,0x4010
 2007088:	04007423 	sb	zero,29(v0)
 200708c:	80200837 	lui	v0,0x4010
 2007090:	04012c23 	sb	zero,75(v0)
 2007094:	80000413 	li	v0,1
 2007098:	04606423 	sb	v0,25(v1)
 200709c:	004000eb 	ret
 20070a0:	98200837 	lui	a1,0x4010
 20070a4:	80000413 	li	v0,1
 20070a8:	04c07423 	sb	zero,29(a1)
 20070ac:	98200837 	lui	a1,0x4010
 20070b0:	04e13823 	sb	v0,78(a1)
 20070b4:	98200837 	lui	a1,0x4010
 20070b8:	04e12c23 	sb	v0,75(a1)
 20070bc:	04646023 	sb	a0,24(v1)
 20070c0:	004000eb 	ret

020070c4 <t4_taskB1_generic_FH_TUERMODUL_CTRL>:
 20070c4:	80200837 	lui	v0,0x4010
 20070c8:	84031013 	add	v0,v0,196
 20070cc:	8c003403 	lb	v1,13(v0)
 20070d0:	044048e3 	bnez	v1,20070f4 <t4_taskB1_generic_FH_TUERMODUL_CTRL+0x30>
 20070d4:	8c003c03 	lb	v1,15(v0)
 20070d8:	04403063 	beqz	v1,20070f0 <t4_taskB1_generic_FH_TUERMODUL_CTRL+0x2c>
 20070dc:	8c003803 	lb	v1,14(v0)
 20070e0:	044020e3 	bnez	v1,20070f0 <t4_taskB1_generic_FH_TUERMODUL_CTRL+0x2c>
 20070e4:	04001023 	sb	zero,4(v0)
 20070e8:	04001823 	sb	zero,6(v0)
 20070ec:	004000eb 	ret
 20070f0:	004000eb 	ret
 20070f4:	8c002803 	lb	v1,10(v0)
 20070f8:	044020e3 	bnez	v1,2007108 <t4_taskB1_generic_FH_TUERMODUL_CTRL+0x44>
 20070fc:	90000c13 	li	a0,3
 2007100:	88200837 	lui	v1,0x4010
 2007104:	04646023 	sb	a0,24(v1)
 2007108:	8c004c03 	lb	v1,19(v0)
 200710c:	044030e3 	bnez	v1,2007124 <t4_taskB1_generic_FH_TUERMODUL_CTRL+0x60>
 2007110:	88200837 	lui	v1,0x4010
 2007114:	0c411023 	sb	zero,196(v1)
 2007118:	90000413 	li	a0,1
 200711c:	88200837 	lui	v1,0x4010
 2007120:	04643023 	sb	a0,12(v1)
 2007124:	98200837 	lui	a1,0x4010
 2007128:	8cc05c03 	lb	v1,23(a1)
 200712c:	90000413 	li	a0,1
 2007130:	a0000813 	li	a2,2
 2007134:	04242c23 	sb	a0,11(v0)
 2007138:	04245023 	sb	a0,20(v0)
 200713c:	04693863 	beq	v1,a2,20071d8 <t4_taskB1_generic_FH_TUERMODUL_CTRL+0x114>
 2007140:	a8000c13 	li	a3,3
 2007144:	0c6a2063 	beq	v1,a3,2007254 <t4_taskB1_generic_FH_TUERMODUL_CTRL+0x190>
 2007148:	90000413 	li	a0,1
 200714c:	0465a863 	beq	v1,a0,2007220 <t4_taskB1_generic_FH_TUERMODUL_CTRL+0x15c>
 2007150:	88200837 	lui	v1,0x4010
 2007154:	04407423 	sb	zero,29(v1)
 2007158:	04e85c23 	sb	a2,23(a1)
 200715c:	90200837 	lui	a0,0x4010
 2007160:	9c805803 	lb	a1,22(a0)
 2007164:	88000413 	li	v1,1
 2007168:	04e26863 	beq	a1,v1,200719c <t4_taskB1_generic_FH_TUERMODUL_CTRL+0xd8>
 200716c:	98200837 	lui	a1,0x4010
 2007170:	04c07423 	sb	zero,29(a1)
 2007174:	04a25823 	sb	v1,22(a0)
 2007178:	98200837 	lui	a1,0x4010
 200717c:	90200837 	lui	a0,0x4010
 2007180:	0cc0a123 	sw	zero,168(a1)
 2007184:	04a25423 	sb	v1,21(a0)
 2007188:	94001203 	lbu	a0,4(v0)
 200718c:	8c001a03 	lbu	v1,6(v0)
 2007190:	04241423 	sb	a0,5(v0)
 2007194:	04221c23 	sb	v1,7(v0)
 2007198:	004000eb 	ret
 200719c:	88200837 	lui	v1,0x4010
 20071a0:	8c407003 	lb	v1,28(v1)
 20071a4:	0c67e063 	beq	v1,a1,2007394 <t4_taskB1_generic_FH_TUERMODUL_CTRL+0x2d0>
 20071a8:	90200837 	lui	a0,0x4010
 20071ac:	a4805403 	lb	a2,21(a0)
 20071b0:	98000413 	li	a1,1
 20071b4:	0d270863 	beq	a2,a1,2007338 <t4_taskB1_generic_FH_TUERMODUL_CTRL+0x274>
 20071b8:	88200837 	lui	v1,0x4010
 20071bc:	04407423 	sb	zero,29(v1)
 20071c0:	04a65423 	sb	a1,21(a0)
 20071c4:	8c001a03 	lbu	v1,6(v0)
 20071c8:	94001203 	lbu	a0,4(v0)
 20071cc:	04221c23 	sb	v1,7(v0)
 20071d0:	04241423 	sb	a0,5(v0)
 20071d4:	004000eb 	ret
 20071d8:	88200837 	lui	v1,0x4010
 20071dc:	8c414c03 	lb	v1,83(v1)
 20071e0:	04402063 	beqz	v1,20071f0 <t4_taskB1_generic_FH_TUERMODUL_CTRL+0x12c>
 20071e4:	88200837 	lui	v1,0x4010
 20071e8:	8c414403 	lb	v1,81(v1)
 20071ec:	14401063 	beqz	v1,20073f4 <t4_taskB1_generic_FH_TUERMODUL_CTRL+0x330>
 20071f0:	90200837 	lui	a0,0x4010
 20071f4:	8c806c03 	lb	v1,27(a0)
 20071f8:	98000813 	li	a1,2
 20071fc:	14675863 	beq	v1,a1,20074a8 <t4_taskB1_generic_FH_TUERMODUL_CTRL+0x3e4>
 2007200:	a0000c13 	li	a2,3
 2007204:	1468f863 	beq	v1,a2,2007480 <t4_taskB1_generic_FH_TUERMODUL_CTRL+0x3bc>
 2007208:	98000413 	li	a1,1
 200720c:	14665063 	beq	v1,a1,2007434 <t4_taskB1_generic_FH_TUERMODUL_CTRL+0x370>
 2007210:	88200837 	lui	v1,0x4010
 2007214:	04407423 	sb	zero,29(v1)
 2007218:	04a86c23 	sb	a2,27(a0)
 200721c:	ffffd067 	j	200715c <t4_taskB1_generic_FH_TUERMODUL_CTRL+0x98>
 2007220:	88200837 	lui	v1,0x4010
 2007224:	8c42a103 	lw	v1,168(v1)
 2007228:	9000ec13 	li	a0,59
 200722c:	fc6460e3 	bne	v1,a0,200715c <t4_taskB1_generic_FH_TUERMODUL_CTRL+0x98>
 2007230:	90200837 	lui	a0,0x4010
 2007234:	94828103 	lw	a0,160(a0)
 2007238:	fca24863 	beq	a0,v1,200715c <t4_taskB1_generic_FH_TUERMODUL_CTRL+0x98>
 200723c:	88200837 	lui	v1,0x4010
 2007240:	04407423 	sb	zero,29(v1)
 2007244:	88200837 	lui	v1,0x4010
 2007248:	04ea5c23 	sb	a3,23(a1)
 200724c:	046a5023 	sb	a3,20(v1)
 2007250:	ffffc367 	j	200715c <t4_taskB1_generic_FH_TUERMODUL_CTRL+0x98>
 2007254:	88200837 	lui	v1,0x4010
 2007258:	8c42a103 	lw	v1,168(v1)
 200725c:	8c40f513 	slt	v1,v1,61
 2007260:	044098e3 	bnez	v1,20072ac <t4_taskB1_generic_FH_TUERMODUL_CTRL+0x1e8>
 2007264:	88200837 	lui	v1,0x4010
 2007268:	8c428103 	lw	v1,160(v1)
 200726c:	8c40f513 	slt	v1,v1,61
 2007270:	04407863 	beqz	v1,20072ac <t4_taskB1_generic_FH_TUERMODUL_CTRL+0x1e8>
 2007274:	88200837 	lui	v1,0x4010
 2007278:	8c417c03 	lb	v1,95(v1)
 200727c:	044060e3 	bnez	v1,20072ac <t4_taskB1_generic_FH_TUERMODUL_CTRL+0x1e8>
 2007280:	88200837 	lui	v1,0x4010
 2007284:	8c418403 	lb	v1,97(v1)
 2007288:	044048e3 	bnez	v1,20072ac <t4_taskB1_generic_FH_TUERMODUL_CTRL+0x1e8>
 200728c:	88200837 	lui	v1,0x4010
 2007290:	04407423 	sb	zero,29(v1)
 2007294:	88200837 	lui	v1,0x4010
 2007298:	04412023 	sb	zero,72(v1)
 200729c:	88200837 	lui	v1,0x4010
 20072a0:	04411423 	sb	zero,69(v1)
 20072a4:	04e45c23 	sb	a0,23(a1)
 20072a8:	ffffad67 	j	200715c <t4_taskB1_generic_FH_TUERMODUL_CTRL+0x98>
 20072ac:	88200837 	lui	v1,0x4010
 20072b0:	8c414c03 	lb	v1,83(v1)
 20072b4:	0440a863 	beqz	v1,2007308 <t4_taskB1_generic_FH_TUERMODUL_CTRL+0x244>
 20072b8:	88200837 	lui	v1,0x4010
 20072bc:	8c414403 	lb	v1,81(v1)
 20072c0:	044090e3 	bnez	v1,2007308 <t4_taskB1_generic_FH_TUERMODUL_CTRL+0x244>
 20072c4:	88200837 	lui	v1,0x4010
 20072c8:	8c411803 	lb	v1,70(v1)
 20072cc:	1441d863 	beqz	v1,20075b8 <t4_taskB1_generic_FH_TUERMODUL_CTRL+0x4f4>
 20072d0:	88200837 	lui	v1,0x4010
 20072d4:	94408103 	lw	a0,32(v1)
 20072d8:	88200837 	lui	v1,0x4010
 20072dc:	04407423 	sb	zero,29(v1)
 20072e0:	88200837 	lui	v1,0x4010
 20072e4:	04411423 	sb	zero,69(v1)
 20072e8:	88200837 	lui	v1,0x4010
 20072ec:	0c64d123 	sw	a0,180(v1)
 20072f0:	88000813 	li	v1,2
 20072f4:	04e25c23 	sb	v1,23(a1)
 20072f8:	90000c13 	li	a0,3
 20072fc:	88200837 	lui	v1,0x4010
 2007300:	04646c23 	sb	a0,27(v1)
 2007304:	ffff9667 	j	200715c <t4_taskB1_generic_FH_TUERMODUL_CTRL+0x98>
 2007308:	90200837 	lui	a0,0x4010
 200730c:	8c805003 	lb	v1,20(a0)
 2007310:	98000813 	li	a1,2
 2007314:	14662063 	beq	v1,a1,2007524 <t4_taskB1_generic_FH_TUERMODUL_CTRL+0x460>
 2007318:	a0000c13 	li	a2,3
 200731c:	0c696863 	beq	v1,a2,20074d0 <t4_taskB1_generic_FH_TUERMODUL_CTRL+0x40c>
 2007320:	a8000413 	li	a3,1
 2007324:	0c6a6863 	beq	v1,a3,2007458 <t4_taskB1_generic_FH_TUERMODUL_CTRL+0x394>
 2007328:	88200837 	lui	v1,0x4010
 200732c:	04407423 	sb	zero,29(v1)
 2007330:	04a85023 	sb	a2,20(a0)
 2007334:	ffff8a67 	j	200715c <t4_taskB1_generic_FH_TUERMODUL_CTRL+0x98>
 2007338:	f468a0e3 	bne	v1,a2,2007188 <t4_taskB1_generic_FH_TUERMODUL_CTRL+0xc4>
 200733c:	98200837 	lui	a1,0x4010
 2007340:	9cc2e103 	lw	a1,184(a1)
 2007344:	f4c08863 	beqz	a1,2007188 <t4_taskB1_generic_FH_TUERMODUL_CTRL+0xc4>
 2007348:	a0200837 	lui	a2,0x4010
 200734c:	a5008103 	lw	a2,32(a2)
 2007350:	a53ff413 	add	a2,a2,-3
 2007354:	f4e868e3 	bne	a1,a2,2007188 <t4_taskB1_generic_FH_TUERMODUL_CTRL+0xc4>
 2007358:	98200837 	lui	a1,0x4010
 200735c:	9cc12403 	lb	a1,73(a1)
 2007360:	f4c050e3 	bnez	a1,2007188 <t4_taskB1_generic_FH_TUERMODUL_CTRL+0xc4>
 2007364:	98200837 	lui	a1,0x4010
 2007368:	9cc11803 	lb	a1,70(a1)
 200736c:	f4c038e3 	bnez	a1,2007188 <t4_taskB1_generic_FH_TUERMODUL_CTRL+0xc4>
 2007370:	98200837 	lui	a1,0x4010
 2007374:	a4c2a103 	lw	a2,168(a1)
 2007378:	f02822e3 	blez	a2,2007188 <t4_taskB1_generic_FH_TUERMODUL_CTRL+0xc4>
 200737c:	a53ffc13 	add	a2,a2,-1
 2007380:	a8200837 	lui	a3,0x4010
 2007384:	05407423 	sb	zero,29(a3)
 2007388:	0ce8a123 	sw	a2,168(a1)
 200738c:	04a25423 	sb	v1,21(a0)
 2007390:	ffff7e67 	j	2007188 <t4_taskB1_generic_FH_TUERMODUL_CTRL+0xc4>
 2007394:	98200837 	lui	a1,0x4010
 2007398:	9cc2f103 	lw	a1,188(a1)
 200739c:	f4c01863 	beqz	a1,20071a8 <t4_taskB1_generic_FH_TUERMODUL_CTRL+0xe4>
 20073a0:	a0200837 	lui	a2,0x4010
 20073a4:	a5008103 	lw	a2,32(a2)
 20073a8:	9d270033 	sub	a1,a2,a1
 20073ac:	ece3f8e3 	bne	a1,v1,20071a8 <t4_taskB1_generic_FH_TUERMODUL_CTRL+0xe4>
 20073b0:	98200837 	lui	a1,0x4010
 20073b4:	9cc12403 	lb	a1,73(a1)
 20073b8:	04c020e3 	bnez	a1,20073c8 <t4_taskB1_generic_FH_TUERMODUL_CTRL+0x304>
 20073bc:	98200837 	lui	a1,0x4010
 20073c0:	9cc11803 	lb	a1,70(a1)
 20073c4:	ecc1c863 	beqz	a1,20071a8 <t4_taskB1_generic_FH_TUERMODUL_CTRL+0xe4>
 20073c8:	98200837 	lui	a1,0x4010
 20073cc:	a4c2a103 	lw	a2,168(a1)
 20073d0:	88000413 	li	v1,1
 20073d4:	a8200837 	lui	a3,0x4010
 20073d8:	a5000413 	add	a2,a2,1
 20073dc:	04a25823 	sb	v1,22(a0)
 20073e0:	90200837 	lui	a0,0x4010
 20073e4:	05407423 	sb	zero,29(a3)
 20073e8:	0ce8a123 	sw	a2,168(a1)
 20073ec:	04a25423 	sb	v1,21(a0)
 20073f0:	ffff6667 	j	2007188 <t4_taskB1_generic_FH_TUERMODUL_CTRL+0xc4>
 20073f4:	88200837 	lui	v1,0x4010
 20073f8:	8c412403 	lb	v1,73(v1)
 20073fc:	ec41e863 	beqz	v1,20071f0 <t4_taskB1_generic_FH_TUERMODUL_CTRL+0x12c>
 2007400:	88200837 	lui	v1,0x4010
 2007404:	a4408103 	lw	a2,32(v1)
 2007408:	90200837 	lui	a0,0x4010
 200740c:	04807423 	sb	zero,29(a0)
 2007410:	90200837 	lui	a0,0x4010
 2007414:	04812023 	sb	zero,72(a0)
 2007418:	90200837 	lui	a0,0x4010
 200741c:	88000c13 	li	v1,3
 2007420:	0ca8b123 	sw	a2,172(a0)
 2007424:	90200837 	lui	a0,0x4010
 2007428:	04e25c23 	sb	v1,23(a1)
 200742c:	04a25023 	sb	v1,20(a0)
 2007430:	ffff4b67 	j	200715c <t4_taskB1_generic_FH_TUERMODUL_CTRL+0x98>
 2007434:	88200837 	lui	v1,0x4010
 2007438:	8c413c03 	lb	v1,79(v1)
 200743c:	ec4040e3 	bnez	v1,200715c <t4_taskB1_generic_FH_TUERMODUL_CTRL+0x98>
 2007440:	88200837 	lui	v1,0x4010
 2007444:	04407423 	sb	zero,29(v1)
 2007448:	88200837 	lui	v1,0x4010
 200744c:	04412023 	sb	zero,72(v1)
 2007450:	04a86c23 	sb	a2,27(a0)
 2007454:	ffff4267 	j	200715c <t4_taskB1_generic_FH_TUERMODUL_CTRL+0x98>
 2007458:	a8200837 	lui	a3,0x4010
 200745c:	ad425103 	lw	a3,148(a3)
 2007460:	ad465513 	slt	a3,a3,405
 2007464:	0d4158e3 	bnez	a3,2007610 <t4_taskB1_generic_FH_TUERMODUL_CTRL+0x54c>
 2007468:	88200837 	lui	v1,0x4010
 200746c:	04407423 	sb	zero,29(v1)
 2007470:	88200837 	lui	v1,0x4010
 2007474:	04411423 	sb	zero,69(v1)
 2007478:	04a85023 	sb	a2,20(a0)
 200747c:	ffff3867 	j	200715c <t4_taskB1_generic_FH_TUERMODUL_CTRL+0x98>
 2007480:	88200837 	lui	v1,0x4010
 2007484:	8c413003 	lb	v1,76(v1)
 2007488:	0c40c063 	beqz	v1,20075e8 <t4_taskB1_generic_FH_TUERMODUL_CTRL+0x524>
 200748c:	88200837 	lui	v1,0x4010
 2007490:	04407423 	sb	zero,29(v1)
 2007494:	a0000413 	li	a2,1
 2007498:	88200837 	lui	v1,0x4010
 200749c:	04691423 	sb	a2,69(v1)
 20074a0:	04a66c23 	sb	a1,27(a0)
 20074a4:	ffff2e67 	j	200715c <t4_taskB1_generic_FH_TUERMODUL_CTRL+0x98>
 20074a8:	88200837 	lui	v1,0x4010
 20074ac:	8c413003 	lb	v1,76(v1)
 20074b0:	e44158e3 	bnez	v1,200715c <t4_taskB1_generic_FH_TUERMODUL_CTRL+0x98>
 20074b4:	88200837 	lui	v1,0x4010
 20074b8:	04407423 	sb	zero,29(v1)
 20074bc:	88200837 	lui	v1,0x4010
 20074c0:	04411423 	sb	zero,69(v1)
 20074c4:	88000c13 	li	v1,3
 20074c8:	04a26c23 	sb	v1,27(a0)
 20074cc:	ffff2467 	j	200715c <t4_taskB1_generic_FH_TUERMODUL_CTRL+0x98>
 20074d0:	88200837 	lui	v1,0x4010
 20074d4:	8c413c03 	lb	v1,79(v1)
 20074d8:	04412063 	beqz	v1,2007568 <t4_taskB1_generic_FH_TUERMODUL_CTRL+0x4a4>
 20074dc:	88200837 	lui	v1,0x4010
 20074e0:	8c413403 	lb	v1,77(v1)
 20074e4:	044108e3 	bnez	v1,2007568 <t4_taskB1_generic_FH_TUERMODUL_CTRL+0x4a4>
 20074e8:	88200837 	lui	v1,0x4010
 20074ec:	8c425103 	lw	v1,148(v1)
 20074f0:	0022f2e3 	blez	v1,2007568 <t4_taskB1_generic_FH_TUERMODUL_CTRL+0x4a4>
 20074f4:	04a65023 	sb	a1,20(a0)
 20074f8:	90200837 	lui	a0,0x4010
 20074fc:	04a64023 	sb	a1,16(a0)
 2007500:	90200837 	lui	a0,0x4010
 2007504:	88000413 	li	v1,1
 2007508:	a0200837 	lui	a2,0x4010
 200750c:	04a64823 	sb	a1,18(a0)
 2007510:	90200837 	lui	a0,0x4010
 2007514:	05007423 	sb	zero,29(a2)
 2007518:	04224423 	sb	v1,17(v0)
 200751c:	04a32023 	sb	v1,72(a0)
 2007520:	ffff0f67 	j	200715c <t4_taskB1_generic_FH_TUERMODUL_CTRL+0x98>
 2007524:	98200837 	lui	a1,0x4010
 2007528:	9cc25103 	lw	a1,148(a1)
 200752c:	08260ae3 	blez	a1,2007630 <t4_taskB1_generic_FH_TUERMODUL_CTRL+0x56c>
 2007530:	a8200837 	lui	a3,0x4010
 2007534:	9d404003 	lb	a1,16(a3)
 2007538:	a0000413 	li	a2,1
 200753c:	0ce8b863 	beq	a1,a2,2007698 <t4_taskB1_generic_FH_TUERMODUL_CTRL+0x5d4>
 2007540:	0ce21863 	beq	a1,v1,200764c <t4_taskB1_generic_FH_TUERMODUL_CTRL+0x588>
 2007544:	90200837 	lui	a0,0x4010
 2007548:	04807423 	sb	zero,29(a0)
 200754c:	90200837 	lui	a0,0x4010
 2007550:	05624023 	sb	v1,16(a3)
 2007554:	04a24823 	sb	v1,18(a0)
 2007558:	88200837 	lui	v1,0x4010
 200755c:	04284423 	sb	a2,17(v0)
 2007560:	04692023 	sb	a2,72(v1)
 2007564:	fffefe67 	j	200715c <t4_taskB1_generic_FH_TUERMODUL_CTRL+0x98>
 2007568:	88200837 	lui	v1,0x4010
 200756c:	8c413003 	lb	v1,76(v1)
 2007570:	dc41d863 	beqz	v1,200715c <t4_taskB1_generic_FH_TUERMODUL_CTRL+0x98>
 2007574:	88200837 	lui	v1,0x4010
 2007578:	8c412803 	lb	v1,74(v1)
 200757c:	dc41c0e3 	bnez	v1,200715c <t4_taskB1_generic_FH_TUERMODUL_CTRL+0x98>
 2007580:	88200837 	lui	v1,0x4010
 2007584:	8c425103 	lw	v1,148(v1)
 2007588:	8c465513 	slt	v1,v1,405
 200758c:	dc41a063 	beqz	v1,200715c <t4_taskB1_generic_FH_TUERMODUL_CTRL+0x98>
 2007590:	98200837 	lui	a1,0x4010
 2007594:	88000413 	li	v1,1
 2007598:	04c07423 	sb	zero,29(a1)
 200759c:	98200837 	lui	a1,0x4010
 20075a0:	04a25023 	sb	v1,20(a0)
 20075a4:	04e31423 	sb	v1,69(a1)
 20075a8:	90000813 	li	a0,2
 20075ac:	88200837 	lui	v1,0x4010
 20075b0:	04644423 	sb	a0,17(v1)
 20075b4:	fffeea67 	j	200715c <t4_taskB1_generic_FH_TUERMODUL_CTRL+0x98>
 20075b8:	88200837 	lui	v1,0x4010
 20075bc:	8c412403 	lb	v1,73(v1)
 20075c0:	ec409063 	beqz	v1,2007308 <t4_taskB1_generic_FH_TUERMODUL_CTRL+0x244>
 20075c4:	88200837 	lui	v1,0x4010
 20075c8:	94408103 	lw	a0,32(v1)
 20075cc:	88200837 	lui	v1,0x4010
 20075d0:	04407423 	sb	zero,29(v1)
 20075d4:	88200837 	lui	v1,0x4010
 20075d8:	04412023 	sb	zero,72(v1)
 20075dc:	88200837 	lui	v1,0x4010
 20075e0:	0c64c123 	sw	a0,176(v1)
 20075e4:	ffff4367 	j	20072f0 <t4_taskB1_generic_FH_TUERMODUL_CTRL+0x22c>
 20075e8:	88200837 	lui	v1,0x4010
 20075ec:	8c413c03 	lb	v1,79(v1)
 20075f0:	dc40d863 	beqz	v1,200715c <t4_taskB1_generic_FH_TUERMODUL_CTRL+0x98>
 20075f4:	98200837 	lui	a1,0x4010
 20075f8:	88000413 	li	v1,1
 20075fc:	04c07423 	sb	zero,29(a1)
 2007600:	98200837 	lui	a1,0x4010
 2007604:	04e32023 	sb	v1,72(a1)
 2007608:	04a26c23 	sb	v1,27(a0)
 200760c:	fffed467 	j	200715c <t4_taskB1_generic_FH_TUERMODUL_CTRL+0x98>
 2007610:	a8200837 	lui	a3,0x4010
 2007614:	a5404403 	lb	a2,17(a3)
 2007618:	0d220863 	beq	a2,v1,200771c <t4_taskB1_generic_FH_TUERMODUL_CTRL+0x658>
 200761c:	0527b063 	beq	a2,a1,20076f4 <t4_taskB1_generic_FH_TUERMODUL_CTRL+0x630>
 2007620:	88200837 	lui	v1,0x4010
 2007624:	04407423 	sb	zero,29(v1)
 2007628:	05664423 	sb	a1,17(a3)
 200762c:	fffecc67 	j	200715c <t4_taskB1_generic_FH_TUERMODUL_CTRL+0x98>
 2007630:	88200837 	lui	v1,0x4010
 2007634:	04407423 	sb	zero,29(v1)
 2007638:	88200837 	lui	v1,0x4010
 200763c:	04412023 	sb	zero,72(v1)
 2007640:	88000c13 	li	v1,3
 2007644:	04a25023 	sb	v1,20(a0)
 2007648:	fffec567 	j	200715c <t4_taskB1_generic_FH_TUERMODUL_CTRL+0x98>
 200764c:	88200837 	lui	v1,0x4010
 2007650:	8c413c03 	lb	v1,79(v1)
 2007654:	044020e3 	bnez	v1,2007664 <t4_taskB1_generic_FH_TUERMODUL_CTRL+0x5a0>
 2007658:	88200837 	lui	v1,0x4010
 200765c:	8c413403 	lb	v1,77(v1)
 2007660:	fc41a0e3 	bnez	v1,2007630 <t4_taskB1_generic_FH_TUERMODUL_CTRL+0x56c>
 2007664:	98200837 	lui	a1,0x4010
 2007668:	94c04803 	lb	a0,18(a1)
 200766c:	88000413 	li	v1,1
 2007670:	0ca2c863 	beq	a0,v1,20077d4 <t4_taskB1_generic_FH_TUERMODUL_CTRL+0x710>
 2007674:	a0000813 	li	a2,2
 2007678:	0ca82863 	beq	a0,a2,200778c <t4_taskB1_generic_FH_TUERMODUL_CTRL+0x6c8>
 200767c:	90200837 	lui	a0,0x4010
 2007680:	04807423 	sb	zero,29(a0)
 2007684:	90200837 	lui	a0,0x4010
 2007688:	04e84823 	sb	a2,18(a1)
 200768c:	04224423 	sb	v1,17(v0)
 2007690:	04a32023 	sb	v1,72(a0)
 2007694:	fffeb267 	j	200715c <t4_taskB1_generic_FH_TUERMODUL_CTRL+0x98>
 2007698:	88200837 	lui	v1,0x4010
 200769c:	8c413003 	lb	v1,76(v1)
 20076a0:	04402063 	beqz	v1,20076b0 <t4_taskB1_generic_FH_TUERMODUL_CTRL+0x5ec>
 20076a4:	88200837 	lui	v1,0x4010
 20076a8:	8c412803 	lb	v1,74(v1)
 20076ac:	fc410863 	beqz	v1,2007630 <t4_taskB1_generic_FH_TUERMODUL_CTRL+0x56c>
 20076b0:	88200837 	lui	v1,0x4010
 20076b4:	8c413c03 	lb	v1,79(v1)
 20076b8:	04402063 	beqz	v1,20076c8 <t4_taskB1_generic_FH_TUERMODUL_CTRL+0x604>
 20076bc:	88200837 	lui	v1,0x4010
 20076c0:	8c413403 	lb	v1,77(v1)
 20076c4:	fc40d863 	beqz	v1,2007630 <t4_taskB1_generic_FH_TUERMODUL_CTRL+0x56c>
 20076c8:	98200837 	lui	a1,0x4010
 20076cc:	94c04c03 	lb	a0,19(a1)
 20076d0:	88000413 	li	v1,1
 20076d4:	0ca30863 	beq	a0,v1,2007858 <t4_taskB1_generic_FH_TUERMODUL_CTRL+0x794>
 20076d8:	a0000813 	li	a2,2
 20076dc:	0ca86863 	beq	a0,a2,2007810 <t4_taskB1_generic_FH_TUERMODUL_CTRL+0x74c>
 20076e0:	90200837 	lui	a0,0x4010
 20076e4:	04807423 	sb	zero,29(a0)
 20076e8:	04e84c23 	sb	a2,19(a1)
 20076ec:	04224423 	sb	v1,17(v0)
 20076f0:	fffe9b67 	j	200715c <t4_taskB1_generic_FH_TUERMODUL_CTRL+0x98>
 20076f4:	98200837 	lui	a1,0x4010
 20076f8:	9cc13c03 	lb	a1,79(a1)
 20076fc:	04c0b063 	beqz	a1,2007754 <t4_taskB1_generic_FH_TUERMODUL_CTRL+0x690>
 2007700:	98200837 	lui	a1,0x4010
 2007704:	9cc13403 	lb	a1,77(a1)
 2007708:	04c098e3 	bnez	a1,2007754 <t4_taskB1_generic_FH_TUERMODUL_CTRL+0x690>
 200770c:	90200837 	lui	a0,0x4010
 2007710:	04807423 	sb	zero,29(a0)
 2007714:	05624423 	sb	v1,17(a3)
 2007718:	fffe9167 	j	200715c <t4_taskB1_generic_FH_TUERMODUL_CTRL+0x98>
 200771c:	88200837 	lui	v1,0x4010
 2007720:	8c413c03 	lb	v1,79(v1)
 2007724:	04409863 	beqz	v1,2007770 <t4_taskB1_generic_FH_TUERMODUL_CTRL+0x6ac>
 2007728:	88200837 	lui	v1,0x4010
 200772c:	8c413403 	lb	v1,77(v1)
 2007730:	044080e3 	bnez	v1,2007770 <t4_taskB1_generic_FH_TUERMODUL_CTRL+0x6ac>
 2007734:	88200837 	lui	v1,0x4010
 2007738:	04407423 	sb	zero,29(v1)
 200773c:	88200837 	lui	v1,0x4010
 2007740:	04411423 	sb	zero,69(v1)
 2007744:	88000c13 	li	v1,3
 2007748:	04a25023 	sb	v1,20(a0)
 200774c:	05404423 	sb	zero,17(a3)
 2007750:	fffe8367 	j	200715c <t4_taskB1_generic_FH_TUERMODUL_CTRL+0x98>
 2007754:	88200837 	lui	v1,0x4010
 2007758:	8c413003 	lb	v1,76(v1)
 200775c:	d44000e3 	bnez	v1,200715c <t4_taskB1_generic_FH_TUERMODUL_CTRL+0x98>
 2007760:	88200837 	lui	v1,0x4010
 2007764:	8c412803 	lb	v1,74(v1)
 2007768:	cc41e863 	beqz	v1,200715c <t4_taskB1_generic_FH_TUERMODUL_CTRL+0x98>
 200776c:	fffff267 	j	2007734 <t4_taskB1_generic_FH_TUERMODUL_CTRL+0x670>
 2007770:	88200837 	lui	v1,0x4010
 2007774:	8c413003 	lb	v1,76(v1)
 2007778:	cc41c863 	beqz	v1,200715c <t4_taskB1_generic_FH_TUERMODUL_CTRL+0x98>
 200777c:	88200837 	lui	v1,0x4010
 2007780:	8c412803 	lb	v1,74(v1)
 2007784:	cc41b0e3 	bnez	v1,200715c <t4_taskB1_generic_FH_TUERMODUL_CTRL+0x98>
 2007788:	ffffeb67 	j	2007734 <t4_taskB1_generic_FH_TUERMODUL_CTRL+0x670>
 200778c:	94006003 	lb	a0,24(v0)
 2007790:	0c800863 	beqz	a0,2007894 <t4_taskB1_generic_FH_TUERMODUL_CTRL+0x7d0>
 2007794:	90200837 	lui	a0,0x4010
 2007798:	a4808103 	lw	a2,32(a0)
 200779c:	90200837 	lui	a0,0x4010
 20077a0:	04807423 	sb	zero,29(a0)
 20077a4:	90200837 	lui	a0,0x4010
 20077a8:	04812023 	sb	zero,72(a0)
 20077ac:	90200837 	lui	a0,0x4010
 20077b0:	04a37823 	sb	v1,94(a0)
 20077b4:	90200837 	lui	a0,0x4010
 20077b8:	0ca86123 	sw	a2,152(a0)
 20077bc:	90200837 	lui	a0,0x4010
 20077c0:	04225c23 	sb	v1,23(v0)
 20077c4:	04e24823 	sb	v1,18(a1)
 20077c8:	04004423 	sb	zero,17(v0)
 20077cc:	04a31423 	sb	v1,69(a0)
 20077d0:	fffe6367 	j	200715c <t4_taskB1_generic_FH_TUERMODUL_CTRL+0x98>
 20077d4:	8c005803 	lb	v1,22(v0)
 20077d8:	04005c23 	sb	zero,23(v0)
 20077dc:	cc410063 	beqz	v1,200715c <t4_taskB1_generic_FH_TUERMODUL_CTRL+0x98>
 20077e0:	88200837 	lui	v1,0x4010
 20077e4:	04407423 	sb	zero,29(v1)
 20077e8:	88200837 	lui	v1,0x4010
 20077ec:	04417823 	sb	zero,94(v1)
 20077f0:	88000813 	li	v1,2
 20077f4:	04e24823 	sb	v1,18(a1)
 20077f8:	88200837 	lui	v1,0x4010
 20077fc:	04411423 	sb	zero,69(v1)
 2007800:	88200837 	lui	v1,0x4010
 2007804:	04244423 	sb	a0,17(v0)
 2007808:	04652023 	sb	a0,72(v1)
 200780c:	fffe5467 	j	200715c <t4_taskB1_generic_FH_TUERMODUL_CTRL+0x98>
 2007810:	94006003 	lb	a0,24(v0)
 2007814:	cc809063 	beqz	a0,200715c <t4_taskB1_generic_FH_TUERMODUL_CTRL+0x98>
 2007818:	90200837 	lui	a0,0x4010
 200781c:	a4808103 	lw	a2,32(a0)
 2007820:	90200837 	lui	a0,0x4010
 2007824:	04807423 	sb	zero,29(a0)
 2007828:	90200837 	lui	a0,0x4010
 200782c:	04a38023 	sb	v1,96(a0)
 2007830:	90200837 	lui	a0,0x4010
 2007834:	04812023 	sb	zero,72(a0)
 2007838:	90200837 	lui	a0,0x4010
 200783c:	0ca87123 	sw	a2,156(a0)
 2007840:	90200837 	lui	a0,0x4010
 2007844:	04225c23 	sb	v1,23(v0)
 2007848:	04e24c23 	sb	v1,19(a1)
 200784c:	04004423 	sb	zero,17(v0)
 2007850:	04a31423 	sb	v1,69(a0)
 2007854:	fffe4267 	j	200715c <t4_taskB1_generic_FH_TUERMODUL_CTRL+0x98>
 2007858:	8c005803 	lb	v1,22(v0)
 200785c:	04005c23 	sb	zero,23(v0)
 2007860:	c441f863 	beqz	v1,200715c <t4_taskB1_generic_FH_TUERMODUL_CTRL+0x98>
 2007864:	88200837 	lui	v1,0x4010
 2007868:	04407423 	sb	zero,29(v1)
 200786c:	88200837 	lui	v1,0x4010
 2007870:	04652023 	sb	a0,72(v1)
 2007874:	88200837 	lui	v1,0x4010
 2007878:	04418023 	sb	zero,96(v1)
 200787c:	88000813 	li	v1,2
 2007880:	04e24c23 	sb	v1,19(a1)
 2007884:	88200837 	lui	v1,0x4010
 2007888:	04411423 	sb	zero,69(v1)
 200788c:	04244423 	sb	a0,17(v0)
 2007890:	fffe3367 	j	200715c <t4_taskB1_generic_FH_TUERMODUL_CTRL+0x98>
 2007894:	90200837 	lui	a0,0x4010
 2007898:	94813003 	lb	a0,76(a0)
 200789c:	c4818063 	beqz	a0,200715c <t4_taskB1_generic_FH_TUERMODUL_CTRL+0x98>
 20078a0:	90200837 	lui	a0,0x4010
 20078a4:	94812803 	lb	a0,74(a0)
 20078a8:	c48168e3 	bnez	a0,200715c <t4_taskB1_generic_FH_TUERMODUL_CTRL+0x98>
 20078ac:	90200837 	lui	a0,0x4010
 20078b0:	04807423 	sb	zero,29(a0)
 20078b4:	05624023 	sb	v1,16(a3)
 20078b8:	04c04823 	sb	zero,18(a1)
 20078bc:	fffe2867 	j	200715c <t4_taskB1_generic_FH_TUERMODUL_CTRL+0x98>

020078c0 <t4_taskB1_generic_EINKLEMMSCHUTZ_CTRL>:
 20078c0:	80200837 	lui	v0,0x4010
 20078c4:	84031013 	add	v0,v0,196
 20078c8:	8c004003 	lb	v1,16(v0)
 20078cc:	04405063 	beqz	v1,20078f4 <t4_taskB1_generic_EINKLEMMSCHUTZ_CTRL+0x34>
 20078d0:	90200837 	lui	a0,0x4010
 20078d4:	8c803803 	lb	v1,14(a0)
 20078d8:	98000413 	li	a1,1
 20078dc:	04663863 	beq	v1,a1,20078f8 <t4_taskB1_generic_EINKLEMMSCHUTZ_CTRL+0x38>
 20078e0:	a0000813 	li	a2,2
 20078e4:	0468c063 	beq	v1,a2,2007944 <t4_taskB1_generic_EINKLEMMSCHUTZ_CTRL+0x84>
 20078e8:	80200837 	lui	v0,0x4010
 20078ec:	04007423 	sb	zero,29(v0)
 20078f0:	04a63823 	sb	a1,14(a0)
 20078f4:	004000eb 	ret
 20078f8:	88200837 	lui	v1,0x4010
 20078fc:	8c410c03 	lb	v1,67(v1)
 2007900:	fc41e863 	beqz	v1,20078f4 <t4_taskB1_generic_EINKLEMMSCHUTZ_CTRL+0x34>
 2007904:	88200837 	lui	v1,0x4010
 2007908:	8c410803 	lb	v1,66(v1)
 200790c:	fc41d0e3 	bnez	v1,20078f4 <t4_taskB1_generic_EINKLEMMSCHUTZ_CTRL+0x34>
 2007910:	88200837 	lui	v1,0x4010
 2007914:	8c413c03 	lb	v1,79(v1)
 2007918:	04402063 	beqz	v1,2007928 <t4_taskB1_generic_EINKLEMMSCHUTZ_CTRL+0x68>
 200791c:	88200837 	lui	v1,0x4010
 2007920:	8c413003 	lb	v1,76(v1)
 2007924:	fc41a0e3 	bnez	v1,20078f4 <t4_taskB1_generic_EINKLEMMSCHUTZ_CTRL+0x34>
 2007928:	88200837 	lui	v1,0x4010
 200792c:	04407423 	sb	zero,29(v1)
 2007930:	88000413 	li	v1,1
 2007934:	04226023 	sb	v1,24(v0)
 2007938:	80000813 	li	v0,2
 200793c:	04a03823 	sb	v0,14(a0)
 2007940:	004000eb 	ret
 2007944:	88200837 	lui	v1,0x4010
 2007948:	8c410c03 	lb	v1,67(v1)
 200794c:	04006023 	sb	zero,24(v0)
 2007950:	fc4148e3 	bnez	v1,20078f4 <t4_taskB1_generic_EINKLEMMSCHUTZ_CTRL+0x34>
 2007954:	80200837 	lui	v0,0x4010
 2007958:	84010803 	lb	v0,66(v0)
 200795c:	fc013063 	beqz	v0,20078f4 <t4_taskB1_generic_EINKLEMMSCHUTZ_CTRL+0x34>
 2007960:	80200837 	lui	v0,0x4010
 2007964:	04007423 	sb	zero,29(v0)
 2007968:	04a63823 	sb	a1,14(a0)
 200796c:	004000eb 	ret

02007970 <t4_taskB1_generic_BLOCK_ERKENNUNG_CTRL>:
 2007970:	88200837 	lui	v1,0x4010
 2007974:	84431013 	add	v0,v1,196
 2007978:	94004c03 	lb	a0,19(v0)
 200797c:	048038e3 	bnez	a0,2007998 <t4_taskB1_generic_BLOCK_ERKENNUNG_CTRL+0x28>
 2007980:	94005403 	lb	a0,21(v0)
 2007984:	04807063 	beqz	a0,20079bc <t4_taskB1_generic_BLOCK_ERKENNUNG_CTRL+0x4c>
 2007988:	84005003 	lb	v0,20(v0)
 200798c:	040060e3 	bnez	v0,20079bc <t4_taskB1_generic_BLOCK_ERKENNUNG_CTRL+0x4c>
 2007990:	0c411023 	sb	zero,196(v1)
 2007994:	004000eb 	ret
 2007998:	90200837 	lui	a0,0x4010
 200799c:	84803003 	lb	v0,12(a0)
 20079a0:	98000413 	li	a1,1
 20079a4:	04263863 	beq	v0,a1,20079c0 <t4_taskB1_generic_BLOCK_ERKENNUNG_CTRL+0x50>
 20079a8:	a0000813 	li	a2,2
 20079ac:	0428d863 	beq	v0,a2,2007a18 <t4_taskB1_generic_BLOCK_ERKENNUNG_CTRL+0xa8>
 20079b0:	80200837 	lui	v0,0x4010
 20079b4:	04007423 	sb	zero,29(v0)
 20079b8:	04a63023 	sb	a1,12(a0)
 20079bc:	004000eb 	ret
 20079c0:	98200837 	lui	a1,0x4010
 20079c4:	a0200837 	lui	a2,0x4010
 20079c8:	9cc24103 	lw	a1,144(a1)
 20079cc:	a5023103 	lw	a2,140(a2)
 20079d0:	fce9d863 	beq	a1,a2,20079bc <t4_taskB1_generic_BLOCK_ERKENNUNG_CTRL+0x4c>
 20079d4:	f827d2e3 	blez	a1,20079bc <t4_taskB1_generic_BLOCK_ERKENNUNG_CTRL+0x4c>
 20079d8:	98200837 	lui	a1,0x4010
 20079dc:	04c07423 	sb	zero,29(a1)
 20079e0:	98200837 	lui	a1,0x4010
 20079e4:	04c14823 	sb	zero,82(a1)
 20079e8:	98000813 	li	a1,2
 20079ec:	04a63023 	sb	a1,12(a0)
 20079f0:	90200837 	lui	a0,0x4010
 20079f4:	98000813 	li	a1,2
 20079f8:	0481b123 	sw	zero,108(a0)
 20079fc:	90200837 	lui	a0,0x4010
 2007a00:	04a7d123 	sw	a1,116(a0)
 2007a04:	98000c13 	li	a1,3
 2007a08:	90200837 	lui	a0,0x4010
 2007a0c:	04a63423 	sb	a1,13(a0)
 2007a10:	0c611023 	sb	v0,196(v1)
 2007a14:	004000eb 	ret
 2007a18:	80200837 	lui	v0,0x4010
 2007a1c:	84011803 	lb	v0,70(v0)
 2007a20:	0400c063 	beqz	v0,2007a80 <t4_taskB1_generic_BLOCK_ERKENNUNG_CTRL+0x110>
 2007a24:	80200837 	lui	v0,0x4010
 2007a28:	84012403 	lb	v0,73(v0)
 2007a2c:	040020e3 	bnez	v0,2007a3c <t4_taskB1_generic_BLOCK_ERKENNUNG_CTRL+0xcc>
 2007a30:	80200837 	lui	v0,0x4010
 2007a34:	84011c03 	lb	v0,71(v0)
 2007a38:	0400a8e3 	bnez	v0,2007a8c <t4_taskB1_generic_BLOCK_ERKENNUNG_CTRL+0x11c>
 2007a3c:	90200837 	lui	a0,0x4010
 2007a40:	84803403 	lb	v0,13(a0)
 2007a44:	98000813 	li	a1,2
 2007a48:	0427b063 	beq	v0,a1,2007b20 <t4_taskB1_generic_BLOCK_ERKENNUNG_CTRL+0x1b0>
 2007a4c:	a0000c13 	li	a2,3
 2007a50:	0428b863 	beq	v0,a2,2007aac <t4_taskB1_generic_BLOCK_ERKENNUNG_CTRL+0x13c>
 2007a54:	a8000413 	li	a3,1
 2007a58:	042aa063 	beq	v0,a3,2007aa8 <t4_taskB1_generic_BLOCK_ERKENNUNG_CTRL+0x138>
 2007a5c:	80200837 	lui	v0,0x4010
 2007a60:	04007423 	sb	zero,29(v0)
 2007a64:	80200837 	lui	v0,0x4010
 2007a68:	0401b123 	sw	zero,108(v0)
 2007a6c:	80200837 	lui	v0,0x4010
 2007a70:	0427d123 	sw	a1,116(v0)
 2007a74:	04a83423 	sb	a2,13(a0)
 2007a78:	0c6b1023 	sb	a3,196(v1)
 2007a7c:	004000eb 	ret
 2007a80:	80200837 	lui	v0,0x4010
 2007a84:	84011003 	lb	v0,68(v0)
 2007a88:	fc013863 	beqz	v0,2007a24 <t4_taskB1_generic_BLOCK_ERKENNUNG_CTRL+0xb4>
 2007a8c:	80200837 	lui	v0,0x4010
 2007a90:	04007423 	sb	zero,29(v0)
 2007a94:	80000413 	li	v0,1
 2007a98:	04a03023 	sb	v0,12(a0)
 2007a9c:	80200837 	lui	v0,0x4010
 2007aa0:	04003423 	sb	zero,13(v0)
 2007aa4:	004000eb 	ret
 2007aa8:	004000eb 	ret
 2007aac:	a0200837 	lui	a2,0x4010
 2007ab0:	8501b103 	lw	v0,108(a2)
 2007ab4:	0c411023 	sb	zero,196(v1)
 2007ab8:	88002c13 	li	v1,11
 2007abc:	04233063 	beq	v0,v1,2007b54 <t4_taskB1_generic_BLOCK_ERKENNUNG_CTRL+0x1e4>
 2007ac0:	88200837 	lui	v1,0x4010
 2007ac4:	94407003 	lb	a0,28(v1)
 2007ac8:	88000413 	li	v1,1
 2007acc:	f4a3e0e3 	bne	a0,v1,20079bc <t4_taskB1_generic_BLOCK_ERKENNUNG_CTRL+0x4c>
 2007ad0:	88200837 	lui	v1,0x4010
 2007ad4:	8c430103 	lw	v1,192(v1)
 2007ad8:	f441c863 	beqz	v1,20079bc <t4_taskB1_generic_BLOCK_ERKENNUNG_CTRL+0x4c>
 2007adc:	90200837 	lui	a0,0x4010
 2007ae0:	94808103 	lw	a0,32(a0)
 2007ae4:	8ca30033 	sub	v1,a0,v1
 2007ae8:	8c40f0d3 	fcvt.d.wu	fv1,v1
 2007aec:	88200037 	lui	v1,0x4000
 2007af0:	84402187 	fld	fv0,8(v1)
 2007af4:	8c6150d3 	feq.d	v1,fv1,fv0
 2007af8:	f4418863 	beqz	v1,20079bc <t4_taskB1_generic_BLOCK_ERKENNUNG_CTRL+0x4c>
 2007afc:	88200837 	lui	v1,0x4010
 2007b00:	90200837 	lui	a0,0x4010
 2007b04:	94824103 	lw	a0,144(a0)
 2007b08:	9c41d103 	lw	a1,116(v1)
 2007b0c:	84000413 	add	v0,v0,1
 2007b10:	0521b123 	sw	v0,108(a2)
 2007b14:	f4e552e3 	ble	a0,a1,20079bc <t4_taskB1_generic_BLOCK_ERKENNUNG_CTRL+0x4c>
 2007b18:	0465d123 	sw	a0,116(v1)
 2007b1c:	004000eb 	ret
 2007b20:	80200837 	lui	v0,0x4010
 2007b24:	8c01d103 	lw	v1,116(v0)
 2007b28:	80200837 	lui	v0,0x4010
 2007b2c:	84024103 	lw	v0,144(v0)
 2007b30:	8c7ffc13 	add	v1,v1,-1
 2007b34:	f4231263 	blt	v0,v1,20079bc <t4_taskB1_generic_BLOCK_ERKENNUNG_CTRL+0x4c>
 2007b38:	88200837 	lui	v1,0x4010
 2007b3c:	80000413 	li	v0,1
 2007b40:	04407423 	sb	zero,29(v1)
 2007b44:	88200837 	lui	v1,0x4010
 2007b48:	04614823 	sb	v0,82(v1)
 2007b4c:	04a03423 	sb	v0,13(a0)
 2007b50:	004000eb 	ret
 2007b54:	88200837 	lui	v1,0x4010
 2007b58:	8c419103 	lw	v1,100(v1)
 2007b5c:	fc60c863 	beq	v1,v0,2007ac0 <t4_taskB1_generic_BLOCK_ERKENNUNG_CTRL+0x150>
 2007b60:	80200837 	lui	v0,0x4010
 2007b64:	04007423 	sb	zero,29(v0)
 2007b68:	04a63423 	sb	a1,13(a0)
 2007b6c:	004000eb 	ret

02007b70 <t4_taskB1_FH_DU>:
 2007b70:	73be2013 	add	sp,sp,-120
 2007b74:	0385c123 	sw	s0,112(sp)
 2007b78:	10200837 	lui	s0,0x4010
 2007b7c:	0387b123 	sw	s1,108(sp)
 2007b80:	0389a123 	sw	s2,104(sp)
 2007b84:	038b9123 	sw	s3,100(sp)
 2007b88:	038d8123 	sw	s4,96(sp)
 2007b8c:	038f7123 	sw	s5,92(sp)
 2007b90:	03916123 	sw	s6,88(sp)
 2007b94:	03935123 	sw	s7,84(sp)
 2007b98:	03954123 	sw	s8,80(sp)
 2007b9c:	03973123 	sw	s9,76(sp)
 2007ba0:	03992123 	sw	s10,72(sp)
 2007ba4:	039b1123 	sw	s11,68(sp)
 2007ba8:	0383d123 	sw	ra,116(sp)
 2007bac:	10831013 	add	s0,s0,196
 2007bb0:	88000413 	li	v1,1
 2007bb4:	80200837 	lui	v0,0x4010
 2007bb8:	04228123 	sw	v1,32(v0)
 2007bbc:	a8804003 	lb	a3,16(s0)
 2007bc0:	88802803 	lb	v1,10(s0)
 2007bc4:	b0804c03 	lb	a4,19(s0)
 2007bc8:	b8803403 	lb	a5,13(s0)
 2007bcc:	80200837 	lui	v0,0x4010
 2007bd0:	c0200837 	lui	a6,0x4010
 2007bd4:	c8200837 	lui	a7,0x4010
 2007bd8:	04007023 	sb	zero,28(v0)
 2007bdc:	03a2a123 	sw	v1,40(sp)
 2007be0:	8600d803 	lb	v0,54(a6)
 2007be4:	03aac123 	sw	a3,48(sp)
 2007be8:	03acd123 	sw	a4,52(sp)
 2007bec:	03aeb123 	sw	a5,44(sp)
 2007bf0:	c640d003 	lb	a6,52(a7)
 2007bf4:	58200837 	lui	s9,0x4010
 2007bf8:	60200837 	lui	s10,0x4010
 2007bfc:	20200837 	lui	s2,0x4010
 2007c00:	e0200837 	lui	a10,0x4010
 2007c04:	18200837 	lui	s1,0x4010
 2007c08:	50200837 	lui	s8,0x4010
 2007c0c:	48200837 	lui	s7,0x4010
 2007c10:	40200837 	lui	s6,0x4010
 2007c14:	38200837 	lui	s5,0x4010
 2007c18:	30200837 	lui	s4,0x4010
 2007c1c:	28200837 	lui	s3,0x4010
 2007c20:	a0200837 	lui	a2,0x4010
 2007c24:	98200837 	lui	a1,0x4010
 2007c28:	90200837 	lui	a0,0x4010
 2007c2c:	88200837 	lui	v1,0x4010
 2007c30:	68200837 	lui	s11,0x4010
 2007c34:	00016e67 	j	20081ec <t4_taskB1_FH_DU+0x67c>
 2007c38:	b0000c13 	li	a4,3
 2007c3c:	356c2063 	beq	a3,a4,200824c <t4_taskB1_FH_DU+0x6dc>
 2007c40:	b0000413 	li	a4,1
 2007c44:	356c7863 	beq	a3,a4,2008280 <t4_taskB1_FH_DU+0x710>
 2007c48:	f8200837 	lui	a13,0x4010
 2007c4c:	a8200837 	lui	a3,0x4010
 2007c50:	b8000813 	li	a5,2
 2007c54:	b0200837 	lui	a4,0x4010
 2007c58:	07c07423 	sb	zero,29(a13)
 2007c5c:	0d402123 	sw	zero,136(a3)
 2007c60:	05ae3c23 	sb	a5,15(a4)
 2007c64:	cb80a103 	lw	a7,40(sp)
 2007c68:	064020e3 	bnez	a7,2007c78 <t4_taskB1_FH_DU+0x108>
 2007c6c:	a8000c13 	li	a3,3
 2007c70:	d0200837 	lui	a8,0x4010
 2007c74:	06aa6023 	sb	a3,24(a8)
 2007c78:	db80c103 	lw	a9,48(sp)
 2007c7c:	06c020e3 	bnez	a9,2007c8c <t4_taskB1_FH_DU+0x11c>
 2007c80:	b0000413 	li	a4,1
 2007c84:	a8200837 	lui	a3,0x4010
 2007c88:	056c3823 	sb	a4,14(a3)
 2007c8c:	eb80d103 	lw	a11,52(sp)
 2007c90:	074030e3 	bnez	a11,2007ca8 <t4_taskB1_FH_DU+0x138>
 2007c94:	a8200837 	lui	a3,0x4010
 2007c98:	0d411023 	sb	zero,196(a3)
 2007c9c:	b0000413 	li	a4,1
 2007ca0:	a8200837 	lui	a3,0x4010
 2007ca4:	056c3023 	sb	a4,12(a3)
 2007ca8:	f380b103 	lw	a12,44(sp)
 2007cac:	078070e3 	bnez	a12,2007ce4 <t4_taskB1_FH_DU+0x174>
 2007cb0:	b0000813 	li	a4,2
 2007cb4:	f8200837 	lui	a13,0x4010
 2007cb8:	a8000413 	li	a3,1
 2007cbc:	07ec5c23 	sb	a4,23(a13)
 2007cc0:	b0200837 	lui	a4,0x4010
 2007cc4:	b8200837 	lui	a5,0x4010
 2007cc8:	05aa5823 	sb	a3,22(a4)
 2007ccc:	b0200837 	lui	a4,0x4010
 2007cd0:	00801023 	sb	zero,4(s0)
 2007cd4:	00801823 	sb	zero,6(s0)
 2007cd8:	0dc0a123 	sw	zero,168(a5)
 2007cdc:	00aa1423 	sb	a3,5(s0)
 2007ce0:	05aa5423 	sb	a3,21(a4)
 2007ce4:	a8000413 	li	a3,1
 2007ce8:	00aa2c23 	sb	a3,11(s0)
 2007cec:	00aa4423 	sb	a3,17(s0)
 2007cf0:	00aa5023 	sb	a3,20(s0)
 2007cf4:	00aa3823 	sb	a3,14(s0)
 2007cf8:	04302863 	beq	v0,a6,2007d0c <t4_taskB1_FH_DU+0x19c>
 2007cfc:	a8200837 	lui	a3,0x4010
 2007d00:	ad40b403 	lb	a3,45(a3)
 2007d04:	054010e3 	bnez	a3,2007d0c <t4_taskB1_FH_DU+0x19c>
 2007d08:	0120f823 	sb	v0,62(s2)
 2007d0c:	c0200837 	lui	a6,0x4010
 2007d10:	c8200837 	lui	a7,0x4010
 2007d14:	8600cc03 	lb	v0,51(a6)
 2007d18:	ae40c803 	lb	a3,50(a7)
 2007d1c:	05603063 	beq	a3,v0,2007d34 <t4_taskB1_FH_DU+0x1c4>
 2007d20:	a8200837 	lui	a3,0x4010
 2007d24:	ad40b403 	lb	a3,45(a3)
 2007d28:	05401863 	beqz	a3,2007d34 <t4_taskB1_FH_DU+0x1c4>
 2007d2c:	d0200837 	lui	a8,0x4010
 2007d30:	06a0d823 	sb	v0,54(a8)
 2007d34:	d8200837 	lui	a9,0x4010
 2007d38:	8700e403 	lb	v0,57(a10)
 2007d3c:	aec0dc03 	lb	a3,55(a9)
 2007d40:	05602863 	beq	a3,v0,2007d54 <t4_taskB1_FH_DU+0x1e4>
 2007d44:	a8200837 	lui	a3,0x4010
 2007d48:	ad40b403 	lb	a3,45(a3)
 2007d4c:	054010e3 	bnez	a3,2007d54 <t4_taskB1_FH_DU+0x1e4>
 2007d50:	00e0f423 	sb	v0,61(s1)
 2007d54:	e8200837 	lui	a11,0x4010
 2007d58:	f0200837 	lui	a12,0x4010
 2007d5c:	8740c403 	lb	v0,49(a11)
 2007d60:	af80c003 	lb	a3,48(a12)
 2007d64:	05602863 	beq	a3,v0,2007d78 <t4_taskB1_FH_DU+0x208>
 2007d68:	a8200837 	lui	a3,0x4010
 2007d6c:	ad40b403 	lb	a3,45(a3)
 2007d70:	05401063 	beqz	a3,2007d78 <t4_taskB1_FH_DU+0x208>
 2007d74:	0720e423 	sb	v0,57(a10)
 2007d78:	d8803203 	lbu	a9,12(s0)
 2007d7c:	d0803e03 	lbu	a8,15(s0)
 2007d80:	c8804a03 	lbu	a7,18(s0)
 2007d84:	c0805603 	lbu	a6,21(s0)
 2007d88:	ba40ba03 	lbu	a5,46(s7)
 2007d8c:	b0c0f603 	lbu	a4,61(s1)
 2007d90:	a980be03 	lbu	a3,47(s4)
 2007d94:	8100fa03 	lbu	v0,62(s2)
 2007d98:	00b62823 	sb	a9,10(s0)
 2007d9c:	00b43423 	sb	a8,13(s0)
 2007da0:	00b24023 	sb	a7,16(s0)
 2007da4:	00b04c23 	sb	a6,19(s0)
 2007da8:	02af5823 	sb	a5,86(s8)
 2007dac:	03b86123 	sw	a10,24(sp)
 2007db0:	022d6023 	sb	a4,88(s6)
 2007db4:	01eb6823 	sb	a3,90(s5)
 2007db8:	01617023 	sb	v0,92(s3)
 2007dbc:	03a25123 	sw	v1,20(sp)
 2007dc0:	03a48123 	sw	a0,32(sp)
 2007dc4:	03a64123 	sw	a1,16(sp)
 2007dc8:	03a87123 	sw	a2,28(sp)
 2007dcc:	fffbe46f 	jal	2006d5c <t4_taskB1_generic_KINDERSICHERUNG_CTRL>
 2007dd0:	a3807103 	lw	a2,28(sp)
 2007dd4:	9b804103 	lw	a1,16(sp)
 2007dd8:	f8200837 	lui	a13,0x4010
 2007ddc:	80200837 	lui	v0,0x4010
 2007de0:	0fc11a03 	lbu	ra,70(a13)
 2007de4:	93808103 	lw	a0,32(sp)
 2007de8:	fc012603 	lbu	a13,73(v0)
 2007dec:	8b805103 	lw	v1,20(sp)
 2007df0:	f5024103 	lw	a12,144(a2)
 2007df4:	a8200837 	lui	a3,0x4010
 2007df8:	ed410e03 	lbu	a11,67(a3)
 2007dfc:	dcc25103 	lw	a9,148(a1)
 2007e00:	d4814203 	lbu	a8,80(a0)
 2007e04:	ac415203 	lbu	a3,84(v1)
 2007e08:	ca815a03 	lbu	a7,86(s8)
 2007e0c:	c2016203 	lbu	a6,88(s6)
 2007e10:	b9c16a03 	lbu	a5,90(s5)
 2007e14:	b1417203 	lbu	a4,92(s3)
 2007e18:	83414e03 	lbu	v0,83(s11)
 2007e1c:	02fea423 	sb	a13,41(s9)
 2007e20:	f8200837 	lui	a13,0x4010
 2007e24:	07fdf123 	sw	a12,124(a13)
 2007e28:	f8200837 	lui	a13,0x4010
 2007e2c:	f0200837 	lui	a12,0x4010
 2007e30:	07baec23 	sb	a11,59(a12)
 2007e34:	0ff60123 	sw	a9,128(a13)
 2007e38:	e8200837 	lui	a11,0x4010
 2007e3c:	d8200837 	lui	a9,0x4010
 2007e40:	f0200837 	lui	a12,0x4010
 2007e44:	06f4f023 	sb	a8,60(a9)
 2007e48:	076afc23 	sb	a3,63(a11)
 2007e4c:	07a0b023 	sb	v0,44(a12)
 2007e50:	03029823 	sb	ra,38(s10)
 2007e54:	0272b823 	sb	a7,46(s7)
 2007e58:	00f0f423 	sb	a6,61(s1)
 2007e5c:	01aebc23 	sb	a5,47(s4)
 2007e60:	012cf823 	sb	a4,62(s2)
 2007e64:	fffc986f 	jal	20070c4 <t4_taskB1_generic_FH_TUERMODUL_CTRL>
 2007e68:	a3807103 	lw	a2,28(sp)
 2007e6c:	9b804103 	lw	a1,16(sp)
 2007e70:	f8200837 	lui	a13,0x4010
 2007e74:	80200837 	lui	v0,0x4010
 2007e78:	0fc11a03 	lbu	ra,70(a13)
 2007e7c:	93808103 	lw	a0,32(sp)
 2007e80:	fc012603 	lbu	a13,73(v0)
 2007e84:	8b805103 	lw	v1,20(sp)
 2007e88:	f5024103 	lw	a12,144(a2)
 2007e8c:	a8200837 	lui	a3,0x4010
 2007e90:	ed410e03 	lbu	a11,67(a3)
 2007e94:	dcc25103 	lw	a9,148(a1)
 2007e98:	d4814203 	lbu	a8,80(a0)
 2007e9c:	ac415203 	lbu	a3,84(v1)
 2007ea0:	ca815a03 	lbu	a7,86(s8)
 2007ea4:	c2016203 	lbu	a6,88(s6)
 2007ea8:	b9c16a03 	lbu	a5,90(s5)
 2007eac:	b1417203 	lbu	a4,92(s3)
 2007eb0:	83414e03 	lbu	v0,83(s11)
 2007eb4:	02fea423 	sb	a13,41(s9)
 2007eb8:	f8200837 	lui	a13,0x4010
 2007ebc:	07fdf123 	sw	a12,124(a13)
 2007ec0:	f8200837 	lui	a13,0x4010
 2007ec4:	f0200837 	lui	a12,0x4010
 2007ec8:	07baec23 	sb	a11,59(a12)
 2007ecc:	0ff60123 	sw	a9,128(a13)
 2007ed0:	e8200837 	lui	a11,0x4010
 2007ed4:	d8200837 	lui	a9,0x4010
 2007ed8:	f0200837 	lui	a12,0x4010
 2007edc:	06f4f023 	sb	a8,60(a9)
 2007ee0:	076afc23 	sb	a3,63(a11)
 2007ee4:	07a0b023 	sb	v0,44(a12)
 2007ee8:	03029823 	sb	ra,38(s10)
 2007eec:	0272b823 	sb	a7,46(s7)
 2007ef0:	00f0f423 	sb	a6,61(s1)
 2007ef4:	01aebc23 	sb	a5,47(s4)
 2007ef8:	012cf823 	sb	a4,62(s2)
 2007efc:	fffe716f 	jal	20078c0 <t4_taskB1_generic_EINKLEMMSCHUTZ_CTRL>
 2007f00:	a3807103 	lw	a2,28(sp)
 2007f04:	9b804103 	lw	a1,16(sp)
 2007f08:	f8200837 	lui	a13,0x4010
 2007f0c:	80200837 	lui	v0,0x4010
 2007f10:	0fc11a03 	lbu	ra,70(a13)
 2007f14:	93808103 	lw	a0,32(sp)
 2007f18:	fc012603 	lbu	a13,73(v0)
 2007f1c:	8b805103 	lw	v1,20(sp)
 2007f20:	f5024103 	lw	a12,144(a2)
 2007f24:	a8200837 	lui	a3,0x4010
 2007f28:	ed410e03 	lbu	a11,67(a3)
 2007f2c:	dcc25103 	lw	a9,148(a1)
 2007f30:	d4814203 	lbu	a8,80(a0)
 2007f34:	ac415203 	lbu	a3,84(v1)
 2007f38:	ca815a03 	lbu	a7,86(s8)
 2007f3c:	c2016203 	lbu	a6,88(s6)
 2007f40:	b9c16a03 	lbu	a5,90(s5)
 2007f44:	b1417203 	lbu	a4,92(s3)
 2007f48:	83414e03 	lbu	v0,83(s11)
 2007f4c:	02fea423 	sb	a13,41(s9)
 2007f50:	f8200837 	lui	a13,0x4010
 2007f54:	07fdf123 	sw	a12,124(a13)
 2007f58:	f8200837 	lui	a13,0x4010
 2007f5c:	f0200837 	lui	a12,0x4010
 2007f60:	07baec23 	sb	a11,59(a12)
 2007f64:	0ff60123 	sw	a9,128(a13)
 2007f68:	e8200837 	lui	a11,0x4010
 2007f6c:	d8200837 	lui	a9,0x4010
 2007f70:	f0200837 	lui	a12,0x4010
 2007f74:	06f4f023 	sb	a8,60(a9)
 2007f78:	076afc23 	sb	a3,63(a11)
 2007f7c:	07a0b023 	sb	v0,44(a12)
 2007f80:	0272b823 	sb	a7,46(s7)
 2007f84:	00f0f423 	sb	a6,61(s1)
 2007f88:	01aebc23 	sb	a5,47(s4)
 2007f8c:	012cf823 	sb	a4,62(s2)
 2007f90:	03029823 	sb	ra,38(s10)
 2007f94:	fffe776f 	jal	2007970 <t4_taskB1_generic_BLOCK_ERKENNUNG_CTRL>
 2007f98:	d0803403 	lb	a8,13(s0)
 2007f9c:	d8804003 	lb	a9,16(s0)
 2007fa0:	a3807103 	lw	a2,28(sp)
 2007fa4:	c8802803 	lb	a7,10(s0)
 2007fa8:	f8200837 	lui	a13,0x4010
 2007fac:	afc10c03 	lb	a3,67(a13)
 2007fb0:	b2815803 	lb	a4,86(s8)
 2007fb4:	f8804c03 	lb	a13,19(s0)
 2007fb8:	9b804103 	lw	a1,16(sp)
 2007fbc:	85024103 	lw	v0,144(a2)
 2007fc0:	ba016003 	lb	a5,88(s6)
 2007fc4:	93808103 	lw	a0,32(sp)
 2007fc8:	03b4b123 	sw	a8,44(sp)
 2007fcc:	03b6c123 	sw	a9,48(sp)
 2007fd0:	d0200837 	lui	a8,0x4010
 2007fd4:	d8200837 	lui	a9,0x4010
 2007fd8:	03b2a123 	sw	a7,40(sp)
 2007fdc:	ce82a103 	lw	a7,168(a8)
 2007fe0:	d6c21103 	lw	a8,132(a9)
 2007fe4:	d8200837 	lui	a9,0x4010
 2007fe8:	03ace123 	sw	a4,56(sp)
 2007fec:	03bed123 	sw	a13,52(sp)
 2007ff0:	b4c25103 	lw	a4,148(a1)
 2007ff4:	fec1b103 	lw	a13,108(a9)
 2007ff8:	d8200837 	lui	a9,0x4010
 2007ffc:	03ae3123 	sw	a5,12(sp)
 2008000:	06e1f123 	sw	v0,124(a9)
 2008004:	bc814203 	lbu	a5,80(a0)
 2008008:	d8200837 	lui	a9,0x4010
 200800c:	06eaec23 	sb	a3,59(a9)
 2008010:	d8200837 	lui	a9,0x4010
 2008014:	0eec0123 	sw	a4,128(a9)
 2008018:	8b805103 	lw	v1,20(sp)
 200801c:	b0200837 	lui	a4,0x4010
 2008020:	05aef023 	sb	a5,60(a4)
 2008024:	db803103 	lw	a9,12(sp)
 2008028:	bb80e103 	lw	a5,56(sp)
 200802c:	c4415203 	lbu	a6,84(v1)
 2008030:	e9c16803 	lb	a11,90(s5)
 2008034:	f1417003 	lb	a12,92(s3)
 2008038:	026eb823 	sb	a5,46(s7)
 200803c:	00f6f423 	sb	a9,61(s1)
 2008040:	bb80a103 	lw	a5,40(sp)
 2008044:	db80c103 	lw	a9,48(sp)
 2008048:	b0200837 	lui	a4,0x4010
 200804c:	05b0fc23 	sb	a6,63(a4)
 2008050:	c380b103 	lw	a6,44(sp)
 2008054:	00ae2c23 	sb	a5,11(s0)
 2008058:	b8200837 	lui	a5,0x4010
 200805c:	00b64423 	sb	a9,17(s0)
 2008060:	b380d103 	lw	a4,52(sp)
 2008064:	0df28123 	sw	a7,160(a5)
 2008068:	d8200837 	lui	a9,0x4010
 200806c:	c8200837 	lui	a7,0x4010
 2008070:	00b03823 	sb	a6,14(s0)
 2008074:	0e742123 	sw	a8,136(a7)
 2008078:	06ff9123 	sw	a13,100(a9)
 200807c:	c0200837 	lui	a6,0x4010
 2008080:	d0200837 	lui	a8,0x4010
 2008084:	f8200837 	lui	a13,0x4010
 2008088:	dfc14803 	lb	a9,82(a13)
 200808c:	0e203123 	sw	v0,140(a6)
 2008090:	06a1e123 	sw	v0,120(a8)
 2008094:	b8200837 	lui	a5,0x4010
 2008098:	80200837 	lui	v0,0x4010
 200809c:	f8200837 	lui	a13,0x4010
 20080a0:	d4013803 	lb	a8,78(v0)
 20080a4:	c5c12003 	lb	a6,72(a5)
 20080a8:	00ac5023 	sb	a4,20(s0)
 20080ac:	bfc11403 	lb	a5,69(a13)
 20080b0:	b0200837 	lui	a4,0x4010
 20080b4:	80200837 	lui	v0,0x4010
 20080b8:	f8200837 	lui	a13,0x4010
 20080bc:	cd812c03 	lb	a7,75(a4)
 20080c0:	b400ac03 	lb	a4,43(v0)
 20080c4:	87c0d803 	lb	v0,54(a13)
 20080c8:	f8200837 	lui	a13,0x4010
 20080cc:	ffc0ce03 	lbu	a13,51(a13)
 20080d0:	013cf823 	sb	a12,62(s2)
 20080d4:	01babc23 	sb	a11,47(s4)
 20080d8:	03be9c23 	sb	a13,39(sp)
 20080dc:	f8200837 	lui	a13,0x4010
 20080e0:	ffc0c603 	lbu	a13,49(a13)
 20080e4:	e3806103 	lw	a10,24(sp)
 20080e8:	03be9823 	sb	a13,38(sp)
 20080ec:	f8200837 	lui	a13,0x4010
 20080f0:	ffc0a003 	lb	a13,40(a13)
 20080f4:	03bef123 	sw	a13,60(sp)
 20080f8:	f8200837 	lui	a13,0x4010
 20080fc:	07fd6c23 	sb	a12,91(a13)
 2008100:	f0200837 	lui	a12,0x4010
 2008104:	07bb6423 	sb	a11,89(a12)
 2008108:	eb803103 	lw	a11,12(sp)
 200810c:	f8200837 	lui	a13,0x4010
 2008110:	f0200837 	lui	a12,0x4010
 2008114:	07fb5c23 	sb	a11,87(a13)
 2008118:	fb80e103 	lw	a13,56(sp)
 200811c:	e8200837 	lui	a11,0x4010
 2008120:	07774423 	sb	a9,81(a11)
 2008124:	07bf5423 	sb	a13,85(a12)
 2008128:	f0200837 	lui	a12,0x4010
 200812c:	f8200837 	lui	a13,0x4010
 2008130:	07b53c23 	sb	a8,79(a12)
 2008134:	07f53423 	sb	a8,77(a13)
 2008138:	e8200837 	lui	a11,0x4010
 200813c:	d0200837 	lui	a8,0x4010
 2008140:	03774c23 	sb	a9,83(s11)
 2008144:	d8200837 	lui	a9,0x4010
 2008148:	06b33023 	sb	a7,76(a8)
 200814c:	06f32823 	sb	a7,74(a9)
 2008150:	07712423 	sb	a6,73(a11)
 2008154:	c8200837 	lui	a7,0x4010
 2008158:	d0200837 	lui	a8,0x4010
 200815c:	ef00e603 	lbu	a11,57(a10)
 2008160:	f0200837 	lui	a12,0x4010
 2008164:	066b0823 	sb	a3,66(a7)
 2008168:	06aae823 	sb	a3,58(a8)
 200816c:	ab809e03 	lbu	a3,39(sp)
 2008170:	07b11c23 	sb	a6,71(a12)
 2008174:	f8200837 	lui	a13,0x4010
 2008178:	c0200837 	lui	a6,0x4010
 200817c:	d8200837 	lui	a9,0x4010
 2008180:	f0200837 	lui	a12,0x4010
 2008184:	07ef1823 	sb	a5,70(a13)
 2008188:	062f1023 	sb	a5,68(a6)
 200818c:	06fadc23 	sb	a11,55(a9)
 2008190:	f8200837 	lui	a13,0x4010
 2008194:	07a0d023 	sb	v0,52(a12)
 2008198:	c3809a03 	lbu	a6,38(sp)
 200819c:	c8200837 	lui	a7,0x4010
 20081a0:	d0200837 	lui	a8,0x4010
 20081a4:	e8200837 	lui	a11,0x4010
 20081a8:	f0200837 	lui	a12,0x4010
 20081ac:	07eac823 	sb	a3,50(a13)
 20081b0:	db80f103 	lw	a9,60(sp)
 20081b4:	af409403 	lb	a3,37(a11)
 20081b8:	066cb023 	sb	a4,44(a7)
 20081bc:	06aca823 	sb	a4,42(a8)
 20081c0:	b7807403 	lb	a4,29(a12)
 20081c4:	b8200837 	lui	a5,0x4010
 20081c8:	05f0c023 	sb	a6,48(a5)
 20081cc:	f8200837 	lui	a13,0x4010
 20081d0:	b8200837 	lui	a5,0x4010
 20081d4:	02f6a423 	sb	a9,41(s9)
 20081d8:	07f69c23 	sb	a9,39(a13)
 20081dc:	032a9823 	sb	a3,38(s10)
 20081e0:	05ea9023 	sb	a3,36(a5)
 20081e4:	0d8000e3 	bnez	a4,20082e4 <t4_taskB1_FH_DU+0x774>
 20081e8:	c4000013 	move	a6,v0
 20081ec:	d0200837 	lui	a8,0x4010
 20081f0:	be807203 	lbu	a5,28(a8)
 20081f4:	d8200837 	lui	a9,0x4010
 20081f8:	aec03c03 	lb	a3,15(a9)
 20081fc:	b0000413 	li	a4,1
 2008200:	bdc00413 	add	a5,a5,1
 2008204:	e8200837 	lui	a11,0x4010
 2008208:	f0000813 	li	a12,2
 200820c:	076c7423 	sb	a4,29(a11)
 2008210:	06ae7023 	sb	a5,28(a8)
 2008214:	d57c48e3 	bne	a3,a12,2007c38 <t4_taskB1_FH_DU+0xc8>
 2008218:	aac0a403 	lb	a3,41(s9)
 200821c:	05412063 	beqz	a3,20082ac <t4_taskB1_FH_DU+0x73c>
 2008220:	d0200837 	lui	a8,0x4010
 2008224:	ae809c03 	lb	a3,39(a8)
 2008228:	054108e3 	bnez	a3,20082ac <t4_taskB1_FH_DU+0x73c>
 200822c:	d8200837 	lui	a9,0x4010
 2008230:	a83e7013 	li	a3,-100
 2008234:	e8200837 	lui	a11,0x4010
 2008238:	f0200837 	lui	a12,0x4010
 200823c:	06c07423 	sb	zero,29(a9)
 2008240:	0f6a2123 	sw	a3,136(a11)
 2008244:	07ac3c23 	sb	a4,15(a12)
 2008248:	fffe8767 	j	2007c64 <t4_taskB1_FH_DU+0xf4>
 200824c:	ab009803 	lb	a3,38(s10)
 2008250:	d54028e3 	bnez	a3,2007c64 <t4_taskB1_FH_DU+0xf4>
 2008254:	c8200837 	lui	a7,0x4010
 2008258:	ae409003 	lb	a3,36(a7)
 200825c:	d5401063 	beqz	a3,2007c64 <t4_taskB1_FH_DU+0xf4>
 2008260:	d0200837 	lui	a8,0x4010
 2008264:	d8200837 	lui	a9,0x4010
 2008268:	f0000813 	li	a12,2
 200826c:	e8200837 	lui	a11,0x4010
 2008270:	06807423 	sb	zero,29(a8)
 2008274:	0ec02123 	sw	zero,136(a9)
 2008278:	077c3c23 	sb	a12,15(a11)
 200827c:	fffe7a67 	j	2007c64 <t4_taskB1_FH_DU+0xf4>
 2008280:	aac0a403 	lb	a3,41(s9)
 2008284:	cd41c0e3 	bnez	a3,2007c64 <t4_taskB1_FH_DU+0xf4>
 2008288:	f8200837 	lui	a13,0x4010
 200828c:	afc09c03 	lb	a3,39(a13)
 2008290:	cd41a863 	beqz	a3,2007c64 <t4_taskB1_FH_DU+0xf4>
 2008294:	b0200837 	lui	a4,0x4010
 2008298:	c8000813 	li	a7,2
 200829c:	07407423 	sb	zero,29(a11)
 20082a0:	0d802123 	sw	zero,136(a4)
 20082a4:	06f23c23 	sb	a7,15(a9)
 20082a8:	fffe6f67 	j	2007c64 <t4_taskB1_FH_DU+0xf4>
 20082ac:	ab009803 	lb	a3,38(s10)
 20082b0:	cd416863 	beqz	a3,2007c64 <t4_taskB1_FH_DU+0xf4>
 20082b4:	f8200837 	lui	a13,0x4010
 20082b8:	afc09003 	lb	a3,36(a13)
 20082bc:	cd4150e3 	bnez	a3,2007c64 <t4_taskB1_FH_DU+0xf4>
 20082c0:	a8200837 	lui	a3,0x4010
 20082c4:	05407423 	sb	zero,29(a3)
 20082c8:	b0200837 	lui	a4,0x4010
 20082cc:	a8019013 	li	a3,100
 20082d0:	0daa2123 	sw	a3,136(a4)
 20082d4:	b8200837 	lui	a5,0x4010
 20082d8:	a8000c13 	li	a3,3
 20082dc:	05ea3c23 	sb	a3,15(a5)
 20082e0:	fffe6167 	j	2007c64 <t4_taskB1_FH_DU+0xf4>
 20082e4:	0b81d103 	lw	ra,116(sp)
 20082e8:	1381c103 	lw	s0,112(sp)
 20082ec:	1b81b103 	lw	s1,108(sp)
 20082f0:	2381a103 	lw	s2,104(sp)
 20082f4:	2b819103 	lw	s3,100(sp)
 20082f8:	33818103 	lw	s4,96(sp)
 20082fc:	3b817103 	lw	s5,92(sp)
 2008300:	43816103 	lw	s6,88(sp)
 2008304:	4b815103 	lw	s7,84(sp)
 2008308:	53814103 	lw	s8,80(sp)
 200830c:	5b813103 	lw	s9,76(sp)
 2008310:	63812103 	lw	s10,72(sp)
 2008314:	6b811103 	lw	s11,68(sp)
 2008318:	7381e013 	add	sp,sp,120
 200831c:	004000eb 	ret

02008320 <t4_taskB1_main>:
 2008320:	73bfe013 	add	sp,sp,-8
 2008324:	03840123 	sw	s0,0(sp)
 2008328:	03821123 	sw	ra,4(sp)
 200832c:	10021813 	li	s0,134
 2008330:	10bffc13 	add	s0,s0,-1
 2008334:	fffa636f 	jal	2006cc0 <t4_taskB1_init>
 2008338:	fffa006f 	jal	2006b38 <t4_taskB1_interface>
 200833c:	fffe0d6f 	jal	2007b70 <t4_taskB1_FH_DU>
 2008340:	f881e0e3 	bnez	s0,2008330 <t4_taskB1_main+0x10>
 2008344:	0b801103 	lw	ra,4(sp)
 2008348:	80000013 	li	v0,0
 200834c:	13800103 	lw	s0,0(sp)
 2008350:	73802013 	add	sp,sp,8
 2008354:	004000eb 	ret

02008358 <t4_taskB2_interface>:
 2008358:	80200837 	lui	v0,0x4010
 200835c:	8c06f013 	add	v1,v0,444
 2008360:	94401003 	lb	a0,4(v1)
 2008364:	0c805063 	beqz	a0,200848c <t4_taskB2_interface+0x134>
 2008368:	88200837 	lui	v1,0x4010
 200836c:	8c446103 	lw	v1,280(v1)
 2008370:	90200837 	lui	a0,0x4010
 2008374:	1ca2c123 	sw	v1,432(a0)
 2008378:	90200837 	lui	a0,0x4010
 200837c:	1ca2d123 	sw	v1,436(a0)
 2008380:	90200837 	lui	a0,0x4010
 2008384:	8c86b103 	lw	v1,428(a0)
 2008388:	04404863 	beqz	v1,20083ac <t4_taskB2_interface+0x54>
 200838c:	98200837 	lui	a1,0x4010
 2008390:	9cc46103 	lw	a1,280(a1)
 2008394:	8ce30033 	sub	v1,a1,v1
 2008398:	8c40f0d3 	fcvt.d.wu	fv1,v1
 200839c:	88200037 	lui	v1,0x4000
 20083a0:	84400187 	fld	fv0,0(v1)
 20083a4:	8c2370d3 	fle.d	v1,fv0,fv1
 20083a8:	0c4050e3 	bnez	v1,20084d0 <t4_taskB2_interface+0x178>
 20083ac:	90200837 	lui	a0,0x4010
 20083b0:	8c86a103 	lw	v1,424(a0)
 20083b4:	04404863 	beqz	v1,20083d8 <t4_taskB2_interface+0x80>
 20083b8:	98200837 	lui	a1,0x4010
 20083bc:	9cc46103 	lw	a1,280(a1)
 20083c0:	8ce30033 	sub	v1,a1,v1
 20083c4:	8c40f0d3 	fcvt.d.wu	fv1,v1
 20083c8:	88200037 	lui	v1,0x4000
 20083cc:	84400187 	fld	fv0,0(v1)
 20083d0:	8c2370d3 	fle.d	v1,fv0,fv1
 20083d4:	0441d8e3 	bnez	v1,20084c0 <t4_taskB2_interface+0x168>
 20083d8:	90200837 	lui	a0,0x4010
 20083dc:	8c869103 	lw	v1,420(a0)
 20083e0:	04404863 	beqz	v1,2008404 <t4_taskB2_interface+0xac>
 20083e4:	98200837 	lui	a1,0x4010
 20083e8:	9cc46103 	lw	a1,280(a1)
 20083ec:	8ce30033 	sub	v1,a1,v1
 20083f0:	8c40f0d3 	fcvt.d.wu	fv1,v1
 20083f4:	88200037 	lui	v1,0x4000
 20083f8:	84400187 	fld	fv0,0(v1)
 20083fc:	8c2370d3 	fle.d	v1,fv0,fv1
 2008400:	044160e3 	bnez	v1,20084b0 <t4_taskB2_interface+0x158>
 2008404:	90200837 	lui	a0,0x4010
 2008408:	8c865103 	lw	v1,404(a0)
 200840c:	04404863 	beqz	v1,2008430 <t4_taskB2_interface+0xd8>
 2008410:	98200837 	lui	a1,0x4010
 2008414:	9cc46103 	lw	a1,280(a1)
 2008418:	8ce30033 	sub	v1,a1,v1
 200841c:	8c40f0d3 	fcvt.d.wu	fv1,v1
 2008420:	88200037 	lui	v1,0x4000
 2008424:	84400187 	fld	fv0,0(v1)
 2008428:	8c2370d3 	fle.d	v1,fv0,fv1
 200842c:	0440f8e3 	bnez	v1,20084a8 <t4_taskB2_interface+0x150>
 2008430:	90200837 	lui	a0,0x4010
 2008434:	8c864103 	lw	v1,400(a0)
 2008438:	04404863 	beqz	v1,200845c <t4_taskB2_interface+0x104>
 200843c:	98200837 	lui	a1,0x4010
 2008440:	9cc46103 	lw	a1,280(a1)
 2008444:	8ce30033 	sub	v1,a1,v1
 2008448:	8c40f0d3 	fcvt.d.wu	fv1,v1
 200844c:	88200037 	lui	v1,0x4000
 2008450:	84400187 	fld	fv0,0(v1)
 2008454:	8c2370d3 	fle.d	v1,fv0,fv1
 2008458:	044090e3 	bnez	v1,20084a0 <t4_taskB2_interface+0x148>
 200845c:	8406f003 	lb	v0,444(v0)
 2008460:	040030e3 	bnez	v0,2008478 <t4_taskB2_interface+0x120>
 2008464:	80200837 	lui	v0,0x4010
 2008468:	8c059103 	lw	v1,356(v0)
 200846c:	80200837 	lui	v0,0x4010
 2008470:	84057103 	lw	v0,348(v0)
 2008474:	04602863 	beq	v1,v0,2008488 <t4_taskB2_interface+0x130>
 2008478:	80200837 	lui	v0,0x4010
 200847c:	8c046103 	lw	v1,280(v0)
 2008480:	80200837 	lui	v0,0x4010
 2008484:	1c22e123 	sw	v1,440(v0)
 2008488:	004000eb 	ret
 200848c:	8c401803 	lb	v1,6(v1)
 2008490:	f441e063 	beqz	v1,2008380 <t4_taskB2_interface+0x28>
 2008494:	88200837 	lui	v1,0x4010
 2008498:	8c446103 	lw	v1,280(v1)
 200849c:	ffffb767 	j	2008378 <t4_taskB2_interface+0x20>
 20084a0:	1c804123 	sw	zero,400(a0)
 20084a4:	ffffee67 	j	200845c <t4_taskB2_interface+0x104>
 20084a8:	1c805123 	sw	zero,404(a0)
 20084ac:	ffffe167 	j	2008430 <t4_taskB2_interface+0xd8>
 20084b0:	88200837 	lui	v1,0x4010
 20084b4:	14410023 	sb	zero,320(v1)
 20084b8:	1c809123 	sw	zero,420(a0)
 20084bc:	ffffd267 	j	2008404 <t4_taskB2_interface+0xac>
 20084c0:	88200837 	lui	v1,0x4010
 20084c4:	14410023 	sb	zero,320(v1)
 20084c8:	1c80a123 	sw	zero,424(a0)
 20084cc:	ffffc367 	j	20083d8 <t4_taskB2_interface+0x80>
 20084d0:	88200837 	lui	v1,0x4010
 20084d4:	1440f423 	sb	zero,317(v1)
 20084d8:	1c80b123 	sw	zero,428(a0)
 20084dc:	ffffb467 	j	20083ac <t4_taskB2_interface+0x54>

020084e0 <t4_taskB2_init>:
 20084e0:	80200837 	lui	v0,0x4010
 20084e4:	1c00e123 	sw	zero,440(v0)
 20084e8:	80200837 	lui	v0,0x4010
 20084ec:	1c00d123 	sw	zero,436(v0)
 20084f0:	80200837 	lui	v0,0x4010
 20084f4:	1c00c123 	sw	zero,432(v0)
 20084f8:	80200837 	lui	v0,0x4010
 20084fc:	14004c23 	sb	zero,275(v0)
 2008500:	80200837 	lui	v0,0x4010
 2008504:	14004823 	sb	zero,274(v0)
 2008508:	80200837 	lui	v0,0x4010
 200850c:	14004423 	sb	zero,273(v0)
 2008510:	80200837 	lui	v0,0x4010
 2008514:	14004023 	sb	zero,272(v0)
 2008518:	80200837 	lui	v0,0x4010
 200851c:	14003c23 	sb	zero,271(v0)
 2008520:	80200837 	lui	v0,0x4010
 2008524:	14003823 	sb	zero,270(v0)
 2008528:	80200837 	lui	v0,0x4010
 200852c:	14003423 	sb	zero,269(v0)
 2008530:	80200837 	lui	v0,0x4010
 2008534:	14003023 	sb	zero,268(v0)
 2008538:	80200837 	lui	v0,0x4010
 200853c:	14002c23 	sb	zero,267(v0)
 2008540:	80200837 	lui	v0,0x4010
 2008544:	14002823 	sb	zero,266(v0)
 2008548:	80200837 	lui	v0,0x4010
 200854c:	14002423 	sb	zero,265(v0)
 2008550:	80200837 	lui	v0,0x4010
 2008554:	14002023 	sb	zero,264(v0)
 2008558:	80200837 	lui	v0,0x4010
 200855c:	14001c23 	sb	zero,263(v0)
 2008560:	80200837 	lui	v0,0x4010
 2008564:	14001823 	sb	zero,262(v0)
 2008568:	80200837 	lui	v0,0x4010
 200856c:	14001423 	sb	zero,261(v0)
 2008570:	80200837 	lui	v0,0x4010
 2008574:	14001023 	sb	zero,260(v0)
 2008578:	004000eb 	ret

0200857c <t4_taskB2_generic_KINDERSICHERUNG_CTRL>:
 200857c:	80200837 	lui	v0,0x4010
 2008580:	84071803 	lb	v0,454(v0)
 2008584:	04006063 	beqz	v0,20085b4 <t4_taskB2_generic_KINDERSICHERUNG_CTRL+0x38>
 2008588:	88200837 	lui	v1,0x4010
 200858c:	84444003 	lb	v0,272(v1)
 2008590:	90000813 	li	a0,2
 2008594:	04244863 	beq	v0,a0,20085b8 <t4_taskB2_generic_KINDERSICHERUNG_CTRL+0x3c>
 2008598:	98000c13 	li	a1,3
 200859c:	0427a863 	beq	v0,a1,2008670 <t4_taskB2_generic_KINDERSICHERUNG_CTRL+0xf4>
 20085a0:	90000413 	li	a0,1
 20085a4:	04249063 	beq	v0,a0,20085ec <t4_taskB2_generic_KINDERSICHERUNG_CTRL+0x70>
 20085a8:	80200837 	lui	v0,0x4010
 20085ac:	14005423 	sb	zero,277(v0)
 20085b0:	14664023 	sb	a1,272(v1)
 20085b4:	004000eb 	ret
 20085b8:	80200837 	lui	v0,0x4010
 20085bc:	84053803 	lb	v0,334(v0)
 20085c0:	040020e3 	bnez	v0,20085d0 <t4_taskB2_generic_KINDERSICHERUNG_CTRL+0x54>
 20085c4:	90200837 	lui	a0,0x4010
 20085c8:	94854803 	lb	a0,338(a0)
 20085cc:	1480d863 	beqz	a0,2008838 <t4_taskB2_generic_KINDERSICHERUNG_CTRL+0x2bc>
 20085d0:	88200837 	lui	v1,0x4010
 20085d4:	94444403 	lb	a0,273(v1)
 20085d8:	98000413 	li	a1,1
 20085dc:	0ca61863 	beq	a0,a1,20086e8 <t4_taskB2_generic_KINDERSICHERUNG_CTRL+0x16c>
 20085e0:	80200837 	lui	v0,0x4010
 20085e4:	14005423 	sb	zero,277(v0)
 20085e8:	004000eb 	ret
 20085ec:	80200837 	lui	v0,0x4010
 20085f0:	84054003 	lb	v0,336(v0)
 20085f4:	040020e3 	bnez	v0,2008604 <t4_taskB2_generic_KINDERSICHERUNG_CTRL+0x88>
 20085f8:	90200837 	lui	a0,0x4010
 20085fc:	94855003 	lb	a0,340(a0)
 2008600:	14802063 	beqz	a0,2008810 <t4_taskB2_generic_KINDERSICHERUNG_CTRL+0x294>
 2008604:	88200837 	lui	v1,0x4010
 2008608:	94444803 	lb	a0,274(v1)
 200860c:	98000413 	li	a1,1
 2008610:	fca7a0e3 	bne	a0,a1,20085e0 <t4_taskB2_generic_KINDERSICHERUNG_CTRL+0x64>
 2008614:	04005063 	beqz	v0,200863c <t4_taskB2_generic_KINDERSICHERUNG_CTRL+0xc0>
 2008618:	98200837 	lui	a1,0x4010
 200861c:	9cc53c03 	lb	a1,335(a1)
 2008620:	04c038e3 	bnez	a1,200863c <t4_taskB2_generic_KINDERSICHERUNG_CTRL+0xc0>
 2008624:	80200837 	lui	v0,0x4010
 2008628:	14005423 	sb	zero,277(v0)
 200862c:	80200837 	lui	v0,0x4010
 2008630:	14250c23 	sb	a0,323(v0)
 2008634:	14644823 	sb	a0,274(v1)
 2008638:	004000eb 	ret
 200863c:	90200837 	lui	a0,0x4010
 2008640:	94855003 	lb	a0,340(a0)
 2008644:	0c80a863 	beqz	a0,2008798 <t4_taskB2_generic_KINDERSICHERUNG_CTRL+0x21c>
 2008648:	98200837 	lui	a1,0x4010
 200864c:	9cc54c03 	lb	a1,339(a1)
 2008650:	0cc090e3 	bnez	a1,2008798 <t4_taskB2_generic_KINDERSICHERUNG_CTRL+0x21c>
 2008654:	90200837 	lui	a0,0x4010
 2008658:	80000413 	li	v0,1
 200865c:	14805423 	sb	zero,277(a0)
 2008660:	90200837 	lui	a0,0x4010
 2008664:	14a11823 	sb	v0,326(a0)
 2008668:	14604823 	sb	v0,274(v1)
 200866c:	004000eb 	ret
 2008670:	80200837 	lui	v0,0x4010
 2008674:	84053003 	lb	v0,332(v0)
 2008678:	040070e3 	bnez	v0,20086b0 <t4_taskB2_generic_KINDERSICHERUNG_CTRL+0x134>
 200867c:	98200837 	lui	a1,0x4010
 2008680:	9cc54803 	lb	a1,338(a1)
 2008684:	04c1d863 	beqz	a1,2008770 <t4_taskB2_generic_KINDERSICHERUNG_CTRL+0x1f4>
 2008688:	80200837 	lui	v0,0x4010
 200868c:	84053803 	lb	v0,334(v0)
 2008690:	140060e3 	bnez	v0,20088c0 <t4_taskB2_generic_KINDERSICHERUNG_CTRL+0x344>
 2008694:	80200837 	lui	v0,0x4010
 2008698:	14005423 	sb	zero,277(v0)
 200869c:	98000413 	li	a1,1
 20086a0:	80200837 	lui	v0,0x4010
 20086a4:	14271823 	sb	a1,326(v0)
 20086a8:	14644023 	sb	a0,272(v1)
 20086ac:	004000eb 	ret
 20086b0:	90200837 	lui	a0,0x4010
 20086b4:	94855003 	lb	a0,340(a0)
 20086b8:	048118e3 	bnez	a0,2008744 <t4_taskB2_generic_KINDERSICHERUNG_CTRL+0x1c8>
 20086bc:	90200837 	lui	a0,0x4010
 20086c0:	94854003 	lb	a0,336(a0)
 20086c4:	f481e063 	beqz	a0,20085b4 <t4_taskB2_generic_KINDERSICHERUNG_CTRL+0x38>
 20086c8:	f401d8e3 	bnez	v0,20085b4 <t4_taskB2_generic_KINDERSICHERUNG_CTRL+0x38>
 20086cc:	90200837 	lui	a0,0x4010
 20086d0:	80000413 	li	v0,1
 20086d4:	14805423 	sb	zero,277(a0)
 20086d8:	90200837 	lui	a0,0x4010
 20086dc:	14a10c23 	sb	v0,323(a0)
 20086e0:	14604023 	sb	v0,272(v1)
 20086e4:	004000eb 	ret
 20086e8:	04005063 	beqz	v0,2008710 <t4_taskB2_generic_KINDERSICHERUNG_CTRL+0x194>
 20086ec:	98200837 	lui	a1,0x4010
 20086f0:	9cc53403 	lb	a1,333(a1)
 20086f4:	04c038e3 	bnez	a1,2008710 <t4_taskB2_generic_KINDERSICHERUNG_CTRL+0x194>
 20086f8:	80200837 	lui	v0,0x4010
 20086fc:	14005423 	sb	zero,277(v0)
 2008700:	80200837 	lui	v0,0x4010
 2008704:	14250c23 	sb	a0,323(v0)
 2008708:	14644423 	sb	a0,273(v1)
 200870c:	004000eb 	ret
 2008710:	90200837 	lui	a0,0x4010
 2008714:	94854803 	lb	a0,338(a0)
 2008718:	04817863 	beqz	a0,20087d4 <t4_taskB2_generic_KINDERSICHERUNG_CTRL+0x258>
 200871c:	98200837 	lui	a1,0x4010
 2008720:	9cc54403 	lb	a1,337(a1)
 2008724:	04c160e3 	bnez	a1,20087d4 <t4_taskB2_generic_KINDERSICHERUNG_CTRL+0x258>
 2008728:	90200837 	lui	a0,0x4010
 200872c:	80000413 	li	v0,1
 2008730:	14805423 	sb	zero,277(a0)
 2008734:	90200837 	lui	a0,0x4010
 2008738:	14a11823 	sb	v0,326(a0)
 200873c:	14604423 	sb	v0,273(v1)
 2008740:	004000eb 	ret
 2008744:	90200837 	lui	a0,0x4010
 2008748:	94854003 	lb	a0,336(a0)
 200874c:	0c8030e3 	bnez	a0,2008864 <t4_taskB2_generic_KINDERSICHERUNG_CTRL+0x2e8>
 2008750:	f400c8e3 	bnez	v0,20085b4 <t4_taskB2_generic_KINDERSICHERUNG_CTRL+0x38>
 2008754:	90200837 	lui	a0,0x4010
 2008758:	80000413 	li	v0,1
 200875c:	14805423 	sb	zero,277(a0)
 2008760:	90200837 	lui	a0,0x4010
 2008764:	14a11823 	sb	v0,326(a0)
 2008768:	14604023 	sb	v0,272(v1)
 200876c:	004000eb 	ret
 2008770:	98200837 	lui	a1,0x4010
 2008774:	9cc53803 	lb	a1,334(a1)
 2008778:	fcc07063 	beqz	a1,20086b0 <t4_taskB2_generic_KINDERSICHERUNG_CTRL+0x134>
 200877c:	80200837 	lui	v0,0x4010
 2008780:	14005423 	sb	zero,277(v0)
 2008784:	98000413 	li	a1,1
 2008788:	80200837 	lui	v0,0x4010
 200878c:	14270c23 	sb	a1,323(v0)
 2008790:	14644023 	sb	a0,272(v1)
 2008794:	004000eb 	ret
 2008798:	040020e3 	bnez	v0,20087a8 <t4_taskB2_generic_KINDERSICHERUNG_CTRL+0x22c>
 200879c:	80200837 	lui	v0,0x4010
 20087a0:	84053c03 	lb	v0,335(v0)
 20087a4:	0401c8e3 	bnez	v0,2008888 <t4_taskB2_generic_KINDERSICHERUNG_CTRL+0x30c>
 20087a8:	f48018e3 	bnez	a0,20085b4 <t4_taskB2_generic_KINDERSICHERUNG_CTRL+0x38>
 20087ac:	80200837 	lui	v0,0x4010
 20087b0:	84054c03 	lb	v0,339(v0)
 20087b4:	f4000063 	beqz	v0,20085b4 <t4_taskB2_generic_KINDERSICHERUNG_CTRL+0x38>
 20087b8:	80200837 	lui	v0,0x4010
 20087bc:	14005423 	sb	zero,277(v0)
 20087c0:	80200837 	lui	v0,0x4010
 20087c4:	14011823 	sb	zero,326(v0)
 20087c8:	80000413 	li	v0,1
 20087cc:	14604823 	sb	v0,274(v1)
 20087d0:	004000eb 	ret
 20087d4:	040020e3 	bnez	v0,20087e4 <t4_taskB2_generic_KINDERSICHERUNG_CTRL+0x268>
 20087d8:	80200837 	lui	v0,0x4010
 20087dc:	84053403 	lb	v0,333(v0)
 20087e0:	040188e3 	bnez	v0,20088a4 <t4_taskB2_generic_KINDERSICHERUNG_CTRL+0x328>
 20087e4:	ec81a0e3 	bnez	a0,20085b4 <t4_taskB2_generic_KINDERSICHERUNG_CTRL+0x38>
 20087e8:	80200837 	lui	v0,0x4010
 20087ec:	84054403 	lb	v0,337(v0)
 20087f0:	ec018863 	beqz	v0,20085b4 <t4_taskB2_generic_KINDERSICHERUNG_CTRL+0x38>
 20087f4:	80200837 	lui	v0,0x4010
 20087f8:	14005423 	sb	zero,277(v0)
 20087fc:	80200837 	lui	v0,0x4010
 2008800:	14011823 	sb	zero,326(v0)
 2008804:	80000413 	li	v0,1
 2008808:	14604423 	sb	v0,273(v1)
 200880c:	004000eb 	ret
 2008810:	80200837 	lui	v0,0x4010
 2008814:	14005423 	sb	zero,277(v0)
 2008818:	80200837 	lui	v0,0x4010
 200881c:	14011823 	sb	zero,326(v0)
 2008820:	80200837 	lui	v0,0x4010
 2008824:	14010c23 	sb	zero,323(v0)
 2008828:	80200837 	lui	v0,0x4010
 200882c:	14664023 	sb	a1,272(v1)
 2008830:	14004823 	sb	zero,274(v0)
 2008834:	004000eb 	ret
 2008838:	80200837 	lui	v0,0x4010
 200883c:	14005423 	sb	zero,277(v0)
 2008840:	80200837 	lui	v0,0x4010
 2008844:	14011823 	sb	zero,326(v0)
 2008848:	80200837 	lui	v0,0x4010
 200884c:	14010c23 	sb	zero,323(v0)
 2008850:	80000c13 	li	v0,3
 2008854:	14604023 	sb	v0,272(v1)
 2008858:	80200837 	lui	v0,0x4010
 200885c:	14004423 	sb	zero,273(v0)
 2008860:	004000eb 	ret
 2008864:	90200837 	lui	a0,0x4010
 2008868:	80000413 	li	v0,1
 200886c:	14805423 	sb	zero,277(a0)
 2008870:	90200837 	lui	a0,0x4010
 2008874:	14a10c23 	sb	v0,323(a0)
 2008878:	90200837 	lui	a0,0x4010
 200887c:	14a11823 	sb	v0,326(a0)
 2008880:	14604023 	sb	v0,272(v1)
 2008884:	004000eb 	ret
 2008888:	80200837 	lui	v0,0x4010
 200888c:	14005423 	sb	zero,277(v0)
 2008890:	80200837 	lui	v0,0x4010
 2008894:	14010c23 	sb	zero,323(v0)
 2008898:	80000413 	li	v0,1
 200889c:	14604823 	sb	v0,274(v1)
 20088a0:	004000eb 	ret
 20088a4:	80200837 	lui	v0,0x4010
 20088a8:	14005423 	sb	zero,277(v0)
 20088ac:	80200837 	lui	v0,0x4010
 20088b0:	14010c23 	sb	zero,323(v0)
 20088b4:	80000413 	li	v0,1
 20088b8:	14604423 	sb	v0,273(v1)
 20088bc:	004000eb 	ret
 20088c0:	98200837 	lui	a1,0x4010
 20088c4:	80000413 	li	v0,1
 20088c8:	14c05423 	sb	zero,277(a1)
 20088cc:	98200837 	lui	a1,0x4010
 20088d0:	14e11823 	sb	v0,326(a1)
 20088d4:	98200837 	lui	a1,0x4010
 20088d8:	14e10c23 	sb	v0,323(a1)
 20088dc:	14644023 	sb	a0,272(v1)
 20088e0:	004000eb 	ret

020088e4 <t4_taskB2_generic_FH_TUERMODUL_CTRL>:
 20088e4:	80200837 	lui	v0,0x4010
 20088e8:	8406f013 	add	v0,v0,444
 20088ec:	8c003403 	lb	v1,13(v0)
 20088f0:	044048e3 	bnez	v1,2008914 <t4_taskB2_generic_FH_TUERMODUL_CTRL+0x30>
 20088f4:	8c003c03 	lb	v1,15(v0)
 20088f8:	04403063 	beqz	v1,2008910 <t4_taskB2_generic_FH_TUERMODUL_CTRL+0x2c>
 20088fc:	8c003803 	lb	v1,14(v0)
 2008900:	044020e3 	bnez	v1,2008910 <t4_taskB2_generic_FH_TUERMODUL_CTRL+0x2c>
 2008904:	04001023 	sb	zero,4(v0)
 2008908:	04001823 	sb	zero,6(v0)
 200890c:	004000eb 	ret
 2008910:	004000eb 	ret
 2008914:	8c002803 	lb	v1,10(v0)
 2008918:	044020e3 	bnez	v1,2008928 <t4_taskB2_generic_FH_TUERMODUL_CTRL+0x44>
 200891c:	90000c13 	li	a0,3
 2008920:	88200837 	lui	v1,0x4010
 2008924:	14644023 	sb	a0,272(v1)
 2008928:	8c004c03 	lb	v1,19(v0)
 200892c:	044030e3 	bnez	v1,2008944 <t4_taskB2_generic_FH_TUERMODUL_CTRL+0x60>
 2008930:	88200837 	lui	v1,0x4010
 2008934:	1c40f023 	sb	zero,444(v1)
 2008938:	90000413 	li	a0,1
 200893c:	88200837 	lui	v1,0x4010
 2008940:	14641023 	sb	a0,260(v1)
 2008944:	98200837 	lui	a1,0x4010
 2008948:	8cc43c03 	lb	v1,271(a1)
 200894c:	90000413 	li	a0,1
 2008950:	a0000813 	li	a2,2
 2008954:	04242c23 	sb	a0,11(v0)
 2008958:	04245023 	sb	a0,20(v0)
 200895c:	04693863 	beq	v1,a2,20089f8 <t4_taskB2_generic_FH_TUERMODUL_CTRL+0x114>
 2008960:	a8000c13 	li	a3,3
 2008964:	0c6a2063 	beq	v1,a3,2008a74 <t4_taskB2_generic_FH_TUERMODUL_CTRL+0x190>
 2008968:	90000413 	li	a0,1
 200896c:	0465a863 	beq	v1,a0,2008a40 <t4_taskB2_generic_FH_TUERMODUL_CTRL+0x15c>
 2008970:	88200837 	lui	v1,0x4010
 2008974:	14405423 	sb	zero,277(v1)
 2008978:	14e83c23 	sb	a2,271(a1)
 200897c:	90200837 	lui	a0,0x4010
 2008980:	9c843803 	lb	a1,270(a0)
 2008984:	88000413 	li	v1,1
 2008988:	04e26863 	beq	a1,v1,20089bc <t4_taskB2_generic_FH_TUERMODUL_CTRL+0xd8>
 200898c:	98200837 	lui	a1,0x4010
 2008990:	14c05423 	sb	zero,277(a1)
 2008994:	14a23823 	sb	v1,270(a0)
 2008998:	98200837 	lui	a1,0x4010
 200899c:	90200837 	lui	a0,0x4010
 20089a0:	1cc08123 	sw	zero,416(a1)
 20089a4:	14a23423 	sb	v1,269(a0)
 20089a8:	94001203 	lbu	a0,4(v0)
 20089ac:	8c001a03 	lbu	v1,6(v0)
 20089b0:	04241423 	sb	a0,5(v0)
 20089b4:	04221c23 	sb	v1,7(v0)
 20089b8:	004000eb 	ret
 20089bc:	88200837 	lui	v1,0x4010
 20089c0:	8c445003 	lb	v1,276(v1)
 20089c4:	0c67e063 	beq	v1,a1,2008bb4 <t4_taskB2_generic_FH_TUERMODUL_CTRL+0x2d0>
 20089c8:	90200837 	lui	a0,0x4010
 20089cc:	a4843403 	lb	a2,269(a0)
 20089d0:	98000413 	li	a1,1
 20089d4:	0d270863 	beq	a2,a1,2008b58 <t4_taskB2_generic_FH_TUERMODUL_CTRL+0x274>
 20089d8:	88200837 	lui	v1,0x4010
 20089dc:	14405423 	sb	zero,277(v1)
 20089e0:	14a63423 	sb	a1,269(a0)
 20089e4:	8c001a03 	lbu	v1,6(v0)
 20089e8:	94001203 	lbu	a0,4(v0)
 20089ec:	04221c23 	sb	v1,7(v0)
 20089f0:	04241423 	sb	a0,5(v0)
 20089f4:	004000eb 	ret
 20089f8:	88200837 	lui	v1,0x4010
 20089fc:	8c452c03 	lb	v1,331(v1)
 2008a00:	04402063 	beqz	v1,2008a10 <t4_taskB2_generic_FH_TUERMODUL_CTRL+0x12c>
 2008a04:	88200837 	lui	v1,0x4010
 2008a08:	8c452403 	lb	v1,329(v1)
 2008a0c:	14401063 	beqz	v1,2008c14 <t4_taskB2_generic_FH_TUERMODUL_CTRL+0x330>
 2008a10:	90200837 	lui	a0,0x4010
 2008a14:	8c844c03 	lb	v1,275(a0)
 2008a18:	98000813 	li	a1,2
 2008a1c:	14675863 	beq	v1,a1,2008cc8 <t4_taskB2_generic_FH_TUERMODUL_CTRL+0x3e4>
 2008a20:	a0000c13 	li	a2,3
 2008a24:	1468f863 	beq	v1,a2,2008ca0 <t4_taskB2_generic_FH_TUERMODUL_CTRL+0x3bc>
 2008a28:	98000413 	li	a1,1
 2008a2c:	14665063 	beq	v1,a1,2008c54 <t4_taskB2_generic_FH_TUERMODUL_CTRL+0x370>
 2008a30:	88200837 	lui	v1,0x4010
 2008a34:	14405423 	sb	zero,277(v1)
 2008a38:	14a84c23 	sb	a2,275(a0)
 2008a3c:	ffffd067 	j	200897c <t4_taskB2_generic_FH_TUERMODUL_CTRL+0x98>
 2008a40:	88200837 	lui	v1,0x4010
 2008a44:	8c468103 	lw	v1,416(v1)
 2008a48:	9000ec13 	li	a0,59
 2008a4c:	fc6460e3 	bne	v1,a0,200897c <t4_taskB2_generic_FH_TUERMODUL_CTRL+0x98>
 2008a50:	90200837 	lui	a0,0x4010
 2008a54:	94866103 	lw	a0,408(a0)
 2008a58:	fca24863 	beq	a0,v1,200897c <t4_taskB2_generic_FH_TUERMODUL_CTRL+0x98>
 2008a5c:	88200837 	lui	v1,0x4010
 2008a60:	14405423 	sb	zero,277(v1)
 2008a64:	88200837 	lui	v1,0x4010
 2008a68:	14ea3c23 	sb	a3,271(a1)
 2008a6c:	146a3023 	sb	a3,268(v1)
 2008a70:	ffffc367 	j	200897c <t4_taskB2_generic_FH_TUERMODUL_CTRL+0x98>
 2008a74:	88200837 	lui	v1,0x4010
 2008a78:	8c468103 	lw	v1,416(v1)
 2008a7c:	8c40f513 	slt	v1,v1,61
 2008a80:	044098e3 	bnez	v1,2008acc <t4_taskB2_generic_FH_TUERMODUL_CTRL+0x1e8>
 2008a84:	88200837 	lui	v1,0x4010
 2008a88:	8c466103 	lw	v1,408(v1)
 2008a8c:	8c40f513 	slt	v1,v1,61
 2008a90:	04407863 	beqz	v1,2008acc <t4_taskB2_generic_FH_TUERMODUL_CTRL+0x1e8>
 2008a94:	88200837 	lui	v1,0x4010
 2008a98:	8c455c03 	lb	v1,343(v1)
 2008a9c:	044060e3 	bnez	v1,2008acc <t4_taskB2_generic_FH_TUERMODUL_CTRL+0x1e8>
 2008aa0:	88200837 	lui	v1,0x4010
 2008aa4:	8c456403 	lb	v1,345(v1)
 2008aa8:	044048e3 	bnez	v1,2008acc <t4_taskB2_generic_FH_TUERMODUL_CTRL+0x1e8>
 2008aac:	88200837 	lui	v1,0x4010
 2008ab0:	14405423 	sb	zero,277(v1)
 2008ab4:	88200837 	lui	v1,0x4010
 2008ab8:	14410023 	sb	zero,320(v1)
 2008abc:	88200837 	lui	v1,0x4010
 2008ac0:	1440f423 	sb	zero,317(v1)
 2008ac4:	14e43c23 	sb	a0,271(a1)
 2008ac8:	ffffad67 	j	200897c <t4_taskB2_generic_FH_TUERMODUL_CTRL+0x98>
 2008acc:	88200837 	lui	v1,0x4010
 2008ad0:	8c452c03 	lb	v1,331(v1)
 2008ad4:	0440a863 	beqz	v1,2008b28 <t4_taskB2_generic_FH_TUERMODUL_CTRL+0x244>
 2008ad8:	88200837 	lui	v1,0x4010
 2008adc:	8c452403 	lb	v1,329(v1)
 2008ae0:	044090e3 	bnez	v1,2008b28 <t4_taskB2_generic_FH_TUERMODUL_CTRL+0x244>
 2008ae4:	88200837 	lui	v1,0x4010
 2008ae8:	8c44f803 	lb	v1,318(v1)
 2008aec:	1441d863 	beqz	v1,2008dd8 <t4_taskB2_generic_FH_TUERMODUL_CTRL+0x4f4>
 2008af0:	88200837 	lui	v1,0x4010
 2008af4:	94446103 	lw	a0,280(v1)
 2008af8:	88200837 	lui	v1,0x4010
 2008afc:	14405423 	sb	zero,277(v1)
 2008b00:	88200837 	lui	v1,0x4010
 2008b04:	1440f423 	sb	zero,317(v1)
 2008b08:	88200837 	lui	v1,0x4010
 2008b0c:	1c64b123 	sw	a0,428(v1)
 2008b10:	88000813 	li	v1,2
 2008b14:	14e23c23 	sb	v1,271(a1)
 2008b18:	90000c13 	li	a0,3
 2008b1c:	88200837 	lui	v1,0x4010
 2008b20:	14644c23 	sb	a0,275(v1)
 2008b24:	ffff9667 	j	200897c <t4_taskB2_generic_FH_TUERMODUL_CTRL+0x98>
 2008b28:	90200837 	lui	a0,0x4010
 2008b2c:	8c843003 	lb	v1,268(a0)
 2008b30:	98000813 	li	a1,2
 2008b34:	14662063 	beq	v1,a1,2008d44 <t4_taskB2_generic_FH_TUERMODUL_CTRL+0x460>
 2008b38:	a0000c13 	li	a2,3
 2008b3c:	0c696863 	beq	v1,a2,2008cf0 <t4_taskB2_generic_FH_TUERMODUL_CTRL+0x40c>
 2008b40:	a8000413 	li	a3,1
 2008b44:	0c6a6863 	beq	v1,a3,2008c78 <t4_taskB2_generic_FH_TUERMODUL_CTRL+0x394>
 2008b48:	88200837 	lui	v1,0x4010
 2008b4c:	14405423 	sb	zero,277(v1)
 2008b50:	14a83023 	sb	a2,268(a0)
 2008b54:	ffff8a67 	j	200897c <t4_taskB2_generic_FH_TUERMODUL_CTRL+0x98>
 2008b58:	f468a0e3 	bne	v1,a2,20089a8 <t4_taskB2_generic_FH_TUERMODUL_CTRL+0xc4>
 2008b5c:	98200837 	lui	a1,0x4010
 2008b60:	9cc6c103 	lw	a1,432(a1)
 2008b64:	f4c08863 	beqz	a1,20089a8 <t4_taskB2_generic_FH_TUERMODUL_CTRL+0xc4>
 2008b68:	a0200837 	lui	a2,0x4010
 2008b6c:	a5046103 	lw	a2,280(a2)
 2008b70:	a53ff413 	add	a2,a2,-3
 2008b74:	f4e868e3 	bne	a1,a2,20089a8 <t4_taskB2_generic_FH_TUERMODUL_CTRL+0xc4>
 2008b78:	98200837 	lui	a1,0x4010
 2008b7c:	9cc50403 	lb	a1,321(a1)
 2008b80:	f4c050e3 	bnez	a1,20089a8 <t4_taskB2_generic_FH_TUERMODUL_CTRL+0xc4>
 2008b84:	98200837 	lui	a1,0x4010
 2008b88:	9cc4f803 	lb	a1,318(a1)
 2008b8c:	f4c038e3 	bnez	a1,20089a8 <t4_taskB2_generic_FH_TUERMODUL_CTRL+0xc4>
 2008b90:	98200837 	lui	a1,0x4010
 2008b94:	a4c68103 	lw	a2,416(a1)
 2008b98:	f02822e3 	blez	a2,20089a8 <t4_taskB2_generic_FH_TUERMODUL_CTRL+0xc4>
 2008b9c:	a53ffc13 	add	a2,a2,-1
 2008ba0:	a8200837 	lui	a3,0x4010
 2008ba4:	15405423 	sb	zero,277(a3)
 2008ba8:	1ce88123 	sw	a2,416(a1)
 2008bac:	14a23423 	sb	v1,269(a0)
 2008bb0:	ffff7e67 	j	20089a8 <t4_taskB2_generic_FH_TUERMODUL_CTRL+0xc4>
 2008bb4:	98200837 	lui	a1,0x4010
 2008bb8:	9cc6d103 	lw	a1,436(a1)
 2008bbc:	f4c01863 	beqz	a1,20089c8 <t4_taskB2_generic_FH_TUERMODUL_CTRL+0xe4>
 2008bc0:	a0200837 	lui	a2,0x4010
 2008bc4:	a5046103 	lw	a2,280(a2)
 2008bc8:	9d270033 	sub	a1,a2,a1
 2008bcc:	ece3f8e3 	bne	a1,v1,20089c8 <t4_taskB2_generic_FH_TUERMODUL_CTRL+0xe4>
 2008bd0:	98200837 	lui	a1,0x4010
 2008bd4:	9cc50403 	lb	a1,321(a1)
 2008bd8:	04c020e3 	bnez	a1,2008be8 <t4_taskB2_generic_FH_TUERMODUL_CTRL+0x304>
 2008bdc:	98200837 	lui	a1,0x4010
 2008be0:	9cc4f803 	lb	a1,318(a1)
 2008be4:	ecc1c863 	beqz	a1,20089c8 <t4_taskB2_generic_FH_TUERMODUL_CTRL+0xe4>
 2008be8:	98200837 	lui	a1,0x4010
 2008bec:	a4c68103 	lw	a2,416(a1)
 2008bf0:	88000413 	li	v1,1
 2008bf4:	a8200837 	lui	a3,0x4010
 2008bf8:	a5000413 	add	a2,a2,1
 2008bfc:	14a23823 	sb	v1,270(a0)
 2008c00:	90200837 	lui	a0,0x4010
 2008c04:	15405423 	sb	zero,277(a3)
 2008c08:	1ce88123 	sw	a2,416(a1)
 2008c0c:	14a23423 	sb	v1,269(a0)
 2008c10:	ffff6667 	j	20089a8 <t4_taskB2_generic_FH_TUERMODUL_CTRL+0xc4>
 2008c14:	88200837 	lui	v1,0x4010
 2008c18:	8c450403 	lb	v1,321(v1)
 2008c1c:	ec41e863 	beqz	v1,2008a10 <t4_taskB2_generic_FH_TUERMODUL_CTRL+0x12c>
 2008c20:	88200837 	lui	v1,0x4010
 2008c24:	a4446103 	lw	a2,280(v1)
 2008c28:	90200837 	lui	a0,0x4010
 2008c2c:	14805423 	sb	zero,277(a0)
 2008c30:	90200837 	lui	a0,0x4010
 2008c34:	14810023 	sb	zero,320(a0)
 2008c38:	90200837 	lui	a0,0x4010
 2008c3c:	88000c13 	li	v1,3
 2008c40:	1ca89123 	sw	a2,420(a0)
 2008c44:	90200837 	lui	a0,0x4010
 2008c48:	14e23c23 	sb	v1,271(a1)
 2008c4c:	14a23023 	sb	v1,268(a0)
 2008c50:	ffff4b67 	j	200897c <t4_taskB2_generic_FH_TUERMODUL_CTRL+0x98>
 2008c54:	88200837 	lui	v1,0x4010
 2008c58:	8c451c03 	lb	v1,327(v1)
 2008c5c:	ec4040e3 	bnez	v1,200897c <t4_taskB2_generic_FH_TUERMODUL_CTRL+0x98>
 2008c60:	88200837 	lui	v1,0x4010
 2008c64:	14405423 	sb	zero,277(v1)
 2008c68:	88200837 	lui	v1,0x4010
 2008c6c:	14410023 	sb	zero,320(v1)
 2008c70:	14a84c23 	sb	a2,275(a0)
 2008c74:	ffff4267 	j	200897c <t4_taskB2_generic_FH_TUERMODUL_CTRL+0x98>
 2008c78:	a8200837 	lui	a3,0x4010
 2008c7c:	ad463103 	lw	a3,396(a3)
 2008c80:	ad465513 	slt	a3,a3,405
 2008c84:	0d4158e3 	bnez	a3,2008e30 <t4_taskB2_generic_FH_TUERMODUL_CTRL+0x54c>
 2008c88:	88200837 	lui	v1,0x4010
 2008c8c:	14405423 	sb	zero,277(v1)
 2008c90:	88200837 	lui	v1,0x4010
 2008c94:	1440f423 	sb	zero,317(v1)
 2008c98:	14a83023 	sb	a2,268(a0)
 2008c9c:	ffff3867 	j	200897c <t4_taskB2_generic_FH_TUERMODUL_CTRL+0x98>
 2008ca0:	88200837 	lui	v1,0x4010
 2008ca4:	8c451003 	lb	v1,324(v1)
 2008ca8:	0c40c063 	beqz	v1,2008e08 <t4_taskB2_generic_FH_TUERMODUL_CTRL+0x524>
 2008cac:	88200837 	lui	v1,0x4010
 2008cb0:	14405423 	sb	zero,277(v1)
 2008cb4:	a0000413 	li	a2,1
 2008cb8:	88200837 	lui	v1,0x4010
 2008cbc:	1468f423 	sb	a2,317(v1)
 2008cc0:	14a64c23 	sb	a1,275(a0)
 2008cc4:	ffff2e67 	j	200897c <t4_taskB2_generic_FH_TUERMODUL_CTRL+0x98>
 2008cc8:	88200837 	lui	v1,0x4010
 2008ccc:	8c451003 	lb	v1,324(v1)
 2008cd0:	e44158e3 	bnez	v1,200897c <t4_taskB2_generic_FH_TUERMODUL_CTRL+0x98>
 2008cd4:	88200837 	lui	v1,0x4010
 2008cd8:	14405423 	sb	zero,277(v1)
 2008cdc:	88200837 	lui	v1,0x4010
 2008ce0:	1440f423 	sb	zero,317(v1)
 2008ce4:	88000c13 	li	v1,3
 2008ce8:	14a24c23 	sb	v1,275(a0)
 2008cec:	ffff2467 	j	200897c <t4_taskB2_generic_FH_TUERMODUL_CTRL+0x98>
 2008cf0:	88200837 	lui	v1,0x4010
 2008cf4:	8c451c03 	lb	v1,327(v1)
 2008cf8:	04412063 	beqz	v1,2008d88 <t4_taskB2_generic_FH_TUERMODUL_CTRL+0x4a4>
 2008cfc:	88200837 	lui	v1,0x4010
 2008d00:	8c451403 	lb	v1,325(v1)
 2008d04:	044108e3 	bnez	v1,2008d88 <t4_taskB2_generic_FH_TUERMODUL_CTRL+0x4a4>
 2008d08:	88200837 	lui	v1,0x4010
 2008d0c:	8c463103 	lw	v1,396(v1)
 2008d10:	0022f2e3 	blez	v1,2008d88 <t4_taskB2_generic_FH_TUERMODUL_CTRL+0x4a4>
 2008d14:	14a63023 	sb	a1,268(a0)
 2008d18:	90200837 	lui	a0,0x4010
 2008d1c:	14a62023 	sb	a1,264(a0)
 2008d20:	90200837 	lui	a0,0x4010
 2008d24:	88000413 	li	v1,1
 2008d28:	a0200837 	lui	a2,0x4010
 2008d2c:	14a62823 	sb	a1,266(a0)
 2008d30:	90200837 	lui	a0,0x4010
 2008d34:	15005423 	sb	zero,277(a2)
 2008d38:	04224423 	sb	v1,17(v0)
 2008d3c:	14a30023 	sb	v1,320(a0)
 2008d40:	ffff0f67 	j	200897c <t4_taskB2_generic_FH_TUERMODUL_CTRL+0x98>
 2008d44:	98200837 	lui	a1,0x4010
 2008d48:	9cc63103 	lw	a1,396(a1)
 2008d4c:	08260ae3 	blez	a1,2008e50 <t4_taskB2_generic_FH_TUERMODUL_CTRL+0x56c>
 2008d50:	a8200837 	lui	a3,0x4010
 2008d54:	9d442003 	lb	a1,264(a3)
 2008d58:	a0000413 	li	a2,1
 2008d5c:	0ce8b863 	beq	a1,a2,2008eb8 <t4_taskB2_generic_FH_TUERMODUL_CTRL+0x5d4>
 2008d60:	0ce21863 	beq	a1,v1,2008e6c <t4_taskB2_generic_FH_TUERMODUL_CTRL+0x588>
 2008d64:	90200837 	lui	a0,0x4010
 2008d68:	14805423 	sb	zero,277(a0)
 2008d6c:	90200837 	lui	a0,0x4010
 2008d70:	15622023 	sb	v1,264(a3)
 2008d74:	14a22823 	sb	v1,266(a0)
 2008d78:	88200837 	lui	v1,0x4010
 2008d7c:	04284423 	sb	a2,17(v0)
 2008d80:	14690023 	sb	a2,320(v1)
 2008d84:	fffefe67 	j	200897c <t4_taskB2_generic_FH_TUERMODUL_CTRL+0x98>
 2008d88:	88200837 	lui	v1,0x4010
 2008d8c:	8c451003 	lb	v1,324(v1)
 2008d90:	dc41d863 	beqz	v1,200897c <t4_taskB2_generic_FH_TUERMODUL_CTRL+0x98>
 2008d94:	88200837 	lui	v1,0x4010
 2008d98:	8c450803 	lb	v1,322(v1)
 2008d9c:	dc41c0e3 	bnez	v1,200897c <t4_taskB2_generic_FH_TUERMODUL_CTRL+0x98>
 2008da0:	88200837 	lui	v1,0x4010
 2008da4:	8c463103 	lw	v1,396(v1)
 2008da8:	8c465513 	slt	v1,v1,405
 2008dac:	dc41a063 	beqz	v1,200897c <t4_taskB2_generic_FH_TUERMODUL_CTRL+0x98>
 2008db0:	98200837 	lui	a1,0x4010
 2008db4:	88000413 	li	v1,1
 2008db8:	14c05423 	sb	zero,277(a1)
 2008dbc:	98200837 	lui	a1,0x4010
 2008dc0:	14a23023 	sb	v1,268(a0)
 2008dc4:	14e2f423 	sb	v1,317(a1)
 2008dc8:	90000813 	li	a0,2
 2008dcc:	88200837 	lui	v1,0x4010
 2008dd0:	14642423 	sb	a0,265(v1)
 2008dd4:	fffeea67 	j	200897c <t4_taskB2_generic_FH_TUERMODUL_CTRL+0x98>
 2008dd8:	88200837 	lui	v1,0x4010
 2008ddc:	8c450403 	lb	v1,321(v1)
 2008de0:	ec409063 	beqz	v1,2008b28 <t4_taskB2_generic_FH_TUERMODUL_CTRL+0x244>
 2008de4:	88200837 	lui	v1,0x4010
 2008de8:	94446103 	lw	a0,280(v1)
 2008dec:	88200837 	lui	v1,0x4010
 2008df0:	14405423 	sb	zero,277(v1)
 2008df4:	88200837 	lui	v1,0x4010
 2008df8:	14410023 	sb	zero,320(v1)
 2008dfc:	88200837 	lui	v1,0x4010
 2008e00:	1c64a123 	sw	a0,424(v1)
 2008e04:	ffff4367 	j	2008b10 <t4_taskB2_generic_FH_TUERMODUL_CTRL+0x22c>
 2008e08:	88200837 	lui	v1,0x4010
 2008e0c:	8c451c03 	lb	v1,327(v1)
 2008e10:	dc40d863 	beqz	v1,200897c <t4_taskB2_generic_FH_TUERMODUL_CTRL+0x98>
 2008e14:	98200837 	lui	a1,0x4010
 2008e18:	88000413 	li	v1,1
 2008e1c:	14c05423 	sb	zero,277(a1)
 2008e20:	98200837 	lui	a1,0x4010
 2008e24:	14e30023 	sb	v1,320(a1)
 2008e28:	14a24c23 	sb	v1,275(a0)
 2008e2c:	fffed467 	j	200897c <t4_taskB2_generic_FH_TUERMODUL_CTRL+0x98>
 2008e30:	a8200837 	lui	a3,0x4010
 2008e34:	a5442403 	lb	a2,265(a3)
 2008e38:	0d220863 	beq	a2,v1,2008f3c <t4_taskB2_generic_FH_TUERMODUL_CTRL+0x658>
 2008e3c:	0527b063 	beq	a2,a1,2008f14 <t4_taskB2_generic_FH_TUERMODUL_CTRL+0x630>
 2008e40:	88200837 	lui	v1,0x4010
 2008e44:	14405423 	sb	zero,277(v1)
 2008e48:	15662423 	sb	a1,265(a3)
 2008e4c:	fffecc67 	j	200897c <t4_taskB2_generic_FH_TUERMODUL_CTRL+0x98>
 2008e50:	88200837 	lui	v1,0x4010
 2008e54:	14405423 	sb	zero,277(v1)
 2008e58:	88200837 	lui	v1,0x4010
 2008e5c:	14410023 	sb	zero,320(v1)
 2008e60:	88000c13 	li	v1,3
 2008e64:	14a23023 	sb	v1,268(a0)
 2008e68:	fffec567 	j	200897c <t4_taskB2_generic_FH_TUERMODUL_CTRL+0x98>
 2008e6c:	88200837 	lui	v1,0x4010
 2008e70:	8c451c03 	lb	v1,327(v1)
 2008e74:	044020e3 	bnez	v1,2008e84 <t4_taskB2_generic_FH_TUERMODUL_CTRL+0x5a0>
 2008e78:	88200837 	lui	v1,0x4010
 2008e7c:	8c451403 	lb	v1,325(v1)
 2008e80:	fc41a0e3 	bnez	v1,2008e50 <t4_taskB2_generic_FH_TUERMODUL_CTRL+0x56c>
 2008e84:	98200837 	lui	a1,0x4010
 2008e88:	94c42803 	lb	a0,266(a1)
 2008e8c:	88000413 	li	v1,1
 2008e90:	0ca2c863 	beq	a0,v1,2008ff4 <t4_taskB2_generic_FH_TUERMODUL_CTRL+0x710>
 2008e94:	a0000813 	li	a2,2
 2008e98:	0ca82863 	beq	a0,a2,2008fac <t4_taskB2_generic_FH_TUERMODUL_CTRL+0x6c8>
 2008e9c:	90200837 	lui	a0,0x4010
 2008ea0:	14805423 	sb	zero,277(a0)
 2008ea4:	90200837 	lui	a0,0x4010
 2008ea8:	14e82823 	sb	a2,266(a1)
 2008eac:	04224423 	sb	v1,17(v0)
 2008eb0:	14a30023 	sb	v1,320(a0)
 2008eb4:	fffeb267 	j	200897c <t4_taskB2_generic_FH_TUERMODUL_CTRL+0x98>
 2008eb8:	88200837 	lui	v1,0x4010
 2008ebc:	8c451003 	lb	v1,324(v1)
 2008ec0:	04402063 	beqz	v1,2008ed0 <t4_taskB2_generic_FH_TUERMODUL_CTRL+0x5ec>
 2008ec4:	88200837 	lui	v1,0x4010
 2008ec8:	8c450803 	lb	v1,322(v1)
 2008ecc:	fc410863 	beqz	v1,2008e50 <t4_taskB2_generic_FH_TUERMODUL_CTRL+0x56c>
 2008ed0:	88200837 	lui	v1,0x4010
 2008ed4:	8c451c03 	lb	v1,327(v1)
 2008ed8:	04402063 	beqz	v1,2008ee8 <t4_taskB2_generic_FH_TUERMODUL_CTRL+0x604>
 2008edc:	88200837 	lui	v1,0x4010
 2008ee0:	8c451403 	lb	v1,325(v1)
 2008ee4:	fc40d863 	beqz	v1,2008e50 <t4_taskB2_generic_FH_TUERMODUL_CTRL+0x56c>
 2008ee8:	98200837 	lui	a1,0x4010
 2008eec:	94c42c03 	lb	a0,267(a1)
 2008ef0:	88000413 	li	v1,1
 2008ef4:	0ca30863 	beq	a0,v1,2009078 <t4_taskB2_generic_FH_TUERMODUL_CTRL+0x794>
 2008ef8:	a0000813 	li	a2,2
 2008efc:	0ca86863 	beq	a0,a2,2009030 <t4_taskB2_generic_FH_TUERMODUL_CTRL+0x74c>
 2008f00:	90200837 	lui	a0,0x4010
 2008f04:	14805423 	sb	zero,277(a0)
 2008f08:	14e82c23 	sb	a2,267(a1)
 2008f0c:	04224423 	sb	v1,17(v0)
 2008f10:	fffe9b67 	j	200897c <t4_taskB2_generic_FH_TUERMODUL_CTRL+0x98>
 2008f14:	98200837 	lui	a1,0x4010
 2008f18:	9cc51c03 	lb	a1,327(a1)
 2008f1c:	04c0b063 	beqz	a1,2008f74 <t4_taskB2_generic_FH_TUERMODUL_CTRL+0x690>
 2008f20:	98200837 	lui	a1,0x4010
 2008f24:	9cc51403 	lb	a1,325(a1)
 2008f28:	04c098e3 	bnez	a1,2008f74 <t4_taskB2_generic_FH_TUERMODUL_CTRL+0x690>
 2008f2c:	90200837 	lui	a0,0x4010
 2008f30:	14805423 	sb	zero,277(a0)
 2008f34:	15622423 	sb	v1,265(a3)
 2008f38:	fffe9167 	j	200897c <t4_taskB2_generic_FH_TUERMODUL_CTRL+0x98>
 2008f3c:	88200837 	lui	v1,0x4010
 2008f40:	8c451c03 	lb	v1,327(v1)
 2008f44:	04409863 	beqz	v1,2008f90 <t4_taskB2_generic_FH_TUERMODUL_CTRL+0x6ac>
 2008f48:	88200837 	lui	v1,0x4010
 2008f4c:	8c451403 	lb	v1,325(v1)
 2008f50:	044080e3 	bnez	v1,2008f90 <t4_taskB2_generic_FH_TUERMODUL_CTRL+0x6ac>
 2008f54:	88200837 	lui	v1,0x4010
 2008f58:	14405423 	sb	zero,277(v1)
 2008f5c:	88200837 	lui	v1,0x4010
 2008f60:	1440f423 	sb	zero,317(v1)
 2008f64:	88000c13 	li	v1,3
 2008f68:	14a23023 	sb	v1,268(a0)
 2008f6c:	15402423 	sb	zero,265(a3)
 2008f70:	fffe8367 	j	200897c <t4_taskB2_generic_FH_TUERMODUL_CTRL+0x98>
 2008f74:	88200837 	lui	v1,0x4010
 2008f78:	8c451003 	lb	v1,324(v1)
 2008f7c:	d44000e3 	bnez	v1,200897c <t4_taskB2_generic_FH_TUERMODUL_CTRL+0x98>
 2008f80:	88200837 	lui	v1,0x4010
 2008f84:	8c450803 	lb	v1,322(v1)
 2008f88:	cc41e863 	beqz	v1,200897c <t4_taskB2_generic_FH_TUERMODUL_CTRL+0x98>
 2008f8c:	fffff267 	j	2008f54 <t4_taskB2_generic_FH_TUERMODUL_CTRL+0x670>
 2008f90:	88200837 	lui	v1,0x4010
 2008f94:	8c451003 	lb	v1,324(v1)
 2008f98:	cc41c863 	beqz	v1,200897c <t4_taskB2_generic_FH_TUERMODUL_CTRL+0x98>
 2008f9c:	88200837 	lui	v1,0x4010
 2008fa0:	8c450803 	lb	v1,322(v1)
 2008fa4:	cc41b0e3 	bnez	v1,200897c <t4_taskB2_generic_FH_TUERMODUL_CTRL+0x98>
 2008fa8:	ffffeb67 	j	2008f54 <t4_taskB2_generic_FH_TUERMODUL_CTRL+0x670>
 2008fac:	94006003 	lb	a0,24(v0)
 2008fb0:	0c800863 	beqz	a0,20090b4 <t4_taskB2_generic_FH_TUERMODUL_CTRL+0x7d0>
 2008fb4:	90200837 	lui	a0,0x4010
 2008fb8:	a4846103 	lw	a2,280(a0)
 2008fbc:	90200837 	lui	a0,0x4010
 2008fc0:	14805423 	sb	zero,277(a0)
 2008fc4:	90200837 	lui	a0,0x4010
 2008fc8:	14810023 	sb	zero,320(a0)
 2008fcc:	90200837 	lui	a0,0x4010
 2008fd0:	14a35823 	sb	v1,342(a0)
 2008fd4:	90200837 	lui	a0,0x4010
 2008fd8:	1ca84123 	sw	a2,400(a0)
 2008fdc:	90200837 	lui	a0,0x4010
 2008fe0:	04225c23 	sb	v1,23(v0)
 2008fe4:	14e22823 	sb	v1,266(a1)
 2008fe8:	04004423 	sb	zero,17(v0)
 2008fec:	14a2f423 	sb	v1,317(a0)
 2008ff0:	fffe6367 	j	200897c <t4_taskB2_generic_FH_TUERMODUL_CTRL+0x98>
 2008ff4:	8c005803 	lb	v1,22(v0)
 2008ff8:	04005c23 	sb	zero,23(v0)
 2008ffc:	cc410063 	beqz	v1,200897c <t4_taskB2_generic_FH_TUERMODUL_CTRL+0x98>
 2009000:	88200837 	lui	v1,0x4010
 2009004:	14405423 	sb	zero,277(v1)
 2009008:	88200837 	lui	v1,0x4010
 200900c:	14415823 	sb	zero,342(v1)
 2009010:	88000813 	li	v1,2
 2009014:	14e22823 	sb	v1,266(a1)
 2009018:	88200837 	lui	v1,0x4010
 200901c:	1440f423 	sb	zero,317(v1)
 2009020:	88200837 	lui	v1,0x4010
 2009024:	04244423 	sb	a0,17(v0)
 2009028:	14650023 	sb	a0,320(v1)
 200902c:	fffe5467 	j	200897c <t4_taskB2_generic_FH_TUERMODUL_CTRL+0x98>
 2009030:	94006003 	lb	a0,24(v0)
 2009034:	cc809063 	beqz	a0,200897c <t4_taskB2_generic_FH_TUERMODUL_CTRL+0x98>
 2009038:	90200837 	lui	a0,0x4010
 200903c:	a4846103 	lw	a2,280(a0)
 2009040:	90200837 	lui	a0,0x4010
 2009044:	14805423 	sb	zero,277(a0)
 2009048:	90200837 	lui	a0,0x4010
 200904c:	14a36023 	sb	v1,344(a0)
 2009050:	90200837 	lui	a0,0x4010
 2009054:	14810023 	sb	zero,320(a0)
 2009058:	90200837 	lui	a0,0x4010
 200905c:	1ca85123 	sw	a2,404(a0)
 2009060:	90200837 	lui	a0,0x4010
 2009064:	04225c23 	sb	v1,23(v0)
 2009068:	14e22c23 	sb	v1,267(a1)
 200906c:	04004423 	sb	zero,17(v0)
 2009070:	14a2f423 	sb	v1,317(a0)
 2009074:	fffe4267 	j	200897c <t4_taskB2_generic_FH_TUERMODUL_CTRL+0x98>
 2009078:	8c005803 	lb	v1,22(v0)
 200907c:	04005c23 	sb	zero,23(v0)
 2009080:	c441f863 	beqz	v1,200897c <t4_taskB2_generic_FH_TUERMODUL_CTRL+0x98>
 2009084:	88200837 	lui	v1,0x4010
 2009088:	14405423 	sb	zero,277(v1)
 200908c:	88200837 	lui	v1,0x4010
 2009090:	14650023 	sb	a0,320(v1)
 2009094:	88200837 	lui	v1,0x4010
 2009098:	14416023 	sb	zero,344(v1)
 200909c:	88000813 	li	v1,2
 20090a0:	14e22c23 	sb	v1,267(a1)
 20090a4:	88200837 	lui	v1,0x4010
 20090a8:	1440f423 	sb	zero,317(v1)
 20090ac:	04244423 	sb	a0,17(v0)
 20090b0:	fffe3367 	j	200897c <t4_taskB2_generic_FH_TUERMODUL_CTRL+0x98>
 20090b4:	90200837 	lui	a0,0x4010
 20090b8:	94851003 	lb	a0,324(a0)
 20090bc:	c4818063 	beqz	a0,200897c <t4_taskB2_generic_FH_TUERMODUL_CTRL+0x98>
 20090c0:	90200837 	lui	a0,0x4010
 20090c4:	94850803 	lb	a0,322(a0)
 20090c8:	c48168e3 	bnez	a0,200897c <t4_taskB2_generic_FH_TUERMODUL_CTRL+0x98>
 20090cc:	90200837 	lui	a0,0x4010
 20090d0:	14805423 	sb	zero,277(a0)
 20090d4:	15622023 	sb	v1,264(a3)
 20090d8:	14c02823 	sb	zero,266(a1)
 20090dc:	fffe2867 	j	200897c <t4_taskB2_generic_FH_TUERMODUL_CTRL+0x98>

020090e0 <t4_taskB2_generic_EINKLEMMSCHUTZ_CTRL>:
 20090e0:	80200837 	lui	v0,0x4010
 20090e4:	8406f013 	add	v0,v0,444
 20090e8:	8c004003 	lb	v1,16(v0)
 20090ec:	04405063 	beqz	v1,2009114 <t4_taskB2_generic_EINKLEMMSCHUTZ_CTRL+0x34>
 20090f0:	90200837 	lui	a0,0x4010
 20090f4:	8c841803 	lb	v1,262(a0)
 20090f8:	98000413 	li	a1,1
 20090fc:	04663863 	beq	v1,a1,2009118 <t4_taskB2_generic_EINKLEMMSCHUTZ_CTRL+0x38>
 2009100:	a0000813 	li	a2,2
 2009104:	0468c063 	beq	v1,a2,2009164 <t4_taskB2_generic_EINKLEMMSCHUTZ_CTRL+0x84>
 2009108:	80200837 	lui	v0,0x4010
 200910c:	14005423 	sb	zero,277(v0)
 2009110:	14a61823 	sb	a1,262(a0)
 2009114:	004000eb 	ret
 2009118:	88200837 	lui	v1,0x4010
 200911c:	8c44ec03 	lb	v1,315(v1)
 2009120:	fc41e863 	beqz	v1,2009114 <t4_taskB2_generic_EINKLEMMSCHUTZ_CTRL+0x34>
 2009124:	88200837 	lui	v1,0x4010
 2009128:	8c44e803 	lb	v1,314(v1)
 200912c:	fc41d0e3 	bnez	v1,2009114 <t4_taskB2_generic_EINKLEMMSCHUTZ_CTRL+0x34>
 2009130:	88200837 	lui	v1,0x4010
 2009134:	8c451c03 	lb	v1,327(v1)
 2009138:	04402063 	beqz	v1,2009148 <t4_taskB2_generic_EINKLEMMSCHUTZ_CTRL+0x68>
 200913c:	88200837 	lui	v1,0x4010
 2009140:	8c451003 	lb	v1,324(v1)
 2009144:	fc41a0e3 	bnez	v1,2009114 <t4_taskB2_generic_EINKLEMMSCHUTZ_CTRL+0x34>
 2009148:	88200837 	lui	v1,0x4010
 200914c:	14405423 	sb	zero,277(v1)
 2009150:	88000413 	li	v1,1
 2009154:	04226023 	sb	v1,24(v0)
 2009158:	80000813 	li	v0,2
 200915c:	14a01823 	sb	v0,262(a0)
 2009160:	004000eb 	ret
 2009164:	88200837 	lui	v1,0x4010
 2009168:	8c44ec03 	lb	v1,315(v1)
 200916c:	04006023 	sb	zero,24(v0)
 2009170:	fc4148e3 	bnez	v1,2009114 <t4_taskB2_generic_EINKLEMMSCHUTZ_CTRL+0x34>
 2009174:	80200837 	lui	v0,0x4010
 2009178:	8404e803 	lb	v0,314(v0)
 200917c:	fc013063 	beqz	v0,2009114 <t4_taskB2_generic_EINKLEMMSCHUTZ_CTRL+0x34>
 2009180:	80200837 	lui	v0,0x4010
 2009184:	14005423 	sb	zero,277(v0)
 2009188:	14a61823 	sb	a1,262(a0)
 200918c:	004000eb 	ret

02009190 <t4_taskB2_generic_BLOCK_ERKENNUNG_CTRL>:
 2009190:	88200837 	lui	v1,0x4010
 2009194:	8446f013 	add	v0,v1,444
 2009198:	94004c03 	lb	a0,19(v0)
 200919c:	048038e3 	bnez	a0,20091b8 <t4_taskB2_generic_BLOCK_ERKENNUNG_CTRL+0x28>
 20091a0:	94005403 	lb	a0,21(v0)
 20091a4:	04807063 	beqz	a0,20091dc <t4_taskB2_generic_BLOCK_ERKENNUNG_CTRL+0x4c>
 20091a8:	84005003 	lb	v0,20(v0)
 20091ac:	040060e3 	bnez	v0,20091dc <t4_taskB2_generic_BLOCK_ERKENNUNG_CTRL+0x4c>
 20091b0:	1c40f023 	sb	zero,444(v1)
 20091b4:	004000eb 	ret
 20091b8:	90200837 	lui	a0,0x4010
 20091bc:	84841003 	lb	v0,260(a0)
 20091c0:	98000413 	li	a1,1
 20091c4:	04263863 	beq	v0,a1,20091e0 <t4_taskB2_generic_BLOCK_ERKENNUNG_CTRL+0x50>
 20091c8:	a0000813 	li	a2,2
 20091cc:	0428d863 	beq	v0,a2,2009238 <t4_taskB2_generic_BLOCK_ERKENNUNG_CTRL+0xa8>
 20091d0:	80200837 	lui	v0,0x4010
 20091d4:	14005423 	sb	zero,277(v0)
 20091d8:	14a61023 	sb	a1,260(a0)
 20091dc:	004000eb 	ret
 20091e0:	98200837 	lui	a1,0x4010
 20091e4:	a0200837 	lui	a2,0x4010
 20091e8:	9cc62103 	lw	a1,392(a1)
 20091ec:	a5061103 	lw	a2,388(a2)
 20091f0:	fce9d863 	beq	a1,a2,20091dc <t4_taskB2_generic_BLOCK_ERKENNUNG_CTRL+0x4c>
 20091f4:	f827d2e3 	blez	a1,20091dc <t4_taskB2_generic_BLOCK_ERKENNUNG_CTRL+0x4c>
 20091f8:	98200837 	lui	a1,0x4010
 20091fc:	14c05423 	sb	zero,277(a1)
 2009200:	98200837 	lui	a1,0x4010
 2009204:	14c12823 	sb	zero,330(a1)
 2009208:	98000813 	li	a1,2
 200920c:	14a61023 	sb	a1,260(a0)
 2009210:	90200837 	lui	a0,0x4010
 2009214:	98000813 	li	a1,2
 2009218:	14819123 	sw	zero,356(a0)
 200921c:	90200837 	lui	a0,0x4010
 2009220:	14a7b123 	sw	a1,364(a0)
 2009224:	98000c13 	li	a1,3
 2009228:	90200837 	lui	a0,0x4010
 200922c:	14a61423 	sb	a1,261(a0)
 2009230:	1c60f023 	sb	v0,444(v1)
 2009234:	004000eb 	ret
 2009238:	80200837 	lui	v0,0x4010
 200923c:	8404f803 	lb	v0,318(v0)
 2009240:	0400c063 	beqz	v0,20092a0 <t4_taskB2_generic_BLOCK_ERKENNUNG_CTRL+0x110>
 2009244:	80200837 	lui	v0,0x4010
 2009248:	84050403 	lb	v0,321(v0)
 200924c:	040020e3 	bnez	v0,200925c <t4_taskB2_generic_BLOCK_ERKENNUNG_CTRL+0xcc>
 2009250:	80200837 	lui	v0,0x4010
 2009254:	8404fc03 	lb	v0,319(v0)
 2009258:	0400a8e3 	bnez	v0,20092ac <t4_taskB2_generic_BLOCK_ERKENNUNG_CTRL+0x11c>
 200925c:	90200837 	lui	a0,0x4010
 2009260:	84841403 	lb	v0,261(a0)
 2009264:	98000813 	li	a1,2
 2009268:	0427b063 	beq	v0,a1,2009340 <t4_taskB2_generic_BLOCK_ERKENNUNG_CTRL+0x1b0>
 200926c:	a0000c13 	li	a2,3
 2009270:	0428b863 	beq	v0,a2,20092cc <t4_taskB2_generic_BLOCK_ERKENNUNG_CTRL+0x13c>
 2009274:	a8000413 	li	a3,1
 2009278:	042aa063 	beq	v0,a3,20092c8 <t4_taskB2_generic_BLOCK_ERKENNUNG_CTRL+0x138>
 200927c:	80200837 	lui	v0,0x4010
 2009280:	14005423 	sb	zero,277(v0)
 2009284:	80200837 	lui	v0,0x4010
 2009288:	14019123 	sw	zero,356(v0)
 200928c:	80200837 	lui	v0,0x4010
 2009290:	1427b123 	sw	a1,364(v0)
 2009294:	14a81423 	sb	a2,261(a0)
 2009298:	1c6af023 	sb	a3,444(v1)
 200929c:	004000eb 	ret
 20092a0:	80200837 	lui	v0,0x4010
 20092a4:	8404f003 	lb	v0,316(v0)
 20092a8:	fc013863 	beqz	v0,2009244 <t4_taskB2_generic_BLOCK_ERKENNUNG_CTRL+0xb4>
 20092ac:	80200837 	lui	v0,0x4010
 20092b0:	14005423 	sb	zero,277(v0)
 20092b4:	80000413 	li	v0,1
 20092b8:	14a01023 	sb	v0,260(a0)
 20092bc:	80200837 	lui	v0,0x4010
 20092c0:	14001423 	sb	zero,261(v0)
 20092c4:	004000eb 	ret
 20092c8:	004000eb 	ret
 20092cc:	a0200837 	lui	a2,0x4010
 20092d0:	85059103 	lw	v0,356(a2)
 20092d4:	1c40f023 	sb	zero,444(v1)
 20092d8:	88002c13 	li	v1,11
 20092dc:	04233063 	beq	v0,v1,2009374 <t4_taskB2_generic_BLOCK_ERKENNUNG_CTRL+0x1e4>
 20092e0:	88200837 	lui	v1,0x4010
 20092e4:	94445003 	lb	a0,276(v1)
 20092e8:	88000413 	li	v1,1
 20092ec:	f4a3e0e3 	bne	a0,v1,20091dc <t4_taskB2_generic_BLOCK_ERKENNUNG_CTRL+0x4c>
 20092f0:	88200837 	lui	v1,0x4010
 20092f4:	8c46e103 	lw	v1,440(v1)
 20092f8:	f441c863 	beqz	v1,20091dc <t4_taskB2_generic_BLOCK_ERKENNUNG_CTRL+0x4c>
 20092fc:	90200837 	lui	a0,0x4010
 2009300:	94846103 	lw	a0,280(a0)
 2009304:	8ca30033 	sub	v1,a0,v1
 2009308:	8c40f0d3 	fcvt.d.wu	fv1,v1
 200930c:	88200037 	lui	v1,0x4000
 2009310:	84402187 	fld	fv0,8(v1)
 2009314:	8c6150d3 	feq.d	v1,fv1,fv0
 2009318:	f4418863 	beqz	v1,20091dc <t4_taskB2_generic_BLOCK_ERKENNUNG_CTRL+0x4c>
 200931c:	88200837 	lui	v1,0x4010
 2009320:	90200837 	lui	a0,0x4010
 2009324:	94862103 	lw	a0,392(a0)
 2009328:	9c45b103 	lw	a1,364(v1)
 200932c:	84000413 	add	v0,v0,1
 2009330:	15219123 	sw	v0,356(a2)
 2009334:	f4e552e3 	ble	a0,a1,20091dc <t4_taskB2_generic_BLOCK_ERKENNUNG_CTRL+0x4c>
 2009338:	1465b123 	sw	a0,364(v1)
 200933c:	004000eb 	ret
 2009340:	80200837 	lui	v0,0x4010
 2009344:	8c05b103 	lw	v1,364(v0)
 2009348:	80200837 	lui	v0,0x4010
 200934c:	84062103 	lw	v0,392(v0)
 2009350:	8c7ffc13 	add	v1,v1,-1
 2009354:	f4231263 	blt	v0,v1,20091dc <t4_taskB2_generic_BLOCK_ERKENNUNG_CTRL+0x4c>
 2009358:	88200837 	lui	v1,0x4010
 200935c:	80000413 	li	v0,1
 2009360:	14405423 	sb	zero,277(v1)
 2009364:	88200837 	lui	v1,0x4010
 2009368:	14612823 	sb	v0,330(v1)
 200936c:	14a01423 	sb	v0,261(a0)
 2009370:	004000eb 	ret
 2009374:	88200837 	lui	v1,0x4010
 2009378:	8c457103 	lw	v1,348(v1)
 200937c:	fc60c863 	beq	v1,v0,20092e0 <t4_taskB2_generic_BLOCK_ERKENNUNG_CTRL+0x150>
 2009380:	80200837 	lui	v0,0x4010
 2009384:	14005423 	sb	zero,277(v0)
 2009388:	14a61423 	sb	a1,261(a0)
 200938c:	004000eb 	ret

02009390 <t4_taskB2_FH_DU>:
 2009390:	73be2013 	add	sp,sp,-120
 2009394:	0385c123 	sw	s0,112(sp)
 2009398:	10200837 	lui	s0,0x4010
 200939c:	0387b123 	sw	s1,108(sp)
 20093a0:	0389a123 	sw	s2,104(sp)
 20093a4:	038b9123 	sw	s3,100(sp)
 20093a8:	038d8123 	sw	s4,96(sp)
 20093ac:	038f7123 	sw	s5,92(sp)
 20093b0:	03916123 	sw	s6,88(sp)
 20093b4:	03935123 	sw	s7,84(sp)
 20093b8:	03954123 	sw	s8,80(sp)
 20093bc:	03973123 	sw	s9,76(sp)
 20093c0:	03992123 	sw	s10,72(sp)
 20093c4:	039b1123 	sw	s11,68(sp)
 20093c8:	0383d123 	sw	ra,116(sp)
 20093cc:	1086f013 	add	s0,s0,444
 20093d0:	88000413 	li	v1,1
 20093d4:	80200837 	lui	v0,0x4010
 20093d8:	14226123 	sw	v1,280(v0)
 20093dc:	a8804003 	lb	a3,16(s0)
 20093e0:	88802803 	lb	v1,10(s0)
 20093e4:	b0804c03 	lb	a4,19(s0)
 20093e8:	b8803403 	lb	a5,13(s0)
 20093ec:	80200837 	lui	v0,0x4010
 20093f0:	c0200837 	lui	a6,0x4010
 20093f4:	c8200837 	lui	a7,0x4010
 20093f8:	14005023 	sb	zero,276(v0)
 20093fc:	03a2a123 	sw	v1,40(sp)
 2009400:	8604b803 	lb	v0,302(a6)
 2009404:	03aac123 	sw	a3,48(sp)
 2009408:	03acd123 	sw	a4,52(sp)
 200940c:	03aeb123 	sw	a5,44(sp)
 2009410:	c644b003 	lb	a6,300(a7)
 2009414:	58200837 	lui	s9,0x4010
 2009418:	60200837 	lui	s10,0x4010
 200941c:	20200837 	lui	s2,0x4010
 2009420:	e0200837 	lui	a10,0x4010
 2009424:	18200837 	lui	s1,0x4010
 2009428:	50200837 	lui	s8,0x4010
 200942c:	48200837 	lui	s7,0x4010
 2009430:	40200837 	lui	s6,0x4010
 2009434:	38200837 	lui	s5,0x4010
 2009438:	30200837 	lui	s4,0x4010
 200943c:	28200837 	lui	s3,0x4010
 2009440:	a0200837 	lui	a2,0x4010
 2009444:	98200837 	lui	a1,0x4010
 2009448:	90200837 	lui	a0,0x4010
 200944c:	88200837 	lui	v1,0x4010
 2009450:	68200837 	lui	s11,0x4010
 2009454:	00016e67 	j	2009a0c <t4_taskB2_FH_DU+0x67c>
 2009458:	b0000c13 	li	a4,3
 200945c:	356c2063 	beq	a3,a4,2009a6c <t4_taskB2_FH_DU+0x6dc>
 2009460:	b0000413 	li	a4,1
 2009464:	356c7863 	beq	a3,a4,2009aa0 <t4_taskB2_FH_DU+0x710>
 2009468:	f8200837 	lui	a13,0x4010
 200946c:	a8200837 	lui	a3,0x4010
 2009470:	b8000813 	li	a5,2
 2009474:	b0200837 	lui	a4,0x4010
 2009478:	17c05423 	sb	zero,277(a13)
 200947c:	1d400123 	sw	zero,384(a3)
 2009480:	15ae1c23 	sb	a5,263(a4)
 2009484:	cb80a103 	lw	a7,40(sp)
 2009488:	064020e3 	bnez	a7,2009498 <t4_taskB2_FH_DU+0x108>
 200948c:	a8000c13 	li	a3,3
 2009490:	d0200837 	lui	a8,0x4010
 2009494:	16aa4023 	sb	a3,272(a8)
 2009498:	db80c103 	lw	a9,48(sp)
 200949c:	06c020e3 	bnez	a9,20094ac <t4_taskB2_FH_DU+0x11c>
 20094a0:	b0000413 	li	a4,1
 20094a4:	a8200837 	lui	a3,0x4010
 20094a8:	156c1823 	sb	a4,262(a3)
 20094ac:	eb80d103 	lw	a11,52(sp)
 20094b0:	074030e3 	bnez	a11,20094c8 <t4_taskB2_FH_DU+0x138>
 20094b4:	a8200837 	lui	a3,0x4010
 20094b8:	1d40f023 	sb	zero,444(a3)
 20094bc:	b0000413 	li	a4,1
 20094c0:	a8200837 	lui	a3,0x4010
 20094c4:	156c1023 	sb	a4,260(a3)
 20094c8:	f380b103 	lw	a12,44(sp)
 20094cc:	078070e3 	bnez	a12,2009504 <t4_taskB2_FH_DU+0x174>
 20094d0:	b0000813 	li	a4,2
 20094d4:	f8200837 	lui	a13,0x4010
 20094d8:	a8000413 	li	a3,1
 20094dc:	17ec3c23 	sb	a4,271(a13)
 20094e0:	b0200837 	lui	a4,0x4010
 20094e4:	b8200837 	lui	a5,0x4010
 20094e8:	15aa3823 	sb	a3,270(a4)
 20094ec:	b0200837 	lui	a4,0x4010
 20094f0:	00801023 	sb	zero,4(s0)
 20094f4:	00801823 	sb	zero,6(s0)
 20094f8:	1dc08123 	sw	zero,416(a5)
 20094fc:	00aa1423 	sb	a3,5(s0)
 2009500:	15aa3423 	sb	a3,269(a4)
 2009504:	a8000413 	li	a3,1
 2009508:	00aa2c23 	sb	a3,11(s0)
 200950c:	00aa4423 	sb	a3,17(s0)
 2009510:	00aa5023 	sb	a3,20(s0)
 2009514:	00aa3823 	sb	a3,14(s0)
 2009518:	04302863 	beq	v0,a6,200952c <t4_taskB2_FH_DU+0x19c>
 200951c:	a8200837 	lui	a3,0x4010
 2009520:	ad449403 	lb	a3,293(a3)
 2009524:	054010e3 	bnez	a3,200952c <t4_taskB2_FH_DU+0x19c>
 2009528:	1120d823 	sb	v0,310(s2)
 200952c:	c0200837 	lui	a6,0x4010
 2009530:	c8200837 	lui	a7,0x4010
 2009534:	8604ac03 	lb	v0,299(a6)
 2009538:	ae44a803 	lb	a3,298(a7)
 200953c:	05603063 	beq	a3,v0,2009554 <t4_taskB2_FH_DU+0x1c4>
 2009540:	a8200837 	lui	a3,0x4010
 2009544:	ad449403 	lb	a3,293(a3)
 2009548:	05401863 	beqz	a3,2009554 <t4_taskB2_FH_DU+0x1c4>
 200954c:	d0200837 	lui	a8,0x4010
 2009550:	16a0b823 	sb	v0,302(a8)
 2009554:	d8200837 	lui	a9,0x4010
 2009558:	8704c403 	lb	v0,305(a10)
 200955c:	aec4bc03 	lb	a3,303(a9)
 2009560:	05602863 	beq	a3,v0,2009574 <t4_taskB2_FH_DU+0x1e4>
 2009564:	a8200837 	lui	a3,0x4010
 2009568:	ad449403 	lb	a3,293(a3)
 200956c:	054010e3 	bnez	a3,2009574 <t4_taskB2_FH_DU+0x1e4>
 2009570:	10e0d423 	sb	v0,309(s1)
 2009574:	e8200837 	lui	a11,0x4010
 2009578:	f0200837 	lui	a12,0x4010
 200957c:	8744a403 	lb	v0,297(a11)
 2009580:	af84a003 	lb	a3,296(a12)
 2009584:	05602863 	beq	a3,v0,2009598 <t4_taskB2_FH_DU+0x208>
 2009588:	a8200837 	lui	a3,0x4010
 200958c:	ad449403 	lb	a3,293(a3)
 2009590:	05401063 	beqz	a3,2009598 <t4_taskB2_FH_DU+0x208>
 2009594:	1720c423 	sb	v0,305(a10)
 2009598:	d8803203 	lbu	a9,12(s0)
 200959c:	d0803e03 	lbu	a8,15(s0)
 20095a0:	c8804a03 	lbu	a7,18(s0)
 20095a4:	c0805603 	lbu	a6,21(s0)
 20095a8:	ba449a03 	lbu	a5,294(s7)
 20095ac:	b0c4d603 	lbu	a4,309(s1)
 20095b0:	a9849e03 	lbu	a3,295(s4)
 20095b4:	8104da03 	lbu	v0,310(s2)
 20095b8:	00b62823 	sb	a9,10(s0)
 20095bc:	00b43423 	sb	a8,13(s0)
 20095c0:	00b24023 	sb	a7,16(s0)
 20095c4:	00b04c23 	sb	a6,19(s0)
 20095c8:	12af3823 	sb	a5,334(s8)
 20095cc:	03b86123 	sw	a10,24(sp)
 20095d0:	122d4023 	sb	a4,336(s6)
 20095d4:	11eb4823 	sb	a3,338(s5)
 20095d8:	11615023 	sb	v0,340(s3)
 20095dc:	03a25123 	sw	v1,20(sp)
 20095e0:	03a48123 	sw	a0,32(sp)
 20095e4:	03a64123 	sw	a1,16(sp)
 20095e8:	03a87123 	sw	a2,28(sp)
 20095ec:	fffbe46f 	jal	200857c <t4_taskB2_generic_KINDERSICHERUNG_CTRL>
 20095f0:	a3807103 	lw	a2,28(sp)
 20095f4:	9b804103 	lw	a1,16(sp)
 20095f8:	f8200837 	lui	a13,0x4010
 20095fc:	80200837 	lui	v0,0x4010
 2009600:	0fc4fa03 	lbu	ra,318(a13)
 2009604:	93808103 	lw	a0,32(sp)
 2009608:	fc050603 	lbu	a13,321(v0)
 200960c:	8b805103 	lw	v1,20(sp)
 2009610:	f5062103 	lw	a12,392(a2)
 2009614:	a8200837 	lui	a3,0x4010
 2009618:	ed44ee03 	lbu	a11,315(a3)
 200961c:	dcc63103 	lw	a9,396(a1)
 2009620:	d4852203 	lbu	a8,328(a0)
 2009624:	ac453203 	lbu	a3,332(v1)
 2009628:	ca853a03 	lbu	a7,334(s8)
 200962c:	c2054203 	lbu	a6,336(s6)
 2009630:	b9c54a03 	lbu	a5,338(s5)
 2009634:	b1455203 	lbu	a4,340(s3)
 2009638:	83452e03 	lbu	v0,331(s11)
 200963c:	12fe8423 	sb	a13,289(s9)
 2009640:	f8200837 	lui	a13,0x4010
 2009644:	17fdd123 	sw	a12,372(a13)
 2009648:	f8200837 	lui	a13,0x4010
 200964c:	f0200837 	lui	a12,0x4010
 2009650:	17bacc23 	sb	a11,307(a12)
 2009654:	17f7e123 	sw	a9,376(a13)
 2009658:	e8200837 	lui	a11,0x4010
 200965c:	d8200837 	lui	a9,0x4010
 2009660:	f0200837 	lui	a12,0x4010
 2009664:	16f4d023 	sb	a8,308(a9)
 2009668:	176adc23 	sb	a3,311(a11)
 200966c:	17a09023 	sb	v0,292(a12)
 2009670:	13027823 	sb	ra,286(s10)
 2009674:	12729823 	sb	a7,294(s7)
 2009678:	10f0d423 	sb	a6,309(s1)
 200967c:	11ae9c23 	sb	a5,295(s4)
 2009680:	112cd823 	sb	a4,310(s2)
 2009684:	fffc986f 	jal	20088e4 <t4_taskB2_generic_FH_TUERMODUL_CTRL>
 2009688:	a3807103 	lw	a2,28(sp)
 200968c:	9b804103 	lw	a1,16(sp)
 2009690:	f8200837 	lui	a13,0x4010
 2009694:	80200837 	lui	v0,0x4010
 2009698:	0fc4fa03 	lbu	ra,318(a13)
 200969c:	93808103 	lw	a0,32(sp)
 20096a0:	fc050603 	lbu	a13,321(v0)
 20096a4:	8b805103 	lw	v1,20(sp)
 20096a8:	f5062103 	lw	a12,392(a2)
 20096ac:	a8200837 	lui	a3,0x4010
 20096b0:	ed44ee03 	lbu	a11,315(a3)
 20096b4:	dcc63103 	lw	a9,396(a1)
 20096b8:	d4852203 	lbu	a8,328(a0)
 20096bc:	ac453203 	lbu	a3,332(v1)
 20096c0:	ca853a03 	lbu	a7,334(s8)
 20096c4:	c2054203 	lbu	a6,336(s6)
 20096c8:	b9c54a03 	lbu	a5,338(s5)
 20096cc:	b1455203 	lbu	a4,340(s3)
 20096d0:	83452e03 	lbu	v0,331(s11)
 20096d4:	12fe8423 	sb	a13,289(s9)
 20096d8:	f8200837 	lui	a13,0x4010
 20096dc:	17fdd123 	sw	a12,372(a13)
 20096e0:	f8200837 	lui	a13,0x4010
 20096e4:	f0200837 	lui	a12,0x4010
 20096e8:	17bacc23 	sb	a11,307(a12)
 20096ec:	17f7e123 	sw	a9,376(a13)
 20096f0:	e8200837 	lui	a11,0x4010
 20096f4:	d8200837 	lui	a9,0x4010
 20096f8:	f0200837 	lui	a12,0x4010
 20096fc:	16f4d023 	sb	a8,308(a9)
 2009700:	176adc23 	sb	a3,311(a11)
 2009704:	17a09023 	sb	v0,292(a12)
 2009708:	13027823 	sb	ra,286(s10)
 200970c:	12729823 	sb	a7,294(s7)
 2009710:	10f0d423 	sb	a6,309(s1)
 2009714:	11ae9c23 	sb	a5,295(s4)
 2009718:	112cd823 	sb	a4,310(s2)
 200971c:	fffe716f 	jal	20090e0 <t4_taskB2_generic_EINKLEMMSCHUTZ_CTRL>
 2009720:	a3807103 	lw	a2,28(sp)
 2009724:	9b804103 	lw	a1,16(sp)
 2009728:	f8200837 	lui	a13,0x4010
 200972c:	80200837 	lui	v0,0x4010
 2009730:	0fc4fa03 	lbu	ra,318(a13)
 2009734:	93808103 	lw	a0,32(sp)
 2009738:	fc050603 	lbu	a13,321(v0)
 200973c:	8b805103 	lw	v1,20(sp)
 2009740:	f5062103 	lw	a12,392(a2)
 2009744:	a8200837 	lui	a3,0x4010
 2009748:	ed44ee03 	lbu	a11,315(a3)
 200974c:	dcc63103 	lw	a9,396(a1)
 2009750:	d4852203 	lbu	a8,328(a0)
 2009754:	ac453203 	lbu	a3,332(v1)
 2009758:	ca853a03 	lbu	a7,334(s8)
 200975c:	c2054203 	lbu	a6,336(s6)
 2009760:	b9c54a03 	lbu	a5,338(s5)
 2009764:	b1455203 	lbu	a4,340(s3)
 2009768:	83452e03 	lbu	v0,331(s11)
 200976c:	12fe8423 	sb	a13,289(s9)
 2009770:	f8200837 	lui	a13,0x4010
 2009774:	17fdd123 	sw	a12,372(a13)
 2009778:	f8200837 	lui	a13,0x4010
 200977c:	f0200837 	lui	a12,0x4010
 2009780:	17bacc23 	sb	a11,307(a12)
 2009784:	17f7e123 	sw	a9,376(a13)
 2009788:	e8200837 	lui	a11,0x4010
 200978c:	d8200837 	lui	a9,0x4010
 2009790:	f0200837 	lui	a12,0x4010
 2009794:	16f4d023 	sb	a8,308(a9)
 2009798:	176adc23 	sb	a3,311(a11)
 200979c:	17a09023 	sb	v0,292(a12)
 20097a0:	12729823 	sb	a7,294(s7)
 20097a4:	10f0d423 	sb	a6,309(s1)
 20097a8:	11ae9c23 	sb	a5,295(s4)
 20097ac:	112cd823 	sb	a4,310(s2)
 20097b0:	13027823 	sb	ra,286(s10)
 20097b4:	fffe776f 	jal	2009190 <t4_taskB2_generic_BLOCK_ERKENNUNG_CTRL>
 20097b8:	d0803403 	lb	a8,13(s0)
 20097bc:	d8804003 	lb	a9,16(s0)
 20097c0:	a3807103 	lw	a2,28(sp)
 20097c4:	c8802803 	lb	a7,10(s0)
 20097c8:	f8200837 	lui	a13,0x4010
 20097cc:	afc4ec03 	lb	a3,315(a13)
 20097d0:	b2853803 	lb	a4,334(s8)
 20097d4:	f8804c03 	lb	a13,19(s0)
 20097d8:	9b804103 	lw	a1,16(sp)
 20097dc:	85062103 	lw	v0,392(a2)
 20097e0:	ba054003 	lb	a5,336(s6)
 20097e4:	93808103 	lw	a0,32(sp)
 20097e8:	03b4b123 	sw	a8,44(sp)
 20097ec:	03b6c123 	sw	a9,48(sp)
 20097f0:	d0200837 	lui	a8,0x4010
 20097f4:	d8200837 	lui	a9,0x4010
 20097f8:	03b2a123 	sw	a7,40(sp)
 20097fc:	ce868103 	lw	a7,416(a8)
 2009800:	d6c5f103 	lw	a8,380(a9)
 2009804:	d8200837 	lui	a9,0x4010
 2009808:	03ace123 	sw	a4,56(sp)
 200980c:	03bed123 	sw	a13,52(sp)
 2009810:	b4c63103 	lw	a4,396(a1)
 2009814:	fec59103 	lw	a13,356(a9)
 2009818:	d8200837 	lui	a9,0x4010
 200981c:	03ae3123 	sw	a5,12(sp)
 2009820:	16e1d123 	sw	v0,372(a9)
 2009824:	bc852203 	lbu	a5,328(a0)
 2009828:	d8200837 	lui	a9,0x4010
 200982c:	16eacc23 	sb	a3,307(a9)
 2009830:	d8200837 	lui	a9,0x4010
 2009834:	16ede123 	sw	a4,376(a9)
 2009838:	8b805103 	lw	v1,20(sp)
 200983c:	b0200837 	lui	a4,0x4010
 2009840:	15aed023 	sb	a5,308(a4)
 2009844:	db803103 	lw	a9,12(sp)
 2009848:	bb80e103 	lw	a5,56(sp)
 200984c:	c4453203 	lbu	a6,332(v1)
 2009850:	e9c54803 	lb	a11,338(s5)
 2009854:	f1455003 	lb	a12,340(s3)
 2009858:	126e9823 	sb	a5,294(s7)
 200985c:	10f6d423 	sb	a9,309(s1)
 2009860:	bb80a103 	lw	a5,40(sp)
 2009864:	db80c103 	lw	a9,48(sp)
 2009868:	b0200837 	lui	a4,0x4010
 200986c:	15b0dc23 	sb	a6,311(a4)
 2009870:	c380b103 	lw	a6,44(sp)
 2009874:	00ae2c23 	sb	a5,11(s0)
 2009878:	b8200837 	lui	a5,0x4010
 200987c:	00b64423 	sb	a9,17(s0)
 2009880:	b380d103 	lw	a4,52(sp)
 2009884:	1df26123 	sw	a7,408(a5)
 2009888:	d8200837 	lui	a9,0x4010
 200988c:	c8200837 	lui	a7,0x4010
 2009890:	00b03823 	sb	a6,14(s0)
 2009894:	1e740123 	sw	a8,384(a7)
 2009898:	16ff7123 	sw	a13,348(a9)
 200989c:	c0200837 	lui	a6,0x4010
 20098a0:	d0200837 	lui	a8,0x4010
 20098a4:	f8200837 	lui	a13,0x4010
 20098a8:	dfc52803 	lb	a9,330(a13)
 20098ac:	1e201123 	sw	v0,388(a6)
 20098b0:	16a1c123 	sw	v0,368(a8)
 20098b4:	b8200837 	lui	a5,0x4010
 20098b8:	80200837 	lui	v0,0x4010
 20098bc:	f8200837 	lui	a13,0x4010
 20098c0:	d4051803 	lb	a8,326(v0)
 20098c4:	c5c50003 	lb	a6,320(a5)
 20098c8:	00ac5023 	sb	a4,20(s0)
 20098cc:	bfc4f403 	lb	a5,317(a13)
 20098d0:	b0200837 	lui	a4,0x4010
 20098d4:	80200837 	lui	v0,0x4010
 20098d8:	f8200837 	lui	a13,0x4010
 20098dc:	cd850c03 	lb	a7,323(a4)
 20098e0:	b4048c03 	lb	a4,291(v0)
 20098e4:	87c4b803 	lb	v0,302(a13)
 20098e8:	f8200837 	lui	a13,0x4010
 20098ec:	ffc4ae03 	lbu	a13,299(a13)
 20098f0:	113cd823 	sb	a12,310(s2)
 20098f4:	11ba9c23 	sb	a11,295(s4)
 20098f8:	03be9c23 	sb	a13,39(sp)
 20098fc:	f8200837 	lui	a13,0x4010
 2009900:	ffc4a603 	lbu	a13,297(a13)
 2009904:	e3806103 	lw	a10,24(sp)
 2009908:	03be9823 	sb	a13,38(sp)
 200990c:	f8200837 	lui	a13,0x4010
 2009910:	ffc48003 	lb	a13,288(a13)
 2009914:	03bef123 	sw	a13,60(sp)
 2009918:	f8200837 	lui	a13,0x4010
 200991c:	17fd4c23 	sb	a12,339(a13)
 2009920:	f0200837 	lui	a12,0x4010
 2009924:	17bb4423 	sb	a11,337(a12)
 2009928:	eb803103 	lw	a11,12(sp)
 200992c:	f8200837 	lui	a13,0x4010
 2009930:	f0200837 	lui	a12,0x4010
 2009934:	17fb3c23 	sb	a11,335(a13)
 2009938:	fb80e103 	lw	a13,56(sp)
 200993c:	e8200837 	lui	a11,0x4010
 2009940:	17772423 	sb	a9,329(a11)
 2009944:	17bf3423 	sb	a13,333(a12)
 2009948:	f0200837 	lui	a12,0x4010
 200994c:	f8200837 	lui	a13,0x4010
 2009950:	17b51c23 	sb	a8,327(a12)
 2009954:	17f51423 	sb	a8,325(a13)
 2009958:	e8200837 	lui	a11,0x4010
 200995c:	d0200837 	lui	a8,0x4010
 2009960:	13772c23 	sb	a9,331(s11)
 2009964:	d8200837 	lui	a9,0x4010
 2009968:	16b31023 	sb	a7,324(a8)
 200996c:	16f30823 	sb	a7,322(a9)
 2009970:	17710423 	sb	a6,321(a11)
 2009974:	c8200837 	lui	a7,0x4010
 2009978:	d0200837 	lui	a8,0x4010
 200997c:	ef04c603 	lbu	a11,305(a10)
 2009980:	f0200837 	lui	a12,0x4010
 2009984:	166ae823 	sb	a3,314(a7)
 2009988:	16aac823 	sb	a3,306(a8)
 200998c:	ab809e03 	lbu	a3,39(sp)
 2009990:	17b0fc23 	sb	a6,319(a12)
 2009994:	f8200837 	lui	a13,0x4010
 2009998:	c0200837 	lui	a6,0x4010
 200999c:	d8200837 	lui	a9,0x4010
 20099a0:	f0200837 	lui	a12,0x4010
 20099a4:	17eef823 	sb	a5,318(a13)
 20099a8:	162ef023 	sb	a5,316(a6)
 20099ac:	16fabc23 	sb	a11,303(a9)
 20099b0:	f8200837 	lui	a13,0x4010
 20099b4:	17a0b023 	sb	v0,300(a12)
 20099b8:	c3809a03 	lbu	a6,38(sp)
 20099bc:	c8200837 	lui	a7,0x4010
 20099c0:	d0200837 	lui	a8,0x4010
 20099c4:	e8200837 	lui	a11,0x4010
 20099c8:	f0200837 	lui	a12,0x4010
 20099cc:	17eaa823 	sb	a3,298(a13)
 20099d0:	db80f103 	lw	a9,60(sp)
 20099d4:	af447403 	lb	a3,285(a11)
 20099d8:	166c9023 	sb	a4,292(a7)
 20099dc:	16ac8823 	sb	a4,290(a8)
 20099e0:	b7845403 	lb	a4,277(a12)
 20099e4:	b8200837 	lui	a5,0x4010
 20099e8:	15f0a023 	sb	a6,296(a5)
 20099ec:	f8200837 	lui	a13,0x4010
 20099f0:	b8200837 	lui	a5,0x4010
 20099f4:	12f68423 	sb	a9,289(s9)
 20099f8:	17f67c23 	sb	a9,287(a13)
 20099fc:	132a7823 	sb	a3,286(s10)
 2009a00:	15ea7023 	sb	a3,284(a5)
 2009a04:	0d8000e3 	bnez	a4,2009b04 <t4_taskB2_FH_DU+0x774>
 2009a08:	c4000013 	move	a6,v0
 2009a0c:	d0200837 	lui	a8,0x4010
 2009a10:	be845203 	lbu	a5,276(a8)
 2009a14:	d8200837 	lui	a9,0x4010
 2009a18:	aec41c03 	lb	a3,263(a9)
 2009a1c:	b0000413 	li	a4,1
 2009a20:	bdc00413 	add	a5,a5,1
 2009a24:	e8200837 	lui	a11,0x4010
 2009a28:	f0000813 	li	a12,2
 2009a2c:	176c5423 	sb	a4,277(a11)
 2009a30:	16ae5023 	sb	a5,276(a8)
 2009a34:	d57c48e3 	bne	a3,a12,2009458 <t4_taskB2_FH_DU+0xc8>
 2009a38:	aac48403 	lb	a3,289(s9)
 2009a3c:	05412063 	beqz	a3,2009acc <t4_taskB2_FH_DU+0x73c>
 2009a40:	d0200837 	lui	a8,0x4010
 2009a44:	ae847c03 	lb	a3,287(a8)
 2009a48:	054108e3 	bnez	a3,2009acc <t4_taskB2_FH_DU+0x73c>
 2009a4c:	d8200837 	lui	a9,0x4010
 2009a50:	a83e7013 	li	a3,-100
 2009a54:	e8200837 	lui	a11,0x4010
 2009a58:	f0200837 	lui	a12,0x4010
 2009a5c:	16c05423 	sb	zero,277(a9)
 2009a60:	1f6a0123 	sw	a3,384(a11)
 2009a64:	17ac1c23 	sb	a4,263(a12)
 2009a68:	fffe8767 	j	2009484 <t4_taskB2_FH_DU+0xf4>
 2009a6c:	ab047803 	lb	a3,286(s10)
 2009a70:	d54028e3 	bnez	a3,2009484 <t4_taskB2_FH_DU+0xf4>
 2009a74:	c8200837 	lui	a7,0x4010
 2009a78:	ae447003 	lb	a3,284(a7)
 2009a7c:	d5401063 	beqz	a3,2009484 <t4_taskB2_FH_DU+0xf4>
 2009a80:	d0200837 	lui	a8,0x4010
 2009a84:	d8200837 	lui	a9,0x4010
 2009a88:	f0000813 	li	a12,2
 2009a8c:	e8200837 	lui	a11,0x4010
 2009a90:	16805423 	sb	zero,277(a8)
 2009a94:	1ec00123 	sw	zero,384(a9)
 2009a98:	177c1c23 	sb	a12,263(a11)
 2009a9c:	fffe7a67 	j	2009484 <t4_taskB2_FH_DU+0xf4>
 2009aa0:	aac48403 	lb	a3,289(s9)
 2009aa4:	cd41c0e3 	bnez	a3,2009484 <t4_taskB2_FH_DU+0xf4>
 2009aa8:	f8200837 	lui	a13,0x4010
 2009aac:	afc47c03 	lb	a3,287(a13)
 2009ab0:	cd41a863 	beqz	a3,2009484 <t4_taskB2_FH_DU+0xf4>
 2009ab4:	b0200837 	lui	a4,0x4010
 2009ab8:	c8000813 	li	a7,2
 2009abc:	17405423 	sb	zero,277(a11)
 2009ac0:	1d800123 	sw	zero,384(a4)
 2009ac4:	16f21c23 	sb	a7,263(a9)
 2009ac8:	fffe6f67 	j	2009484 <t4_taskB2_FH_DU+0xf4>
 2009acc:	ab047803 	lb	a3,286(s10)
 2009ad0:	cd416863 	beqz	a3,2009484 <t4_taskB2_FH_DU+0xf4>
 2009ad4:	f8200837 	lui	a13,0x4010
 2009ad8:	afc47003 	lb	a3,284(a13)
 2009adc:	cd4150e3 	bnez	a3,2009484 <t4_taskB2_FH_DU+0xf4>
 2009ae0:	a8200837 	lui	a3,0x4010
 2009ae4:	15405423 	sb	zero,277(a3)
 2009ae8:	b0200837 	lui	a4,0x4010
 2009aec:	a8019013 	li	a3,100
 2009af0:	1daa0123 	sw	a3,384(a4)
 2009af4:	b8200837 	lui	a5,0x4010
 2009af8:	a8000c13 	li	a3,3
 2009afc:	15ea1c23 	sb	a3,263(a5)
 2009b00:	fffe6167 	j	2009484 <t4_taskB2_FH_DU+0xf4>
 2009b04:	0b81d103 	lw	ra,116(sp)
 2009b08:	1381c103 	lw	s0,112(sp)
 2009b0c:	1b81b103 	lw	s1,108(sp)
 2009b10:	2381a103 	lw	s2,104(sp)
 2009b14:	2b819103 	lw	s3,100(sp)
 2009b18:	33818103 	lw	s4,96(sp)
 2009b1c:	3b817103 	lw	s5,92(sp)
 2009b20:	43816103 	lw	s6,88(sp)
 2009b24:	4b815103 	lw	s7,84(sp)
 2009b28:	53814103 	lw	s8,80(sp)
 2009b2c:	5b813103 	lw	s9,76(sp)
 2009b30:	63812103 	lw	s10,72(sp)
 2009b34:	6b811103 	lw	s11,68(sp)
 2009b38:	7381e013 	add	sp,sp,120
 2009b3c:	004000eb 	ret

02009b40 <t4_taskB2_main>:
 2009b40:	73bfe013 	add	sp,sp,-8
 2009b44:	03840123 	sw	s0,0(sp)
 2009b48:	03821123 	sw	ra,4(sp)
 2009b4c:	1005d413 	li	s0,373
 2009b50:	10bffc13 	add	s0,s0,-1
 2009b54:	fffa636f 	jal	20084e0 <t4_taskB2_init>
 2009b58:	fffa006f 	jal	2008358 <t4_taskB2_interface>
 2009b5c:	fffe0d6f 	jal	2009390 <t4_taskB2_FH_DU>
 2009b60:	f881e0e3 	bnez	s0,2009b50 <t4_taskB2_main+0x10>
 2009b64:	0b801103 	lw	ra,4(sp)
 2009b68:	80000013 	li	v0,0
 2009b6c:	13800103 	lw	s0,0(sp)
 2009b70:	73802013 	add	sp,sp,8
 2009b74:	004000eb 	ret

02009b78 <t4_taskB3_interface>:
 2009b78:	80200837 	lui	v0,0x4010
 2009b7c:	8c0ad013 	add	v1,v0,692
 2009b80:	94401003 	lb	a0,4(v1)
 2009b84:	0c805063 	beqz	a0,2009cac <t4_taskB3_interface+0x134>
 2009b88:	88200837 	lui	v1,0x4010
 2009b8c:	8c484103 	lw	v1,528(v1)
 2009b90:	90200837 	lui	a0,0x4010
 2009b94:	2ca2a123 	sw	v1,680(a0)
 2009b98:	90200837 	lui	a0,0x4010
 2009b9c:	2ca2b123 	sw	v1,684(a0)
 2009ba0:	90200837 	lui	a0,0x4010
 2009ba4:	8c8a9103 	lw	v1,676(a0)
 2009ba8:	04404863 	beqz	v1,2009bcc <t4_taskB3_interface+0x54>
 2009bac:	98200837 	lui	a1,0x4010
 2009bb0:	9cc84103 	lw	a1,528(a1)
 2009bb4:	8ce30033 	sub	v1,a1,v1
 2009bb8:	8c40f0d3 	fcvt.d.wu	fv1,v1
 2009bbc:	88200037 	lui	v1,0x4000
 2009bc0:	84400187 	fld	fv0,0(v1)
 2009bc4:	8c2370d3 	fle.d	v1,fv0,fv1
 2009bc8:	0c4050e3 	bnez	v1,2009cf0 <t4_taskB3_interface+0x178>
 2009bcc:	90200837 	lui	a0,0x4010
 2009bd0:	8c8a8103 	lw	v1,672(a0)
 2009bd4:	04404863 	beqz	v1,2009bf8 <t4_taskB3_interface+0x80>
 2009bd8:	98200837 	lui	a1,0x4010
 2009bdc:	9cc84103 	lw	a1,528(a1)
 2009be0:	8ce30033 	sub	v1,a1,v1
 2009be4:	8c40f0d3 	fcvt.d.wu	fv1,v1
 2009be8:	88200037 	lui	v1,0x4000
 2009bec:	84400187 	fld	fv0,0(v1)
 2009bf0:	8c2370d3 	fle.d	v1,fv0,fv1
 2009bf4:	0441d8e3 	bnez	v1,2009ce0 <t4_taskB3_interface+0x168>
 2009bf8:	90200837 	lui	a0,0x4010
 2009bfc:	8c8a7103 	lw	v1,668(a0)
 2009c00:	04404863 	beqz	v1,2009c24 <t4_taskB3_interface+0xac>
 2009c04:	98200837 	lui	a1,0x4010
 2009c08:	9cc84103 	lw	a1,528(a1)
 2009c0c:	8ce30033 	sub	v1,a1,v1
 2009c10:	8c40f0d3 	fcvt.d.wu	fv1,v1
 2009c14:	88200037 	lui	v1,0x4000
 2009c18:	84400187 	fld	fv0,0(v1)
 2009c1c:	8c2370d3 	fle.d	v1,fv0,fv1
 2009c20:	044160e3 	bnez	v1,2009cd0 <t4_taskB3_interface+0x158>
 2009c24:	90200837 	lui	a0,0x4010
 2009c28:	8c8a3103 	lw	v1,652(a0)
 2009c2c:	04404863 	beqz	v1,2009c50 <t4_taskB3_interface+0xd8>
 2009c30:	98200837 	lui	a1,0x4010
 2009c34:	9cc84103 	lw	a1,528(a1)
 2009c38:	8ce30033 	sub	v1,a1,v1
 2009c3c:	8c40f0d3 	fcvt.d.wu	fv1,v1
 2009c40:	88200037 	lui	v1,0x4000
 2009c44:	84400187 	fld	fv0,0(v1)
 2009c48:	8c2370d3 	fle.d	v1,fv0,fv1
 2009c4c:	0440f8e3 	bnez	v1,2009cc8 <t4_taskB3_interface+0x150>
 2009c50:	90200837 	lui	a0,0x4010
 2009c54:	8c8a2103 	lw	v1,648(a0)
 2009c58:	04404863 	beqz	v1,2009c7c <t4_taskB3_interface+0x104>
 2009c5c:	98200837 	lui	a1,0x4010
 2009c60:	9cc84103 	lw	a1,528(a1)
 2009c64:	8ce30033 	sub	v1,a1,v1
 2009c68:	8c40f0d3 	fcvt.d.wu	fv1,v1
 2009c6c:	88200037 	lui	v1,0x4000
 2009c70:	84400187 	fld	fv0,0(v1)
 2009c74:	8c2370d3 	fle.d	v1,fv0,fv1
 2009c78:	044090e3 	bnez	v1,2009cc0 <t4_taskB3_interface+0x148>
 2009c7c:	840ad003 	lb	v0,692(v0)
 2009c80:	040030e3 	bnez	v0,2009c98 <t4_taskB3_interface+0x120>
 2009c84:	80200837 	lui	v0,0x4010
 2009c88:	8c097103 	lw	v1,604(v0)
 2009c8c:	80200837 	lui	v0,0x4010
 2009c90:	84095103 	lw	v0,596(v0)
 2009c94:	04602863 	beq	v1,v0,2009ca8 <t4_taskB3_interface+0x130>
 2009c98:	80200837 	lui	v0,0x4010
 2009c9c:	8c084103 	lw	v1,528(v0)
 2009ca0:	80200837 	lui	v0,0x4010
 2009ca4:	2c22c123 	sw	v1,688(v0)
 2009ca8:	004000eb 	ret
 2009cac:	8c401803 	lb	v1,6(v1)
 2009cb0:	f441e063 	beqz	v1,2009ba0 <t4_taskB3_interface+0x28>
 2009cb4:	88200837 	lui	v1,0x4010
 2009cb8:	8c484103 	lw	v1,528(v1)
 2009cbc:	ffffb767 	j	2009b98 <t4_taskB3_interface+0x20>
 2009cc0:	2c802123 	sw	zero,648(a0)
 2009cc4:	ffffee67 	j	2009c7c <t4_taskB3_interface+0x104>
 2009cc8:	2c803123 	sw	zero,652(a0)
 2009ccc:	ffffe167 	j	2009c50 <t4_taskB3_interface+0xd8>
 2009cd0:	88200837 	lui	v1,0x4010
 2009cd4:	2440e023 	sb	zero,568(v1)
 2009cd8:	2c807123 	sw	zero,668(a0)
 2009cdc:	ffffd267 	j	2009c24 <t4_taskB3_interface+0xac>
 2009ce0:	88200837 	lui	v1,0x4010
 2009ce4:	2440e023 	sb	zero,568(v1)
 2009ce8:	2c808123 	sw	zero,672(a0)
 2009cec:	ffffc367 	j	2009bf8 <t4_taskB3_interface+0x80>
 2009cf0:	88200837 	lui	v1,0x4010
 2009cf4:	2440d423 	sb	zero,565(v1)
 2009cf8:	2c809123 	sw	zero,676(a0)
 2009cfc:	ffffb467 	j	2009bcc <t4_taskB3_interface+0x54>

02009d00 <t4_taskB3_init>:
 2009d00:	80200837 	lui	v0,0x4010
 2009d04:	2c00c123 	sw	zero,688(v0)
 2009d08:	80200837 	lui	v0,0x4010
 2009d0c:	2c00b123 	sw	zero,684(v0)
 2009d10:	80200837 	lui	v0,0x4010
 2009d14:	2c00a123 	sw	zero,680(v0)
 2009d18:	80200837 	lui	v0,0x4010
 2009d1c:	24002c23 	sb	zero,523(v0)
 2009d20:	80200837 	lui	v0,0x4010
 2009d24:	24002823 	sb	zero,522(v0)
 2009d28:	80200837 	lui	v0,0x4010
 2009d2c:	24002423 	sb	zero,521(v0)
 2009d30:	80200837 	lui	v0,0x4010
 2009d34:	24002023 	sb	zero,520(v0)
 2009d38:	80200837 	lui	v0,0x4010
 2009d3c:	24001c23 	sb	zero,519(v0)
 2009d40:	80200837 	lui	v0,0x4010
 2009d44:	24001823 	sb	zero,518(v0)
 2009d48:	80200837 	lui	v0,0x4010
 2009d4c:	24001423 	sb	zero,517(v0)
 2009d50:	80200837 	lui	v0,0x4010
 2009d54:	24001023 	sb	zero,516(v0)
 2009d58:	80200837 	lui	v0,0x4010
 2009d5c:	24000c23 	sb	zero,515(v0)
 2009d60:	80200837 	lui	v0,0x4010
 2009d64:	24000823 	sb	zero,514(v0)
 2009d68:	80200837 	lui	v0,0x4010
 2009d6c:	24000423 	sb	zero,513(v0)
 2009d70:	80200837 	lui	v0,0x4010
 2009d74:	24000023 	sb	zero,512(v0)
 2009d78:	80200837 	lui	v0,0x4010
 2009d7c:	1c01fc23 	sb	zero,511(v0)
 2009d80:	80200837 	lui	v0,0x4010
 2009d84:	1c01f823 	sb	zero,510(v0)
 2009d88:	80200837 	lui	v0,0x4010
 2009d8c:	1c01f423 	sb	zero,509(v0)
 2009d90:	80200837 	lui	v0,0x4010
 2009d94:	1c01f023 	sb	zero,508(v0)
 2009d98:	004000eb 	ret

02009d9c <t4_taskB3_generic_KINDERSICHERUNG_CTRL>:
 2009d9c:	80200837 	lui	v0,0x4010
 2009da0:	840af803 	lb	v0,702(v0)
 2009da4:	04006063 	beqz	v0,2009dd4 <t4_taskB3_generic_KINDERSICHERUNG_CTRL+0x38>
 2009da8:	88200837 	lui	v1,0x4010
 2009dac:	84482003 	lb	v0,520(v1)
 2009db0:	90000813 	li	a0,2
 2009db4:	04244863 	beq	v0,a0,2009dd8 <t4_taskB3_generic_KINDERSICHERUNG_CTRL+0x3c>
 2009db8:	98000c13 	li	a1,3
 2009dbc:	0427a863 	beq	v0,a1,2009e90 <t4_taskB3_generic_KINDERSICHERUNG_CTRL+0xf4>
 2009dc0:	90000413 	li	a0,1
 2009dc4:	04249063 	beq	v0,a0,2009e0c <t4_taskB3_generic_KINDERSICHERUNG_CTRL+0x70>
 2009dc8:	80200837 	lui	v0,0x4010
 2009dcc:	24003423 	sb	zero,525(v0)
 2009dd0:	24662023 	sb	a1,520(v1)
 2009dd4:	004000eb 	ret
 2009dd8:	80200837 	lui	v0,0x4010
 2009ddc:	84091803 	lb	v0,582(v0)
 2009de0:	040020e3 	bnez	v0,2009df0 <t4_taskB3_generic_KINDERSICHERUNG_CTRL+0x54>
 2009de4:	90200837 	lui	a0,0x4010
 2009de8:	94892803 	lb	a0,586(a0)
 2009dec:	1480d863 	beqz	a0,200a058 <t4_taskB3_generic_KINDERSICHERUNG_CTRL+0x2bc>
 2009df0:	88200837 	lui	v1,0x4010
 2009df4:	94482403 	lb	a0,521(v1)
 2009df8:	98000413 	li	a1,1
 2009dfc:	0ca61863 	beq	a0,a1,2009f08 <t4_taskB3_generic_KINDERSICHERUNG_CTRL+0x16c>
 2009e00:	80200837 	lui	v0,0x4010
 2009e04:	24003423 	sb	zero,525(v0)
 2009e08:	004000eb 	ret
 2009e0c:	80200837 	lui	v0,0x4010
 2009e10:	84092003 	lb	v0,584(v0)
 2009e14:	040020e3 	bnez	v0,2009e24 <t4_taskB3_generic_KINDERSICHERUNG_CTRL+0x88>
 2009e18:	90200837 	lui	a0,0x4010
 2009e1c:	94893003 	lb	a0,588(a0)
 2009e20:	14802063 	beqz	a0,200a030 <t4_taskB3_generic_KINDERSICHERUNG_CTRL+0x294>
 2009e24:	88200837 	lui	v1,0x4010
 2009e28:	94482803 	lb	a0,522(v1)
 2009e2c:	98000413 	li	a1,1
 2009e30:	fca7a0e3 	bne	a0,a1,2009e00 <t4_taskB3_generic_KINDERSICHERUNG_CTRL+0x64>
 2009e34:	04005063 	beqz	v0,2009e5c <t4_taskB3_generic_KINDERSICHERUNG_CTRL+0xc0>
 2009e38:	98200837 	lui	a1,0x4010
 2009e3c:	9cc91c03 	lb	a1,583(a1)
 2009e40:	04c038e3 	bnez	a1,2009e5c <t4_taskB3_generic_KINDERSICHERUNG_CTRL+0xc0>
 2009e44:	80200837 	lui	v0,0x4010
 2009e48:	24003423 	sb	zero,525(v0)
 2009e4c:	80200837 	lui	v0,0x4010
 2009e50:	2424ec23 	sb	a0,571(v0)
 2009e54:	24642823 	sb	a0,522(v1)
 2009e58:	004000eb 	ret
 2009e5c:	90200837 	lui	a0,0x4010
 2009e60:	94893003 	lb	a0,588(a0)
 2009e64:	0c80a863 	beqz	a0,2009fb8 <t4_taskB3_generic_KINDERSICHERUNG_CTRL+0x21c>
 2009e68:	98200837 	lui	a1,0x4010
 2009e6c:	9cc92c03 	lb	a1,587(a1)
 2009e70:	0cc090e3 	bnez	a1,2009fb8 <t4_taskB3_generic_KINDERSICHERUNG_CTRL+0x21c>
 2009e74:	90200837 	lui	a0,0x4010
 2009e78:	80000413 	li	v0,1
 2009e7c:	24803423 	sb	zero,525(a0)
 2009e80:	90200837 	lui	a0,0x4010
 2009e84:	24a0f823 	sb	v0,574(a0)
 2009e88:	24602823 	sb	v0,522(v1)
 2009e8c:	004000eb 	ret
 2009e90:	80200837 	lui	v0,0x4010
 2009e94:	84091003 	lb	v0,580(v0)
 2009e98:	040070e3 	bnez	v0,2009ed0 <t4_taskB3_generic_KINDERSICHERUNG_CTRL+0x134>
 2009e9c:	98200837 	lui	a1,0x4010
 2009ea0:	9cc92803 	lb	a1,586(a1)
 2009ea4:	04c1d863 	beqz	a1,2009f90 <t4_taskB3_generic_KINDERSICHERUNG_CTRL+0x1f4>
 2009ea8:	80200837 	lui	v0,0x4010
 2009eac:	84091803 	lb	v0,582(v0)
 2009eb0:	140060e3 	bnez	v0,200a0e0 <t4_taskB3_generic_KINDERSICHERUNG_CTRL+0x344>
 2009eb4:	80200837 	lui	v0,0x4010
 2009eb8:	24003423 	sb	zero,525(v0)
 2009ebc:	98000413 	li	a1,1
 2009ec0:	80200837 	lui	v0,0x4010
 2009ec4:	2426f823 	sb	a1,574(v0)
 2009ec8:	24642023 	sb	a0,520(v1)
 2009ecc:	004000eb 	ret
 2009ed0:	90200837 	lui	a0,0x4010
 2009ed4:	94893003 	lb	a0,588(a0)
 2009ed8:	048118e3 	bnez	a0,2009f64 <t4_taskB3_generic_KINDERSICHERUNG_CTRL+0x1c8>
 2009edc:	90200837 	lui	a0,0x4010
 2009ee0:	94892003 	lb	a0,584(a0)
 2009ee4:	f481e063 	beqz	a0,2009dd4 <t4_taskB3_generic_KINDERSICHERUNG_CTRL+0x38>
 2009ee8:	f401d8e3 	bnez	v0,2009dd4 <t4_taskB3_generic_KINDERSICHERUNG_CTRL+0x38>
 2009eec:	90200837 	lui	a0,0x4010
 2009ef0:	80000413 	li	v0,1
 2009ef4:	24803423 	sb	zero,525(a0)
 2009ef8:	90200837 	lui	a0,0x4010
 2009efc:	24a0ec23 	sb	v0,571(a0)
 2009f00:	24602023 	sb	v0,520(v1)
 2009f04:	004000eb 	ret
 2009f08:	04005063 	beqz	v0,2009f30 <t4_taskB3_generic_KINDERSICHERUNG_CTRL+0x194>
 2009f0c:	98200837 	lui	a1,0x4010
 2009f10:	9cc91403 	lb	a1,581(a1)
 2009f14:	04c038e3 	bnez	a1,2009f30 <t4_taskB3_generic_KINDERSICHERUNG_CTRL+0x194>
 2009f18:	80200837 	lui	v0,0x4010
 2009f1c:	24003423 	sb	zero,525(v0)
 2009f20:	80200837 	lui	v0,0x4010
 2009f24:	2424ec23 	sb	a0,571(v0)
 2009f28:	24642423 	sb	a0,521(v1)
 2009f2c:	004000eb 	ret
 2009f30:	90200837 	lui	a0,0x4010
 2009f34:	94892803 	lb	a0,586(a0)
 2009f38:	04817863 	beqz	a0,2009ff4 <t4_taskB3_generic_KINDERSICHERUNG_CTRL+0x258>
 2009f3c:	98200837 	lui	a1,0x4010
 2009f40:	9cc92403 	lb	a1,585(a1)
 2009f44:	04c160e3 	bnez	a1,2009ff4 <t4_taskB3_generic_KINDERSICHERUNG_CTRL+0x258>
 2009f48:	90200837 	lui	a0,0x4010
 2009f4c:	80000413 	li	v0,1
 2009f50:	24803423 	sb	zero,525(a0)
 2009f54:	90200837 	lui	a0,0x4010
 2009f58:	24a0f823 	sb	v0,574(a0)
 2009f5c:	24602423 	sb	v0,521(v1)
 2009f60:	004000eb 	ret
 2009f64:	90200837 	lui	a0,0x4010
 2009f68:	94892003 	lb	a0,584(a0)
 2009f6c:	0c8030e3 	bnez	a0,200a084 <t4_taskB3_generic_KINDERSICHERUNG_CTRL+0x2e8>
 2009f70:	f400c8e3 	bnez	v0,2009dd4 <t4_taskB3_generic_KINDERSICHERUNG_CTRL+0x38>
 2009f74:	90200837 	lui	a0,0x4010
 2009f78:	80000413 	li	v0,1
 2009f7c:	24803423 	sb	zero,525(a0)
 2009f80:	90200837 	lui	a0,0x4010
 2009f84:	24a0f823 	sb	v0,574(a0)
 2009f88:	24602023 	sb	v0,520(v1)
 2009f8c:	004000eb 	ret
 2009f90:	98200837 	lui	a1,0x4010
 2009f94:	9cc91803 	lb	a1,582(a1)
 2009f98:	fcc07063 	beqz	a1,2009ed0 <t4_taskB3_generic_KINDERSICHERUNG_CTRL+0x134>
 2009f9c:	80200837 	lui	v0,0x4010
 2009fa0:	24003423 	sb	zero,525(v0)
 2009fa4:	98000413 	li	a1,1
 2009fa8:	80200837 	lui	v0,0x4010
 2009fac:	2426ec23 	sb	a1,571(v0)
 2009fb0:	24642023 	sb	a0,520(v1)
 2009fb4:	004000eb 	ret
 2009fb8:	040020e3 	bnez	v0,2009fc8 <t4_taskB3_generic_KINDERSICHERUNG_CTRL+0x22c>
 2009fbc:	80200837 	lui	v0,0x4010
 2009fc0:	84091c03 	lb	v0,583(v0)
 2009fc4:	0401c8e3 	bnez	v0,200a0a8 <t4_taskB3_generic_KINDERSICHERUNG_CTRL+0x30c>
 2009fc8:	f48018e3 	bnez	a0,2009dd4 <t4_taskB3_generic_KINDERSICHERUNG_CTRL+0x38>
 2009fcc:	80200837 	lui	v0,0x4010
 2009fd0:	84092c03 	lb	v0,587(v0)
 2009fd4:	f4000063 	beqz	v0,2009dd4 <t4_taskB3_generic_KINDERSICHERUNG_CTRL+0x38>
 2009fd8:	80200837 	lui	v0,0x4010
 2009fdc:	24003423 	sb	zero,525(v0)
 2009fe0:	80200837 	lui	v0,0x4010
 2009fe4:	2400f823 	sb	zero,574(v0)
 2009fe8:	80000413 	li	v0,1
 2009fec:	24602823 	sb	v0,522(v1)
 2009ff0:	004000eb 	ret
 2009ff4:	040020e3 	bnez	v0,200a004 <t4_taskB3_generic_KINDERSICHERUNG_CTRL+0x268>
 2009ff8:	80200837 	lui	v0,0x4010
 2009ffc:	84091403 	lb	v0,581(v0)
 200a000:	040188e3 	bnez	v0,200a0c4 <t4_taskB3_generic_KINDERSICHERUNG_CTRL+0x328>
 200a004:	ec81a0e3 	bnez	a0,2009dd4 <t4_taskB3_generic_KINDERSICHERUNG_CTRL+0x38>
 200a008:	80200837 	lui	v0,0x4010
 200a00c:	84092403 	lb	v0,585(v0)
 200a010:	ec018863 	beqz	v0,2009dd4 <t4_taskB3_generic_KINDERSICHERUNG_CTRL+0x38>
 200a014:	80200837 	lui	v0,0x4010
 200a018:	24003423 	sb	zero,525(v0)
 200a01c:	80200837 	lui	v0,0x4010
 200a020:	2400f823 	sb	zero,574(v0)
 200a024:	80000413 	li	v0,1
 200a028:	24602423 	sb	v0,521(v1)
 200a02c:	004000eb 	ret
 200a030:	80200837 	lui	v0,0x4010
 200a034:	24003423 	sb	zero,525(v0)
 200a038:	80200837 	lui	v0,0x4010
 200a03c:	2400f823 	sb	zero,574(v0)
 200a040:	80200837 	lui	v0,0x4010
 200a044:	2400ec23 	sb	zero,571(v0)
 200a048:	80200837 	lui	v0,0x4010
 200a04c:	24662023 	sb	a1,520(v1)
 200a050:	24002823 	sb	zero,522(v0)
 200a054:	004000eb 	ret
 200a058:	80200837 	lui	v0,0x4010
 200a05c:	24003423 	sb	zero,525(v0)
 200a060:	80200837 	lui	v0,0x4010
 200a064:	2400f823 	sb	zero,574(v0)
 200a068:	80200837 	lui	v0,0x4010
 200a06c:	2400ec23 	sb	zero,571(v0)
 200a070:	80000c13 	li	v0,3
 200a074:	24602023 	sb	v0,520(v1)
 200a078:	80200837 	lui	v0,0x4010
 200a07c:	24002423 	sb	zero,521(v0)
 200a080:	004000eb 	ret
 200a084:	90200837 	lui	a0,0x4010
 200a088:	80000413 	li	v0,1
 200a08c:	24803423 	sb	zero,525(a0)
 200a090:	90200837 	lui	a0,0x4010
 200a094:	24a0ec23 	sb	v0,571(a0)
 200a098:	90200837 	lui	a0,0x4010
 200a09c:	24a0f823 	sb	v0,574(a0)
 200a0a0:	24602023 	sb	v0,520(v1)
 200a0a4:	004000eb 	ret
 200a0a8:	80200837 	lui	v0,0x4010
 200a0ac:	24003423 	sb	zero,525(v0)
 200a0b0:	80200837 	lui	v0,0x4010
 200a0b4:	2400ec23 	sb	zero,571(v0)
 200a0b8:	80000413 	li	v0,1
 200a0bc:	24602823 	sb	v0,522(v1)
 200a0c0:	004000eb 	ret
 200a0c4:	80200837 	lui	v0,0x4010
 200a0c8:	24003423 	sb	zero,525(v0)
 200a0cc:	80200837 	lui	v0,0x4010
 200a0d0:	2400ec23 	sb	zero,571(v0)
 200a0d4:	80000413 	li	v0,1
 200a0d8:	24602423 	sb	v0,521(v1)
 200a0dc:	004000eb 	ret
 200a0e0:	98200837 	lui	a1,0x4010
 200a0e4:	80000413 	li	v0,1
 200a0e8:	24c03423 	sb	zero,525(a1)
 200a0ec:	98200837 	lui	a1,0x4010
 200a0f0:	24e0f823 	sb	v0,574(a1)
 200a0f4:	98200837 	lui	a1,0x4010
 200a0f8:	24e0ec23 	sb	v0,571(a1)
 200a0fc:	24642023 	sb	a0,520(v1)
 200a100:	004000eb 	ret

0200a104 <t4_taskB3_generic_FH_TUERMODUL_CTRL>:
 200a104:	80200837 	lui	v0,0x4010
 200a108:	840ad013 	add	v0,v0,692
 200a10c:	8c003403 	lb	v1,13(v0)
 200a110:	044048e3 	bnez	v1,200a134 <t4_taskB3_generic_FH_TUERMODUL_CTRL+0x30>
 200a114:	8c003c03 	lb	v1,15(v0)
 200a118:	04403063 	beqz	v1,200a130 <t4_taskB3_generic_FH_TUERMODUL_CTRL+0x2c>
 200a11c:	8c003803 	lb	v1,14(v0)
 200a120:	044020e3 	bnez	v1,200a130 <t4_taskB3_generic_FH_TUERMODUL_CTRL+0x2c>
 200a124:	04001023 	sb	zero,4(v0)
 200a128:	04001823 	sb	zero,6(v0)
 200a12c:	004000eb 	ret
 200a130:	004000eb 	ret
 200a134:	8c002803 	lb	v1,10(v0)
 200a138:	044020e3 	bnez	v1,200a148 <t4_taskB3_generic_FH_TUERMODUL_CTRL+0x44>
 200a13c:	90000c13 	li	a0,3
 200a140:	88200837 	lui	v1,0x4010
 200a144:	24642023 	sb	a0,520(v1)
 200a148:	8c004c03 	lb	v1,19(v0)
 200a14c:	044030e3 	bnez	v1,200a164 <t4_taskB3_generic_FH_TUERMODUL_CTRL+0x60>
 200a150:	88200837 	lui	v1,0x4010
 200a154:	2c40d023 	sb	zero,692(v1)
 200a158:	90000413 	li	a0,1
 200a15c:	88200837 	lui	v1,0x4010
 200a160:	1c65f023 	sb	a0,508(v1)
 200a164:	98200837 	lui	a1,0x4010
 200a168:	8cc81c03 	lb	v1,519(a1)
 200a16c:	90000413 	li	a0,1
 200a170:	a0000813 	li	a2,2
 200a174:	04242c23 	sb	a0,11(v0)
 200a178:	04245023 	sb	a0,20(v0)
 200a17c:	04693863 	beq	v1,a2,200a218 <t4_taskB3_generic_FH_TUERMODUL_CTRL+0x114>
 200a180:	a8000c13 	li	a3,3
 200a184:	0c6a2063 	beq	v1,a3,200a294 <t4_taskB3_generic_FH_TUERMODUL_CTRL+0x190>
 200a188:	90000413 	li	a0,1
 200a18c:	0465a863 	beq	v1,a0,200a260 <t4_taskB3_generic_FH_TUERMODUL_CTRL+0x15c>
 200a190:	88200837 	lui	v1,0x4010
 200a194:	24403423 	sb	zero,525(v1)
 200a198:	24e81c23 	sb	a2,519(a1)
 200a19c:	90200837 	lui	a0,0x4010
 200a1a0:	9c881803 	lb	a1,518(a0)
 200a1a4:	88000413 	li	v1,1
 200a1a8:	04e26863 	beq	a1,v1,200a1dc <t4_taskB3_generic_FH_TUERMODUL_CTRL+0xd8>
 200a1ac:	98200837 	lui	a1,0x4010
 200a1b0:	24c03423 	sb	zero,525(a1)
 200a1b4:	24a21823 	sb	v1,518(a0)
 200a1b8:	98200837 	lui	a1,0x4010
 200a1bc:	90200837 	lui	a0,0x4010
 200a1c0:	2cc06123 	sw	zero,664(a1)
 200a1c4:	24a21423 	sb	v1,517(a0)
 200a1c8:	94001203 	lbu	a0,4(v0)
 200a1cc:	8c001a03 	lbu	v1,6(v0)
 200a1d0:	04241423 	sb	a0,5(v0)
 200a1d4:	04221c23 	sb	v1,7(v0)
 200a1d8:	004000eb 	ret
 200a1dc:	88200837 	lui	v1,0x4010
 200a1e0:	8c483003 	lb	v1,524(v1)
 200a1e4:	0c67e063 	beq	v1,a1,200a3d4 <t4_taskB3_generic_FH_TUERMODUL_CTRL+0x2d0>
 200a1e8:	90200837 	lui	a0,0x4010
 200a1ec:	a4881403 	lb	a2,517(a0)
 200a1f0:	98000413 	li	a1,1
 200a1f4:	0d270863 	beq	a2,a1,200a378 <t4_taskB3_generic_FH_TUERMODUL_CTRL+0x274>
 200a1f8:	88200837 	lui	v1,0x4010
 200a1fc:	24403423 	sb	zero,525(v1)
 200a200:	24a61423 	sb	a1,517(a0)
 200a204:	8c001a03 	lbu	v1,6(v0)
 200a208:	94001203 	lbu	a0,4(v0)
 200a20c:	04221c23 	sb	v1,7(v0)
 200a210:	04241423 	sb	a0,5(v0)
 200a214:	004000eb 	ret
 200a218:	88200837 	lui	v1,0x4010
 200a21c:	8c490c03 	lb	v1,579(v1)
 200a220:	04402063 	beqz	v1,200a230 <t4_taskB3_generic_FH_TUERMODUL_CTRL+0x12c>
 200a224:	88200837 	lui	v1,0x4010
 200a228:	8c490403 	lb	v1,577(v1)
 200a22c:	14401063 	beqz	v1,200a434 <t4_taskB3_generic_FH_TUERMODUL_CTRL+0x330>
 200a230:	90200837 	lui	a0,0x4010
 200a234:	8c882c03 	lb	v1,523(a0)
 200a238:	98000813 	li	a1,2
 200a23c:	14675863 	beq	v1,a1,200a4e8 <t4_taskB3_generic_FH_TUERMODUL_CTRL+0x3e4>
 200a240:	a0000c13 	li	a2,3
 200a244:	1468f863 	beq	v1,a2,200a4c0 <t4_taskB3_generic_FH_TUERMODUL_CTRL+0x3bc>
 200a248:	98000413 	li	a1,1
 200a24c:	14665063 	beq	v1,a1,200a474 <t4_taskB3_generic_FH_TUERMODUL_CTRL+0x370>
 200a250:	88200837 	lui	v1,0x4010
 200a254:	24403423 	sb	zero,525(v1)
 200a258:	24a82c23 	sb	a2,523(a0)
 200a25c:	ffffd067 	j	200a19c <t4_taskB3_generic_FH_TUERMODUL_CTRL+0x98>
 200a260:	88200837 	lui	v1,0x4010
 200a264:	8c4a6103 	lw	v1,664(v1)
 200a268:	9000ec13 	li	a0,59
 200a26c:	fc6460e3 	bne	v1,a0,200a19c <t4_taskB3_generic_FH_TUERMODUL_CTRL+0x98>
 200a270:	90200837 	lui	a0,0x4010
 200a274:	948a4103 	lw	a0,656(a0)
 200a278:	fca24863 	beq	a0,v1,200a19c <t4_taskB3_generic_FH_TUERMODUL_CTRL+0x98>
 200a27c:	88200837 	lui	v1,0x4010
 200a280:	24403423 	sb	zero,525(v1)
 200a284:	88200837 	lui	v1,0x4010
 200a288:	24ea1c23 	sb	a3,519(a1)
 200a28c:	246a1023 	sb	a3,516(v1)
 200a290:	ffffc367 	j	200a19c <t4_taskB3_generic_FH_TUERMODUL_CTRL+0x98>
 200a294:	88200837 	lui	v1,0x4010
 200a298:	8c4a6103 	lw	v1,664(v1)
 200a29c:	8c40f513 	slt	v1,v1,61
 200a2a0:	044098e3 	bnez	v1,200a2ec <t4_taskB3_generic_FH_TUERMODUL_CTRL+0x1e8>
 200a2a4:	88200837 	lui	v1,0x4010
 200a2a8:	8c4a4103 	lw	v1,656(v1)
 200a2ac:	8c40f513 	slt	v1,v1,61
 200a2b0:	04407863 	beqz	v1,200a2ec <t4_taskB3_generic_FH_TUERMODUL_CTRL+0x1e8>
 200a2b4:	88200837 	lui	v1,0x4010
 200a2b8:	8c493c03 	lb	v1,591(v1)
 200a2bc:	044060e3 	bnez	v1,200a2ec <t4_taskB3_generic_FH_TUERMODUL_CTRL+0x1e8>
 200a2c0:	88200837 	lui	v1,0x4010
 200a2c4:	8c494403 	lb	v1,593(v1)
 200a2c8:	044048e3 	bnez	v1,200a2ec <t4_taskB3_generic_FH_TUERMODUL_CTRL+0x1e8>
 200a2cc:	88200837 	lui	v1,0x4010
 200a2d0:	24403423 	sb	zero,525(v1)
 200a2d4:	88200837 	lui	v1,0x4010
 200a2d8:	2440e023 	sb	zero,568(v1)
 200a2dc:	88200837 	lui	v1,0x4010
 200a2e0:	2440d423 	sb	zero,565(v1)
 200a2e4:	24e41c23 	sb	a0,519(a1)
 200a2e8:	ffffad67 	j	200a19c <t4_taskB3_generic_FH_TUERMODUL_CTRL+0x98>
 200a2ec:	88200837 	lui	v1,0x4010
 200a2f0:	8c490c03 	lb	v1,579(v1)
 200a2f4:	0440a863 	beqz	v1,200a348 <t4_taskB3_generic_FH_TUERMODUL_CTRL+0x244>
 200a2f8:	88200837 	lui	v1,0x4010
 200a2fc:	8c490403 	lb	v1,577(v1)
 200a300:	044090e3 	bnez	v1,200a348 <t4_taskB3_generic_FH_TUERMODUL_CTRL+0x244>
 200a304:	88200837 	lui	v1,0x4010
 200a308:	8c48d803 	lb	v1,566(v1)
 200a30c:	1441d863 	beqz	v1,200a5f8 <t4_taskB3_generic_FH_TUERMODUL_CTRL+0x4f4>
 200a310:	88200837 	lui	v1,0x4010
 200a314:	94484103 	lw	a0,528(v1)
 200a318:	88200837 	lui	v1,0x4010
 200a31c:	24403423 	sb	zero,525(v1)
 200a320:	88200837 	lui	v1,0x4010
 200a324:	2440d423 	sb	zero,565(v1)
 200a328:	88200837 	lui	v1,0x4010
 200a32c:	2c649123 	sw	a0,676(v1)
 200a330:	88000813 	li	v1,2
 200a334:	24e21c23 	sb	v1,519(a1)
 200a338:	90000c13 	li	a0,3
 200a33c:	88200837 	lui	v1,0x4010
 200a340:	24642c23 	sb	a0,523(v1)
 200a344:	ffff9667 	j	200a19c <t4_taskB3_generic_FH_TUERMODUL_CTRL+0x98>
 200a348:	90200837 	lui	a0,0x4010
 200a34c:	8c881003 	lb	v1,516(a0)
 200a350:	98000813 	li	a1,2
 200a354:	14662063 	beq	v1,a1,200a564 <t4_taskB3_generic_FH_TUERMODUL_CTRL+0x460>
 200a358:	a0000c13 	li	a2,3
 200a35c:	0c696863 	beq	v1,a2,200a510 <t4_taskB3_generic_FH_TUERMODUL_CTRL+0x40c>
 200a360:	a8000413 	li	a3,1
 200a364:	0c6a6863 	beq	v1,a3,200a498 <t4_taskB3_generic_FH_TUERMODUL_CTRL+0x394>
 200a368:	88200837 	lui	v1,0x4010
 200a36c:	24403423 	sb	zero,525(v1)
 200a370:	24a81023 	sb	a2,516(a0)
 200a374:	ffff8a67 	j	200a19c <t4_taskB3_generic_FH_TUERMODUL_CTRL+0x98>
 200a378:	f468a0e3 	bne	v1,a2,200a1c8 <t4_taskB3_generic_FH_TUERMODUL_CTRL+0xc4>
 200a37c:	98200837 	lui	a1,0x4010
 200a380:	9ccaa103 	lw	a1,680(a1)
 200a384:	f4c08863 	beqz	a1,200a1c8 <t4_taskB3_generic_FH_TUERMODUL_CTRL+0xc4>
 200a388:	a0200837 	lui	a2,0x4010
 200a38c:	a5084103 	lw	a2,528(a2)
 200a390:	a53ff413 	add	a2,a2,-3
 200a394:	f4e868e3 	bne	a1,a2,200a1c8 <t4_taskB3_generic_FH_TUERMODUL_CTRL+0xc4>
 200a398:	98200837 	lui	a1,0x4010
 200a39c:	9cc8e403 	lb	a1,569(a1)
 200a3a0:	f4c050e3 	bnez	a1,200a1c8 <t4_taskB3_generic_FH_TUERMODUL_CTRL+0xc4>
 200a3a4:	98200837 	lui	a1,0x4010
 200a3a8:	9cc8d803 	lb	a1,566(a1)
 200a3ac:	f4c038e3 	bnez	a1,200a1c8 <t4_taskB3_generic_FH_TUERMODUL_CTRL+0xc4>
 200a3b0:	98200837 	lui	a1,0x4010
 200a3b4:	a4ca6103 	lw	a2,664(a1)
 200a3b8:	f02822e3 	blez	a2,200a1c8 <t4_taskB3_generic_FH_TUERMODUL_CTRL+0xc4>
 200a3bc:	a53ffc13 	add	a2,a2,-1
 200a3c0:	a8200837 	lui	a3,0x4010
 200a3c4:	25403423 	sb	zero,525(a3)
 200a3c8:	2ce86123 	sw	a2,664(a1)
 200a3cc:	24a21423 	sb	v1,517(a0)
 200a3d0:	ffff7e67 	j	200a1c8 <t4_taskB3_generic_FH_TUERMODUL_CTRL+0xc4>
 200a3d4:	98200837 	lui	a1,0x4010
 200a3d8:	9ccab103 	lw	a1,684(a1)
 200a3dc:	f4c01863 	beqz	a1,200a1e8 <t4_taskB3_generic_FH_TUERMODUL_CTRL+0xe4>
 200a3e0:	a0200837 	lui	a2,0x4010
 200a3e4:	a5084103 	lw	a2,528(a2)
 200a3e8:	9d270033 	sub	a1,a2,a1
 200a3ec:	ece3f8e3 	bne	a1,v1,200a1e8 <t4_taskB3_generic_FH_TUERMODUL_CTRL+0xe4>
 200a3f0:	98200837 	lui	a1,0x4010
 200a3f4:	9cc8e403 	lb	a1,569(a1)
 200a3f8:	04c020e3 	bnez	a1,200a408 <t4_taskB3_generic_FH_TUERMODUL_CTRL+0x304>
 200a3fc:	98200837 	lui	a1,0x4010
 200a400:	9cc8d803 	lb	a1,566(a1)
 200a404:	ecc1c863 	beqz	a1,200a1e8 <t4_taskB3_generic_FH_TUERMODUL_CTRL+0xe4>
 200a408:	98200837 	lui	a1,0x4010
 200a40c:	a4ca6103 	lw	a2,664(a1)
 200a410:	88000413 	li	v1,1
 200a414:	a8200837 	lui	a3,0x4010
 200a418:	a5000413 	add	a2,a2,1
 200a41c:	24a21823 	sb	v1,518(a0)
 200a420:	90200837 	lui	a0,0x4010
 200a424:	25403423 	sb	zero,525(a3)
 200a428:	2ce86123 	sw	a2,664(a1)
 200a42c:	24a21423 	sb	v1,517(a0)
 200a430:	ffff6667 	j	200a1c8 <t4_taskB3_generic_FH_TUERMODUL_CTRL+0xc4>
 200a434:	88200837 	lui	v1,0x4010
 200a438:	8c48e403 	lb	v1,569(v1)
 200a43c:	ec41e863 	beqz	v1,200a230 <t4_taskB3_generic_FH_TUERMODUL_CTRL+0x12c>
 200a440:	88200837 	lui	v1,0x4010
 200a444:	a4484103 	lw	a2,528(v1)
 200a448:	90200837 	lui	a0,0x4010
 200a44c:	24803423 	sb	zero,525(a0)
 200a450:	90200837 	lui	a0,0x4010
 200a454:	2480e023 	sb	zero,568(a0)
 200a458:	90200837 	lui	a0,0x4010
 200a45c:	88000c13 	li	v1,3
 200a460:	2ca87123 	sw	a2,668(a0)
 200a464:	90200837 	lui	a0,0x4010
 200a468:	24e21c23 	sb	v1,519(a1)
 200a46c:	24a21023 	sb	v1,516(a0)
 200a470:	ffff4b67 	j	200a19c <t4_taskB3_generic_FH_TUERMODUL_CTRL+0x98>
 200a474:	88200837 	lui	v1,0x4010
 200a478:	8c48fc03 	lb	v1,575(v1)
 200a47c:	ec4040e3 	bnez	v1,200a19c <t4_taskB3_generic_FH_TUERMODUL_CTRL+0x98>
 200a480:	88200837 	lui	v1,0x4010
 200a484:	24403423 	sb	zero,525(v1)
 200a488:	88200837 	lui	v1,0x4010
 200a48c:	2440e023 	sb	zero,568(v1)
 200a490:	24a82c23 	sb	a2,523(a0)
 200a494:	ffff4267 	j	200a19c <t4_taskB3_generic_FH_TUERMODUL_CTRL+0x98>
 200a498:	a8200837 	lui	a3,0x4010
 200a49c:	ad4a1103 	lw	a3,644(a3)
 200a4a0:	ad465513 	slt	a3,a3,405
 200a4a4:	0d4158e3 	bnez	a3,200a650 <t4_taskB3_generic_FH_TUERMODUL_CTRL+0x54c>
 200a4a8:	88200837 	lui	v1,0x4010
 200a4ac:	24403423 	sb	zero,525(v1)
 200a4b0:	88200837 	lui	v1,0x4010
 200a4b4:	2440d423 	sb	zero,565(v1)
 200a4b8:	24a81023 	sb	a2,516(a0)
 200a4bc:	ffff3867 	j	200a19c <t4_taskB3_generic_FH_TUERMODUL_CTRL+0x98>
 200a4c0:	88200837 	lui	v1,0x4010
 200a4c4:	8c48f003 	lb	v1,572(v1)
 200a4c8:	0c40c063 	beqz	v1,200a628 <t4_taskB3_generic_FH_TUERMODUL_CTRL+0x524>
 200a4cc:	88200837 	lui	v1,0x4010
 200a4d0:	24403423 	sb	zero,525(v1)
 200a4d4:	a0000413 	li	a2,1
 200a4d8:	88200837 	lui	v1,0x4010
 200a4dc:	2468d423 	sb	a2,565(v1)
 200a4e0:	24a62c23 	sb	a1,523(a0)
 200a4e4:	ffff2e67 	j	200a19c <t4_taskB3_generic_FH_TUERMODUL_CTRL+0x98>
 200a4e8:	88200837 	lui	v1,0x4010
 200a4ec:	8c48f003 	lb	v1,572(v1)
 200a4f0:	e44158e3 	bnez	v1,200a19c <t4_taskB3_generic_FH_TUERMODUL_CTRL+0x98>
 200a4f4:	88200837 	lui	v1,0x4010
 200a4f8:	24403423 	sb	zero,525(v1)
 200a4fc:	88200837 	lui	v1,0x4010
 200a500:	2440d423 	sb	zero,565(v1)
 200a504:	88000c13 	li	v1,3
 200a508:	24a22c23 	sb	v1,523(a0)
 200a50c:	ffff2467 	j	200a19c <t4_taskB3_generic_FH_TUERMODUL_CTRL+0x98>
 200a510:	88200837 	lui	v1,0x4010
 200a514:	8c48fc03 	lb	v1,575(v1)
 200a518:	04412063 	beqz	v1,200a5a8 <t4_taskB3_generic_FH_TUERMODUL_CTRL+0x4a4>
 200a51c:	88200837 	lui	v1,0x4010
 200a520:	8c48f403 	lb	v1,573(v1)
 200a524:	044108e3 	bnez	v1,200a5a8 <t4_taskB3_generic_FH_TUERMODUL_CTRL+0x4a4>
 200a528:	88200837 	lui	v1,0x4010
 200a52c:	8c4a1103 	lw	v1,644(v1)
 200a530:	0022f2e3 	blez	v1,200a5a8 <t4_taskB3_generic_FH_TUERMODUL_CTRL+0x4a4>
 200a534:	24a61023 	sb	a1,516(a0)
 200a538:	90200837 	lui	a0,0x4010
 200a53c:	24a60023 	sb	a1,512(a0)
 200a540:	90200837 	lui	a0,0x4010
 200a544:	88000413 	li	v1,1
 200a548:	a0200837 	lui	a2,0x4010
 200a54c:	24a60823 	sb	a1,514(a0)
 200a550:	90200837 	lui	a0,0x4010
 200a554:	25003423 	sb	zero,525(a2)
 200a558:	04224423 	sb	v1,17(v0)
 200a55c:	24a2e023 	sb	v1,568(a0)
 200a560:	ffff0f67 	j	200a19c <t4_taskB3_generic_FH_TUERMODUL_CTRL+0x98>
 200a564:	98200837 	lui	a1,0x4010
 200a568:	9cca1103 	lw	a1,644(a1)
 200a56c:	08260ae3 	blez	a1,200a670 <t4_taskB3_generic_FH_TUERMODUL_CTRL+0x56c>
 200a570:	a8200837 	lui	a3,0x4010
 200a574:	9d480003 	lb	a1,512(a3)
 200a578:	a0000413 	li	a2,1
 200a57c:	0ce8b863 	beq	a1,a2,200a6d8 <t4_taskB3_generic_FH_TUERMODUL_CTRL+0x5d4>
 200a580:	0ce21863 	beq	a1,v1,200a68c <t4_taskB3_generic_FH_TUERMODUL_CTRL+0x588>
 200a584:	90200837 	lui	a0,0x4010
 200a588:	24803423 	sb	zero,525(a0)
 200a58c:	90200837 	lui	a0,0x4010
 200a590:	25620023 	sb	v1,512(a3)
 200a594:	24a20823 	sb	v1,514(a0)
 200a598:	88200837 	lui	v1,0x4010
 200a59c:	04284423 	sb	a2,17(v0)
 200a5a0:	2468e023 	sb	a2,568(v1)
 200a5a4:	fffefe67 	j	200a19c <t4_taskB3_generic_FH_TUERMODUL_CTRL+0x98>
 200a5a8:	88200837 	lui	v1,0x4010
 200a5ac:	8c48f003 	lb	v1,572(v1)
 200a5b0:	dc41d863 	beqz	v1,200a19c <t4_taskB3_generic_FH_TUERMODUL_CTRL+0x98>
 200a5b4:	88200837 	lui	v1,0x4010
 200a5b8:	8c48e803 	lb	v1,570(v1)
 200a5bc:	dc41c0e3 	bnez	v1,200a19c <t4_taskB3_generic_FH_TUERMODUL_CTRL+0x98>
 200a5c0:	88200837 	lui	v1,0x4010
 200a5c4:	8c4a1103 	lw	v1,644(v1)
 200a5c8:	8c465513 	slt	v1,v1,405
 200a5cc:	dc41a063 	beqz	v1,200a19c <t4_taskB3_generic_FH_TUERMODUL_CTRL+0x98>
 200a5d0:	98200837 	lui	a1,0x4010
 200a5d4:	88000413 	li	v1,1
 200a5d8:	24c03423 	sb	zero,525(a1)
 200a5dc:	98200837 	lui	a1,0x4010
 200a5e0:	24a21023 	sb	v1,516(a0)
 200a5e4:	24e2d423 	sb	v1,565(a1)
 200a5e8:	90000813 	li	a0,2
 200a5ec:	88200837 	lui	v1,0x4010
 200a5f0:	24640423 	sb	a0,513(v1)
 200a5f4:	fffeea67 	j	200a19c <t4_taskB3_generic_FH_TUERMODUL_CTRL+0x98>
 200a5f8:	88200837 	lui	v1,0x4010
 200a5fc:	8c48e403 	lb	v1,569(v1)
 200a600:	ec409063 	beqz	v1,200a348 <t4_taskB3_generic_FH_TUERMODUL_CTRL+0x244>
 200a604:	88200837 	lui	v1,0x4010
 200a608:	94484103 	lw	a0,528(v1)
 200a60c:	88200837 	lui	v1,0x4010
 200a610:	24403423 	sb	zero,525(v1)
 200a614:	88200837 	lui	v1,0x4010
 200a618:	2440e023 	sb	zero,568(v1)
 200a61c:	88200837 	lui	v1,0x4010
 200a620:	2c648123 	sw	a0,672(v1)
 200a624:	ffff4367 	j	200a330 <t4_taskB3_generic_FH_TUERMODUL_CTRL+0x22c>
 200a628:	88200837 	lui	v1,0x4010
 200a62c:	8c48fc03 	lb	v1,575(v1)
 200a630:	dc40d863 	beqz	v1,200a19c <t4_taskB3_generic_FH_TUERMODUL_CTRL+0x98>
 200a634:	98200837 	lui	a1,0x4010
 200a638:	88000413 	li	v1,1
 200a63c:	24c03423 	sb	zero,525(a1)
 200a640:	98200837 	lui	a1,0x4010
 200a644:	24e2e023 	sb	v1,568(a1)
 200a648:	24a22c23 	sb	v1,523(a0)
 200a64c:	fffed467 	j	200a19c <t4_taskB3_generic_FH_TUERMODUL_CTRL+0x98>
 200a650:	a8200837 	lui	a3,0x4010
 200a654:	a5480403 	lb	a2,513(a3)
 200a658:	0d220863 	beq	a2,v1,200a75c <t4_taskB3_generic_FH_TUERMODUL_CTRL+0x658>
 200a65c:	0527b063 	beq	a2,a1,200a734 <t4_taskB3_generic_FH_TUERMODUL_CTRL+0x630>
 200a660:	88200837 	lui	v1,0x4010
 200a664:	24403423 	sb	zero,525(v1)
 200a668:	25660423 	sb	a1,513(a3)
 200a66c:	fffecc67 	j	200a19c <t4_taskB3_generic_FH_TUERMODUL_CTRL+0x98>
 200a670:	88200837 	lui	v1,0x4010
 200a674:	24403423 	sb	zero,525(v1)
 200a678:	88200837 	lui	v1,0x4010
 200a67c:	2440e023 	sb	zero,568(v1)
 200a680:	88000c13 	li	v1,3
 200a684:	24a21023 	sb	v1,516(a0)
 200a688:	fffec567 	j	200a19c <t4_taskB3_generic_FH_TUERMODUL_CTRL+0x98>
 200a68c:	88200837 	lui	v1,0x4010
 200a690:	8c48fc03 	lb	v1,575(v1)
 200a694:	044020e3 	bnez	v1,200a6a4 <t4_taskB3_generic_FH_TUERMODUL_CTRL+0x5a0>
 200a698:	88200837 	lui	v1,0x4010
 200a69c:	8c48f403 	lb	v1,573(v1)
 200a6a0:	fc41a0e3 	bnez	v1,200a670 <t4_taskB3_generic_FH_TUERMODUL_CTRL+0x56c>
 200a6a4:	98200837 	lui	a1,0x4010
 200a6a8:	94c80803 	lb	a0,514(a1)
 200a6ac:	88000413 	li	v1,1
 200a6b0:	0ca2c863 	beq	a0,v1,200a814 <t4_taskB3_generic_FH_TUERMODUL_CTRL+0x710>
 200a6b4:	a0000813 	li	a2,2
 200a6b8:	0ca82863 	beq	a0,a2,200a7cc <t4_taskB3_generic_FH_TUERMODUL_CTRL+0x6c8>
 200a6bc:	90200837 	lui	a0,0x4010
 200a6c0:	24803423 	sb	zero,525(a0)
 200a6c4:	90200837 	lui	a0,0x4010
 200a6c8:	24e80823 	sb	a2,514(a1)
 200a6cc:	04224423 	sb	v1,17(v0)
 200a6d0:	24a2e023 	sb	v1,568(a0)
 200a6d4:	fffeb267 	j	200a19c <t4_taskB3_generic_FH_TUERMODUL_CTRL+0x98>
 200a6d8:	88200837 	lui	v1,0x4010
 200a6dc:	8c48f003 	lb	v1,572(v1)
 200a6e0:	04402063 	beqz	v1,200a6f0 <t4_taskB3_generic_FH_TUERMODUL_CTRL+0x5ec>
 200a6e4:	88200837 	lui	v1,0x4010
 200a6e8:	8c48e803 	lb	v1,570(v1)
 200a6ec:	fc410863 	beqz	v1,200a670 <t4_taskB3_generic_FH_TUERMODUL_CTRL+0x56c>
 200a6f0:	88200837 	lui	v1,0x4010
 200a6f4:	8c48fc03 	lb	v1,575(v1)
 200a6f8:	04402063 	beqz	v1,200a708 <t4_taskB3_generic_FH_TUERMODUL_CTRL+0x604>
 200a6fc:	88200837 	lui	v1,0x4010
 200a700:	8c48f403 	lb	v1,573(v1)
 200a704:	fc40d863 	beqz	v1,200a670 <t4_taskB3_generic_FH_TUERMODUL_CTRL+0x56c>
 200a708:	98200837 	lui	a1,0x4010
 200a70c:	94c80c03 	lb	a0,515(a1)
 200a710:	88000413 	li	v1,1
 200a714:	0ca30863 	beq	a0,v1,200a898 <t4_taskB3_generic_FH_TUERMODUL_CTRL+0x794>
 200a718:	a0000813 	li	a2,2
 200a71c:	0ca86863 	beq	a0,a2,200a850 <t4_taskB3_generic_FH_TUERMODUL_CTRL+0x74c>
 200a720:	90200837 	lui	a0,0x4010
 200a724:	24803423 	sb	zero,525(a0)
 200a728:	24e80c23 	sb	a2,515(a1)
 200a72c:	04224423 	sb	v1,17(v0)
 200a730:	fffe9b67 	j	200a19c <t4_taskB3_generic_FH_TUERMODUL_CTRL+0x98>
 200a734:	98200837 	lui	a1,0x4010
 200a738:	9cc8fc03 	lb	a1,575(a1)
 200a73c:	04c0b063 	beqz	a1,200a794 <t4_taskB3_generic_FH_TUERMODUL_CTRL+0x690>
 200a740:	98200837 	lui	a1,0x4010
 200a744:	9cc8f403 	lb	a1,573(a1)
 200a748:	04c098e3 	bnez	a1,200a794 <t4_taskB3_generic_FH_TUERMODUL_CTRL+0x690>
 200a74c:	90200837 	lui	a0,0x4010
 200a750:	24803423 	sb	zero,525(a0)
 200a754:	25620423 	sb	v1,513(a3)
 200a758:	fffe9167 	j	200a19c <t4_taskB3_generic_FH_TUERMODUL_CTRL+0x98>
 200a75c:	88200837 	lui	v1,0x4010
 200a760:	8c48fc03 	lb	v1,575(v1)
 200a764:	04409863 	beqz	v1,200a7b0 <t4_taskB3_generic_FH_TUERMODUL_CTRL+0x6ac>
 200a768:	88200837 	lui	v1,0x4010
 200a76c:	8c48f403 	lb	v1,573(v1)
 200a770:	044080e3 	bnez	v1,200a7b0 <t4_taskB3_generic_FH_TUERMODUL_CTRL+0x6ac>
 200a774:	88200837 	lui	v1,0x4010
 200a778:	24403423 	sb	zero,525(v1)
 200a77c:	88200837 	lui	v1,0x4010
 200a780:	2440d423 	sb	zero,565(v1)
 200a784:	88000c13 	li	v1,3
 200a788:	24a21023 	sb	v1,516(a0)
 200a78c:	25400423 	sb	zero,513(a3)
 200a790:	fffe8367 	j	200a19c <t4_taskB3_generic_FH_TUERMODUL_CTRL+0x98>
 200a794:	88200837 	lui	v1,0x4010
 200a798:	8c48f003 	lb	v1,572(v1)
 200a79c:	d44000e3 	bnez	v1,200a19c <t4_taskB3_generic_FH_TUERMODUL_CTRL+0x98>
 200a7a0:	88200837 	lui	v1,0x4010
 200a7a4:	8c48e803 	lb	v1,570(v1)
 200a7a8:	cc41e863 	beqz	v1,200a19c <t4_taskB3_generic_FH_TUERMODUL_CTRL+0x98>
 200a7ac:	fffff267 	j	200a774 <t4_taskB3_generic_FH_TUERMODUL_CTRL+0x670>
 200a7b0:	88200837 	lui	v1,0x4010
 200a7b4:	8c48f003 	lb	v1,572(v1)
 200a7b8:	cc41c863 	beqz	v1,200a19c <t4_taskB3_generic_FH_TUERMODUL_CTRL+0x98>
 200a7bc:	88200837 	lui	v1,0x4010
 200a7c0:	8c48e803 	lb	v1,570(v1)
 200a7c4:	cc41b0e3 	bnez	v1,200a19c <t4_taskB3_generic_FH_TUERMODUL_CTRL+0x98>
 200a7c8:	ffffeb67 	j	200a774 <t4_taskB3_generic_FH_TUERMODUL_CTRL+0x670>
 200a7cc:	94006003 	lb	a0,24(v0)
 200a7d0:	0c800863 	beqz	a0,200a8d4 <t4_taskB3_generic_FH_TUERMODUL_CTRL+0x7d0>
 200a7d4:	90200837 	lui	a0,0x4010
 200a7d8:	a4884103 	lw	a2,528(a0)
 200a7dc:	90200837 	lui	a0,0x4010
 200a7e0:	24803423 	sb	zero,525(a0)
 200a7e4:	90200837 	lui	a0,0x4010
 200a7e8:	2480e023 	sb	zero,568(a0)
 200a7ec:	90200837 	lui	a0,0x4010
 200a7f0:	24a33823 	sb	v1,590(a0)
 200a7f4:	90200837 	lui	a0,0x4010
 200a7f8:	2ca82123 	sw	a2,648(a0)
 200a7fc:	90200837 	lui	a0,0x4010
 200a800:	04225c23 	sb	v1,23(v0)
 200a804:	24e20823 	sb	v1,514(a1)
 200a808:	04004423 	sb	zero,17(v0)
 200a80c:	24a2d423 	sb	v1,565(a0)
 200a810:	fffe6367 	j	200a19c <t4_taskB3_generic_FH_TUERMODUL_CTRL+0x98>
 200a814:	8c005803 	lb	v1,22(v0)
 200a818:	04005c23 	sb	zero,23(v0)
 200a81c:	cc410063 	beqz	v1,200a19c <t4_taskB3_generic_FH_TUERMODUL_CTRL+0x98>
 200a820:	88200837 	lui	v1,0x4010
 200a824:	24403423 	sb	zero,525(v1)
 200a828:	88200837 	lui	v1,0x4010
 200a82c:	24413823 	sb	zero,590(v1)
 200a830:	88000813 	li	v1,2
 200a834:	24e20823 	sb	v1,514(a1)
 200a838:	88200837 	lui	v1,0x4010
 200a83c:	2440d423 	sb	zero,565(v1)
 200a840:	88200837 	lui	v1,0x4010
 200a844:	04244423 	sb	a0,17(v0)
 200a848:	2464e023 	sb	a0,568(v1)
 200a84c:	fffe5467 	j	200a19c <t4_taskB3_generic_FH_TUERMODUL_CTRL+0x98>
 200a850:	94006003 	lb	a0,24(v0)
 200a854:	cc809063 	beqz	a0,200a19c <t4_taskB3_generic_FH_TUERMODUL_CTRL+0x98>
 200a858:	90200837 	lui	a0,0x4010
 200a85c:	a4884103 	lw	a2,528(a0)
 200a860:	90200837 	lui	a0,0x4010
 200a864:	24803423 	sb	zero,525(a0)
 200a868:	90200837 	lui	a0,0x4010
 200a86c:	24a34023 	sb	v1,592(a0)
 200a870:	90200837 	lui	a0,0x4010
 200a874:	2480e023 	sb	zero,568(a0)
 200a878:	90200837 	lui	a0,0x4010
 200a87c:	2ca83123 	sw	a2,652(a0)
 200a880:	90200837 	lui	a0,0x4010
 200a884:	04225c23 	sb	v1,23(v0)
 200a888:	24e20c23 	sb	v1,515(a1)
 200a88c:	04004423 	sb	zero,17(v0)
 200a890:	24a2d423 	sb	v1,565(a0)
 200a894:	fffe4267 	j	200a19c <t4_taskB3_generic_FH_TUERMODUL_CTRL+0x98>
 200a898:	8c005803 	lb	v1,22(v0)
 200a89c:	04005c23 	sb	zero,23(v0)
 200a8a0:	c441f863 	beqz	v1,200a19c <t4_taskB3_generic_FH_TUERMODUL_CTRL+0x98>
 200a8a4:	88200837 	lui	v1,0x4010
 200a8a8:	24403423 	sb	zero,525(v1)
 200a8ac:	88200837 	lui	v1,0x4010
 200a8b0:	2464e023 	sb	a0,568(v1)
 200a8b4:	88200837 	lui	v1,0x4010
 200a8b8:	24414023 	sb	zero,592(v1)
 200a8bc:	88000813 	li	v1,2
 200a8c0:	24e20c23 	sb	v1,515(a1)
 200a8c4:	88200837 	lui	v1,0x4010
 200a8c8:	2440d423 	sb	zero,565(v1)
 200a8cc:	04244423 	sb	a0,17(v0)
 200a8d0:	fffe3367 	j	200a19c <t4_taskB3_generic_FH_TUERMODUL_CTRL+0x98>
 200a8d4:	90200837 	lui	a0,0x4010
 200a8d8:	9488f003 	lb	a0,572(a0)
 200a8dc:	c4818063 	beqz	a0,200a19c <t4_taskB3_generic_FH_TUERMODUL_CTRL+0x98>
 200a8e0:	90200837 	lui	a0,0x4010
 200a8e4:	9488e803 	lb	a0,570(a0)
 200a8e8:	c48168e3 	bnez	a0,200a19c <t4_taskB3_generic_FH_TUERMODUL_CTRL+0x98>
 200a8ec:	90200837 	lui	a0,0x4010
 200a8f0:	24803423 	sb	zero,525(a0)
 200a8f4:	25620023 	sb	v1,512(a3)
 200a8f8:	24c00823 	sb	zero,514(a1)
 200a8fc:	fffe2867 	j	200a19c <t4_taskB3_generic_FH_TUERMODUL_CTRL+0x98>

0200a900 <t4_taskB3_generic_EINKLEMMSCHUTZ_CTRL>:
 200a900:	80200837 	lui	v0,0x4010
 200a904:	840ad013 	add	v0,v0,692
 200a908:	8c004003 	lb	v1,16(v0)
 200a90c:	04405063 	beqz	v1,200a934 <t4_taskB3_generic_EINKLEMMSCHUTZ_CTRL+0x34>
 200a910:	90200837 	lui	a0,0x4010
 200a914:	8c87f803 	lb	v1,510(a0)
 200a918:	98000413 	li	a1,1
 200a91c:	04663863 	beq	v1,a1,200a938 <t4_taskB3_generic_EINKLEMMSCHUTZ_CTRL+0x38>
 200a920:	a0000813 	li	a2,2
 200a924:	0468c063 	beq	v1,a2,200a984 <t4_taskB3_generic_EINKLEMMSCHUTZ_CTRL+0x84>
 200a928:	80200837 	lui	v0,0x4010
 200a92c:	24003423 	sb	zero,525(v0)
 200a930:	1ca7f823 	sb	a1,510(a0)
 200a934:	004000eb 	ret
 200a938:	88200837 	lui	v1,0x4010
 200a93c:	8c48cc03 	lb	v1,563(v1)
 200a940:	fc41e863 	beqz	v1,200a934 <t4_taskB3_generic_EINKLEMMSCHUTZ_CTRL+0x34>
 200a944:	88200837 	lui	v1,0x4010
 200a948:	8c48c803 	lb	v1,562(v1)
 200a94c:	fc41d0e3 	bnez	v1,200a934 <t4_taskB3_generic_EINKLEMMSCHUTZ_CTRL+0x34>
 200a950:	88200837 	lui	v1,0x4010
 200a954:	8c48fc03 	lb	v1,575(v1)
 200a958:	04402063 	beqz	v1,200a968 <t4_taskB3_generic_EINKLEMMSCHUTZ_CTRL+0x68>
 200a95c:	88200837 	lui	v1,0x4010
 200a960:	8c48f003 	lb	v1,572(v1)
 200a964:	fc41a0e3 	bnez	v1,200a934 <t4_taskB3_generic_EINKLEMMSCHUTZ_CTRL+0x34>
 200a968:	88200837 	lui	v1,0x4010
 200a96c:	24403423 	sb	zero,525(v1)
 200a970:	88000413 	li	v1,1
 200a974:	04226023 	sb	v1,24(v0)
 200a978:	80000813 	li	v0,2
 200a97c:	1ca1f823 	sb	v0,510(a0)
 200a980:	004000eb 	ret
 200a984:	88200837 	lui	v1,0x4010
 200a988:	8c48cc03 	lb	v1,563(v1)
 200a98c:	04006023 	sb	zero,24(v0)
 200a990:	fc4148e3 	bnez	v1,200a934 <t4_taskB3_generic_EINKLEMMSCHUTZ_CTRL+0x34>
 200a994:	80200837 	lui	v0,0x4010
 200a998:	8408c803 	lb	v0,562(v0)
 200a99c:	fc013063 	beqz	v0,200a934 <t4_taskB3_generic_EINKLEMMSCHUTZ_CTRL+0x34>
 200a9a0:	80200837 	lui	v0,0x4010
 200a9a4:	24003423 	sb	zero,525(v0)
 200a9a8:	1ca7f823 	sb	a1,510(a0)
 200a9ac:	004000eb 	ret

0200a9b0 <t4_taskB3_generic_BLOCK_ERKENNUNG_CTRL>:
 200a9b0:	88200837 	lui	v1,0x4010
 200a9b4:	844ad013 	add	v0,v1,692
 200a9b8:	94004c03 	lb	a0,19(v0)
 200a9bc:	048038e3 	bnez	a0,200a9d8 <t4_taskB3_generic_BLOCK_ERKENNUNG_CTRL+0x28>
 200a9c0:	94005403 	lb	a0,21(v0)
 200a9c4:	04807063 	beqz	a0,200a9fc <t4_taskB3_generic_BLOCK_ERKENNUNG_CTRL+0x4c>
 200a9c8:	84005003 	lb	v0,20(v0)
 200a9cc:	040060e3 	bnez	v0,200a9fc <t4_taskB3_generic_BLOCK_ERKENNUNG_CTRL+0x4c>
 200a9d0:	2c40d023 	sb	zero,692(v1)
 200a9d4:	004000eb 	ret
 200a9d8:	90200837 	lui	a0,0x4010
 200a9dc:	8487f003 	lb	v0,508(a0)
 200a9e0:	98000413 	li	a1,1
 200a9e4:	04263863 	beq	v0,a1,200aa00 <t4_taskB3_generic_BLOCK_ERKENNUNG_CTRL+0x50>
 200a9e8:	a0000813 	li	a2,2
 200a9ec:	0428d863 	beq	v0,a2,200aa58 <t4_taskB3_generic_BLOCK_ERKENNUNG_CTRL+0xa8>
 200a9f0:	80200837 	lui	v0,0x4010
 200a9f4:	24003423 	sb	zero,525(v0)
 200a9f8:	1ca7f023 	sb	a1,508(a0)
 200a9fc:	004000eb 	ret
 200aa00:	98200837 	lui	a1,0x4010
 200aa04:	a0200837 	lui	a2,0x4010
 200aa08:	9cca0103 	lw	a1,640(a1)
 200aa0c:	a509f103 	lw	a2,636(a2)
 200aa10:	fce9d863 	beq	a1,a2,200a9fc <t4_taskB3_generic_BLOCK_ERKENNUNG_CTRL+0x4c>
 200aa14:	f827d2e3 	blez	a1,200a9fc <t4_taskB3_generic_BLOCK_ERKENNUNG_CTRL+0x4c>
 200aa18:	98200837 	lui	a1,0x4010
 200aa1c:	24c03423 	sb	zero,525(a1)
 200aa20:	98200837 	lui	a1,0x4010
 200aa24:	24c10823 	sb	zero,578(a1)
 200aa28:	98000813 	li	a1,2
 200aa2c:	1ca7f023 	sb	a1,508(a0)
 200aa30:	90200837 	lui	a0,0x4010
 200aa34:	98000813 	li	a1,2
 200aa38:	24817123 	sw	zero,604(a0)
 200aa3c:	90200837 	lui	a0,0x4010
 200aa40:	24a79123 	sw	a1,612(a0)
 200aa44:	98000c13 	li	a1,3
 200aa48:	90200837 	lui	a0,0x4010
 200aa4c:	1ca7f423 	sb	a1,509(a0)
 200aa50:	2c60d023 	sb	v0,692(v1)
 200aa54:	004000eb 	ret
 200aa58:	80200837 	lui	v0,0x4010
 200aa5c:	8408d803 	lb	v0,566(v0)
 200aa60:	0400c063 	beqz	v0,200aac0 <t4_taskB3_generic_BLOCK_ERKENNUNG_CTRL+0x110>
 200aa64:	80200837 	lui	v0,0x4010
 200aa68:	8408e403 	lb	v0,569(v0)
 200aa6c:	040020e3 	bnez	v0,200aa7c <t4_taskB3_generic_BLOCK_ERKENNUNG_CTRL+0xcc>
 200aa70:	80200837 	lui	v0,0x4010
 200aa74:	8408dc03 	lb	v0,567(v0)
 200aa78:	0400a8e3 	bnez	v0,200aacc <t4_taskB3_generic_BLOCK_ERKENNUNG_CTRL+0x11c>
 200aa7c:	90200837 	lui	a0,0x4010
 200aa80:	8487f403 	lb	v0,509(a0)
 200aa84:	98000813 	li	a1,2
 200aa88:	0427b063 	beq	v0,a1,200ab60 <t4_taskB3_generic_BLOCK_ERKENNUNG_CTRL+0x1b0>
 200aa8c:	a0000c13 	li	a2,3
 200aa90:	0428b863 	beq	v0,a2,200aaec <t4_taskB3_generic_BLOCK_ERKENNUNG_CTRL+0x13c>
 200aa94:	a8000413 	li	a3,1
 200aa98:	042aa063 	beq	v0,a3,200aae8 <t4_taskB3_generic_BLOCK_ERKENNUNG_CTRL+0x138>
 200aa9c:	80200837 	lui	v0,0x4010
 200aaa0:	24003423 	sb	zero,525(v0)
 200aaa4:	80200837 	lui	v0,0x4010
 200aaa8:	24017123 	sw	zero,604(v0)
 200aaac:	80200837 	lui	v0,0x4010
 200aab0:	24279123 	sw	a1,612(v0)
 200aab4:	1ca9f423 	sb	a2,509(a0)
 200aab8:	2c6ad023 	sb	a3,692(v1)
 200aabc:	004000eb 	ret
 200aac0:	80200837 	lui	v0,0x4010
 200aac4:	8408d003 	lb	v0,564(v0)
 200aac8:	fc013863 	beqz	v0,200aa64 <t4_taskB3_generic_BLOCK_ERKENNUNG_CTRL+0xb4>
 200aacc:	80200837 	lui	v0,0x4010
 200aad0:	24003423 	sb	zero,525(v0)
 200aad4:	80000413 	li	v0,1
 200aad8:	1ca1f023 	sb	v0,508(a0)
 200aadc:	80200837 	lui	v0,0x4010
 200aae0:	1c01f423 	sb	zero,509(v0)
 200aae4:	004000eb 	ret
 200aae8:	004000eb 	ret
 200aaec:	a0200837 	lui	a2,0x4010
 200aaf0:	85097103 	lw	v0,604(a2)
 200aaf4:	2c40d023 	sb	zero,692(v1)
 200aaf8:	88002c13 	li	v1,11
 200aafc:	04233063 	beq	v0,v1,200ab94 <t4_taskB3_generic_BLOCK_ERKENNUNG_CTRL+0x1e4>
 200ab00:	88200837 	lui	v1,0x4010
 200ab04:	94483003 	lb	a0,524(v1)
 200ab08:	88000413 	li	v1,1
 200ab0c:	f4a3e0e3 	bne	a0,v1,200a9fc <t4_taskB3_generic_BLOCK_ERKENNUNG_CTRL+0x4c>
 200ab10:	88200837 	lui	v1,0x4010
 200ab14:	8c4ac103 	lw	v1,688(v1)
 200ab18:	f441c863 	beqz	v1,200a9fc <t4_taskB3_generic_BLOCK_ERKENNUNG_CTRL+0x4c>
 200ab1c:	90200837 	lui	a0,0x4010
 200ab20:	94884103 	lw	a0,528(a0)
 200ab24:	8ca30033 	sub	v1,a0,v1
 200ab28:	8c40f0d3 	fcvt.d.wu	fv1,v1
 200ab2c:	88200037 	lui	v1,0x4000
 200ab30:	84402187 	fld	fv0,8(v1)
 200ab34:	8c6150d3 	feq.d	v1,fv1,fv0
 200ab38:	f4418863 	beqz	v1,200a9fc <t4_taskB3_generic_BLOCK_ERKENNUNG_CTRL+0x4c>
 200ab3c:	88200837 	lui	v1,0x4010
 200ab40:	90200837 	lui	a0,0x4010
 200ab44:	948a0103 	lw	a0,640(a0)
 200ab48:	9c499103 	lw	a1,612(v1)
 200ab4c:	84000413 	add	v0,v0,1
 200ab50:	25217123 	sw	v0,604(a2)
 200ab54:	f4e552e3 	ble	a0,a1,200a9fc <t4_taskB3_generic_BLOCK_ERKENNUNG_CTRL+0x4c>
 200ab58:	24659123 	sw	a0,612(v1)
 200ab5c:	004000eb 	ret
 200ab60:	80200837 	lui	v0,0x4010
 200ab64:	8c099103 	lw	v1,612(v0)
 200ab68:	80200837 	lui	v0,0x4010
 200ab6c:	840a0103 	lw	v0,640(v0)
 200ab70:	8c7ffc13 	add	v1,v1,-1
 200ab74:	f4231263 	blt	v0,v1,200a9fc <t4_taskB3_generic_BLOCK_ERKENNUNG_CTRL+0x4c>
 200ab78:	88200837 	lui	v1,0x4010
 200ab7c:	80000413 	li	v0,1
 200ab80:	24403423 	sb	zero,525(v1)
 200ab84:	88200837 	lui	v1,0x4010
 200ab88:	24610823 	sb	v0,578(v1)
 200ab8c:	1ca1f423 	sb	v0,509(a0)
 200ab90:	004000eb 	ret
 200ab94:	88200837 	lui	v1,0x4010
 200ab98:	8c495103 	lw	v1,596(v1)
 200ab9c:	fc60c863 	beq	v1,v0,200ab00 <t4_taskB3_generic_BLOCK_ERKENNUNG_CTRL+0x150>
 200aba0:	80200837 	lui	v0,0x4010
 200aba4:	24003423 	sb	zero,525(v0)
 200aba8:	1ca7f423 	sb	a1,509(a0)
 200abac:	004000eb 	ret

0200abb0 <t4_taskB3_FH_DU>:
 200abb0:	73be2013 	add	sp,sp,-120
 200abb4:	0385c123 	sw	s0,112(sp)
 200abb8:	10200837 	lui	s0,0x4010
 200abbc:	0387b123 	sw	s1,108(sp)
 200abc0:	0389a123 	sw	s2,104(sp)
 200abc4:	038b9123 	sw	s3,100(sp)
 200abc8:	038d8123 	sw	s4,96(sp)
 200abcc:	038f7123 	sw	s5,92(sp)
 200abd0:	03916123 	sw	s6,88(sp)
 200abd4:	03935123 	sw	s7,84(sp)
 200abd8:	03954123 	sw	s8,80(sp)
 200abdc:	03973123 	sw	s9,76(sp)
 200abe0:	03992123 	sw	s10,72(sp)
 200abe4:	039b1123 	sw	s11,68(sp)
 200abe8:	0383d123 	sw	ra,116(sp)
 200abec:	108ad013 	add	s0,s0,692
 200abf0:	88000413 	li	v1,1
 200abf4:	80200837 	lui	v0,0x4010
 200abf8:	24224123 	sw	v1,528(v0)
 200abfc:	a8804003 	lb	a3,16(s0)
 200ac00:	88802803 	lb	v1,10(s0)
 200ac04:	b0804c03 	lb	a4,19(s0)
 200ac08:	b8803403 	lb	a5,13(s0)
 200ac0c:	80200837 	lui	v0,0x4010
 200ac10:	c0200837 	lui	a6,0x4010
 200ac14:	c8200837 	lui	a7,0x4010
 200ac18:	24003023 	sb	zero,524(v0)
 200ac1c:	03a2a123 	sw	v1,40(sp)
 200ac20:	86089803 	lb	v0,550(a6)
 200ac24:	03aac123 	sw	a3,48(sp)
 200ac28:	03acd123 	sw	a4,52(sp)
 200ac2c:	03aeb123 	sw	a5,44(sp)
 200ac30:	c6489003 	lb	a6,548(a7)
 200ac34:	58200837 	lui	s9,0x4010
 200ac38:	60200837 	lui	s10,0x4010
 200ac3c:	20200837 	lui	s2,0x4010
 200ac40:	e0200837 	lui	a10,0x4010
 200ac44:	18200837 	lui	s1,0x4010
 200ac48:	50200837 	lui	s8,0x4010
 200ac4c:	48200837 	lui	s7,0x4010
 200ac50:	40200837 	lui	s6,0x4010
 200ac54:	38200837 	lui	s5,0x4010
 200ac58:	30200837 	lui	s4,0x4010
 200ac5c:	28200837 	lui	s3,0x4010
 200ac60:	a0200837 	lui	a2,0x4010
 200ac64:	98200837 	lui	a1,0x4010
 200ac68:	90200837 	lui	a0,0x4010
 200ac6c:	88200837 	lui	v1,0x4010
 200ac70:	68200837 	lui	s11,0x4010
 200ac74:	00016e67 	j	200b22c <t4_taskB3_FH_DU+0x67c>
 200ac78:	b0000c13 	li	a4,3
 200ac7c:	356c2063 	beq	a3,a4,200b28c <t4_taskB3_FH_DU+0x6dc>
 200ac80:	b0000413 	li	a4,1
 200ac84:	356c7863 	beq	a3,a4,200b2c0 <t4_taskB3_FH_DU+0x710>
 200ac88:	f8200837 	lui	a13,0x4010
 200ac8c:	a8200837 	lui	a3,0x4010
 200ac90:	b8000813 	li	a5,2
 200ac94:	b0200837 	lui	a4,0x4010
 200ac98:	27c03423 	sb	zero,525(a13)
 200ac9c:	2541e123 	sw	zero,632(a3)
 200aca0:	1daffc23 	sb	a5,511(a4)
 200aca4:	cb80a103 	lw	a7,40(sp)
 200aca8:	064020e3 	bnez	a7,200acb8 <t4_taskB3_FH_DU+0x108>
 200acac:	a8000c13 	li	a3,3
 200acb0:	d0200837 	lui	a8,0x4010
 200acb4:	26aa2023 	sb	a3,520(a8)
 200acb8:	db80c103 	lw	a9,48(sp)
 200acbc:	06c020e3 	bnez	a9,200accc <t4_taskB3_FH_DU+0x11c>
 200acc0:	b0000413 	li	a4,1
 200acc4:	a8200837 	lui	a3,0x4010
 200acc8:	1d6df823 	sb	a4,510(a3)
 200accc:	eb80d103 	lw	a11,52(sp)
 200acd0:	074030e3 	bnez	a11,200ace8 <t4_taskB3_FH_DU+0x138>
 200acd4:	a8200837 	lui	a3,0x4010
 200acd8:	2d40d023 	sb	zero,692(a3)
 200acdc:	b0000413 	li	a4,1
 200ace0:	a8200837 	lui	a3,0x4010
 200ace4:	1d6df023 	sb	a4,508(a3)
 200ace8:	f380b103 	lw	a12,44(sp)
 200acec:	078070e3 	bnez	a12,200ad24 <t4_taskB3_FH_DU+0x174>
 200acf0:	b0000813 	li	a4,2
 200acf4:	f8200837 	lui	a13,0x4010
 200acf8:	a8000413 	li	a3,1
 200acfc:	27ec1c23 	sb	a4,519(a13)
 200ad00:	b0200837 	lui	a4,0x4010
 200ad04:	b8200837 	lui	a5,0x4010
 200ad08:	25aa1823 	sb	a3,518(a4)
 200ad0c:	b0200837 	lui	a4,0x4010
 200ad10:	00801023 	sb	zero,4(s0)
 200ad14:	00801823 	sb	zero,6(s0)
 200ad18:	2dc06123 	sw	zero,664(a5)
 200ad1c:	00aa1423 	sb	a3,5(s0)
 200ad20:	25aa1423 	sb	a3,517(a4)
 200ad24:	a8000413 	li	a3,1
 200ad28:	00aa2c23 	sb	a3,11(s0)
 200ad2c:	00aa4423 	sb	a3,17(s0)
 200ad30:	00aa5023 	sb	a3,20(s0)
 200ad34:	00aa3823 	sb	a3,14(s0)
 200ad38:	04302863 	beq	v0,a6,200ad4c <t4_taskB3_FH_DU+0x19c>
 200ad3c:	a8200837 	lui	a3,0x4010
 200ad40:	ad487403 	lb	a3,541(a3)
 200ad44:	054010e3 	bnez	a3,200ad4c <t4_taskB3_FH_DU+0x19c>
 200ad48:	2120b823 	sb	v0,558(s2)
 200ad4c:	c0200837 	lui	a6,0x4010
 200ad50:	c8200837 	lui	a7,0x4010
 200ad54:	86088c03 	lb	v0,547(a6)
 200ad58:	ae488803 	lb	a3,546(a7)
 200ad5c:	05603063 	beq	a3,v0,200ad74 <t4_taskB3_FH_DU+0x1c4>
 200ad60:	a8200837 	lui	a3,0x4010
 200ad64:	ad487403 	lb	a3,541(a3)
 200ad68:	05401863 	beqz	a3,200ad74 <t4_taskB3_FH_DU+0x1c4>
 200ad6c:	d0200837 	lui	a8,0x4010
 200ad70:	26a09823 	sb	v0,550(a8)
 200ad74:	d8200837 	lui	a9,0x4010
 200ad78:	8708a403 	lb	v0,553(a10)
 200ad7c:	aec89c03 	lb	a3,551(a9)
 200ad80:	05602863 	beq	a3,v0,200ad94 <t4_taskB3_FH_DU+0x1e4>
 200ad84:	a8200837 	lui	a3,0x4010
 200ad88:	ad487403 	lb	a3,541(a3)
 200ad8c:	054010e3 	bnez	a3,200ad94 <t4_taskB3_FH_DU+0x1e4>
 200ad90:	20e0b423 	sb	v0,557(s1)
 200ad94:	e8200837 	lui	a11,0x4010
 200ad98:	f0200837 	lui	a12,0x4010
 200ad9c:	87488403 	lb	v0,545(a11)
 200ada0:	af888003 	lb	a3,544(a12)
 200ada4:	05602863 	beq	a3,v0,200adb8 <t4_taskB3_FH_DU+0x208>
 200ada8:	a8200837 	lui	a3,0x4010
 200adac:	ad487403 	lb	a3,541(a3)
 200adb0:	05401063 	beqz	a3,200adb8 <t4_taskB3_FH_DU+0x208>
 200adb4:	2720a423 	sb	v0,553(a10)
 200adb8:	d8803203 	lbu	a9,12(s0)
 200adbc:	d0803e03 	lbu	a8,15(s0)
 200adc0:	c8804a03 	lbu	a7,18(s0)
 200adc4:	c0805603 	lbu	a6,21(s0)
 200adc8:	ba487a03 	lbu	a5,542(s7)
 200adcc:	b0c8b603 	lbu	a4,557(s1)
 200add0:	a9887e03 	lbu	a3,543(s4)
 200add4:	8108ba03 	lbu	v0,558(s2)
 200add8:	00b62823 	sb	a9,10(s0)
 200addc:	00b43423 	sb	a8,13(s0)
 200ade0:	00b24023 	sb	a7,16(s0)
 200ade4:	00b04c23 	sb	a6,19(s0)
 200ade8:	22af1823 	sb	a5,582(s8)
 200adec:	03b86123 	sw	a10,24(sp)
 200adf0:	222d2023 	sb	a4,584(s6)
 200adf4:	21eb2823 	sb	a3,586(s5)
 200adf8:	21613023 	sb	v0,588(s3)
 200adfc:	03a25123 	sw	v1,20(sp)
 200ae00:	03a48123 	sw	a0,32(sp)
 200ae04:	03a64123 	sw	a1,16(sp)
 200ae08:	03a87123 	sw	a2,28(sp)
 200ae0c:	fffbe46f 	jal	2009d9c <t4_taskB3_generic_KINDERSICHERUNG_CTRL>
 200ae10:	a3807103 	lw	a2,28(sp)
 200ae14:	9b804103 	lw	a1,16(sp)
 200ae18:	f8200837 	lui	a13,0x4010
 200ae1c:	80200837 	lui	v0,0x4010
 200ae20:	0fc8da03 	lbu	ra,566(a13)
 200ae24:	93808103 	lw	a0,32(sp)
 200ae28:	fc08e603 	lbu	a13,569(v0)
 200ae2c:	8b805103 	lw	v1,20(sp)
 200ae30:	f50a0103 	lw	a12,640(a2)
 200ae34:	a8200837 	lui	a3,0x4010
 200ae38:	ed48ce03 	lbu	a11,563(a3)
 200ae3c:	dcca1103 	lw	a9,644(a1)
 200ae40:	d4890203 	lbu	a8,576(a0)
 200ae44:	ac491203 	lbu	a3,580(v1)
 200ae48:	ca891a03 	lbu	a7,582(s8)
 200ae4c:	c2092203 	lbu	a6,584(s6)
 200ae50:	b9c92a03 	lbu	a5,586(s5)
 200ae54:	b1493203 	lbu	a4,588(s3)
 200ae58:	83490e03 	lbu	v0,579(s11)
 200ae5c:	22fe6423 	sb	a13,537(s9)
 200ae60:	f8200837 	lui	a13,0x4010
 200ae64:	27fdb123 	sw	a12,620(a13)
 200ae68:	f8200837 	lui	a13,0x4010
 200ae6c:	f0200837 	lui	a12,0x4010
 200ae70:	27baac23 	sb	a11,555(a12)
 200ae74:	27f7c123 	sw	a9,624(a13)
 200ae78:	e8200837 	lui	a11,0x4010
 200ae7c:	d8200837 	lui	a9,0x4010
 200ae80:	f0200837 	lui	a12,0x4010
 200ae84:	26f4b023 	sb	a8,556(a9)
 200ae88:	276abc23 	sb	a3,559(a11)
 200ae8c:	27a07023 	sb	v0,540(a12)
 200ae90:	23025823 	sb	ra,534(s10)
 200ae94:	22727823 	sb	a7,542(s7)
 200ae98:	20f0b423 	sb	a6,557(s1)
 200ae9c:	21ae7c23 	sb	a5,543(s4)
 200aea0:	212cb823 	sb	a4,558(s2)
 200aea4:	fffc986f 	jal	200a104 <t4_taskB3_generic_FH_TUERMODUL_CTRL>
 200aea8:	a3807103 	lw	a2,28(sp)
 200aeac:	9b804103 	lw	a1,16(sp)
 200aeb0:	f8200837 	lui	a13,0x4010
 200aeb4:	80200837 	lui	v0,0x4010
 200aeb8:	0fc8da03 	lbu	ra,566(a13)
 200aebc:	93808103 	lw	a0,32(sp)
 200aec0:	fc08e603 	lbu	a13,569(v0)
 200aec4:	8b805103 	lw	v1,20(sp)
 200aec8:	f50a0103 	lw	a12,640(a2)
 200aecc:	a8200837 	lui	a3,0x4010
 200aed0:	ed48ce03 	lbu	a11,563(a3)
 200aed4:	dcca1103 	lw	a9,644(a1)
 200aed8:	d4890203 	lbu	a8,576(a0)
 200aedc:	ac491203 	lbu	a3,580(v1)
 200aee0:	ca891a03 	lbu	a7,582(s8)
 200aee4:	c2092203 	lbu	a6,584(s6)
 200aee8:	b9c92a03 	lbu	a5,586(s5)
 200aeec:	b1493203 	lbu	a4,588(s3)
 200aef0:	83490e03 	lbu	v0,579(s11)
 200aef4:	22fe6423 	sb	a13,537(s9)
 200aef8:	f8200837 	lui	a13,0x4010
 200aefc:	27fdb123 	sw	a12,620(a13)
 200af00:	f8200837 	lui	a13,0x4010
 200af04:	f0200837 	lui	a12,0x4010
 200af08:	27baac23 	sb	a11,555(a12)
 200af0c:	27f7c123 	sw	a9,624(a13)
 200af10:	e8200837 	lui	a11,0x4010
 200af14:	d8200837 	lui	a9,0x4010
 200af18:	f0200837 	lui	a12,0x4010
 200af1c:	26f4b023 	sb	a8,556(a9)
 200af20:	276abc23 	sb	a3,559(a11)
 200af24:	27a07023 	sb	v0,540(a12)
 200af28:	23025823 	sb	ra,534(s10)
 200af2c:	22727823 	sb	a7,542(s7)
 200af30:	20f0b423 	sb	a6,557(s1)
 200af34:	21ae7c23 	sb	a5,543(s4)
 200af38:	212cb823 	sb	a4,558(s2)
 200af3c:	fffe716f 	jal	200a900 <t4_taskB3_generic_EINKLEMMSCHUTZ_CTRL>
 200af40:	a3807103 	lw	a2,28(sp)
 200af44:	9b804103 	lw	a1,16(sp)
 200af48:	f8200837 	lui	a13,0x4010
 200af4c:	80200837 	lui	v0,0x4010
 200af50:	0fc8da03 	lbu	ra,566(a13)
 200af54:	93808103 	lw	a0,32(sp)
 200af58:	fc08e603 	lbu	a13,569(v0)
 200af5c:	8b805103 	lw	v1,20(sp)
 200af60:	f50a0103 	lw	a12,640(a2)
 200af64:	a8200837 	lui	a3,0x4010
 200af68:	ed48ce03 	lbu	a11,563(a3)
 200af6c:	dcca1103 	lw	a9,644(a1)
 200af70:	d4890203 	lbu	a8,576(a0)
 200af74:	ac491203 	lbu	a3,580(v1)
 200af78:	ca891a03 	lbu	a7,582(s8)
 200af7c:	c2092203 	lbu	a6,584(s6)
 200af80:	b9c92a03 	lbu	a5,586(s5)
 200af84:	b1493203 	lbu	a4,588(s3)
 200af88:	83490e03 	lbu	v0,579(s11)
 200af8c:	22fe6423 	sb	a13,537(s9)
 200af90:	f8200837 	lui	a13,0x4010
 200af94:	27fdb123 	sw	a12,620(a13)
 200af98:	f8200837 	lui	a13,0x4010
 200af9c:	f0200837 	lui	a12,0x4010
 200afa0:	27baac23 	sb	a11,555(a12)
 200afa4:	27f7c123 	sw	a9,624(a13)
 200afa8:	e8200837 	lui	a11,0x4010
 200afac:	d8200837 	lui	a9,0x4010
 200afb0:	f0200837 	lui	a12,0x4010
 200afb4:	26f4b023 	sb	a8,556(a9)
 200afb8:	276abc23 	sb	a3,559(a11)
 200afbc:	27a07023 	sb	v0,540(a12)
 200afc0:	22727823 	sb	a7,542(s7)
 200afc4:	20f0b423 	sb	a6,557(s1)
 200afc8:	21ae7c23 	sb	a5,543(s4)
 200afcc:	212cb823 	sb	a4,558(s2)
 200afd0:	23025823 	sb	ra,534(s10)
 200afd4:	fffe776f 	jal	200a9b0 <t4_taskB3_generic_BLOCK_ERKENNUNG_CTRL>
 200afd8:	d0803403 	lb	a8,13(s0)
 200afdc:	d8804003 	lb	a9,16(s0)
 200afe0:	a3807103 	lw	a2,28(sp)
 200afe4:	c8802803 	lb	a7,10(s0)
 200afe8:	f8200837 	lui	a13,0x4010
 200afec:	afc8cc03 	lb	a3,563(a13)
 200aff0:	b2891803 	lb	a4,582(s8)
 200aff4:	f8804c03 	lb	a13,19(s0)
 200aff8:	9b804103 	lw	a1,16(sp)
 200affc:	850a0103 	lw	v0,640(a2)
 200b000:	ba092003 	lb	a5,584(s6)
 200b004:	93808103 	lw	a0,32(sp)
 200b008:	03b4b123 	sw	a8,44(sp)
 200b00c:	03b6c123 	sw	a9,48(sp)
 200b010:	d0200837 	lui	a8,0x4010
 200b014:	d8200837 	lui	a9,0x4010
 200b018:	03b2a123 	sw	a7,40(sp)
 200b01c:	ce8a6103 	lw	a7,664(a8)
 200b020:	d6c9d103 	lw	a8,628(a9)
 200b024:	d8200837 	lui	a9,0x4010
 200b028:	03ace123 	sw	a4,56(sp)
 200b02c:	03bed123 	sw	a13,52(sp)
 200b030:	b4ca1103 	lw	a4,644(a1)
 200b034:	fec97103 	lw	a13,604(a9)
 200b038:	d8200837 	lui	a9,0x4010
 200b03c:	03ae3123 	sw	a5,12(sp)
 200b040:	26e1b123 	sw	v0,620(a9)
 200b044:	bc890203 	lbu	a5,576(a0)
 200b048:	d8200837 	lui	a9,0x4010
 200b04c:	26eaac23 	sb	a3,555(a9)
 200b050:	d8200837 	lui	a9,0x4010
 200b054:	26edc123 	sw	a4,624(a9)
 200b058:	8b805103 	lw	v1,20(sp)
 200b05c:	b0200837 	lui	a4,0x4010
 200b060:	25aeb023 	sb	a5,556(a4)
 200b064:	db803103 	lw	a9,12(sp)
 200b068:	bb80e103 	lw	a5,56(sp)
 200b06c:	c4491203 	lbu	a6,580(v1)
 200b070:	e9c92803 	lb	a11,586(s5)
 200b074:	f1493003 	lb	a12,588(s3)
 200b078:	226e7823 	sb	a5,542(s7)
 200b07c:	20f6b423 	sb	a9,557(s1)
 200b080:	bb80a103 	lw	a5,40(sp)
 200b084:	db80c103 	lw	a9,48(sp)
 200b088:	b0200837 	lui	a4,0x4010
 200b08c:	25b0bc23 	sb	a6,559(a4)
 200b090:	c380b103 	lw	a6,44(sp)
 200b094:	00ae2c23 	sb	a5,11(s0)
 200b098:	b8200837 	lui	a5,0x4010
 200b09c:	00b64423 	sb	a9,17(s0)
 200b0a0:	b380d103 	lw	a4,52(sp)
 200b0a4:	2df24123 	sw	a7,656(a5)
 200b0a8:	d8200837 	lui	a9,0x4010
 200b0ac:	c8200837 	lui	a7,0x4010
 200b0b0:	00b03823 	sb	a6,14(s0)
 200b0b4:	2675e123 	sw	a8,632(a7)
 200b0b8:	26ff5123 	sw	a13,596(a9)
 200b0bc:	c0200837 	lui	a6,0x4010
 200b0c0:	d0200837 	lui	a8,0x4010
 200b0c4:	f8200837 	lui	a13,0x4010
 200b0c8:	dfc90803 	lb	a9,578(a13)
 200b0cc:	2621f123 	sw	v0,636(a6)
 200b0d0:	26a1a123 	sw	v0,616(a8)
 200b0d4:	b8200837 	lui	a5,0x4010
 200b0d8:	80200837 	lui	v0,0x4010
 200b0dc:	f8200837 	lui	a13,0x4010
 200b0e0:	d408f803 	lb	a8,574(v0)
 200b0e4:	c5c8e003 	lb	a6,568(a5)
 200b0e8:	00ac5023 	sb	a4,20(s0)
 200b0ec:	bfc8d403 	lb	a5,565(a13)
 200b0f0:	b0200837 	lui	a4,0x4010
 200b0f4:	80200837 	lui	v0,0x4010
 200b0f8:	f8200837 	lui	a13,0x4010
 200b0fc:	cd88ec03 	lb	a7,571(a4)
 200b100:	b4086c03 	lb	a4,539(v0)
 200b104:	87c89803 	lb	v0,550(a13)
 200b108:	f8200837 	lui	a13,0x4010
 200b10c:	ffc88e03 	lbu	a13,547(a13)
 200b110:	213cb823 	sb	a12,558(s2)
 200b114:	21ba7c23 	sb	a11,543(s4)
 200b118:	03be9c23 	sb	a13,39(sp)
 200b11c:	f8200837 	lui	a13,0x4010
 200b120:	ffc88603 	lbu	a13,545(a13)
 200b124:	e3806103 	lw	a10,24(sp)
 200b128:	03be9823 	sb	a13,38(sp)
 200b12c:	f8200837 	lui	a13,0x4010
 200b130:	ffc86003 	lb	a13,536(a13)
 200b134:	03bef123 	sw	a13,60(sp)
 200b138:	f8200837 	lui	a13,0x4010
 200b13c:	27fd2c23 	sb	a12,587(a13)
 200b140:	f0200837 	lui	a12,0x4010
 200b144:	27bb2423 	sb	a11,585(a12)
 200b148:	eb803103 	lw	a11,12(sp)
 200b14c:	f8200837 	lui	a13,0x4010
 200b150:	f0200837 	lui	a12,0x4010
 200b154:	27fb1c23 	sb	a11,583(a13)
 200b158:	fb80e103 	lw	a13,56(sp)
 200b15c:	e8200837 	lui	a11,0x4010
 200b160:	27770423 	sb	a9,577(a11)
 200b164:	27bf1423 	sb	a13,581(a12)
 200b168:	f0200837 	lui	a12,0x4010
 200b16c:	f8200837 	lui	a13,0x4010
 200b170:	27b4fc23 	sb	a8,575(a12)
 200b174:	27f4f423 	sb	a8,573(a13)
 200b178:	e8200837 	lui	a11,0x4010
 200b17c:	d0200837 	lui	a8,0x4010
 200b180:	23770c23 	sb	a9,579(s11)
 200b184:	d8200837 	lui	a9,0x4010
 200b188:	26b2f023 	sb	a7,572(a8)
 200b18c:	26f2e823 	sb	a7,570(a9)
 200b190:	2770e423 	sb	a6,569(a11)
 200b194:	c8200837 	lui	a7,0x4010
 200b198:	d0200837 	lui	a8,0x4010
 200b19c:	ef08a603 	lbu	a11,553(a10)
 200b1a0:	f0200837 	lui	a12,0x4010
 200b1a4:	266ac823 	sb	a3,562(a7)
 200b1a8:	26aaa823 	sb	a3,554(a8)
 200b1ac:	ab809e03 	lbu	a3,39(sp)
 200b1b0:	27b0dc23 	sb	a6,567(a12)
 200b1b4:	f8200837 	lui	a13,0x4010
 200b1b8:	c0200837 	lui	a6,0x4010
 200b1bc:	d8200837 	lui	a9,0x4010
 200b1c0:	f0200837 	lui	a12,0x4010
 200b1c4:	27eed823 	sb	a5,566(a13)
 200b1c8:	262ed023 	sb	a5,564(a6)
 200b1cc:	26fa9c23 	sb	a11,551(a9)
 200b1d0:	f8200837 	lui	a13,0x4010
 200b1d4:	27a09023 	sb	v0,548(a12)
 200b1d8:	c3809a03 	lbu	a6,38(sp)
 200b1dc:	c8200837 	lui	a7,0x4010
 200b1e0:	d0200837 	lui	a8,0x4010
 200b1e4:	e8200837 	lui	a11,0x4010
 200b1e8:	f0200837 	lui	a12,0x4010
 200b1ec:	27ea8823 	sb	a3,546(a13)
 200b1f0:	db80f103 	lw	a9,60(sp)
 200b1f4:	af485403 	lb	a3,533(a11)
 200b1f8:	266c7023 	sb	a4,540(a7)
 200b1fc:	26ac6823 	sb	a4,538(a8)
 200b200:	b7883403 	lb	a4,525(a12)
 200b204:	b8200837 	lui	a5,0x4010
 200b208:	25f08023 	sb	a6,544(a5)
 200b20c:	f8200837 	lui	a13,0x4010
 200b210:	b8200837 	lui	a5,0x4010
 200b214:	22f66423 	sb	a9,537(s9)
 200b218:	27f65c23 	sb	a9,535(a13)
 200b21c:	232a5823 	sb	a3,534(s10)
 200b220:	25ea5023 	sb	a3,532(a5)
 200b224:	0d8000e3 	bnez	a4,200b324 <t4_taskB3_FH_DU+0x774>
 200b228:	c4000013 	move	a6,v0
 200b22c:	d0200837 	lui	a8,0x4010
 200b230:	be883203 	lbu	a5,524(a8)
 200b234:	d8200837 	lui	a9,0x4010
 200b238:	aec7fc03 	lb	a3,511(a9)
 200b23c:	b0000413 	li	a4,1
 200b240:	bdc00413 	add	a5,a5,1
 200b244:	e8200837 	lui	a11,0x4010
 200b248:	f0000813 	li	a12,2
 200b24c:	276c3423 	sb	a4,525(a11)
 200b250:	26ae3023 	sb	a5,524(a8)
 200b254:	d57c48e3 	bne	a3,a12,200ac78 <t4_taskB3_FH_DU+0xc8>
 200b258:	aac86403 	lb	a3,537(s9)
 200b25c:	05412063 	beqz	a3,200b2ec <t4_taskB3_FH_DU+0x73c>
 200b260:	d0200837 	lui	a8,0x4010
 200b264:	ae885c03 	lb	a3,535(a8)
 200b268:	054108e3 	bnez	a3,200b2ec <t4_taskB3_FH_DU+0x73c>
 200b26c:	d8200837 	lui	a9,0x4010
 200b270:	a83e7013 	li	a3,-100
 200b274:	e8200837 	lui	a11,0x4010
 200b278:	f0200837 	lui	a12,0x4010
 200b27c:	26c03423 	sb	zero,525(a9)
 200b280:	276be123 	sw	a3,632(a11)
 200b284:	1fadfc23 	sb	a4,511(a12)
 200b288:	fffe8767 	j	200aca4 <t4_taskB3_FH_DU+0xf4>
 200b28c:	ab085803 	lb	a3,534(s10)
 200b290:	d54028e3 	bnez	a3,200aca4 <t4_taskB3_FH_DU+0xf4>
 200b294:	c8200837 	lui	a7,0x4010
 200b298:	ae485003 	lb	a3,532(a7)
 200b29c:	d5401063 	beqz	a3,200aca4 <t4_taskB3_FH_DU+0xf4>
 200b2a0:	d0200837 	lui	a8,0x4010
 200b2a4:	d8200837 	lui	a9,0x4010
 200b2a8:	f0000813 	li	a12,2
 200b2ac:	e8200837 	lui	a11,0x4010
 200b2b0:	26803423 	sb	zero,525(a8)
 200b2b4:	26c1e123 	sw	zero,632(a9)
 200b2b8:	1f7dfc23 	sb	a12,511(a11)
 200b2bc:	fffe7a67 	j	200aca4 <t4_taskB3_FH_DU+0xf4>
 200b2c0:	aac86403 	lb	a3,537(s9)
 200b2c4:	cd41c0e3 	bnez	a3,200aca4 <t4_taskB3_FH_DU+0xf4>
 200b2c8:	f8200837 	lui	a13,0x4010
 200b2cc:	afc85c03 	lb	a3,535(a13)
 200b2d0:	cd41a863 	beqz	a3,200aca4 <t4_taskB3_FH_DU+0xf4>
 200b2d4:	b0200837 	lui	a4,0x4010
 200b2d8:	c8000813 	li	a7,2
 200b2dc:	27403423 	sb	zero,525(a11)
 200b2e0:	2581e123 	sw	zero,632(a4)
 200b2e4:	1ef3fc23 	sb	a7,511(a9)
 200b2e8:	fffe6f67 	j	200aca4 <t4_taskB3_FH_DU+0xf4>
 200b2ec:	ab085803 	lb	a3,534(s10)
 200b2f0:	cd416863 	beqz	a3,200aca4 <t4_taskB3_FH_DU+0xf4>
 200b2f4:	f8200837 	lui	a13,0x4010
 200b2f8:	afc85003 	lb	a3,532(a13)
 200b2fc:	cd4150e3 	bnez	a3,200aca4 <t4_taskB3_FH_DU+0xf4>
 200b300:	a8200837 	lui	a3,0x4010
 200b304:	25403423 	sb	zero,525(a3)
 200b308:	b0200837 	lui	a4,0x4010
 200b30c:	a8019013 	li	a3,100
 200b310:	25abe123 	sw	a3,632(a4)
 200b314:	b8200837 	lui	a5,0x4010
 200b318:	a8000c13 	li	a3,3
 200b31c:	1debfc23 	sb	a3,511(a5)
 200b320:	fffe6167 	j	200aca4 <t4_taskB3_FH_DU+0xf4>
 200b324:	0b81d103 	lw	ra,116(sp)
 200b328:	1381c103 	lw	s0,112(sp)
 200b32c:	1b81b103 	lw	s1,108(sp)
 200b330:	2381a103 	lw	s2,104(sp)
 200b334:	2b819103 	lw	s3,100(sp)
 200b338:	33818103 	lw	s4,96(sp)
 200b33c:	3b817103 	lw	s5,92(sp)
 200b340:	43816103 	lw	s6,88(sp)
 200b344:	4b815103 	lw	s7,84(sp)
 200b348:	53814103 	lw	s8,80(sp)
 200b34c:	5b813103 	lw	s9,76(sp)
 200b350:	63812103 	lw	s10,72(sp)
 200b354:	6b811103 	lw	s11,68(sp)
 200b358:	7381e013 	add	sp,sp,120
 200b35c:	004000eb 	ret

0200b360 <t4_taskB3_main>:
 200b360:	73bfe013 	add	sp,sp,-8
 200b364:	03840123 	sw	s0,0(sp)
 200b368:	03821123 	sw	ra,4(sp)
 200b36c:	10043013 	li	s0,268
 200b370:	10bffc13 	add	s0,s0,-1
 200b374:	fffa636f 	jal	2009d00 <t4_taskB3_init>
 200b378:	fffa006f 	jal	2009b78 <t4_taskB3_interface>
 200b37c:	fffe0d6f 	jal	200abb0 <t4_taskB3_FH_DU>
 200b380:	f881e0e3 	bnez	s0,200b370 <t4_taskB3_main+0x10>
 200b384:	0b801103 	lw	ra,4(sp)
 200b388:	80000013 	li	v0,0
 200b38c:	13800103 	lw	s0,0(sp)
 200b390:	73802013 	add	sp,sp,8
 200b394:	004000eb 	ret

0200b398 <t5_exception_proxy>:
 200b398:	73bfe013 	add	sp,sp,-8
 200b39c:	03821123 	sw	ra,4(sp)
 200b3a0:	7840017b 	mfpcr	tp,cr1
 200b3a4:	73bef013 	add	sp,sp,-68
 200b3a8:	039e1123 	sw	tp,4(sp)
 200b3ac:	03a02123 	sw	v0,8(sp)
 200b3b0:	03a23123 	sw	v1,12(sp)
 200b3b4:	03a44123 	sw	a0,16(sp)
 200b3b8:	03a65123 	sw	a1,20(sp)
 200b3bc:	03a86123 	sw	a2,24(sp)
 200b3c0:	03aa7123 	sw	a3,28(sp)
 200b3c4:	03ac8123 	sw	a4,32(sp)
 200b3c8:	03ae9123 	sw	a5,36(sp)
 200b3cc:	03b0a123 	sw	a6,40(sp)
 200b3d0:	03b2b123 	sw	a7,44(sp)
 200b3d4:	03b4c123 	sw	a8,48(sp)
 200b3d8:	03b6d123 	sw	a9,52(sp)
 200b3dc:	03b8e123 	sw	a10,56(sp)
 200b3e0:	03baf123 	sw	a11,60(sp)
 200b3e4:	03bd0123 	sw	a12,64(sp)
 200b3e8:	03bf1123 	sw	a13,68(sp)
 200b3ec:	80200a37 	lui	v0,0x4014
 200b3f0:	84018103 	lw	v0,96(v0)
 200b3f4:	0c00006b 	jalr	v0
 200b3f8:	7b801103 	lw	tp,4(sp)
 200b3fc:	83802103 	lw	v0,8(sp)
 200b400:	8b803103 	lw	v1,12(sp)
 200b404:	93804103 	lw	a0,16(sp)
 200b408:	9b805103 	lw	a1,20(sp)
 200b40c:	a3806103 	lw	a2,24(sp)
 200b410:	ab807103 	lw	a3,28(sp)
 200b414:	b3808103 	lw	a4,32(sp)
 200b418:	bb809103 	lw	a5,36(sp)
 200b41c:	c380a103 	lw	a6,40(sp)
 200b420:	cb80b103 	lw	a7,44(sp)
 200b424:	d380c103 	lw	a8,48(sp)
 200b428:	db80d103 	lw	a9,52(sp)
 200b42c:	e380e103 	lw	a10,56(sp)
 200b430:	eb80f103 	lw	a11,60(sp)
 200b434:	f3810103 	lw	a12,64(sp)
 200b438:	fb811103 	lw	a13,68(sp)
 200b43c:	73811013 	add	sp,sp,68
 200b440:	0b801103 	lw	ra,4(sp)
 200b444:	73802013 	add	sp,sp,8
 200b448:	03c0016b 	jr	tp
 200b44c:	0b801103 	lw	ra,4(sp)
 200b450:	73802013 	add	sp,sp,8
 200b454:	004000eb 	ret

0200b458 <t5_ready_queue_init>:
 200b458:	88200a37 	lui	v1,0x4014
 200b45c:	80200a37 	lui	v0,0x4014
 200b460:	84002013 	add	v0,v0,8
 200b464:	04401123 	sw	zero,4(v1)
 200b468:	88200a37 	lui	v1,0x4014
 200b46c:	04600123 	sw	v0,0(v1)
 200b470:	88200a37 	lui	v1,0x4014
 200b474:	8c406013 	add	v1,v1,24
 200b478:	04222123 	sw	v1,8(v0)
 200b47c:	88200a37 	lui	v1,0x4014
 200b480:	8c40a013 	add	v1,v1,40
 200b484:	04226123 	sw	v1,24(v0)
 200b488:	88200a37 	lui	v1,0x4014
 200b48c:	8c40e013 	add	v1,v1,56
 200b490:	0422a123 	sw	v1,40(v0)
 200b494:	88200a37 	lui	v1,0x4014
 200b498:	8c412013 	add	v1,v1,72
 200b49c:	0422e123 	sw	v1,56(v0)
 200b4a0:	04012123 	sw	zero,72(v0)
 200b4a4:	004000eb 	ret

0200b4a8 <t5_ready_queue_add>:
 200b4a8:	a8200a37 	lui	a3,0x4014
 200b4ac:	8d400103 	lw	v1,0(a3)
 200b4b0:	b0200a37 	lui	a4,0x4014
 200b4b4:	85801103 	lw	v0,4(a4)
 200b4b8:	bc402103 	lw	a5,8(v1)
 200b4bc:	9cc06093 	sll	a1,a1,0x18
 200b4c0:	9cc16293 	sra	a1,a1,0x18
 200b4c4:	056e0123 	sw	a5,0(a3)
 200b4c8:	04661023 	sb	a1,4(v1)
 200b4cc:	04683023 	sb	a2,12(v1)
 200b4d0:	04640123 	sw	a0,0(v1)
 200b4d4:	04006063 	beqz	v0,200b504 <t5_ready_queue_add+0x5c>
 200b4d8:	94001003 	lb	a0,4(v0)
 200b4dc:	04e42ae3 	ble	a0,a1,200b4f0 <t5_ready_queue_add+0x48>
 200b4e0:	00000967 	j	200b504 <t5_ready_queue_add+0x5c>
 200b4e4:	a4801003 	lb	a2,4(a0)
 200b4e8:	04e82263 	blt	a1,a2,200b4f8 <t5_ready_queue_add+0x50>
 200b4ec:	84800013 	move	v0,a0
 200b4f0:	94002103 	lw	a0,8(v0)
 200b4f4:	fc81e0e3 	bnez	a0,200b4e4 <t5_ready_queue_add+0x3c>
 200b4f8:	04642123 	sw	a0,8(v1)
 200b4fc:	04222123 	sw	v1,8(v0)
 200b500:	004000eb 	ret
 200b504:	04602123 	sw	v0,8(v1)
 200b508:	05a21123 	sw	v1,4(a4)
 200b50c:	004000eb 	ret

0200b510 <t5_ready_queue_peek>:
 200b510:	80200a37 	lui	v0,0x4014
 200b514:	84001103 	lw	v0,4(v0)
 200b518:	004000eb 	ret

0200b51c <t5_ready_queue_pop>:
 200b51c:	73bfe013 	add	sp,sp,-8
 200b520:	03841123 	sw	s0,4(sp)
 200b524:	03860123 	sw	s1,0(sp)
 200b528:	0000025b 	0x25b
 200b52c:	90200a37 	lui	a0,0x4014
 200b530:	84801103 	lw	v0,4(a0)
 200b534:	88200a37 	lui	v1,0x4014
 200b538:	a4400103 	lw	a2,0(v1)
 200b53c:	9c003003 	lb	a1,12(v0)
 200b540:	ac002103 	lw	a3,8(v0)
 200b544:	04600123 	sw	v0,0(v1)
 200b548:	9cc02813 	add	a1,a1,10
 200b54c:	8b400037 	lui	v1,0x68000
 200b550:	04282123 	sw	a2,8(v0)
 200b554:	04aa1123 	sw	a3,4(a0)
 200b558:	84e20333 	or	v0,a1,v1
 200b55c:	87a001fb 	mtpcr	v0,v0,cr30
 200b560:	1000005b 	0x1000005b
 200b564:	80800013 	move	v0,s0
 200b568:	8c000037 	lui	v1,0x80000
 200b56c:	84220333 	or	v0,v0,v1
 200b570:	87a001fb 	mtpcr	v0,v0,cr30
 200b574:	80200a37 	lui	v0,0x4014
 200b578:	8c017103 	lw	v1,92(v0)
 200b57c:	80200a37 	lui	v0,0x4014
 200b580:	94016103 	lw	a0,88(v0)
 200b584:	801005b7 	lui	v0,0x200b
 200b588:	840e6013 	add	v0,v0,920
 200b58c:	00e001fb 	mtpcr	zero,v0,cr3
 200b590:	1c400013 	move	s1,v1
 200b594:	14800013 	move	s0,a0
 200b598:	00c401db 	0xc401db
 200b59c:	13801103 	lw	s0,4(sp)
 200b5a0:	1b800103 	lw	s1,0(sp)
 200b5a4:	73802013 	add	sp,sp,8
 200b5a8:	004000eb 	ret

0200b5ac <t5_handler>:
 200b5ac:	73bfa013 	add	sp,sp,-24
 200b5b0:	03863123 	sw	s1,12(sp)
 200b5b4:	18200a37 	lui	s1,0x4014
 200b5b8:	80c19103 	lw	v0,100(s1)
 200b5bc:	03882123 	sw	s2,8(sp)
 200b5c0:	88000413 	li	v1,1
 200b5c4:	20200a37 	lui	s2,0x4014
 200b5c8:	038a1123 	sw	s3,4(sp)
 200b5cc:	03825123 	sw	ra,20(sp)
 200b5d0:	03844123 	sw	s0,16(sp)
 200b5d4:	038c0123 	sw	s4,0(sp)
 200b5d8:	29001103 	lw	s3,4(s2)
 200b5dc:	0c23a063 	beq	v0,v1,200b7ac <t5_handler+0x200>
 200b5e0:	0c0008e3 	bnez	v0,200b6e4 <t5_handler+0x138>
 200b5e4:	901006b7 	lui	a0,0x200d
 200b5e8:	9482d013 	add	a0,a0,180
 200b5ec:	98000013 	li	a1,0
 200b5f0:	a0001013 	li	a2,4
 200b5f4:	ffffad6f 	jal	200b4a8 <t5_ready_queue_add>
 200b5f8:	901007b7 	lui	a0,0x200f
 200b5fc:	94a35013 	add	a0,a0,-1836
 200b600:	98000013 	li	a1,0
 200b604:	a0001413 	li	a2,5
 200b608:	ffffa86f 	jal	200b4a8 <t5_ready_queue_add>
 200b60c:	90100837 	lui	a0,0x2010
 200b610:	9483d013 	add	a0,a0,244
 200b614:	98000413 	li	a1,1
 200b618:	a0001813 	li	a2,6
 200b61c:	ffffa36f 	jal	200b4a8 <t5_ready_queue_add>
 200b620:	90100937 	lui	a0,0x2012
 200b624:	a0001c13 	li	a2,7
 200b628:	94a45013 	add	a0,a0,-1772
 200b62c:	98000813 	li	a1,2
 200b630:	ffff9e6f 	jal	200b4a8 <t5_ready_queue_add>
 200b634:	89001103 	lw	v1,4(s2)
 200b638:	a0000413 	li	a2,1
 200b63c:	98200a37 	lui	a1,0x4014
 200b640:	84c16103 	lw	v0,88(a1)
 200b644:	9017d7b7 	lui	a0,0x2faf
 200b648:	94820013 	add	a0,a0,128
 200b64c:	84240033 	add	v0,v0,a0
 200b650:	00e99123 	sw	a2,100(s1)
 200b654:	04e16123 	sw	v0,88(a1)
 200b658:	04258b63 	bltu	v0,a0,200b71c <t5_handler+0x170>
 200b65c:	90200a37 	lui	a0,0x4014
 200b660:	94817103 	lw	a0,92(a0)
 200b664:	981005b7 	lui	a1,0x200b
 200b668:	9cce6013 	add	a1,a1,920
 200b66c:	00e601fb 	mtpcr	zero,a1,cr3
 200b670:	1c800013 	move	s1,a0
 200b674:	14000013 	move	s0,v0
 200b678:	00c401db 	0xc401db
 200b67c:	04409063 	beqz	v1,200b6c4 <t5_handler+0x118>
 200b680:	01628863 	beq	s3,v1,200b6c4 <t5_handler+0x118>
 200b684:	33400037 	lui	s4,0x68000
 200b688:	1c000037 	lui	s1,0x80000
 200b68c:	00000267 	j	200b694 <t5_handler+0xe8>
 200b690:	01626863 	beq	s3,v1,200b6c4 <t5_handler+0x118>
 200b694:	84403003 	lb	v0,12(v1)
 200b698:	840c0333 	or	v0,v0,s4
 200b69c:	87a001fb 	mtpcr	v0,v0,cr30
 200b6a0:	1000005b 	0x1000005b
 200b6a4:	80800013 	move	v0,s0
 200b6a8:	84060333 	or	v0,v0,s1
 200b6ac:	87a001fb 	mtpcr	v0,v0,cr30
 200b6b0:	84400103 	lw	v0,0(v1)
 200b6b4:	0c00006b 	jalr	v0
 200b6b8:	ffff996f 	jal	200b51c <t5_ready_queue_pop>
 200b6bc:	89001103 	lw	v1,4(s2)
 200b6c0:	fc41a0e3 	bnez	v1,200b690 <t5_handler+0xe4>
 200b6c4:	0b805103 	lw	ra,20(sp)
 200b6c8:	13804103 	lw	s0,16(sp)
 200b6cc:	1b803103 	lw	s1,12(sp)
 200b6d0:	23802103 	lw	s2,8(sp)
 200b6d4:	2b801103 	lw	s3,4(sp)
 200b6d8:	33800103 	lw	s4,0(sp)
 200b6dc:	73806013 	add	sp,sp,24
 200b6e0:	004000eb 	ret
 200b6e4:	88000813 	li	v1,2
 200b6e8:	0422f863 	beq	v0,v1,200b764 <t5_handler+0x1b8>
 200b6ec:	88000c13 	li	v1,3
 200b6f0:	04228063 	beq	v0,v1,200b730 <t5_handler+0x184>
 200b6f4:	98200a37 	lui	a1,0x4014
 200b6f8:	84c16103 	lw	v0,88(a1)
 200b6fc:	9017d7b7 	lui	a0,0x2faf
 200b700:	94820013 	add	a0,a0,128
 200b704:	a0000413 	li	a2,1
 200b708:	84240033 	add	v0,v0,a0
 200b70c:	89400013 	move	v1,s3
 200b710:	00e99123 	sw	a2,100(s1)
 200b714:	04e16123 	sw	v0,88(a1)
 200b718:	fc248be3 	bleu	a0,v0,200b65c <t5_handler+0xb0>
 200b71c:	98200a37 	lui	a1,0x4014
 200b720:	94c17103 	lw	a0,92(a1)
 200b724:	94800413 	add	a0,a0,1
 200b728:	04e57123 	sw	a0,92(a1)
 200b72c:	ffffce67 	j	200b664 <t5_handler+0xb8>
 200b730:	901006b7 	lui	a0,0x200d
 200b734:	9482d013 	add	a0,a0,180
 200b738:	98000013 	li	a1,0
 200b73c:	a0001013 	li	a2,4
 200b740:	ffff5a6f 	jal	200b4a8 <t5_ready_queue_add>
 200b744:	901007b7 	lui	a0,0x200f
 200b748:	a0001413 	li	a2,5
 200b74c:	94a35013 	add	a0,a0,-1836
 200b750:	98000013 	li	a1,0
 200b754:	ffff556f 	jal	200b4a8 <t5_ready_queue_add>
 200b758:	89001103 	lw	v1,4(s2)
 200b75c:	a0000013 	li	a2,0
 200b760:	ffffb767 	j	200b63c <t5_handler+0x90>
 200b764:	901006b7 	lui	a0,0x200d
 200b768:	9482d013 	add	a0,a0,180
 200b76c:	98000013 	li	a1,0
 200b770:	a0001013 	li	a2,4
 200b774:	ffff4d6f 	jal	200b4a8 <t5_ready_queue_add>
 200b778:	901007b7 	lui	a0,0x200f
 200b77c:	94a35013 	add	a0,a0,-1836
 200b780:	98000013 	li	a1,0
 200b784:	a0001413 	li	a2,5
 200b788:	ffff486f 	jal	200b4a8 <t5_ready_queue_add>
 200b78c:	90100837 	lui	a0,0x2010
 200b790:	a0001813 	li	a2,6
 200b794:	9483d013 	add	a0,a0,244
 200b798:	98000413 	li	a1,1
 200b79c:	ffff436f 	jal	200b4a8 <t5_ready_queue_add>
 200b7a0:	89001103 	lw	v1,4(s2)
 200b7a4:	a0000c13 	li	a2,3
 200b7a8:	ffffa567 	j	200b63c <t5_handler+0x90>
 200b7ac:	901006b7 	lui	a0,0x200d
 200b7b0:	9482d013 	add	a0,a0,180
 200b7b4:	98000013 	li	a1,0
 200b7b8:	a0001013 	li	a2,4
 200b7bc:	ffff3b6f 	jal	200b4a8 <t5_ready_queue_add>
 200b7c0:	901007b7 	lui	a0,0x200f
 200b7c4:	a0001413 	li	a2,5
 200b7c8:	94a35013 	add	a0,a0,-1836
 200b7cc:	98000013 	li	a1,0
 200b7d0:	ffff366f 	jal	200b4a8 <t5_ready_queue_add>
 200b7d4:	89001103 	lw	v1,4(s2)
 200b7d8:	a0000813 	li	a2,2
 200b7dc:	ffff9867 	j	200b63c <t5_handler+0x90>

0200b7e0 <t5_main>:
 200b7e0:	88200a37 	lui	v1,0x4014
 200b7e4:	8c402013 	add	v1,v1,8
 200b7e8:	90200a37 	lui	a0,0x4014
 200b7ec:	04a20123 	sw	v1,0(a0)
 200b7f0:	90200a37 	lui	a0,0x4014
 200b7f4:	73bfa013 	add	sp,sp,-24
 200b7f8:	94806013 	add	a0,a0,24
 200b7fc:	03882123 	sw	s2,8(sp)
 200b800:	03825123 	sw	ra,20(sp)
 200b804:	03844123 	sw	s0,16(sp)
 200b808:	03863123 	sw	s1,12(sp)
 200b80c:	038a1123 	sw	s3,4(sp)
 200b810:	04642123 	sw	a0,8(v1)
 200b814:	90200a37 	lui	a0,0x4014
 200b818:	9480a013 	add	a0,a0,40
 200b81c:	04646123 	sw	a0,24(v1)
 200b820:	90200a37 	lui	a0,0x4014
 200b824:	9480e013 	add	a0,a0,56
 200b828:	0464a123 	sw	a0,40(v1)
 200b82c:	90200a37 	lui	a0,0x4014
 200b830:	94812013 	add	a0,a0,72
 200b834:	0464e123 	sw	a0,56(v1)
 200b838:	901005b7 	lui	a0,0x200b
 200b83c:	9496b013 	add	a0,a0,1452
 200b840:	04412123 	sw	zero,72(v1)
 200b844:	88200a37 	lui	v1,0x4014
 200b848:	04658123 	sw	a0,96(v1)
 200b84c:	80000c37 	lui	v0,0x18
 200b850:	88200a37 	lui	v1,0x4014
 200b854:	841a8013 	add	v0,v0,1696
 200b858:	04417123 	sw	zero,92(v1)
 200b85c:	88200a37 	lui	v1,0x4014
 200b860:	20200a37 	lui	s2,0x4014
 200b864:	04616123 	sw	v0,88(v1)
 200b868:	881005b7 	lui	v1,0x200b
 200b86c:	01001123 	sw	zero,4(s2)
 200b870:	90000013 	li	a0,0
 200b874:	8c4e6013 	add	v1,v1,920
 200b878:	00e201fb 	mtpcr	zero,v1,cr3
 200b87c:	1c800013 	move	s1,a0
 200b880:	14000013 	move	s0,v0
 200b884:	00c401db 	0xc401db
 200b888:	2b400037 	lui	s3,0x68000
 200b88c:	1c000037 	lui	s1,0x80000
 200b890:	00000b67 	j	200b8bc <t5_main+0xdc>
 200b894:	8c003003 	lb	v1,12(v0)
 200b898:	8c4a0333 	or	v1,v1,s3
 200b89c:	8fa201fb 	mtpcr	v1,v1,cr30
 200b8a0:	1000005b 	0x1000005b
 200b8a4:	88800013 	move	v1,s0
 200b8a8:	8c460333 	or	v1,v1,s1
 200b8ac:	8fa201fb 	mtpcr	v1,v1,cr30
 200b8b0:	84000103 	lw	v0,0(v0)
 200b8b4:	0c00006b 	jalr	v0
 200b8b8:	ffff196f 	jal	200b51c <t5_ready_queue_pop>
 200b8bc:	81001103 	lw	v0,4(s2)
 200b8c0:	fc01a8e3 	bnez	v0,200b894 <t5_main+0xb4>
 200b8c4:	000002db 	0x2db
 200b8c8:	fffffd67 	j	200b8bc <t5_main+0xdc>

0200b8cc <t5_taskB4_interface>:
 200b8cc:	80200a37 	lui	v0,0x4014
 200b8d0:	8c048013 	add	v1,v0,288
 200b8d4:	94401003 	lb	a0,4(v1)
 200b8d8:	0c805063 	beqz	a0,200ba00 <t5_taskB4_interface+0x134>
 200b8dc:	88200a37 	lui	v1,0x4014
 200b8e0:	8c41f103 	lw	v1,124(v1)
 200b8e4:	90200a37 	lui	a0,0x4014
 200b8e8:	14a25123 	sw	v1,276(a0)
 200b8ec:	90200a37 	lui	a0,0x4014
 200b8f0:	14a26123 	sw	v1,280(a0)
 200b8f4:	90200a37 	lui	a0,0x4014
 200b8f8:	8c844103 	lw	v1,272(a0)
 200b8fc:	04404863 	beqz	v1,200b920 <t5_taskB4_interface+0x54>
 200b900:	98200a37 	lui	a1,0x4014
 200b904:	9cc1f103 	lw	a1,124(a1)
 200b908:	8ce30033 	sub	v1,a1,v1
 200b90c:	8c40f0d3 	fcvt.d.wu	fv1,v1
 200b910:	88200037 	lui	v1,0x4000
 200b914:	84400187 	fld	fv0,0(v1)
 200b918:	8c2370d3 	fle.d	v1,fv0,fv1
 200b91c:	0c4050e3 	bnez	v1,200ba44 <t5_taskB4_interface+0x178>
 200b920:	90200a37 	lui	a0,0x4014
 200b924:	8c843103 	lw	v1,268(a0)
 200b928:	04404863 	beqz	v1,200b94c <t5_taskB4_interface+0x80>
 200b92c:	98200a37 	lui	a1,0x4014
 200b930:	9cc1f103 	lw	a1,124(a1)
 200b934:	8ce30033 	sub	v1,a1,v1
 200b938:	8c40f0d3 	fcvt.d.wu	fv1,v1
 200b93c:	88200037 	lui	v1,0x4000
 200b940:	84400187 	fld	fv0,0(v1)
 200b944:	8c2370d3 	fle.d	v1,fv0,fv1
 200b948:	0441d8e3 	bnez	v1,200ba34 <t5_taskB4_interface+0x168>
 200b94c:	90200a37 	lui	a0,0x4014
 200b950:	8c842103 	lw	v1,264(a0)
 200b954:	04404863 	beqz	v1,200b978 <t5_taskB4_interface+0xac>
 200b958:	98200a37 	lui	a1,0x4014
 200b95c:	9cc1f103 	lw	a1,124(a1)
 200b960:	8ce30033 	sub	v1,a1,v1
 200b964:	8c40f0d3 	fcvt.d.wu	fv1,v1
 200b968:	88200037 	lui	v1,0x4000
 200b96c:	84400187 	fld	fv0,0(v1)
 200b970:	8c2370d3 	fle.d	v1,fv0,fv1
 200b974:	044160e3 	bnez	v1,200ba24 <t5_taskB4_interface+0x158>
 200b978:	90200a37 	lui	a0,0x4014
 200b97c:	8c83e103 	lw	v1,248(a0)
 200b980:	04404863 	beqz	v1,200b9a4 <t5_taskB4_interface+0xd8>
 200b984:	98200a37 	lui	a1,0x4014
 200b988:	9cc1f103 	lw	a1,124(a1)
 200b98c:	8ce30033 	sub	v1,a1,v1
 200b990:	8c40f0d3 	fcvt.d.wu	fv1,v1
 200b994:	88200037 	lui	v1,0x4000
 200b998:	84400187 	fld	fv0,0(v1)
 200b99c:	8c2370d3 	fle.d	v1,fv0,fv1
 200b9a0:	0440f8e3 	bnez	v1,200ba1c <t5_taskB4_interface+0x150>
 200b9a4:	90200a37 	lui	a0,0x4014
 200b9a8:	8c83d103 	lw	v1,244(a0)
 200b9ac:	04404863 	beqz	v1,200b9d0 <t5_taskB4_interface+0x104>
 200b9b0:	98200a37 	lui	a1,0x4014
 200b9b4:	9cc1f103 	lw	a1,124(a1)
 200b9b8:	8ce30033 	sub	v1,a1,v1
 200b9bc:	8c40f0d3 	fcvt.d.wu	fv1,v1
 200b9c0:	88200037 	lui	v1,0x4000
 200b9c4:	84400187 	fld	fv0,0(v1)
 200b9c8:	8c2370d3 	fle.d	v1,fv0,fv1
 200b9cc:	044090e3 	bnez	v1,200ba14 <t5_taskB4_interface+0x148>
 200b9d0:	84048003 	lb	v0,288(v0)
 200b9d4:	040030e3 	bnez	v0,200b9ec <t5_taskB4_interface+0x120>
 200b9d8:	80200a37 	lui	v0,0x4014
 200b9dc:	8c032103 	lw	v1,200(v0)
 200b9e0:	80200a37 	lui	v0,0x4014
 200b9e4:	84030103 	lw	v0,192(v0)
 200b9e8:	04602863 	beq	v1,v0,200b9fc <t5_taskB4_interface+0x130>
 200b9ec:	80200a37 	lui	v0,0x4014
 200b9f0:	8c01f103 	lw	v1,124(v0)
 200b9f4:	80200a37 	lui	v0,0x4014
 200b9f8:	14227123 	sw	v1,284(v0)
 200b9fc:	004000eb 	ret
 200ba00:	8c401803 	lb	v1,6(v1)
 200ba04:	f441e063 	beqz	v1,200b8f4 <t5_taskB4_interface+0x28>
 200ba08:	88200a37 	lui	v1,0x4014
 200ba0c:	8c41f103 	lw	v1,124(v1)
 200ba10:	ffffb767 	j	200b8ec <t5_taskB4_interface+0x20>
 200ba14:	0c81d123 	sw	zero,244(a0)
 200ba18:	ffffee67 	j	200b9d0 <t5_taskB4_interface+0x104>
 200ba1c:	0c81e123 	sw	zero,248(a0)
 200ba20:	ffffe167 	j	200b9a4 <t5_taskB4_interface+0xd8>
 200ba24:	88200a37 	lui	v1,0x4014
 200ba28:	0c409023 	sb	zero,164(v1)
 200ba2c:	14802123 	sw	zero,264(a0)
 200ba30:	ffffd267 	j	200b978 <t5_taskB4_interface+0xac>
 200ba34:	88200a37 	lui	v1,0x4014
 200ba38:	0c409023 	sb	zero,164(v1)
 200ba3c:	14803123 	sw	zero,268(a0)
 200ba40:	ffffc367 	j	200b94c <t5_taskB4_interface+0x80>
 200ba44:	88200a37 	lui	v1,0x4014
 200ba48:	0c408423 	sb	zero,161(v1)
 200ba4c:	14804123 	sw	zero,272(a0)
 200ba50:	ffffb467 	j	200b920 <t5_taskB4_interface+0x54>

0200ba54 <t5_taskB4_init>:
 200ba54:	80200a37 	lui	v0,0x4014
 200ba58:	14007123 	sw	zero,284(v0)
 200ba5c:	80200a37 	lui	v0,0x4014
 200ba60:	14006123 	sw	zero,280(v0)
 200ba64:	80200a37 	lui	v0,0x4014
 200ba68:	14005123 	sw	zero,276(v0)
 200ba6c:	80200a37 	lui	v0,0x4014
 200ba70:	0401dc23 	sb	zero,119(v0)
 200ba74:	80200a37 	lui	v0,0x4014
 200ba78:	0401d823 	sb	zero,118(v0)
 200ba7c:	80200a37 	lui	v0,0x4014
 200ba80:	0401d423 	sb	zero,117(v0)
 200ba84:	80200a37 	lui	v0,0x4014
 200ba88:	0401d023 	sb	zero,116(v0)
 200ba8c:	80200a37 	lui	v0,0x4014
 200ba90:	0401cc23 	sb	zero,115(v0)
 200ba94:	80200a37 	lui	v0,0x4014
 200ba98:	0401c823 	sb	zero,114(v0)
 200ba9c:	80200a37 	lui	v0,0x4014
 200baa0:	0401c423 	sb	zero,113(v0)
 200baa4:	80200a37 	lui	v0,0x4014
 200baa8:	0401c023 	sb	zero,112(v0)
 200baac:	80200a37 	lui	v0,0x4014
 200bab0:	0401bc23 	sb	zero,111(v0)
 200bab4:	80200a37 	lui	v0,0x4014
 200bab8:	0401b823 	sb	zero,110(v0)
 200babc:	80200a37 	lui	v0,0x4014
 200bac0:	0401b423 	sb	zero,109(v0)
 200bac4:	80200a37 	lui	v0,0x4014
 200bac8:	0401b023 	sb	zero,108(v0)
 200bacc:	80200a37 	lui	v0,0x4014
 200bad0:	0401ac23 	sb	zero,107(v0)
 200bad4:	80200a37 	lui	v0,0x4014
 200bad8:	0401a823 	sb	zero,106(v0)
 200badc:	80200a37 	lui	v0,0x4014
 200bae0:	0401a423 	sb	zero,105(v0)
 200bae4:	80200a37 	lui	v0,0x4014
 200bae8:	0401a023 	sb	zero,104(v0)
 200baec:	004000eb 	ret

0200baf0 <t5_taskB4_generic_KINDERSICHERUNG_CTRL>:
 200baf0:	80200a37 	lui	v0,0x4014
 200baf4:	8404a803 	lb	v0,298(v0)
 200baf8:	04006063 	beqz	v0,200bb28 <t5_taskB4_generic_KINDERSICHERUNG_CTRL+0x38>
 200bafc:	88200a37 	lui	v1,0x4014
 200bb00:	8441d003 	lb	v0,116(v1)
 200bb04:	90000813 	li	a0,2
 200bb08:	04244863 	beq	v0,a0,200bb2c <t5_taskB4_generic_KINDERSICHERUNG_CTRL+0x3c>
 200bb0c:	98000c13 	li	a1,3
 200bb10:	0427a863 	beq	v0,a1,200bbe4 <t5_taskB4_generic_KINDERSICHERUNG_CTRL+0xf4>
 200bb14:	90000413 	li	a0,1
 200bb18:	04249063 	beq	v0,a0,200bb60 <t5_taskB4_generic_KINDERSICHERUNG_CTRL+0x70>
 200bb1c:	80200a37 	lui	v0,0x4014
 200bb20:	0401e423 	sb	zero,121(v0)
 200bb24:	0467d023 	sb	a1,116(v1)
 200bb28:	004000eb 	ret
 200bb2c:	80200a37 	lui	v0,0x4014
 200bb30:	8402c803 	lb	v0,178(v0)
 200bb34:	040020e3 	bnez	v0,200bb44 <t5_taskB4_generic_KINDERSICHERUNG_CTRL+0x54>
 200bb38:	90200a37 	lui	a0,0x4014
 200bb3c:	9482d803 	lb	a0,182(a0)
 200bb40:	1480d863 	beqz	a0,200bdac <t5_taskB4_generic_KINDERSICHERUNG_CTRL+0x2bc>
 200bb44:	88200a37 	lui	v1,0x4014
 200bb48:	9441d403 	lb	a0,117(v1)
 200bb4c:	98000413 	li	a1,1
 200bb50:	0ca61863 	beq	a0,a1,200bc5c <t5_taskB4_generic_KINDERSICHERUNG_CTRL+0x16c>
 200bb54:	80200a37 	lui	v0,0x4014
 200bb58:	0401e423 	sb	zero,121(v0)
 200bb5c:	004000eb 	ret
 200bb60:	80200a37 	lui	v0,0x4014
 200bb64:	8402d003 	lb	v0,180(v0)
 200bb68:	040020e3 	bnez	v0,200bb78 <t5_taskB4_generic_KINDERSICHERUNG_CTRL+0x88>
 200bb6c:	90200a37 	lui	a0,0x4014
 200bb70:	9482e003 	lb	a0,184(a0)
 200bb74:	14802063 	beqz	a0,200bd84 <t5_taskB4_generic_KINDERSICHERUNG_CTRL+0x294>
 200bb78:	88200a37 	lui	v1,0x4014
 200bb7c:	9441d803 	lb	a0,118(v1)
 200bb80:	98000413 	li	a1,1
 200bb84:	fca7a0e3 	bne	a0,a1,200bb54 <t5_taskB4_generic_KINDERSICHERUNG_CTRL+0x64>
 200bb88:	04005063 	beqz	v0,200bbb0 <t5_taskB4_generic_KINDERSICHERUNG_CTRL+0xc0>
 200bb8c:	98200a37 	lui	a1,0x4014
 200bb90:	9cc2cc03 	lb	a1,179(a1)
 200bb94:	04c038e3 	bnez	a1,200bbb0 <t5_taskB4_generic_KINDERSICHERUNG_CTRL+0xc0>
 200bb98:	80200a37 	lui	v0,0x4014
 200bb9c:	0401e423 	sb	zero,121(v0)
 200bba0:	80200a37 	lui	v0,0x4014
 200bba4:	0c249c23 	sb	a0,167(v0)
 200bba8:	0465d823 	sb	a0,118(v1)
 200bbac:	004000eb 	ret
 200bbb0:	90200a37 	lui	a0,0x4014
 200bbb4:	9482e003 	lb	a0,184(a0)
 200bbb8:	0c80a863 	beqz	a0,200bd0c <t5_taskB4_generic_KINDERSICHERUNG_CTRL+0x21c>
 200bbbc:	98200a37 	lui	a1,0x4014
 200bbc0:	9cc2dc03 	lb	a1,183(a1)
 200bbc4:	0cc090e3 	bnez	a1,200bd0c <t5_taskB4_generic_KINDERSICHERUNG_CTRL+0x21c>
 200bbc8:	90200a37 	lui	a0,0x4014
 200bbcc:	80000413 	li	v0,1
 200bbd0:	0481e423 	sb	zero,121(a0)
 200bbd4:	90200a37 	lui	a0,0x4014
 200bbd8:	0ca0a823 	sb	v0,170(a0)
 200bbdc:	0461d823 	sb	v0,118(v1)
 200bbe0:	004000eb 	ret
 200bbe4:	80200a37 	lui	v0,0x4014
 200bbe8:	8402c003 	lb	v0,176(v0)
 200bbec:	040070e3 	bnez	v0,200bc24 <t5_taskB4_generic_KINDERSICHERUNG_CTRL+0x134>
 200bbf0:	98200a37 	lui	a1,0x4014
 200bbf4:	9cc2d803 	lb	a1,182(a1)
 200bbf8:	04c1d863 	beqz	a1,200bce4 <t5_taskB4_generic_KINDERSICHERUNG_CTRL+0x1f4>
 200bbfc:	80200a37 	lui	v0,0x4014
 200bc00:	8402c803 	lb	v0,178(v0)
 200bc04:	140060e3 	bnez	v0,200be34 <t5_taskB4_generic_KINDERSICHERUNG_CTRL+0x344>
 200bc08:	80200a37 	lui	v0,0x4014
 200bc0c:	0401e423 	sb	zero,121(v0)
 200bc10:	98000413 	li	a1,1
 200bc14:	80200a37 	lui	v0,0x4014
 200bc18:	0c26a823 	sb	a1,170(v0)
 200bc1c:	0465d023 	sb	a0,116(v1)
 200bc20:	004000eb 	ret
 200bc24:	90200a37 	lui	a0,0x4014
 200bc28:	9482e003 	lb	a0,184(a0)
 200bc2c:	048118e3 	bnez	a0,200bcb8 <t5_taskB4_generic_KINDERSICHERUNG_CTRL+0x1c8>
 200bc30:	90200a37 	lui	a0,0x4014
 200bc34:	9482d003 	lb	a0,180(a0)
 200bc38:	f481e063 	beqz	a0,200bb28 <t5_taskB4_generic_KINDERSICHERUNG_CTRL+0x38>
 200bc3c:	f401d8e3 	bnez	v0,200bb28 <t5_taskB4_generic_KINDERSICHERUNG_CTRL+0x38>
 200bc40:	90200a37 	lui	a0,0x4014
 200bc44:	80000413 	li	v0,1
 200bc48:	0481e423 	sb	zero,121(a0)
 200bc4c:	90200a37 	lui	a0,0x4014
 200bc50:	0ca09c23 	sb	v0,167(a0)
 200bc54:	0461d023 	sb	v0,116(v1)
 200bc58:	004000eb 	ret
 200bc5c:	04005063 	beqz	v0,200bc84 <t5_taskB4_generic_KINDERSICHERUNG_CTRL+0x194>
 200bc60:	98200a37 	lui	a1,0x4014
 200bc64:	9cc2c403 	lb	a1,177(a1)
 200bc68:	04c038e3 	bnez	a1,200bc84 <t5_taskB4_generic_KINDERSICHERUNG_CTRL+0x194>
 200bc6c:	80200a37 	lui	v0,0x4014
 200bc70:	0401e423 	sb	zero,121(v0)
 200bc74:	80200a37 	lui	v0,0x4014
 200bc78:	0c249c23 	sb	a0,167(v0)
 200bc7c:	0465d423 	sb	a0,117(v1)
 200bc80:	004000eb 	ret
 200bc84:	90200a37 	lui	a0,0x4014
 200bc88:	9482d803 	lb	a0,182(a0)
 200bc8c:	04817863 	beqz	a0,200bd48 <t5_taskB4_generic_KINDERSICHERUNG_CTRL+0x258>
 200bc90:	98200a37 	lui	a1,0x4014
 200bc94:	9cc2d403 	lb	a1,181(a1)
 200bc98:	04c160e3 	bnez	a1,200bd48 <t5_taskB4_generic_KINDERSICHERUNG_CTRL+0x258>
 200bc9c:	90200a37 	lui	a0,0x4014
 200bca0:	80000413 	li	v0,1
 200bca4:	0481e423 	sb	zero,121(a0)
 200bca8:	90200a37 	lui	a0,0x4014
 200bcac:	0ca0a823 	sb	v0,170(a0)
 200bcb0:	0461d423 	sb	v0,117(v1)
 200bcb4:	004000eb 	ret
 200bcb8:	90200a37 	lui	a0,0x4014
 200bcbc:	9482d003 	lb	a0,180(a0)
 200bcc0:	0c8030e3 	bnez	a0,200bdd8 <t5_taskB4_generic_KINDERSICHERUNG_CTRL+0x2e8>
 200bcc4:	f400c8e3 	bnez	v0,200bb28 <t5_taskB4_generic_KINDERSICHERUNG_CTRL+0x38>
 200bcc8:	90200a37 	lui	a0,0x4014
 200bccc:	80000413 	li	v0,1
 200bcd0:	0481e423 	sb	zero,121(a0)
 200bcd4:	90200a37 	lui	a0,0x4014
 200bcd8:	0ca0a823 	sb	v0,170(a0)
 200bcdc:	0461d023 	sb	v0,116(v1)
 200bce0:	004000eb 	ret
 200bce4:	98200a37 	lui	a1,0x4014
 200bce8:	9cc2c803 	lb	a1,178(a1)
 200bcec:	fcc07063 	beqz	a1,200bc24 <t5_taskB4_generic_KINDERSICHERUNG_CTRL+0x134>
 200bcf0:	80200a37 	lui	v0,0x4014
 200bcf4:	0401e423 	sb	zero,121(v0)
 200bcf8:	98000413 	li	a1,1
 200bcfc:	80200a37 	lui	v0,0x4014
 200bd00:	0c269c23 	sb	a1,167(v0)
 200bd04:	0465d023 	sb	a0,116(v1)
 200bd08:	004000eb 	ret
 200bd0c:	040020e3 	bnez	v0,200bd1c <t5_taskB4_generic_KINDERSICHERUNG_CTRL+0x22c>
 200bd10:	80200a37 	lui	v0,0x4014
 200bd14:	8402cc03 	lb	v0,179(v0)
 200bd18:	0401c8e3 	bnez	v0,200bdfc <t5_taskB4_generic_KINDERSICHERUNG_CTRL+0x30c>
 200bd1c:	f48018e3 	bnez	a0,200bb28 <t5_taskB4_generic_KINDERSICHERUNG_CTRL+0x38>
 200bd20:	80200a37 	lui	v0,0x4014
 200bd24:	8402dc03 	lb	v0,183(v0)
 200bd28:	f4000063 	beqz	v0,200bb28 <t5_taskB4_generic_KINDERSICHERUNG_CTRL+0x38>
 200bd2c:	80200a37 	lui	v0,0x4014
 200bd30:	0401e423 	sb	zero,121(v0)
 200bd34:	80200a37 	lui	v0,0x4014
 200bd38:	0c00a823 	sb	zero,170(v0)
 200bd3c:	80000413 	li	v0,1
 200bd40:	0461d823 	sb	v0,118(v1)
 200bd44:	004000eb 	ret
 200bd48:	040020e3 	bnez	v0,200bd58 <t5_taskB4_generic_KINDERSICHERUNG_CTRL+0x268>
 200bd4c:	80200a37 	lui	v0,0x4014
 200bd50:	8402c403 	lb	v0,177(v0)
 200bd54:	040188e3 	bnez	v0,200be18 <t5_taskB4_generic_KINDERSICHERUNG_CTRL+0x328>
 200bd58:	ec81a0e3 	bnez	a0,200bb28 <t5_taskB4_generic_KINDERSICHERUNG_CTRL+0x38>
 200bd5c:	80200a37 	lui	v0,0x4014
 200bd60:	8402d403 	lb	v0,181(v0)
 200bd64:	ec018863 	beqz	v0,200bb28 <t5_taskB4_generic_KINDERSICHERUNG_CTRL+0x38>
 200bd68:	80200a37 	lui	v0,0x4014
 200bd6c:	0401e423 	sb	zero,121(v0)
 200bd70:	80200a37 	lui	v0,0x4014
 200bd74:	0c00a823 	sb	zero,170(v0)
 200bd78:	80000413 	li	v0,1
 200bd7c:	0461d423 	sb	v0,117(v1)
 200bd80:	004000eb 	ret
 200bd84:	80200a37 	lui	v0,0x4014
 200bd88:	0401e423 	sb	zero,121(v0)
 200bd8c:	80200a37 	lui	v0,0x4014
 200bd90:	0c00a823 	sb	zero,170(v0)
 200bd94:	80200a37 	lui	v0,0x4014
 200bd98:	0c009c23 	sb	zero,167(v0)
 200bd9c:	80200a37 	lui	v0,0x4014
 200bda0:	0467d023 	sb	a1,116(v1)
 200bda4:	0401d823 	sb	zero,118(v0)
 200bda8:	004000eb 	ret
 200bdac:	80200a37 	lui	v0,0x4014
 200bdb0:	0401e423 	sb	zero,121(v0)
 200bdb4:	80200a37 	lui	v0,0x4014
 200bdb8:	0c00a823 	sb	zero,170(v0)
 200bdbc:	80200a37 	lui	v0,0x4014
 200bdc0:	0c009c23 	sb	zero,167(v0)
 200bdc4:	80000c13 	li	v0,3
 200bdc8:	0461d023 	sb	v0,116(v1)
 200bdcc:	80200a37 	lui	v0,0x4014
 200bdd0:	0401d423 	sb	zero,117(v0)
 200bdd4:	004000eb 	ret
 200bdd8:	90200a37 	lui	a0,0x4014
 200bddc:	80000413 	li	v0,1
 200bde0:	0481e423 	sb	zero,121(a0)
 200bde4:	90200a37 	lui	a0,0x4014
 200bde8:	0ca09c23 	sb	v0,167(a0)
 200bdec:	90200a37 	lui	a0,0x4014
 200bdf0:	0ca0a823 	sb	v0,170(a0)
 200bdf4:	0461d023 	sb	v0,116(v1)
 200bdf8:	004000eb 	ret
 200bdfc:	80200a37 	lui	v0,0x4014
 200be00:	0401e423 	sb	zero,121(v0)
 200be04:	80200a37 	lui	v0,0x4014
 200be08:	0c009c23 	sb	zero,167(v0)
 200be0c:	80000413 	li	v0,1
 200be10:	0461d823 	sb	v0,118(v1)
 200be14:	004000eb 	ret
 200be18:	80200a37 	lui	v0,0x4014
 200be1c:	0401e423 	sb	zero,121(v0)
 200be20:	80200a37 	lui	v0,0x4014
 200be24:	0c009c23 	sb	zero,167(v0)
 200be28:	80000413 	li	v0,1
 200be2c:	0461d423 	sb	v0,117(v1)
 200be30:	004000eb 	ret
 200be34:	98200a37 	lui	a1,0x4014
 200be38:	80000413 	li	v0,1
 200be3c:	04c1e423 	sb	zero,121(a1)
 200be40:	98200a37 	lui	a1,0x4014
 200be44:	0ce0a823 	sb	v0,170(a1)
 200be48:	98200a37 	lui	a1,0x4014
 200be4c:	0ce09c23 	sb	v0,167(a1)
 200be50:	0465d023 	sb	a0,116(v1)
 200be54:	004000eb 	ret

0200be58 <t5_taskB4_generic_FH_TUERMODUL_CTRL>:
 200be58:	80200a37 	lui	v0,0x4014
 200be5c:	84048013 	add	v0,v0,288
 200be60:	8c003403 	lb	v1,13(v0)
 200be64:	044048e3 	bnez	v1,200be88 <t5_taskB4_generic_FH_TUERMODUL_CTRL+0x30>
 200be68:	8c003c03 	lb	v1,15(v0)
 200be6c:	04403063 	beqz	v1,200be84 <t5_taskB4_generic_FH_TUERMODUL_CTRL+0x2c>
 200be70:	8c003803 	lb	v1,14(v0)
 200be74:	044020e3 	bnez	v1,200be84 <t5_taskB4_generic_FH_TUERMODUL_CTRL+0x2c>
 200be78:	04001023 	sb	zero,4(v0)
 200be7c:	04001823 	sb	zero,6(v0)
 200be80:	004000eb 	ret
 200be84:	004000eb 	ret
 200be88:	8c002803 	lb	v1,10(v0)
 200be8c:	044020e3 	bnez	v1,200be9c <t5_taskB4_generic_FH_TUERMODUL_CTRL+0x44>
 200be90:	90000c13 	li	a0,3
 200be94:	88200a37 	lui	v1,0x4014
 200be98:	0465d023 	sb	a0,116(v1)
 200be9c:	8c004c03 	lb	v1,19(v0)
 200bea0:	044030e3 	bnez	v1,200beb8 <t5_taskB4_generic_FH_TUERMODUL_CTRL+0x60>
 200bea4:	88200a37 	lui	v1,0x4014
 200bea8:	14408023 	sb	zero,288(v1)
 200beac:	90000413 	li	a0,1
 200beb0:	88200a37 	lui	v1,0x4014
 200beb4:	0465a023 	sb	a0,104(v1)
 200beb8:	98200a37 	lui	a1,0x4014
 200bebc:	8cc1cc03 	lb	v1,115(a1)
 200bec0:	90000413 	li	a0,1
 200bec4:	a0000813 	li	a2,2
 200bec8:	04242c23 	sb	a0,11(v0)
 200becc:	04245023 	sb	a0,20(v0)
 200bed0:	04693863 	beq	v1,a2,200bf6c <t5_taskB4_generic_FH_TUERMODUL_CTRL+0x114>
 200bed4:	a8000c13 	li	a3,3
 200bed8:	0c6a2063 	beq	v1,a3,200bfe8 <t5_taskB4_generic_FH_TUERMODUL_CTRL+0x190>
 200bedc:	90000413 	li	a0,1
 200bee0:	0465a863 	beq	v1,a0,200bfb4 <t5_taskB4_generic_FH_TUERMODUL_CTRL+0x15c>
 200bee4:	88200a37 	lui	v1,0x4014
 200bee8:	0441e423 	sb	zero,121(v1)
 200beec:	04e9cc23 	sb	a2,115(a1)
 200bef0:	90200a37 	lui	a0,0x4014
 200bef4:	9c81c803 	lb	a1,114(a0)
 200bef8:	88000413 	li	v1,1
 200befc:	04e26863 	beq	a1,v1,200bf30 <t5_taskB4_generic_FH_TUERMODUL_CTRL+0xd8>
 200bf00:	98200a37 	lui	a1,0x4014
 200bf04:	04c1e423 	sb	zero,121(a1)
 200bf08:	04a3c823 	sb	v1,114(a0)
 200bf0c:	98200a37 	lui	a1,0x4014
 200bf10:	90200a37 	lui	a0,0x4014
 200bf14:	14c01123 	sw	zero,260(a1)
 200bf18:	04a3c423 	sb	v1,113(a0)
 200bf1c:	94001203 	lbu	a0,4(v0)
 200bf20:	8c001a03 	lbu	v1,6(v0)
 200bf24:	04241423 	sb	a0,5(v0)
 200bf28:	04221c23 	sb	v1,7(v0)
 200bf2c:	004000eb 	ret
 200bf30:	88200a37 	lui	v1,0x4014
 200bf34:	8c41e003 	lb	v1,120(v1)
 200bf38:	0c67e063 	beq	v1,a1,200c128 <t5_taskB4_generic_FH_TUERMODUL_CTRL+0x2d0>
 200bf3c:	90200a37 	lui	a0,0x4014
 200bf40:	a481c403 	lb	a2,113(a0)
 200bf44:	98000413 	li	a1,1
 200bf48:	0d270863 	beq	a2,a1,200c0cc <t5_taskB4_generic_FH_TUERMODUL_CTRL+0x274>
 200bf4c:	88200a37 	lui	v1,0x4014
 200bf50:	0441e423 	sb	zero,121(v1)
 200bf54:	04a7c423 	sb	a1,113(a0)
 200bf58:	8c001a03 	lbu	v1,6(v0)
 200bf5c:	94001203 	lbu	a0,4(v0)
 200bf60:	04221c23 	sb	v1,7(v0)
 200bf64:	04241423 	sb	a0,5(v0)
 200bf68:	004000eb 	ret
 200bf6c:	88200a37 	lui	v1,0x4014
 200bf70:	8c42bc03 	lb	v1,175(v1)
 200bf74:	04402063 	beqz	v1,200bf84 <t5_taskB4_generic_FH_TUERMODUL_CTRL+0x12c>
 200bf78:	88200a37 	lui	v1,0x4014
 200bf7c:	8c42b403 	lb	v1,173(v1)
 200bf80:	14401063 	beqz	v1,200c188 <t5_taskB4_generic_FH_TUERMODUL_CTRL+0x330>
 200bf84:	90200a37 	lui	a0,0x4014
 200bf88:	8c81dc03 	lb	v1,119(a0)
 200bf8c:	98000813 	li	a1,2
 200bf90:	14675863 	beq	v1,a1,200c23c <t5_taskB4_generic_FH_TUERMODUL_CTRL+0x3e4>
 200bf94:	a0000c13 	li	a2,3
 200bf98:	1468f863 	beq	v1,a2,200c214 <t5_taskB4_generic_FH_TUERMODUL_CTRL+0x3bc>
 200bf9c:	98000413 	li	a1,1
 200bfa0:	14665063 	beq	v1,a1,200c1c8 <t5_taskB4_generic_FH_TUERMODUL_CTRL+0x370>
 200bfa4:	88200a37 	lui	v1,0x4014
 200bfa8:	0441e423 	sb	zero,121(v1)
 200bfac:	04a9dc23 	sb	a2,119(a0)
 200bfb0:	ffffd067 	j	200bef0 <t5_taskB4_generic_FH_TUERMODUL_CTRL+0x98>
 200bfb4:	88200a37 	lui	v1,0x4014
 200bfb8:	8c441103 	lw	v1,260(v1)
 200bfbc:	9000ec13 	li	a0,59
 200bfc0:	fc6460e3 	bne	v1,a0,200bef0 <t5_taskB4_generic_FH_TUERMODUL_CTRL+0x98>
 200bfc4:	90200a37 	lui	a0,0x4014
 200bfc8:	9483f103 	lw	a0,252(a0)
 200bfcc:	fca24863 	beq	a0,v1,200bef0 <t5_taskB4_generic_FH_TUERMODUL_CTRL+0x98>
 200bfd0:	88200a37 	lui	v1,0x4014
 200bfd4:	0441e423 	sb	zero,121(v1)
 200bfd8:	88200a37 	lui	v1,0x4014
 200bfdc:	04ebcc23 	sb	a3,115(a1)
 200bfe0:	046bc023 	sb	a3,112(v1)
 200bfe4:	ffffc367 	j	200bef0 <t5_taskB4_generic_FH_TUERMODUL_CTRL+0x98>
 200bfe8:	88200a37 	lui	v1,0x4014
 200bfec:	8c441103 	lw	v1,260(v1)
 200bff0:	8c40f513 	slt	v1,v1,61
 200bff4:	044098e3 	bnez	v1,200c040 <t5_taskB4_generic_FH_TUERMODUL_CTRL+0x1e8>
 200bff8:	88200a37 	lui	v1,0x4014
 200bffc:	8c43f103 	lw	v1,252(v1)
 200c000:	8c40f513 	slt	v1,v1,61
 200c004:	04407863 	beqz	v1,200c040 <t5_taskB4_generic_FH_TUERMODUL_CTRL+0x1e8>
 200c008:	88200a37 	lui	v1,0x4014
 200c00c:	8c42ec03 	lb	v1,187(v1)
 200c010:	044060e3 	bnez	v1,200c040 <t5_taskB4_generic_FH_TUERMODUL_CTRL+0x1e8>
 200c014:	88200a37 	lui	v1,0x4014
 200c018:	8c42f403 	lb	v1,189(v1)
 200c01c:	044048e3 	bnez	v1,200c040 <t5_taskB4_generic_FH_TUERMODUL_CTRL+0x1e8>
 200c020:	88200a37 	lui	v1,0x4014
 200c024:	0441e423 	sb	zero,121(v1)
 200c028:	88200a37 	lui	v1,0x4014
 200c02c:	0c409023 	sb	zero,164(v1)
 200c030:	88200a37 	lui	v1,0x4014
 200c034:	0c408423 	sb	zero,161(v1)
 200c038:	04e5cc23 	sb	a0,115(a1)
 200c03c:	ffffad67 	j	200bef0 <t5_taskB4_generic_FH_TUERMODUL_CTRL+0x98>
 200c040:	88200a37 	lui	v1,0x4014
 200c044:	8c42bc03 	lb	v1,175(v1)
 200c048:	0440a863 	beqz	v1,200c09c <t5_taskB4_generic_FH_TUERMODUL_CTRL+0x244>
 200c04c:	88200a37 	lui	v1,0x4014
 200c050:	8c42b403 	lb	v1,173(v1)
 200c054:	044090e3 	bnez	v1,200c09c <t5_taskB4_generic_FH_TUERMODUL_CTRL+0x244>
 200c058:	88200a37 	lui	v1,0x4014
 200c05c:	8c428803 	lb	v1,162(v1)
 200c060:	1441d863 	beqz	v1,200c34c <t5_taskB4_generic_FH_TUERMODUL_CTRL+0x4f4>
 200c064:	88200a37 	lui	v1,0x4014
 200c068:	9441f103 	lw	a0,124(v1)
 200c06c:	88200a37 	lui	v1,0x4014
 200c070:	0441e423 	sb	zero,121(v1)
 200c074:	88200a37 	lui	v1,0x4014
 200c078:	0c408423 	sb	zero,161(v1)
 200c07c:	88200a37 	lui	v1,0x4014
 200c080:	14644123 	sw	a0,272(v1)
 200c084:	88000813 	li	v1,2
 200c088:	04e3cc23 	sb	v1,115(a1)
 200c08c:	90000c13 	li	a0,3
 200c090:	88200a37 	lui	v1,0x4014
 200c094:	0465dc23 	sb	a0,119(v1)
 200c098:	ffff9667 	j	200bef0 <t5_taskB4_generic_FH_TUERMODUL_CTRL+0x98>
 200c09c:	90200a37 	lui	a0,0x4014
 200c0a0:	8c81c003 	lb	v1,112(a0)
 200c0a4:	98000813 	li	a1,2
 200c0a8:	14662063 	beq	v1,a1,200c2b8 <t5_taskB4_generic_FH_TUERMODUL_CTRL+0x460>
 200c0ac:	a0000c13 	li	a2,3
 200c0b0:	0c696863 	beq	v1,a2,200c264 <t5_taskB4_generic_FH_TUERMODUL_CTRL+0x40c>
 200c0b4:	a8000413 	li	a3,1
 200c0b8:	0c6a6863 	beq	v1,a3,200c1ec <t5_taskB4_generic_FH_TUERMODUL_CTRL+0x394>
 200c0bc:	88200a37 	lui	v1,0x4014
 200c0c0:	0441e423 	sb	zero,121(v1)
 200c0c4:	04a9c023 	sb	a2,112(a0)
 200c0c8:	ffff8a67 	j	200bef0 <t5_taskB4_generic_FH_TUERMODUL_CTRL+0x98>
 200c0cc:	f468a0e3 	bne	v1,a2,200bf1c <t5_taskB4_generic_FH_TUERMODUL_CTRL+0xc4>
 200c0d0:	98200a37 	lui	a1,0x4014
 200c0d4:	9cc45103 	lw	a1,276(a1)
 200c0d8:	f4c08863 	beqz	a1,200bf1c <t5_taskB4_generic_FH_TUERMODUL_CTRL+0xc4>
 200c0dc:	a0200a37 	lui	a2,0x4014
 200c0e0:	a501f103 	lw	a2,124(a2)
 200c0e4:	a53ff413 	add	a2,a2,-3
 200c0e8:	f4e868e3 	bne	a1,a2,200bf1c <t5_taskB4_generic_FH_TUERMODUL_CTRL+0xc4>
 200c0ec:	98200a37 	lui	a1,0x4014
 200c0f0:	9cc29403 	lb	a1,165(a1)
 200c0f4:	f4c050e3 	bnez	a1,200bf1c <t5_taskB4_generic_FH_TUERMODUL_CTRL+0xc4>
 200c0f8:	98200a37 	lui	a1,0x4014
 200c0fc:	9cc28803 	lb	a1,162(a1)
 200c100:	f4c038e3 	bnez	a1,200bf1c <t5_taskB4_generic_FH_TUERMODUL_CTRL+0xc4>
 200c104:	98200a37 	lui	a1,0x4014
 200c108:	a4c41103 	lw	a2,260(a1)
 200c10c:	f02822e3 	blez	a2,200bf1c <t5_taskB4_generic_FH_TUERMODUL_CTRL+0xc4>
 200c110:	a53ffc13 	add	a2,a2,-1
 200c114:	a8200a37 	lui	a3,0x4014
 200c118:	0541e423 	sb	zero,121(a3)
 200c11c:	14e81123 	sw	a2,260(a1)
 200c120:	04a3c423 	sb	v1,113(a0)
 200c124:	ffff7e67 	j	200bf1c <t5_taskB4_generic_FH_TUERMODUL_CTRL+0xc4>
 200c128:	98200a37 	lui	a1,0x4014
 200c12c:	9cc46103 	lw	a1,280(a1)
 200c130:	f4c01863 	beqz	a1,200bf3c <t5_taskB4_generic_FH_TUERMODUL_CTRL+0xe4>
 200c134:	a0200a37 	lui	a2,0x4014
 200c138:	a501f103 	lw	a2,124(a2)
 200c13c:	9d270033 	sub	a1,a2,a1
 200c140:	ece3f8e3 	bne	a1,v1,200bf3c <t5_taskB4_generic_FH_TUERMODUL_CTRL+0xe4>
 200c144:	98200a37 	lui	a1,0x4014
 200c148:	9cc29403 	lb	a1,165(a1)
 200c14c:	04c020e3 	bnez	a1,200c15c <t5_taskB4_generic_FH_TUERMODUL_CTRL+0x304>
 200c150:	98200a37 	lui	a1,0x4014
 200c154:	9cc28803 	lb	a1,162(a1)
 200c158:	ecc1c863 	beqz	a1,200bf3c <t5_taskB4_generic_FH_TUERMODUL_CTRL+0xe4>
 200c15c:	98200a37 	lui	a1,0x4014
 200c160:	a4c41103 	lw	a2,260(a1)
 200c164:	88000413 	li	v1,1
 200c168:	a8200a37 	lui	a3,0x4014
 200c16c:	a5000413 	add	a2,a2,1
 200c170:	04a3c823 	sb	v1,114(a0)
 200c174:	90200a37 	lui	a0,0x4014
 200c178:	0541e423 	sb	zero,121(a3)
 200c17c:	14e81123 	sw	a2,260(a1)
 200c180:	04a3c423 	sb	v1,113(a0)
 200c184:	ffff6667 	j	200bf1c <t5_taskB4_generic_FH_TUERMODUL_CTRL+0xc4>
 200c188:	88200a37 	lui	v1,0x4014
 200c18c:	8c429403 	lb	v1,165(v1)
 200c190:	ec41e863 	beqz	v1,200bf84 <t5_taskB4_generic_FH_TUERMODUL_CTRL+0x12c>
 200c194:	88200a37 	lui	v1,0x4014
 200c198:	a441f103 	lw	a2,124(v1)
 200c19c:	90200a37 	lui	a0,0x4014
 200c1a0:	0481e423 	sb	zero,121(a0)
 200c1a4:	90200a37 	lui	a0,0x4014
 200c1a8:	0c809023 	sb	zero,164(a0)
 200c1ac:	90200a37 	lui	a0,0x4014
 200c1b0:	88000c13 	li	v1,3
 200c1b4:	14a82123 	sw	a2,264(a0)
 200c1b8:	90200a37 	lui	a0,0x4014
 200c1bc:	04e3cc23 	sb	v1,115(a1)
 200c1c0:	04a3c023 	sb	v1,112(a0)
 200c1c4:	ffff4b67 	j	200bef0 <t5_taskB4_generic_FH_TUERMODUL_CTRL+0x98>
 200c1c8:	88200a37 	lui	v1,0x4014
 200c1cc:	8c42ac03 	lb	v1,171(v1)
 200c1d0:	ec4040e3 	bnez	v1,200bef0 <t5_taskB4_generic_FH_TUERMODUL_CTRL+0x98>
 200c1d4:	88200a37 	lui	v1,0x4014
 200c1d8:	0441e423 	sb	zero,121(v1)
 200c1dc:	88200a37 	lui	v1,0x4014
 200c1e0:	0c409023 	sb	zero,164(v1)
 200c1e4:	04a9dc23 	sb	a2,119(a0)
 200c1e8:	ffff4267 	j	200bef0 <t5_taskB4_generic_FH_TUERMODUL_CTRL+0x98>
 200c1ec:	a8200a37 	lui	a3,0x4014
 200c1f0:	ad43c103 	lw	a3,240(a3)
 200c1f4:	ad465513 	slt	a3,a3,405
 200c1f8:	0d4158e3 	bnez	a3,200c3a4 <t5_taskB4_generic_FH_TUERMODUL_CTRL+0x54c>
 200c1fc:	88200a37 	lui	v1,0x4014
 200c200:	0441e423 	sb	zero,121(v1)
 200c204:	88200a37 	lui	v1,0x4014
 200c208:	0c408423 	sb	zero,161(v1)
 200c20c:	04a9c023 	sb	a2,112(a0)
 200c210:	ffff3867 	j	200bef0 <t5_taskB4_generic_FH_TUERMODUL_CTRL+0x98>
 200c214:	88200a37 	lui	v1,0x4014
 200c218:	8c42a003 	lb	v1,168(v1)
 200c21c:	0c40c063 	beqz	v1,200c37c <t5_taskB4_generic_FH_TUERMODUL_CTRL+0x524>
 200c220:	88200a37 	lui	v1,0x4014
 200c224:	0441e423 	sb	zero,121(v1)
 200c228:	a0000413 	li	a2,1
 200c22c:	88200a37 	lui	v1,0x4014
 200c230:	0c688423 	sb	a2,161(v1)
 200c234:	04a7dc23 	sb	a1,119(a0)
 200c238:	ffff2e67 	j	200bef0 <t5_taskB4_generic_FH_TUERMODUL_CTRL+0x98>
 200c23c:	88200a37 	lui	v1,0x4014
 200c240:	8c42a003 	lb	v1,168(v1)
 200c244:	e44158e3 	bnez	v1,200bef0 <t5_taskB4_generic_FH_TUERMODUL_CTRL+0x98>
 200c248:	88200a37 	lui	v1,0x4014
 200c24c:	0441e423 	sb	zero,121(v1)
 200c250:	88200a37 	lui	v1,0x4014
 200c254:	0c408423 	sb	zero,161(v1)
 200c258:	88000c13 	li	v1,3
 200c25c:	04a3dc23 	sb	v1,119(a0)
 200c260:	ffff2467 	j	200bef0 <t5_taskB4_generic_FH_TUERMODUL_CTRL+0x98>
 200c264:	88200a37 	lui	v1,0x4014
 200c268:	8c42ac03 	lb	v1,171(v1)
 200c26c:	04412063 	beqz	v1,200c2fc <t5_taskB4_generic_FH_TUERMODUL_CTRL+0x4a4>
 200c270:	88200a37 	lui	v1,0x4014
 200c274:	8c42a403 	lb	v1,169(v1)
 200c278:	044108e3 	bnez	v1,200c2fc <t5_taskB4_generic_FH_TUERMODUL_CTRL+0x4a4>
 200c27c:	88200a37 	lui	v1,0x4014
 200c280:	8c43c103 	lw	v1,240(v1)
 200c284:	0022f2e3 	blez	v1,200c2fc <t5_taskB4_generic_FH_TUERMODUL_CTRL+0x4a4>
 200c288:	04a7c023 	sb	a1,112(a0)
 200c28c:	90200a37 	lui	a0,0x4014
 200c290:	04a7b023 	sb	a1,108(a0)
 200c294:	90200a37 	lui	a0,0x4014
 200c298:	88000413 	li	v1,1
 200c29c:	a0200a37 	lui	a2,0x4014
 200c2a0:	04a7b823 	sb	a1,110(a0)
 200c2a4:	90200a37 	lui	a0,0x4014
 200c2a8:	0501e423 	sb	zero,121(a2)
 200c2ac:	04224423 	sb	v1,17(v0)
 200c2b0:	0ca29023 	sb	v1,164(a0)
 200c2b4:	ffff0f67 	j	200bef0 <t5_taskB4_generic_FH_TUERMODUL_CTRL+0x98>
 200c2b8:	98200a37 	lui	a1,0x4014
 200c2bc:	9cc3c103 	lw	a1,240(a1)
 200c2c0:	08260ae3 	blez	a1,200c3c4 <t5_taskB4_generic_FH_TUERMODUL_CTRL+0x56c>
 200c2c4:	a8200a37 	lui	a3,0x4014
 200c2c8:	9d41b003 	lb	a1,108(a3)
 200c2cc:	a0000413 	li	a2,1
 200c2d0:	0ce8b863 	beq	a1,a2,200c42c <t5_taskB4_generic_FH_TUERMODUL_CTRL+0x5d4>
 200c2d4:	0ce21863 	beq	a1,v1,200c3e0 <t5_taskB4_generic_FH_TUERMODUL_CTRL+0x588>
 200c2d8:	90200a37 	lui	a0,0x4014
 200c2dc:	0481e423 	sb	zero,121(a0)
 200c2e0:	90200a37 	lui	a0,0x4014
 200c2e4:	0563b023 	sb	v1,108(a3)
 200c2e8:	04a3b823 	sb	v1,110(a0)
 200c2ec:	88200a37 	lui	v1,0x4014
 200c2f0:	04284423 	sb	a2,17(v0)
 200c2f4:	0c689023 	sb	a2,164(v1)
 200c2f8:	fffefe67 	j	200bef0 <t5_taskB4_generic_FH_TUERMODUL_CTRL+0x98>
 200c2fc:	88200a37 	lui	v1,0x4014
 200c300:	8c42a003 	lb	v1,168(v1)
 200c304:	dc41d863 	beqz	v1,200bef0 <t5_taskB4_generic_FH_TUERMODUL_CTRL+0x98>
 200c308:	88200a37 	lui	v1,0x4014
 200c30c:	8c429803 	lb	v1,166(v1)
 200c310:	dc41c0e3 	bnez	v1,200bef0 <t5_taskB4_generic_FH_TUERMODUL_CTRL+0x98>
 200c314:	88200a37 	lui	v1,0x4014
 200c318:	8c43c103 	lw	v1,240(v1)
 200c31c:	8c465513 	slt	v1,v1,405
 200c320:	dc41a063 	beqz	v1,200bef0 <t5_taskB4_generic_FH_TUERMODUL_CTRL+0x98>
 200c324:	98200a37 	lui	a1,0x4014
 200c328:	88000413 	li	v1,1
 200c32c:	04c1e423 	sb	zero,121(a1)
 200c330:	98200a37 	lui	a1,0x4014
 200c334:	04a3c023 	sb	v1,112(a0)
 200c338:	0ce28423 	sb	v1,161(a1)
 200c33c:	90000813 	li	a0,2
 200c340:	88200a37 	lui	v1,0x4014
 200c344:	0465b423 	sb	a0,109(v1)
 200c348:	fffeea67 	j	200bef0 <t5_taskB4_generic_FH_TUERMODUL_CTRL+0x98>
 200c34c:	88200a37 	lui	v1,0x4014
 200c350:	8c429403 	lb	v1,165(v1)
 200c354:	ec409063 	beqz	v1,200c09c <t5_taskB4_generic_FH_TUERMODUL_CTRL+0x244>
 200c358:	88200a37 	lui	v1,0x4014
 200c35c:	9441f103 	lw	a0,124(v1)
 200c360:	88200a37 	lui	v1,0x4014
 200c364:	0441e423 	sb	zero,121(v1)
 200c368:	88200a37 	lui	v1,0x4014
 200c36c:	0c409023 	sb	zero,164(v1)
 200c370:	88200a37 	lui	v1,0x4014
 200c374:	14643123 	sw	a0,268(v1)
 200c378:	ffff4367 	j	200c084 <t5_taskB4_generic_FH_TUERMODUL_CTRL+0x22c>
 200c37c:	88200a37 	lui	v1,0x4014
 200c380:	8c42ac03 	lb	v1,171(v1)
 200c384:	dc40d863 	beqz	v1,200bef0 <t5_taskB4_generic_FH_TUERMODUL_CTRL+0x98>
 200c388:	98200a37 	lui	a1,0x4014
 200c38c:	88000413 	li	v1,1
 200c390:	04c1e423 	sb	zero,121(a1)
 200c394:	98200a37 	lui	a1,0x4014
 200c398:	0ce29023 	sb	v1,164(a1)
 200c39c:	04a3dc23 	sb	v1,119(a0)
 200c3a0:	fffed467 	j	200bef0 <t5_taskB4_generic_FH_TUERMODUL_CTRL+0x98>
 200c3a4:	a8200a37 	lui	a3,0x4014
 200c3a8:	a541b403 	lb	a2,109(a3)
 200c3ac:	0d220863 	beq	a2,v1,200c4b0 <t5_taskB4_generic_FH_TUERMODUL_CTRL+0x658>
 200c3b0:	0527b063 	beq	a2,a1,200c488 <t5_taskB4_generic_FH_TUERMODUL_CTRL+0x630>
 200c3b4:	88200a37 	lui	v1,0x4014
 200c3b8:	0441e423 	sb	zero,121(v1)
 200c3bc:	0567b423 	sb	a1,109(a3)
 200c3c0:	fffecc67 	j	200bef0 <t5_taskB4_generic_FH_TUERMODUL_CTRL+0x98>
 200c3c4:	88200a37 	lui	v1,0x4014
 200c3c8:	0441e423 	sb	zero,121(v1)
 200c3cc:	88200a37 	lui	v1,0x4014
 200c3d0:	0c409023 	sb	zero,164(v1)
 200c3d4:	88000c13 	li	v1,3
 200c3d8:	04a3c023 	sb	v1,112(a0)
 200c3dc:	fffec567 	j	200bef0 <t5_taskB4_generic_FH_TUERMODUL_CTRL+0x98>
 200c3e0:	88200a37 	lui	v1,0x4014
 200c3e4:	8c42ac03 	lb	v1,171(v1)
 200c3e8:	044020e3 	bnez	v1,200c3f8 <t5_taskB4_generic_FH_TUERMODUL_CTRL+0x5a0>
 200c3ec:	88200a37 	lui	v1,0x4014
 200c3f0:	8c42a403 	lb	v1,169(v1)
 200c3f4:	fc41a0e3 	bnez	v1,200c3c4 <t5_taskB4_generic_FH_TUERMODUL_CTRL+0x56c>
 200c3f8:	98200a37 	lui	a1,0x4014
 200c3fc:	94c1b803 	lb	a0,110(a1)
 200c400:	88000413 	li	v1,1
 200c404:	0ca2c863 	beq	a0,v1,200c568 <t5_taskB4_generic_FH_TUERMODUL_CTRL+0x710>
 200c408:	a0000813 	li	a2,2
 200c40c:	0ca82863 	beq	a0,a2,200c520 <t5_taskB4_generic_FH_TUERMODUL_CTRL+0x6c8>
 200c410:	90200a37 	lui	a0,0x4014
 200c414:	0481e423 	sb	zero,121(a0)
 200c418:	90200a37 	lui	a0,0x4014
 200c41c:	04e9b823 	sb	a2,110(a1)
 200c420:	04224423 	sb	v1,17(v0)
 200c424:	0ca29023 	sb	v1,164(a0)
 200c428:	fffeb267 	j	200bef0 <t5_taskB4_generic_FH_TUERMODUL_CTRL+0x98>
 200c42c:	88200a37 	lui	v1,0x4014
 200c430:	8c42a003 	lb	v1,168(v1)
 200c434:	04402063 	beqz	v1,200c444 <t5_taskB4_generic_FH_TUERMODUL_CTRL+0x5ec>
 200c438:	88200a37 	lui	v1,0x4014
 200c43c:	8c429803 	lb	v1,166(v1)
 200c440:	fc410863 	beqz	v1,200c3c4 <t5_taskB4_generic_FH_TUERMODUL_CTRL+0x56c>
 200c444:	88200a37 	lui	v1,0x4014
 200c448:	8c42ac03 	lb	v1,171(v1)
 200c44c:	04402063 	beqz	v1,200c45c <t5_taskB4_generic_FH_TUERMODUL_CTRL+0x604>
 200c450:	88200a37 	lui	v1,0x4014
 200c454:	8c42a403 	lb	v1,169(v1)
 200c458:	fc40d863 	beqz	v1,200c3c4 <t5_taskB4_generic_FH_TUERMODUL_CTRL+0x56c>
 200c45c:	98200a37 	lui	a1,0x4014
 200c460:	94c1bc03 	lb	a0,111(a1)
 200c464:	88000413 	li	v1,1
 200c468:	0ca30863 	beq	a0,v1,200c5ec <t5_taskB4_generic_FH_TUERMODUL_CTRL+0x794>
 200c46c:	a0000813 	li	a2,2
 200c470:	0ca86863 	beq	a0,a2,200c5a4 <t5_taskB4_generic_FH_TUERMODUL_CTRL+0x74c>
 200c474:	90200a37 	lui	a0,0x4014
 200c478:	0481e423 	sb	zero,121(a0)
 200c47c:	04e9bc23 	sb	a2,111(a1)
 200c480:	04224423 	sb	v1,17(v0)
 200c484:	fffe9b67 	j	200bef0 <t5_taskB4_generic_FH_TUERMODUL_CTRL+0x98>
 200c488:	98200a37 	lui	a1,0x4014
 200c48c:	9cc2ac03 	lb	a1,171(a1)
 200c490:	04c0b063 	beqz	a1,200c4e8 <t5_taskB4_generic_FH_TUERMODUL_CTRL+0x690>
 200c494:	98200a37 	lui	a1,0x4014
 200c498:	9cc2a403 	lb	a1,169(a1)
 200c49c:	04c098e3 	bnez	a1,200c4e8 <t5_taskB4_generic_FH_TUERMODUL_CTRL+0x690>
 200c4a0:	90200a37 	lui	a0,0x4014
 200c4a4:	0481e423 	sb	zero,121(a0)
 200c4a8:	0563b423 	sb	v1,109(a3)
 200c4ac:	fffe9167 	j	200bef0 <t5_taskB4_generic_FH_TUERMODUL_CTRL+0x98>
 200c4b0:	88200a37 	lui	v1,0x4014
 200c4b4:	8c42ac03 	lb	v1,171(v1)
 200c4b8:	04409863 	beqz	v1,200c504 <t5_taskB4_generic_FH_TUERMODUL_CTRL+0x6ac>
 200c4bc:	88200a37 	lui	v1,0x4014
 200c4c0:	8c42a403 	lb	v1,169(v1)
 200c4c4:	044080e3 	bnez	v1,200c504 <t5_taskB4_generic_FH_TUERMODUL_CTRL+0x6ac>
 200c4c8:	88200a37 	lui	v1,0x4014
 200c4cc:	0441e423 	sb	zero,121(v1)
 200c4d0:	88200a37 	lui	v1,0x4014
 200c4d4:	0c408423 	sb	zero,161(v1)
 200c4d8:	88000c13 	li	v1,3
 200c4dc:	04a3c023 	sb	v1,112(a0)
 200c4e0:	0541b423 	sb	zero,109(a3)
 200c4e4:	fffe8367 	j	200bef0 <t5_taskB4_generic_FH_TUERMODUL_CTRL+0x98>
 200c4e8:	88200a37 	lui	v1,0x4014
 200c4ec:	8c42a003 	lb	v1,168(v1)
 200c4f0:	d44000e3 	bnez	v1,200bef0 <t5_taskB4_generic_FH_TUERMODUL_CTRL+0x98>
 200c4f4:	88200a37 	lui	v1,0x4014
 200c4f8:	8c429803 	lb	v1,166(v1)
 200c4fc:	cc41e863 	beqz	v1,200bef0 <t5_taskB4_generic_FH_TUERMODUL_CTRL+0x98>
 200c500:	fffff267 	j	200c4c8 <t5_taskB4_generic_FH_TUERMODUL_CTRL+0x670>
 200c504:	88200a37 	lui	v1,0x4014
 200c508:	8c42a003 	lb	v1,168(v1)
 200c50c:	cc41c863 	beqz	v1,200bef0 <t5_taskB4_generic_FH_TUERMODUL_CTRL+0x98>
 200c510:	88200a37 	lui	v1,0x4014
 200c514:	8c429803 	lb	v1,166(v1)
 200c518:	cc41b0e3 	bnez	v1,200bef0 <t5_taskB4_generic_FH_TUERMODUL_CTRL+0x98>
 200c51c:	ffffeb67 	j	200c4c8 <t5_taskB4_generic_FH_TUERMODUL_CTRL+0x670>
 200c520:	94006003 	lb	a0,24(v0)
 200c524:	0c800863 	beqz	a0,200c628 <t5_taskB4_generic_FH_TUERMODUL_CTRL+0x7d0>
 200c528:	90200a37 	lui	a0,0x4014
 200c52c:	a481f103 	lw	a2,124(a0)
 200c530:	90200a37 	lui	a0,0x4014
 200c534:	0481e423 	sb	zero,121(a0)
 200c538:	90200a37 	lui	a0,0x4014
 200c53c:	0c809023 	sb	zero,164(a0)
 200c540:	90200a37 	lui	a0,0x4014
 200c544:	0ca2e823 	sb	v1,186(a0)
 200c548:	90200a37 	lui	a0,0x4014
 200c54c:	0ca9d123 	sw	a2,244(a0)
 200c550:	90200a37 	lui	a0,0x4014
 200c554:	04225c23 	sb	v1,23(v0)
 200c558:	04e3b823 	sb	v1,110(a1)
 200c55c:	04004423 	sb	zero,17(v0)
 200c560:	0ca28423 	sb	v1,161(a0)
 200c564:	fffe6367 	j	200bef0 <t5_taskB4_generic_FH_TUERMODUL_CTRL+0x98>
 200c568:	8c005803 	lb	v1,22(v0)
 200c56c:	04005c23 	sb	zero,23(v0)
 200c570:	cc410063 	beqz	v1,200bef0 <t5_taskB4_generic_FH_TUERMODUL_CTRL+0x98>
 200c574:	88200a37 	lui	v1,0x4014
 200c578:	0441e423 	sb	zero,121(v1)
 200c57c:	88200a37 	lui	v1,0x4014
 200c580:	0c40e823 	sb	zero,186(v1)
 200c584:	88000813 	li	v1,2
 200c588:	04e3b823 	sb	v1,110(a1)
 200c58c:	88200a37 	lui	v1,0x4014
 200c590:	0c408423 	sb	zero,161(v1)
 200c594:	88200a37 	lui	v1,0x4014
 200c598:	04244423 	sb	a0,17(v0)
 200c59c:	0c649023 	sb	a0,164(v1)
 200c5a0:	fffe5467 	j	200bef0 <t5_taskB4_generic_FH_TUERMODUL_CTRL+0x98>
 200c5a4:	94006003 	lb	a0,24(v0)
 200c5a8:	cc809063 	beqz	a0,200bef0 <t5_taskB4_generic_FH_TUERMODUL_CTRL+0x98>
 200c5ac:	90200a37 	lui	a0,0x4014
 200c5b0:	a481f103 	lw	a2,124(a0)
 200c5b4:	90200a37 	lui	a0,0x4014
 200c5b8:	0481e423 	sb	zero,121(a0)
 200c5bc:	90200a37 	lui	a0,0x4014
 200c5c0:	0ca2f023 	sb	v1,188(a0)
 200c5c4:	90200a37 	lui	a0,0x4014
 200c5c8:	0c809023 	sb	zero,164(a0)
 200c5cc:	90200a37 	lui	a0,0x4014
 200c5d0:	0ca9e123 	sw	a2,248(a0)
 200c5d4:	90200a37 	lui	a0,0x4014
 200c5d8:	04225c23 	sb	v1,23(v0)
 200c5dc:	04e3bc23 	sb	v1,111(a1)
 200c5e0:	04004423 	sb	zero,17(v0)
 200c5e4:	0ca28423 	sb	v1,161(a0)
 200c5e8:	fffe4267 	j	200bef0 <t5_taskB4_generic_FH_TUERMODUL_CTRL+0x98>
 200c5ec:	8c005803 	lb	v1,22(v0)
 200c5f0:	04005c23 	sb	zero,23(v0)
 200c5f4:	c441f863 	beqz	v1,200bef0 <t5_taskB4_generic_FH_TUERMODUL_CTRL+0x98>
 200c5f8:	88200a37 	lui	v1,0x4014
 200c5fc:	0441e423 	sb	zero,121(v1)
 200c600:	88200a37 	lui	v1,0x4014
 200c604:	0c649023 	sb	a0,164(v1)
 200c608:	88200a37 	lui	v1,0x4014
 200c60c:	0c40f023 	sb	zero,188(v1)
 200c610:	88000813 	li	v1,2
 200c614:	04e3bc23 	sb	v1,111(a1)
 200c618:	88200a37 	lui	v1,0x4014
 200c61c:	0c408423 	sb	zero,161(v1)
 200c620:	04244423 	sb	a0,17(v0)
 200c624:	fffe3367 	j	200bef0 <t5_taskB4_generic_FH_TUERMODUL_CTRL+0x98>
 200c628:	90200a37 	lui	a0,0x4014
 200c62c:	9482a003 	lb	a0,168(a0)
 200c630:	c4818063 	beqz	a0,200bef0 <t5_taskB4_generic_FH_TUERMODUL_CTRL+0x98>
 200c634:	90200a37 	lui	a0,0x4014
 200c638:	94829803 	lb	a0,166(a0)
 200c63c:	c48168e3 	bnez	a0,200bef0 <t5_taskB4_generic_FH_TUERMODUL_CTRL+0x98>
 200c640:	90200a37 	lui	a0,0x4014
 200c644:	0481e423 	sb	zero,121(a0)
 200c648:	0563b023 	sb	v1,108(a3)
 200c64c:	04c1b823 	sb	zero,110(a1)
 200c650:	fffe2867 	j	200bef0 <t5_taskB4_generic_FH_TUERMODUL_CTRL+0x98>

0200c654 <t5_taskB4_generic_EINKLEMMSCHUTZ_CTRL>:
 200c654:	80200a37 	lui	v0,0x4014
 200c658:	84048013 	add	v0,v0,288
 200c65c:	8c004003 	lb	v1,16(v0)
 200c660:	04405063 	beqz	v1,200c688 <t5_taskB4_generic_EINKLEMMSCHUTZ_CTRL+0x34>
 200c664:	90200a37 	lui	a0,0x4014
 200c668:	8c81a803 	lb	v1,106(a0)
 200c66c:	98000413 	li	a1,1
 200c670:	04663863 	beq	v1,a1,200c68c <t5_taskB4_generic_EINKLEMMSCHUTZ_CTRL+0x38>
 200c674:	a0000813 	li	a2,2
 200c678:	0468c063 	beq	v1,a2,200c6d8 <t5_taskB4_generic_EINKLEMMSCHUTZ_CTRL+0x84>
 200c67c:	80200a37 	lui	v0,0x4014
 200c680:	0401e423 	sb	zero,121(v0)
 200c684:	04a7a823 	sb	a1,106(a0)
 200c688:	004000eb 	ret
 200c68c:	88200a37 	lui	v1,0x4014
 200c690:	8c427c03 	lb	v1,159(v1)
 200c694:	fc41e863 	beqz	v1,200c688 <t5_taskB4_generic_EINKLEMMSCHUTZ_CTRL+0x34>
 200c698:	88200a37 	lui	v1,0x4014
 200c69c:	8c427803 	lb	v1,158(v1)
 200c6a0:	fc41d0e3 	bnez	v1,200c688 <t5_taskB4_generic_EINKLEMMSCHUTZ_CTRL+0x34>
 200c6a4:	88200a37 	lui	v1,0x4014
 200c6a8:	8c42ac03 	lb	v1,171(v1)
 200c6ac:	04402063 	beqz	v1,200c6bc <t5_taskB4_generic_EINKLEMMSCHUTZ_CTRL+0x68>
 200c6b0:	88200a37 	lui	v1,0x4014
 200c6b4:	8c42a003 	lb	v1,168(v1)
 200c6b8:	fc41a0e3 	bnez	v1,200c688 <t5_taskB4_generic_EINKLEMMSCHUTZ_CTRL+0x34>
 200c6bc:	88200a37 	lui	v1,0x4014
 200c6c0:	0441e423 	sb	zero,121(v1)
 200c6c4:	88000413 	li	v1,1
 200c6c8:	04226023 	sb	v1,24(v0)
 200c6cc:	80000813 	li	v0,2
 200c6d0:	04a1a823 	sb	v0,106(a0)
 200c6d4:	004000eb 	ret
 200c6d8:	88200a37 	lui	v1,0x4014
 200c6dc:	8c427c03 	lb	v1,159(v1)
 200c6e0:	04006023 	sb	zero,24(v0)
 200c6e4:	fc4148e3 	bnez	v1,200c688 <t5_taskB4_generic_EINKLEMMSCHUTZ_CTRL+0x34>
 200c6e8:	80200a37 	lui	v0,0x4014
 200c6ec:	84027803 	lb	v0,158(v0)
 200c6f0:	fc013063 	beqz	v0,200c688 <t5_taskB4_generic_EINKLEMMSCHUTZ_CTRL+0x34>
 200c6f4:	80200a37 	lui	v0,0x4014
 200c6f8:	0401e423 	sb	zero,121(v0)
 200c6fc:	04a7a823 	sb	a1,106(a0)
 200c700:	004000eb 	ret

0200c704 <t5_taskB4_generic_BLOCK_ERKENNUNG_CTRL>:
 200c704:	88200a37 	lui	v1,0x4014
 200c708:	84448013 	add	v0,v1,288
 200c70c:	94004c03 	lb	a0,19(v0)
 200c710:	048038e3 	bnez	a0,200c72c <t5_taskB4_generic_BLOCK_ERKENNUNG_CTRL+0x28>
 200c714:	94005403 	lb	a0,21(v0)
 200c718:	04807063 	beqz	a0,200c750 <t5_taskB4_generic_BLOCK_ERKENNUNG_CTRL+0x4c>
 200c71c:	84005003 	lb	v0,20(v0)
 200c720:	040060e3 	bnez	v0,200c750 <t5_taskB4_generic_BLOCK_ERKENNUNG_CTRL+0x4c>
 200c724:	14408023 	sb	zero,288(v1)
 200c728:	004000eb 	ret
 200c72c:	90200a37 	lui	a0,0x4014
 200c730:	8481a003 	lb	v0,104(a0)
 200c734:	98000413 	li	a1,1
 200c738:	04263863 	beq	v0,a1,200c754 <t5_taskB4_generic_BLOCK_ERKENNUNG_CTRL+0x50>
 200c73c:	a0000813 	li	a2,2
 200c740:	0428d863 	beq	v0,a2,200c7ac <t5_taskB4_generic_BLOCK_ERKENNUNG_CTRL+0xa8>
 200c744:	80200a37 	lui	v0,0x4014
 200c748:	0401e423 	sb	zero,121(v0)
 200c74c:	04a7a023 	sb	a1,104(a0)
 200c750:	004000eb 	ret
 200c754:	98200a37 	lui	a1,0x4014
 200c758:	a0200a37 	lui	a2,0x4014
 200c75c:	9cc3b103 	lw	a1,236(a1)
 200c760:	a503a103 	lw	a2,232(a2)
 200c764:	fce9d863 	beq	a1,a2,200c750 <t5_taskB4_generic_BLOCK_ERKENNUNG_CTRL+0x4c>
 200c768:	f827d2e3 	blez	a1,200c750 <t5_taskB4_generic_BLOCK_ERKENNUNG_CTRL+0x4c>
 200c76c:	98200a37 	lui	a1,0x4014
 200c770:	04c1e423 	sb	zero,121(a1)
 200c774:	98200a37 	lui	a1,0x4014
 200c778:	0cc0b823 	sb	zero,174(a1)
 200c77c:	98000813 	li	a1,2
 200c780:	04a7a023 	sb	a1,104(a0)
 200c784:	90200a37 	lui	a0,0x4014
 200c788:	98000813 	li	a1,2
 200c78c:	0c812123 	sw	zero,200(a0)
 200c790:	90200a37 	lui	a0,0x4014
 200c794:	0ca74123 	sw	a1,208(a0)
 200c798:	98000c13 	li	a1,3
 200c79c:	90200a37 	lui	a0,0x4014
 200c7a0:	04a7a423 	sb	a1,105(a0)
 200c7a4:	14608023 	sb	v0,288(v1)
 200c7a8:	004000eb 	ret
 200c7ac:	80200a37 	lui	v0,0x4014
 200c7b0:	84028803 	lb	v0,162(v0)
 200c7b4:	0400c063 	beqz	v0,200c814 <t5_taskB4_generic_BLOCK_ERKENNUNG_CTRL+0x110>
 200c7b8:	80200a37 	lui	v0,0x4014
 200c7bc:	84029403 	lb	v0,165(v0)
 200c7c0:	040020e3 	bnez	v0,200c7d0 <t5_taskB4_generic_BLOCK_ERKENNUNG_CTRL+0xcc>
 200c7c4:	80200a37 	lui	v0,0x4014
 200c7c8:	84028c03 	lb	v0,163(v0)
 200c7cc:	0400a8e3 	bnez	v0,200c820 <t5_taskB4_generic_BLOCK_ERKENNUNG_CTRL+0x11c>
 200c7d0:	90200a37 	lui	a0,0x4014
 200c7d4:	8481a403 	lb	v0,105(a0)
 200c7d8:	98000813 	li	a1,2
 200c7dc:	0427b063 	beq	v0,a1,200c8b4 <t5_taskB4_generic_BLOCK_ERKENNUNG_CTRL+0x1b0>
 200c7e0:	a0000c13 	li	a2,3
 200c7e4:	0428b863 	beq	v0,a2,200c840 <t5_taskB4_generic_BLOCK_ERKENNUNG_CTRL+0x13c>
 200c7e8:	a8000413 	li	a3,1
 200c7ec:	042aa063 	beq	v0,a3,200c83c <t5_taskB4_generic_BLOCK_ERKENNUNG_CTRL+0x138>
 200c7f0:	80200a37 	lui	v0,0x4014
 200c7f4:	0401e423 	sb	zero,121(v0)
 200c7f8:	80200a37 	lui	v0,0x4014
 200c7fc:	0c012123 	sw	zero,200(v0)
 200c800:	80200a37 	lui	v0,0x4014
 200c804:	0c274123 	sw	a1,208(v0)
 200c808:	04a9a423 	sb	a2,105(a0)
 200c80c:	146a8023 	sb	a3,288(v1)
 200c810:	004000eb 	ret
 200c814:	80200a37 	lui	v0,0x4014
 200c818:	84028003 	lb	v0,160(v0)
 200c81c:	fc013863 	beqz	v0,200c7b8 <t5_taskB4_generic_BLOCK_ERKENNUNG_CTRL+0xb4>
 200c820:	80200a37 	lui	v0,0x4014
 200c824:	0401e423 	sb	zero,121(v0)
 200c828:	80000413 	li	v0,1
 200c82c:	04a1a023 	sb	v0,104(a0)
 200c830:	80200a37 	lui	v0,0x4014
 200c834:	0401a423 	sb	zero,105(v0)
 200c838:	004000eb 	ret
 200c83c:	004000eb 	ret
 200c840:	a0200a37 	lui	a2,0x4014
 200c844:	85032103 	lw	v0,200(a2)
 200c848:	14408023 	sb	zero,288(v1)
 200c84c:	88002c13 	li	v1,11
 200c850:	04233063 	beq	v0,v1,200c8e8 <t5_taskB4_generic_BLOCK_ERKENNUNG_CTRL+0x1e4>
 200c854:	88200a37 	lui	v1,0x4014
 200c858:	9441e003 	lb	a0,120(v1)
 200c85c:	88000413 	li	v1,1
 200c860:	f4a3e0e3 	bne	a0,v1,200c750 <t5_taskB4_generic_BLOCK_ERKENNUNG_CTRL+0x4c>
 200c864:	88200a37 	lui	v1,0x4014
 200c868:	8c447103 	lw	v1,284(v1)
 200c86c:	f441c863 	beqz	v1,200c750 <t5_taskB4_generic_BLOCK_ERKENNUNG_CTRL+0x4c>
 200c870:	90200a37 	lui	a0,0x4014
 200c874:	9481f103 	lw	a0,124(a0)
 200c878:	8ca30033 	sub	v1,a0,v1
 200c87c:	8c40f0d3 	fcvt.d.wu	fv1,v1
 200c880:	88200037 	lui	v1,0x4000
 200c884:	84402187 	fld	fv0,8(v1)
 200c888:	8c6150d3 	feq.d	v1,fv1,fv0
 200c88c:	f4418863 	beqz	v1,200c750 <t5_taskB4_generic_BLOCK_ERKENNUNG_CTRL+0x4c>
 200c890:	88200a37 	lui	v1,0x4014
 200c894:	90200a37 	lui	a0,0x4014
 200c898:	9483b103 	lw	a0,236(a0)
 200c89c:	9c434103 	lw	a1,208(v1)
 200c8a0:	84000413 	add	v0,v0,1
 200c8a4:	0d212123 	sw	v0,200(a2)
 200c8a8:	f4e552e3 	ble	a0,a1,200c750 <t5_taskB4_generic_BLOCK_ERKENNUNG_CTRL+0x4c>
 200c8ac:	0c654123 	sw	a0,208(v1)
 200c8b0:	004000eb 	ret
 200c8b4:	80200a37 	lui	v0,0x4014
 200c8b8:	8c034103 	lw	v1,208(v0)
 200c8bc:	80200a37 	lui	v0,0x4014
 200c8c0:	8403b103 	lw	v0,236(v0)
 200c8c4:	8c7ffc13 	add	v1,v1,-1
 200c8c8:	f4231263 	blt	v0,v1,200c750 <t5_taskB4_generic_BLOCK_ERKENNUNG_CTRL+0x4c>
 200c8cc:	88200a37 	lui	v1,0x4014
 200c8d0:	80000413 	li	v0,1
 200c8d4:	0441e423 	sb	zero,121(v1)
 200c8d8:	88200a37 	lui	v1,0x4014
 200c8dc:	0c60b823 	sb	v0,174(v1)
 200c8e0:	04a1a423 	sb	v0,105(a0)
 200c8e4:	004000eb 	ret
 200c8e8:	88200a37 	lui	v1,0x4014
 200c8ec:	8c430103 	lw	v1,192(v1)
 200c8f0:	fc60c863 	beq	v1,v0,200c854 <t5_taskB4_generic_BLOCK_ERKENNUNG_CTRL+0x150>
 200c8f4:	80200a37 	lui	v0,0x4014
 200c8f8:	0401e423 	sb	zero,121(v0)
 200c8fc:	04a7a423 	sb	a1,105(a0)
 200c900:	004000eb 	ret

0200c904 <t5_taskB4_FH_DU>:
 200c904:	73be2013 	add	sp,sp,-120
 200c908:	0385c123 	sw	s0,112(sp)
 200c90c:	10200a37 	lui	s0,0x4014
 200c910:	0387b123 	sw	s1,108(sp)
 200c914:	0389a123 	sw	s2,104(sp)
 200c918:	038b9123 	sw	s3,100(sp)
 200c91c:	038d8123 	sw	s4,96(sp)
 200c920:	038f7123 	sw	s5,92(sp)
 200c924:	03916123 	sw	s6,88(sp)
 200c928:	03935123 	sw	s7,84(sp)
 200c92c:	03954123 	sw	s8,80(sp)
 200c930:	03973123 	sw	s9,76(sp)
 200c934:	03992123 	sw	s10,72(sp)
 200c938:	039b1123 	sw	s11,68(sp)
 200c93c:	0383d123 	sw	ra,116(sp)
 200c940:	10848013 	add	s0,s0,288
 200c944:	88000413 	li	v1,1
 200c948:	80200a37 	lui	v0,0x4014
 200c94c:	0423f123 	sw	v1,124(v0)
 200c950:	a8804003 	lb	a3,16(s0)
 200c954:	88802803 	lb	v1,10(s0)
 200c958:	b0804c03 	lb	a4,19(s0)
 200c95c:	b8803403 	lb	a5,13(s0)
 200c960:	80200a37 	lui	v0,0x4014
 200c964:	c0200a37 	lui	a6,0x4014
 200c968:	c8200a37 	lui	a7,0x4014
 200c96c:	0401e023 	sb	zero,120(v0)
 200c970:	03a2a123 	sw	v1,40(sp)
 200c974:	86024803 	lb	v0,146(a6)
 200c978:	03aac123 	sw	a3,48(sp)
 200c97c:	03acd123 	sw	a4,52(sp)
 200c980:	03aeb123 	sw	a5,44(sp)
 200c984:	c6424003 	lb	a6,144(a7)
 200c988:	58200a37 	lui	s9,0x4014
 200c98c:	60200a37 	lui	s10,0x4014
 200c990:	20200a37 	lui	s2,0x4014
 200c994:	e0200a37 	lui	a10,0x4014
 200c998:	18200a37 	lui	s1,0x4014
 200c99c:	50200a37 	lui	s8,0x4014
 200c9a0:	48200a37 	lui	s7,0x4014
 200c9a4:	40200a37 	lui	s6,0x4014
 200c9a8:	38200a37 	lui	s5,0x4014
 200c9ac:	30200a37 	lui	s4,0x4014
 200c9b0:	28200a37 	lui	s3,0x4014
 200c9b4:	a0200a37 	lui	a2,0x4014
 200c9b8:	98200a37 	lui	a1,0x4014
 200c9bc:	90200a37 	lui	a0,0x4014
 200c9c0:	88200a37 	lui	v1,0x4014
 200c9c4:	68200a37 	lui	s11,0x4014
 200c9c8:	00016e67 	j	200cf80 <t5_taskB4_FH_DU+0x67c>
 200c9cc:	b0000c13 	li	a4,3
 200c9d0:	356c2063 	beq	a3,a4,200cfe0 <t5_taskB4_FH_DU+0x6dc>
 200c9d4:	b0000413 	li	a4,1
 200c9d8:	356c7863 	beq	a3,a4,200d014 <t5_taskB4_FH_DU+0x710>
 200c9dc:	f8200a37 	lui	a13,0x4014
 200c9e0:	a8200a37 	lui	a3,0x4014
 200c9e4:	b8000813 	li	a5,2
 200c9e8:	b0200a37 	lui	a4,0x4014
 200c9ec:	07c1e423 	sb	zero,121(a13)
 200c9f0:	0d419123 	sw	zero,228(a3)
 200c9f4:	05afac23 	sb	a5,107(a4)
 200c9f8:	cb80a103 	lw	a7,40(sp)
 200c9fc:	064020e3 	bnez	a7,200ca0c <t5_taskB4_FH_DU+0x108>
 200ca00:	a8000c13 	li	a3,3
 200ca04:	d0200a37 	lui	a8,0x4014
 200ca08:	06abd023 	sb	a3,116(a8)
 200ca0c:	db80c103 	lw	a9,48(sp)
 200ca10:	06c020e3 	bnez	a9,200ca20 <t5_taskB4_FH_DU+0x11c>
 200ca14:	b0000413 	li	a4,1
 200ca18:	a8200a37 	lui	a3,0x4014
 200ca1c:	056da823 	sb	a4,106(a3)
 200ca20:	eb80d103 	lw	a11,52(sp)
 200ca24:	074030e3 	bnez	a11,200ca3c <t5_taskB4_FH_DU+0x138>
 200ca28:	a8200a37 	lui	a3,0x4014
 200ca2c:	15408023 	sb	zero,288(a3)
 200ca30:	b0000413 	li	a4,1
 200ca34:	a8200a37 	lui	a3,0x4014
 200ca38:	056da023 	sb	a4,104(a3)
 200ca3c:	f380b103 	lw	a12,44(sp)
 200ca40:	078070e3 	bnez	a12,200ca78 <t5_taskB4_FH_DU+0x174>
 200ca44:	b0000813 	li	a4,2
 200ca48:	f8200a37 	lui	a13,0x4014
 200ca4c:	a8000413 	li	a3,1
 200ca50:	07edcc23 	sb	a4,115(a13)
 200ca54:	b0200a37 	lui	a4,0x4014
 200ca58:	b8200a37 	lui	a5,0x4014
 200ca5c:	05abc823 	sb	a3,114(a4)
 200ca60:	b0200a37 	lui	a4,0x4014
 200ca64:	00801023 	sb	zero,4(s0)
 200ca68:	00801823 	sb	zero,6(s0)
 200ca6c:	15c01123 	sw	zero,260(a5)
 200ca70:	00aa1423 	sb	a3,5(s0)
 200ca74:	05abc423 	sb	a3,113(a4)
 200ca78:	a8000413 	li	a3,1
 200ca7c:	00aa2c23 	sb	a3,11(s0)
 200ca80:	00aa4423 	sb	a3,17(s0)
 200ca84:	00aa5023 	sb	a3,20(s0)
 200ca88:	00aa3823 	sb	a3,14(s0)
 200ca8c:	04302863 	beq	v0,a6,200caa0 <t5_taskB4_FH_DU+0x19c>
 200ca90:	a8200a37 	lui	a3,0x4014
 200ca94:	ad422403 	lb	a3,137(a3)
 200ca98:	054010e3 	bnez	a3,200caa0 <t5_taskB4_FH_DU+0x19c>
 200ca9c:	09206823 	sb	v0,154(s2)
 200caa0:	c0200a37 	lui	a6,0x4014
 200caa4:	c8200a37 	lui	a7,0x4014
 200caa8:	86023c03 	lb	v0,143(a6)
 200caac:	ae423803 	lb	a3,142(a7)
 200cab0:	05603063 	beq	a3,v0,200cac8 <t5_taskB4_FH_DU+0x1c4>
 200cab4:	a8200a37 	lui	a3,0x4014
 200cab8:	ad422403 	lb	a3,137(a3)
 200cabc:	05401863 	beqz	a3,200cac8 <t5_taskB4_FH_DU+0x1c4>
 200cac0:	d0200a37 	lui	a8,0x4014
 200cac4:	0ea04823 	sb	v0,146(a8)
 200cac8:	d8200a37 	lui	a9,0x4014
 200cacc:	87025403 	lb	v0,149(a10)
 200cad0:	aec24c03 	lb	a3,147(a9)
 200cad4:	05602863 	beq	a3,v0,200cae8 <t5_taskB4_FH_DU+0x1e4>
 200cad8:	a8200a37 	lui	a3,0x4014
 200cadc:	ad422403 	lb	a3,137(a3)
 200cae0:	054010e3 	bnez	a3,200cae8 <t5_taskB4_FH_DU+0x1e4>
 200cae4:	08e06423 	sb	v0,153(s1)
 200cae8:	e8200a37 	lui	a11,0x4014
 200caec:	f0200a37 	lui	a12,0x4014
 200caf0:	87423403 	lb	v0,141(a11)
 200caf4:	af823003 	lb	a3,140(a12)
 200caf8:	05602863 	beq	a3,v0,200cb0c <t5_taskB4_FH_DU+0x208>
 200cafc:	a8200a37 	lui	a3,0x4014
 200cb00:	ad422403 	lb	a3,137(a3)
 200cb04:	05401063 	beqz	a3,200cb0c <t5_taskB4_FH_DU+0x208>
 200cb08:	0f205423 	sb	v0,149(a10)
 200cb0c:	d8803203 	lbu	a9,12(s0)
 200cb10:	d0803e03 	lbu	a8,15(s0)
 200cb14:	c8804a03 	lbu	a7,18(s0)
 200cb18:	c0805603 	lbu	a6,21(s0)
 200cb1c:	ba422a03 	lbu	a5,138(s7)
 200cb20:	b0c26603 	lbu	a4,153(s1)
 200cb24:	a9822e03 	lbu	a3,139(s4)
 200cb28:	81026a03 	lbu	v0,154(s2)
 200cb2c:	00b62823 	sb	a9,10(s0)
 200cb30:	00b43423 	sb	a8,13(s0)
 200cb34:	00b24023 	sb	a7,16(s0)
 200cb38:	00b04c23 	sb	a6,19(s0)
 200cb3c:	0aaec823 	sb	a5,178(s8)
 200cb40:	03b86123 	sw	a10,24(sp)
 200cb44:	0a2cd023 	sb	a4,180(s6)
 200cb48:	09ead823 	sb	a3,182(s5)
 200cb4c:	0960e023 	sb	v0,184(s3)
 200cb50:	03a25123 	sw	v1,20(sp)
 200cb54:	03a48123 	sw	a0,32(sp)
 200cb58:	03a64123 	sw	a1,16(sp)
 200cb5c:	03a87123 	sw	a2,28(sp)
 200cb60:	fffbe46f 	jal	200baf0 <t5_taskB4_generic_KINDERSICHERUNG_CTRL>
 200cb64:	a3807103 	lw	a2,28(sp)
 200cb68:	9b804103 	lw	a1,16(sp)
 200cb6c:	f8200a37 	lui	a13,0x4014
 200cb70:	80200a37 	lui	v0,0x4014
 200cb74:	0fc28a03 	lbu	ra,162(a13)
 200cb78:	93808103 	lw	a0,32(sp)
 200cb7c:	fc029603 	lbu	a13,165(v0)
 200cb80:	8b805103 	lw	v1,20(sp)
 200cb84:	f503b103 	lw	a12,236(a2)
 200cb88:	a8200a37 	lui	a3,0x4014
 200cb8c:	ed427e03 	lbu	a11,159(a3)
 200cb90:	dcc3c103 	lw	a9,240(a1)
 200cb94:	d482b203 	lbu	a8,172(a0)
 200cb98:	ac42c203 	lbu	a3,176(v1)
 200cb9c:	ca82ca03 	lbu	a7,178(s8)
 200cba0:	c202d203 	lbu	a6,180(s6)
 200cba4:	b9c2da03 	lbu	a5,182(s5)
 200cba8:	b142e203 	lbu	a4,184(s3)
 200cbac:	8342be03 	lbu	v0,175(s11)
 200cbb0:	0afe1423 	sb	a13,133(s9)
 200cbb4:	f8200a37 	lui	a13,0x4014
 200cbb8:	0ffd6123 	sw	a12,216(a13)
 200cbbc:	f8200a37 	lui	a13,0x4014
 200cbc0:	f0200a37 	lui	a12,0x4014
 200cbc4:	0fba5c23 	sb	a11,151(a12)
 200cbc8:	0ff77123 	sw	a9,220(a13)
 200cbcc:	e8200a37 	lui	a11,0x4014
 200cbd0:	d8200a37 	lui	a9,0x4014
 200cbd4:	f0200a37 	lui	a12,0x4014
 200cbd8:	0ef46023 	sb	a8,152(a9)
 200cbdc:	0f6a6c23 	sb	a3,155(a11)
 200cbe0:	0fa02023 	sb	v0,136(a12)
 200cbe4:	0b020823 	sb	ra,130(s10)
 200cbe8:	0a722823 	sb	a7,138(s7)
 200cbec:	08f06423 	sb	a6,153(s1)
 200cbf0:	09ae2c23 	sb	a5,139(s4)
 200cbf4:	092c6823 	sb	a4,154(s2)
 200cbf8:	fffc986f 	jal	200be58 <t5_taskB4_generic_FH_TUERMODUL_CTRL>
 200cbfc:	a3807103 	lw	a2,28(sp)
 200cc00:	9b804103 	lw	a1,16(sp)
 200cc04:	f8200a37 	lui	a13,0x4014
 200cc08:	80200a37 	lui	v0,0x4014
 200cc0c:	0fc28a03 	lbu	ra,162(a13)
 200cc10:	93808103 	lw	a0,32(sp)
 200cc14:	fc029603 	lbu	a13,165(v0)
 200cc18:	8b805103 	lw	v1,20(sp)
 200cc1c:	f503b103 	lw	a12,236(a2)
 200cc20:	a8200a37 	lui	a3,0x4014
 200cc24:	ed427e03 	lbu	a11,159(a3)
 200cc28:	dcc3c103 	lw	a9,240(a1)
 200cc2c:	d482b203 	lbu	a8,172(a0)
 200cc30:	ac42c203 	lbu	a3,176(v1)
 200cc34:	ca82ca03 	lbu	a7,178(s8)
 200cc38:	c202d203 	lbu	a6,180(s6)
 200cc3c:	b9c2da03 	lbu	a5,182(s5)
 200cc40:	b142e203 	lbu	a4,184(s3)
 200cc44:	8342be03 	lbu	v0,175(s11)
 200cc48:	0afe1423 	sb	a13,133(s9)
 200cc4c:	f8200a37 	lui	a13,0x4014
 200cc50:	0ffd6123 	sw	a12,216(a13)
 200cc54:	f8200a37 	lui	a13,0x4014
 200cc58:	f0200a37 	lui	a12,0x4014
 200cc5c:	0fba5c23 	sb	a11,151(a12)
 200cc60:	0ff77123 	sw	a9,220(a13)
 200cc64:	e8200a37 	lui	a11,0x4014
 200cc68:	d8200a37 	lui	a9,0x4014
 200cc6c:	f0200a37 	lui	a12,0x4014
 200cc70:	0ef46023 	sb	a8,152(a9)
 200cc74:	0f6a6c23 	sb	a3,155(a11)
 200cc78:	0fa02023 	sb	v0,136(a12)
 200cc7c:	0b020823 	sb	ra,130(s10)
 200cc80:	0a722823 	sb	a7,138(s7)
 200cc84:	08f06423 	sb	a6,153(s1)
 200cc88:	09ae2c23 	sb	a5,139(s4)
 200cc8c:	092c6823 	sb	a4,154(s2)
 200cc90:	fffe716f 	jal	200c654 <t5_taskB4_generic_EINKLEMMSCHUTZ_CTRL>
 200cc94:	a3807103 	lw	a2,28(sp)
 200cc98:	9b804103 	lw	a1,16(sp)
 200cc9c:	f8200a37 	lui	a13,0x4014
 200cca0:	80200a37 	lui	v0,0x4014
 200cca4:	0fc28a03 	lbu	ra,162(a13)
 200cca8:	93808103 	lw	a0,32(sp)
 200ccac:	fc029603 	lbu	a13,165(v0)
 200ccb0:	8b805103 	lw	v1,20(sp)
 200ccb4:	f503b103 	lw	a12,236(a2)
 200ccb8:	a8200a37 	lui	a3,0x4014
 200ccbc:	ed427e03 	lbu	a11,159(a3)
 200ccc0:	dcc3c103 	lw	a9,240(a1)
 200ccc4:	d482b203 	lbu	a8,172(a0)
 200ccc8:	ac42c203 	lbu	a3,176(v1)
 200cccc:	ca82ca03 	lbu	a7,178(s8)
 200ccd0:	c202d203 	lbu	a6,180(s6)
 200ccd4:	b9c2da03 	lbu	a5,182(s5)
 200ccd8:	b142e203 	lbu	a4,184(s3)
 200ccdc:	8342be03 	lbu	v0,175(s11)
 200cce0:	0afe1423 	sb	a13,133(s9)
 200cce4:	f8200a37 	lui	a13,0x4014
 200cce8:	0ffd6123 	sw	a12,216(a13)
 200ccec:	f8200a37 	lui	a13,0x4014
 200ccf0:	f0200a37 	lui	a12,0x4014
 200ccf4:	0fba5c23 	sb	a11,151(a12)
 200ccf8:	0ff77123 	sw	a9,220(a13)
 200ccfc:	e8200a37 	lui	a11,0x4014
 200cd00:	d8200a37 	lui	a9,0x4014
 200cd04:	f0200a37 	lui	a12,0x4014
 200cd08:	0ef46023 	sb	a8,152(a9)
 200cd0c:	0f6a6c23 	sb	a3,155(a11)
 200cd10:	0fa02023 	sb	v0,136(a12)
 200cd14:	0a722823 	sb	a7,138(s7)
 200cd18:	08f06423 	sb	a6,153(s1)
 200cd1c:	09ae2c23 	sb	a5,139(s4)
 200cd20:	092c6823 	sb	a4,154(s2)
 200cd24:	0b020823 	sb	ra,130(s10)
 200cd28:	fffe776f 	jal	200c704 <t5_taskB4_generic_BLOCK_ERKENNUNG_CTRL>
 200cd2c:	d0803403 	lb	a8,13(s0)
 200cd30:	d8804003 	lb	a9,16(s0)
 200cd34:	a3807103 	lw	a2,28(sp)
 200cd38:	c8802803 	lb	a7,10(s0)
 200cd3c:	f8200a37 	lui	a13,0x4014
 200cd40:	afc27c03 	lb	a3,159(a13)
 200cd44:	b282c803 	lb	a4,178(s8)
 200cd48:	f8804c03 	lb	a13,19(s0)
 200cd4c:	9b804103 	lw	a1,16(sp)
 200cd50:	8503b103 	lw	v0,236(a2)
 200cd54:	ba02d003 	lb	a5,180(s6)
 200cd58:	93808103 	lw	a0,32(sp)
 200cd5c:	03b4b123 	sw	a8,44(sp)
 200cd60:	03b6c123 	sw	a9,48(sp)
 200cd64:	d0200a37 	lui	a8,0x4014
 200cd68:	d8200a37 	lui	a9,0x4014
 200cd6c:	03b2a123 	sw	a7,40(sp)
 200cd70:	ce841103 	lw	a7,260(a8)
 200cd74:	d6c38103 	lw	a8,224(a9)
 200cd78:	d8200a37 	lui	a9,0x4014
 200cd7c:	03ace123 	sw	a4,56(sp)
 200cd80:	03bed123 	sw	a13,52(sp)
 200cd84:	b4c3c103 	lw	a4,240(a1)
 200cd88:	fec32103 	lw	a13,200(a9)
 200cd8c:	d8200a37 	lui	a9,0x4014
 200cd90:	03ae3123 	sw	a5,12(sp)
 200cd94:	0ee16123 	sw	v0,216(a9)
 200cd98:	bc82b203 	lbu	a5,172(a0)
 200cd9c:	d8200a37 	lui	a9,0x4014
 200cda0:	0eea5c23 	sb	a3,151(a9)
 200cda4:	d8200a37 	lui	a9,0x4014
 200cda8:	0eed7123 	sw	a4,220(a9)
 200cdac:	8b805103 	lw	v1,20(sp)
 200cdb0:	b0200a37 	lui	a4,0x4014
 200cdb4:	0dae6023 	sb	a5,152(a4)
 200cdb8:	db803103 	lw	a9,12(sp)
 200cdbc:	bb80e103 	lw	a5,56(sp)
 200cdc0:	c442c203 	lbu	a6,176(v1)
 200cdc4:	e9c2d803 	lb	a11,182(s5)
 200cdc8:	f142e003 	lb	a12,184(s3)
 200cdcc:	0a6e2823 	sb	a5,138(s7)
 200cdd0:	08f66423 	sb	a9,153(s1)
 200cdd4:	bb80a103 	lw	a5,40(sp)
 200cdd8:	db80c103 	lw	a9,48(sp)
 200cddc:	b0200a37 	lui	a4,0x4014
 200cde0:	0db06c23 	sb	a6,155(a4)
 200cde4:	c380b103 	lw	a6,44(sp)
 200cde8:	00ae2c23 	sb	a5,11(s0)
 200cdec:	b8200a37 	lui	a5,0x4014
 200cdf0:	00b64423 	sb	a9,17(s0)
 200cdf4:	b380d103 	lw	a4,52(sp)
 200cdf8:	0df3f123 	sw	a7,252(a5)
 200cdfc:	d8200a37 	lui	a9,0x4014
 200ce00:	c8200a37 	lui	a7,0x4014
 200ce04:	00b03823 	sb	a6,14(s0)
 200ce08:	0e759123 	sw	a8,228(a7)
 200ce0c:	0eff0123 	sw	a13,192(a9)
 200ce10:	c0200a37 	lui	a6,0x4014
 200ce14:	d0200a37 	lui	a8,0x4014
 200ce18:	f8200a37 	lui	a13,0x4014
 200ce1c:	dfc2b803 	lb	a9,174(a13)
 200ce20:	0e21a123 	sw	v0,232(a6)
 200ce24:	0ea15123 	sw	v0,212(a8)
 200ce28:	b8200a37 	lui	a5,0x4014
 200ce2c:	80200a37 	lui	v0,0x4014
 200ce30:	f8200a37 	lui	a13,0x4014
 200ce34:	d402a803 	lb	a8,170(v0)
 200ce38:	c5c29003 	lb	a6,164(a5)
 200ce3c:	00ac5023 	sb	a4,20(s0)
 200ce40:	bfc28403 	lb	a5,161(a13)
 200ce44:	b0200a37 	lui	a4,0x4014
 200ce48:	80200a37 	lui	v0,0x4014
 200ce4c:	f8200a37 	lui	a13,0x4014
 200ce50:	cd829c03 	lb	a7,167(a4)
 200ce54:	b4021c03 	lb	a4,135(v0)
 200ce58:	87c24803 	lb	v0,146(a13)
 200ce5c:	f8200a37 	lui	a13,0x4014
 200ce60:	ffc23e03 	lbu	a13,143(a13)
 200ce64:	093c6823 	sb	a12,154(s2)
 200ce68:	09ba2c23 	sb	a11,139(s4)
 200ce6c:	03be9c23 	sb	a13,39(sp)
 200ce70:	f8200a37 	lui	a13,0x4014
 200ce74:	ffc23603 	lbu	a13,141(a13)
 200ce78:	e3806103 	lw	a10,24(sp)
 200ce7c:	03be9823 	sb	a13,38(sp)
 200ce80:	f8200a37 	lui	a13,0x4014
 200ce84:	ffc21003 	lb	a13,132(a13)
 200ce88:	03bef123 	sw	a13,60(sp)
 200ce8c:	f8200a37 	lui	a13,0x4014
 200ce90:	0ffcdc23 	sb	a12,183(a13)
 200ce94:	f0200a37 	lui	a12,0x4014
 200ce98:	0fbad423 	sb	a11,181(a12)
 200ce9c:	eb803103 	lw	a11,12(sp)
 200cea0:	f8200a37 	lui	a13,0x4014
 200cea4:	f0200a37 	lui	a12,0x4014
 200cea8:	0ffacc23 	sb	a11,179(a13)
 200ceac:	fb80e103 	lw	a13,56(sp)
 200ceb0:	e8200a37 	lui	a11,0x4014
 200ceb4:	0f76b423 	sb	a9,173(a11)
 200ceb8:	0fbec423 	sb	a13,177(a12)
 200cebc:	f0200a37 	lui	a12,0x4014
 200cec0:	f8200a37 	lui	a13,0x4014
 200cec4:	0fb4ac23 	sb	a8,171(a12)
 200cec8:	0ff4a423 	sb	a8,169(a13)
 200cecc:	e8200a37 	lui	a11,0x4014
 200ced0:	d0200a37 	lui	a8,0x4014
 200ced4:	0b76bc23 	sb	a9,175(s11)
 200ced8:	d8200a37 	lui	a9,0x4014
 200cedc:	0eb2a023 	sb	a7,168(a8)
 200cee0:	0ef29823 	sb	a7,166(a9)
 200cee4:	0f709423 	sb	a6,165(a11)
 200cee8:	c8200a37 	lui	a7,0x4014
 200ceec:	d0200a37 	lui	a8,0x4014
 200cef0:	ef025603 	lbu	a11,149(a10)
 200cef4:	f0200a37 	lui	a12,0x4014
 200cef8:	0e6a7823 	sb	a3,158(a7)
 200cefc:	0eaa5823 	sb	a3,150(a8)
 200cf00:	ab809e03 	lbu	a3,39(sp)
 200cf04:	0fb08c23 	sb	a6,163(a12)
 200cf08:	f8200a37 	lui	a13,0x4014
 200cf0c:	c0200a37 	lui	a6,0x4014
 200cf10:	d8200a37 	lui	a9,0x4014
 200cf14:	f0200a37 	lui	a12,0x4014
 200cf18:	0fee8823 	sb	a5,162(a13)
 200cf1c:	0e2e8023 	sb	a5,160(a6)
 200cf20:	0efa4c23 	sb	a11,147(a9)
 200cf24:	f8200a37 	lui	a13,0x4014
 200cf28:	0fa04023 	sb	v0,144(a12)
 200cf2c:	c3809a03 	lbu	a6,38(sp)
 200cf30:	c8200a37 	lui	a7,0x4014
 200cf34:	d0200a37 	lui	a8,0x4014
 200cf38:	e8200a37 	lui	a11,0x4014
 200cf3c:	f0200a37 	lui	a12,0x4014
 200cf40:	0fea3823 	sb	a3,142(a13)
 200cf44:	db80f103 	lw	a9,60(sp)
 200cf48:	af420403 	lb	a3,129(a11)
 200cf4c:	0e6c2023 	sb	a4,136(a7)
 200cf50:	0eac1823 	sb	a4,134(a8)
 200cf54:	b781e403 	lb	a4,121(a12)
 200cf58:	b8200a37 	lui	a5,0x4014
 200cf5c:	0df03023 	sb	a6,140(a5)
 200cf60:	f8200a37 	lui	a13,0x4014
 200cf64:	b8200a37 	lui	a5,0x4014
 200cf68:	0af61423 	sb	a9,133(s9)
 200cf6c:	0ff60c23 	sb	a9,131(a13)
 200cf70:	0b2a0823 	sb	a3,130(s10)
 200cf74:	0dea0023 	sb	a3,128(a5)
 200cf78:	0d8000e3 	bnez	a4,200d078 <t5_taskB4_FH_DU+0x774>
 200cf7c:	c4000013 	move	a6,v0
 200cf80:	d0200a37 	lui	a8,0x4014
 200cf84:	be81e203 	lbu	a5,120(a8)
 200cf88:	d8200a37 	lui	a9,0x4014
 200cf8c:	aec1ac03 	lb	a3,107(a9)
 200cf90:	b0000413 	li	a4,1
 200cf94:	bdc00413 	add	a5,a5,1
 200cf98:	e8200a37 	lui	a11,0x4014
 200cf9c:	f0000813 	li	a12,2
 200cfa0:	076de423 	sb	a4,121(a11)
 200cfa4:	06afe023 	sb	a5,120(a8)
 200cfa8:	d57c48e3 	bne	a3,a12,200c9cc <t5_taskB4_FH_DU+0xc8>
 200cfac:	aac21403 	lb	a3,133(s9)
 200cfb0:	05412063 	beqz	a3,200d040 <t5_taskB4_FH_DU+0x73c>
 200cfb4:	d0200a37 	lui	a8,0x4014
 200cfb8:	ae820c03 	lb	a3,131(a8)
 200cfbc:	054108e3 	bnez	a3,200d040 <t5_taskB4_FH_DU+0x73c>
 200cfc0:	d8200a37 	lui	a9,0x4014
 200cfc4:	a83e7013 	li	a3,-100
 200cfc8:	e8200a37 	lui	a11,0x4014
 200cfcc:	f0200a37 	lui	a12,0x4014
 200cfd0:	06c1e423 	sb	zero,121(a9)
 200cfd4:	0f6b9123 	sw	a3,228(a11)
 200cfd8:	07adac23 	sb	a4,107(a12)
 200cfdc:	fffe8767 	j	200c9f8 <t5_taskB4_FH_DU+0xf4>
 200cfe0:	ab020803 	lb	a3,130(s10)
 200cfe4:	d54028e3 	bnez	a3,200c9f8 <t5_taskB4_FH_DU+0xf4>
 200cfe8:	c8200a37 	lui	a7,0x4014
 200cfec:	ae420003 	lb	a3,128(a7)
 200cff0:	d5401063 	beqz	a3,200c9f8 <t5_taskB4_FH_DU+0xf4>
 200cff4:	d0200a37 	lui	a8,0x4014
 200cff8:	d8200a37 	lui	a9,0x4014
 200cffc:	f0000813 	li	a12,2
 200d000:	e8200a37 	lui	a11,0x4014
 200d004:	0681e423 	sb	zero,121(a8)
 200d008:	0ec19123 	sw	zero,228(a9)
 200d00c:	077dac23 	sb	a12,107(a11)
 200d010:	fffe7a67 	j	200c9f8 <t5_taskB4_FH_DU+0xf4>
 200d014:	aac21403 	lb	a3,133(s9)
 200d018:	cd41c0e3 	bnez	a3,200c9f8 <t5_taskB4_FH_DU+0xf4>
 200d01c:	f8200a37 	lui	a13,0x4014
 200d020:	afc20c03 	lb	a3,131(a13)
 200d024:	cd41a863 	beqz	a3,200c9f8 <t5_taskB4_FH_DU+0xf4>
 200d028:	b0200a37 	lui	a4,0x4014
 200d02c:	c8000813 	li	a7,2
 200d030:	0741e423 	sb	zero,121(a11)
 200d034:	0d819123 	sw	zero,228(a4)
 200d038:	06f3ac23 	sb	a7,107(a9)
 200d03c:	fffe6f67 	j	200c9f8 <t5_taskB4_FH_DU+0xf4>
 200d040:	ab020803 	lb	a3,130(s10)
 200d044:	cd416863 	beqz	a3,200c9f8 <t5_taskB4_FH_DU+0xf4>
 200d048:	f8200a37 	lui	a13,0x4014
 200d04c:	afc20003 	lb	a3,128(a13)
 200d050:	cd4150e3 	bnez	a3,200c9f8 <t5_taskB4_FH_DU+0xf4>
 200d054:	a8200a37 	lui	a3,0x4014
 200d058:	0541e423 	sb	zero,121(a3)
 200d05c:	b0200a37 	lui	a4,0x4014
 200d060:	a8019013 	li	a3,100
 200d064:	0dab9123 	sw	a3,228(a4)
 200d068:	b8200a37 	lui	a5,0x4014
 200d06c:	a8000c13 	li	a3,3
 200d070:	05ebac23 	sb	a3,107(a5)
 200d074:	fffe6167 	j	200c9f8 <t5_taskB4_FH_DU+0xf4>
 200d078:	0b81d103 	lw	ra,116(sp)
 200d07c:	1381c103 	lw	s0,112(sp)
 200d080:	1b81b103 	lw	s1,108(sp)
 200d084:	2381a103 	lw	s2,104(sp)
 200d088:	2b819103 	lw	s3,100(sp)
 200d08c:	33818103 	lw	s4,96(sp)
 200d090:	3b817103 	lw	s5,92(sp)
 200d094:	43816103 	lw	s6,88(sp)
 200d098:	4b815103 	lw	s7,84(sp)
 200d09c:	53814103 	lw	s8,80(sp)
 200d0a0:	5b813103 	lw	s9,76(sp)
 200d0a4:	63812103 	lw	s10,72(sp)
 200d0a8:	6b811103 	lw	s11,68(sp)
 200d0ac:	7381e013 	add	sp,sp,120
 200d0b0:	004000eb 	ret

0200d0b4 <t5_taskB4_main>:
 200d0b4:	73bfe013 	add	sp,sp,-8
 200d0b8:	03840123 	sw	s0,0(sp)
 200d0bc:	03821123 	sw	ra,4(sp)
 200d0c0:	10021c13 	li	s0,135
 200d0c4:	10bffc13 	add	s0,s0,-1
 200d0c8:	fffa636f 	jal	200ba54 <t5_taskB4_init>
 200d0cc:	fffa006f 	jal	200b8cc <t5_taskB4_interface>
 200d0d0:	fffe0d6f 	jal	200c904 <t5_taskB4_FH_DU>
 200d0d4:	f881e0e3 	bnez	s0,200d0c4 <t5_taskB4_main+0x10>
 200d0d8:	0b801103 	lw	ra,4(sp)
 200d0dc:	80000013 	li	v0,0
 200d0e0:	13800103 	lw	s0,0(sp)
 200d0e4:	73802013 	add	sp,sp,8
 200d0e8:	004000eb 	ret

0200d0ec <t5_taskB5_interface>:
 200d0ec:	80200a37 	lui	v0,0x4014
 200d0f0:	8c086013 	add	v1,v0,536
 200d0f4:	94401003 	lb	a0,4(v1)
 200d0f8:	0c805063 	beqz	a0,200d220 <t5_taskB5_interface+0x134>
 200d0fc:	88200a37 	lui	v1,0x4014
 200d100:	8c45d103 	lw	v1,372(v1)
 200d104:	90200a37 	lui	a0,0x4014
 200d108:	24a23123 	sw	v1,524(a0)
 200d10c:	90200a37 	lui	a0,0x4014
 200d110:	24a24123 	sw	v1,528(a0)
 200d114:	90200a37 	lui	a0,0x4014
 200d118:	8c882103 	lw	v1,520(a0)
 200d11c:	04404863 	beqz	v1,200d140 <t5_taskB5_interface+0x54>
 200d120:	98200a37 	lui	a1,0x4014
 200d124:	9cc5d103 	lw	a1,372(a1)
 200d128:	8ce30033 	sub	v1,a1,v1
 200d12c:	8c40f0d3 	fcvt.d.wu	fv1,v1
 200d130:	88200037 	lui	v1,0x4000
 200d134:	84400187 	fld	fv0,0(v1)
 200d138:	8c2370d3 	fle.d	v1,fv0,fv1
 200d13c:	0c4050e3 	bnez	v1,200d264 <t5_taskB5_interface+0x178>
 200d140:	90200a37 	lui	a0,0x4014
 200d144:	8c881103 	lw	v1,516(a0)
 200d148:	04404863 	beqz	v1,200d16c <t5_taskB5_interface+0x80>
 200d14c:	98200a37 	lui	a1,0x4014
 200d150:	9cc5d103 	lw	a1,372(a1)
 200d154:	8ce30033 	sub	v1,a1,v1
 200d158:	8c40f0d3 	fcvt.d.wu	fv1,v1
 200d15c:	88200037 	lui	v1,0x4000
 200d160:	84400187 	fld	fv0,0(v1)
 200d164:	8c2370d3 	fle.d	v1,fv0,fv1
 200d168:	0441d8e3 	bnez	v1,200d254 <t5_taskB5_interface+0x168>
 200d16c:	90200a37 	lui	a0,0x4014
 200d170:	8c880103 	lw	v1,512(a0)
 200d174:	04404863 	beqz	v1,200d198 <t5_taskB5_interface+0xac>
 200d178:	98200a37 	lui	a1,0x4014
 200d17c:	9cc5d103 	lw	a1,372(a1)
 200d180:	8ce30033 	sub	v1,a1,v1
 200d184:	8c40f0d3 	fcvt.d.wu	fv1,v1
 200d188:	88200037 	lui	v1,0x4000
 200d18c:	84400187 	fld	fv0,0(v1)
 200d190:	8c2370d3 	fle.d	v1,fv0,fv1
 200d194:	044160e3 	bnez	v1,200d244 <t5_taskB5_interface+0x158>
 200d198:	90200a37 	lui	a0,0x4014
 200d19c:	8c87c103 	lw	v1,496(a0)
 200d1a0:	04404863 	beqz	v1,200d1c4 <t5_taskB5_interface+0xd8>
 200d1a4:	98200a37 	lui	a1,0x4014
 200d1a8:	9cc5d103 	lw	a1,372(a1)
 200d1ac:	8ce30033 	sub	v1,a1,v1
 200d1b0:	8c40f0d3 	fcvt.d.wu	fv1,v1
 200d1b4:	88200037 	lui	v1,0x4000
 200d1b8:	84400187 	fld	fv0,0(v1)
 200d1bc:	8c2370d3 	fle.d	v1,fv0,fv1
 200d1c0:	0440f8e3 	bnez	v1,200d23c <t5_taskB5_interface+0x150>
 200d1c4:	90200a37 	lui	a0,0x4014
 200d1c8:	8c87b103 	lw	v1,492(a0)
 200d1cc:	04404863 	beqz	v1,200d1f0 <t5_taskB5_interface+0x104>
 200d1d0:	98200a37 	lui	a1,0x4014
 200d1d4:	9cc5d103 	lw	a1,372(a1)
 200d1d8:	8ce30033 	sub	v1,a1,v1
 200d1dc:	8c40f0d3 	fcvt.d.wu	fv1,v1
 200d1e0:	88200037 	lui	v1,0x4000
 200d1e4:	84400187 	fld	fv0,0(v1)
 200d1e8:	8c2370d3 	fle.d	v1,fv0,fv1
 200d1ec:	044090e3 	bnez	v1,200d234 <t5_taskB5_interface+0x148>
 200d1f0:	84086003 	lb	v0,536(v0)
 200d1f4:	040030e3 	bnez	v0,200d20c <t5_taskB5_interface+0x120>
 200d1f8:	80200a37 	lui	v0,0x4014
 200d1fc:	8c070103 	lw	v1,448(v0)
 200d200:	80200a37 	lui	v0,0x4014
 200d204:	8406e103 	lw	v0,440(v0)
 200d208:	04602863 	beq	v1,v0,200d21c <t5_taskB5_interface+0x130>
 200d20c:	80200a37 	lui	v0,0x4014
 200d210:	8c05d103 	lw	v1,372(v0)
 200d214:	80200a37 	lui	v0,0x4014
 200d218:	24225123 	sw	v1,532(v0)
 200d21c:	004000eb 	ret
 200d220:	8c401803 	lb	v1,6(v1)
 200d224:	f441e063 	beqz	v1,200d114 <t5_taskB5_interface+0x28>
 200d228:	88200a37 	lui	v1,0x4014
 200d22c:	8c45d103 	lw	v1,372(v1)
 200d230:	ffffb767 	j	200d10c <t5_taskB5_interface+0x20>
 200d234:	1c81b123 	sw	zero,492(a0)
 200d238:	ffffee67 	j	200d1f0 <t5_taskB5_interface+0x104>
 200d23c:	1c81c123 	sw	zero,496(a0)
 200d240:	ffffe167 	j	200d1c4 <t5_taskB5_interface+0xd8>
 200d244:	88200a37 	lui	v1,0x4014
 200d248:	1c407023 	sb	zero,412(v1)
 200d24c:	24800123 	sw	zero,512(a0)
 200d250:	ffffd267 	j	200d198 <t5_taskB5_interface+0xac>
 200d254:	88200a37 	lui	v1,0x4014
 200d258:	1c407023 	sb	zero,412(v1)
 200d25c:	24801123 	sw	zero,516(a0)
 200d260:	ffffc367 	j	200d16c <t5_taskB5_interface+0x80>
 200d264:	88200a37 	lui	v1,0x4014
 200d268:	1c406423 	sb	zero,409(v1)
 200d26c:	24802123 	sw	zero,520(a0)
 200d270:	ffffb467 	j	200d140 <t5_taskB5_interface+0x54>

0200d274 <t5_taskB5_init>:
 200d274:	80200a37 	lui	v0,0x4014
 200d278:	24005123 	sw	zero,532(v0)
 200d27c:	80200a37 	lui	v0,0x4014
 200d280:	24004123 	sw	zero,528(v0)
 200d284:	80200a37 	lui	v0,0x4014
 200d288:	24003123 	sw	zero,524(v0)
 200d28c:	80200a37 	lui	v0,0x4014
 200d290:	1401bc23 	sb	zero,367(v0)
 200d294:	80200a37 	lui	v0,0x4014
 200d298:	1401b823 	sb	zero,366(v0)
 200d29c:	80200a37 	lui	v0,0x4014
 200d2a0:	1401b423 	sb	zero,365(v0)
 200d2a4:	80200a37 	lui	v0,0x4014
 200d2a8:	1401b023 	sb	zero,364(v0)
 200d2ac:	80200a37 	lui	v0,0x4014
 200d2b0:	1401ac23 	sb	zero,363(v0)
 200d2b4:	80200a37 	lui	v0,0x4014
 200d2b8:	1401a823 	sb	zero,362(v0)
 200d2bc:	80200a37 	lui	v0,0x4014
 200d2c0:	1401a423 	sb	zero,361(v0)
 200d2c4:	80200a37 	lui	v0,0x4014
 200d2c8:	1401a023 	sb	zero,360(v0)
 200d2cc:	80200a37 	lui	v0,0x4014
 200d2d0:	14019c23 	sb	zero,359(v0)
 200d2d4:	80200a37 	lui	v0,0x4014
 200d2d8:	14019823 	sb	zero,358(v0)
 200d2dc:	80200a37 	lui	v0,0x4014
 200d2e0:	14019423 	sb	zero,357(v0)
 200d2e4:	80200a37 	lui	v0,0x4014
 200d2e8:	14019023 	sb	zero,356(v0)
 200d2ec:	80200a37 	lui	v0,0x4014
 200d2f0:	14018c23 	sb	zero,355(v0)
 200d2f4:	80200a37 	lui	v0,0x4014
 200d2f8:	14018823 	sb	zero,354(v0)
 200d2fc:	80200a37 	lui	v0,0x4014
 200d300:	14018423 	sb	zero,353(v0)
 200d304:	80200a37 	lui	v0,0x4014
 200d308:	14018023 	sb	zero,352(v0)
 200d30c:	004000eb 	ret

0200d310 <t5_taskB5_generic_KINDERSICHERUNG_CTRL>:
 200d310:	80200a37 	lui	v0,0x4014
 200d314:	84088803 	lb	v0,546(v0)
 200d318:	04006063 	beqz	v0,200d348 <t5_taskB5_generic_KINDERSICHERUNG_CTRL+0x38>
 200d31c:	88200a37 	lui	v1,0x4014
 200d320:	8445b003 	lb	v0,364(v1)
 200d324:	90000813 	li	a0,2
 200d328:	04244863 	beq	v0,a0,200d34c <t5_taskB5_generic_KINDERSICHERUNG_CTRL+0x3c>
 200d32c:	98000c13 	li	a1,3
 200d330:	0427a863 	beq	v0,a1,200d404 <t5_taskB5_generic_KINDERSICHERUNG_CTRL+0xf4>
 200d334:	90000413 	li	a0,1
 200d338:	04249063 	beq	v0,a0,200d380 <t5_taskB5_generic_KINDERSICHERUNG_CTRL+0x70>
 200d33c:	80200a37 	lui	v0,0x4014
 200d340:	1401c423 	sb	zero,369(v0)
 200d344:	1467b023 	sb	a1,364(v1)
 200d348:	004000eb 	ret
 200d34c:	80200a37 	lui	v0,0x4014
 200d350:	8406a803 	lb	v0,426(v0)
 200d354:	040020e3 	bnez	v0,200d364 <t5_taskB5_generic_KINDERSICHERUNG_CTRL+0x54>
 200d358:	90200a37 	lui	a0,0x4014
 200d35c:	9486b803 	lb	a0,430(a0)
 200d360:	1480d863 	beqz	a0,200d5cc <t5_taskB5_generic_KINDERSICHERUNG_CTRL+0x2bc>
 200d364:	88200a37 	lui	v1,0x4014
 200d368:	9445b403 	lb	a0,365(v1)
 200d36c:	98000413 	li	a1,1
 200d370:	0ca61863 	beq	a0,a1,200d47c <t5_taskB5_generic_KINDERSICHERUNG_CTRL+0x16c>
 200d374:	80200a37 	lui	v0,0x4014
 200d378:	1401c423 	sb	zero,369(v0)
 200d37c:	004000eb 	ret
 200d380:	80200a37 	lui	v0,0x4014
 200d384:	8406b003 	lb	v0,428(v0)
 200d388:	040020e3 	bnez	v0,200d398 <t5_taskB5_generic_KINDERSICHERUNG_CTRL+0x88>
 200d38c:	90200a37 	lui	a0,0x4014
 200d390:	9486c003 	lb	a0,432(a0)
 200d394:	14802063 	beqz	a0,200d5a4 <t5_taskB5_generic_KINDERSICHERUNG_CTRL+0x294>
 200d398:	88200a37 	lui	v1,0x4014
 200d39c:	9445b803 	lb	a0,366(v1)
 200d3a0:	98000413 	li	a1,1
 200d3a4:	fca7a0e3 	bne	a0,a1,200d374 <t5_taskB5_generic_KINDERSICHERUNG_CTRL+0x64>
 200d3a8:	04005063 	beqz	v0,200d3d0 <t5_taskB5_generic_KINDERSICHERUNG_CTRL+0xc0>
 200d3ac:	98200a37 	lui	a1,0x4014
 200d3b0:	9cc6ac03 	lb	a1,427(a1)
 200d3b4:	04c038e3 	bnez	a1,200d3d0 <t5_taskB5_generic_KINDERSICHERUNG_CTRL+0xc0>
 200d3b8:	80200a37 	lui	v0,0x4014
 200d3bc:	1401c423 	sb	zero,369(v0)
 200d3c0:	80200a37 	lui	v0,0x4014
 200d3c4:	1c247c23 	sb	a0,415(v0)
 200d3c8:	1465b823 	sb	a0,366(v1)
 200d3cc:	004000eb 	ret
 200d3d0:	90200a37 	lui	a0,0x4014
 200d3d4:	9486c003 	lb	a0,432(a0)
 200d3d8:	0c80a863 	beqz	a0,200d52c <t5_taskB5_generic_KINDERSICHERUNG_CTRL+0x21c>
 200d3dc:	98200a37 	lui	a1,0x4014
 200d3e0:	9cc6bc03 	lb	a1,431(a1)
 200d3e4:	0cc090e3 	bnez	a1,200d52c <t5_taskB5_generic_KINDERSICHERUNG_CTRL+0x21c>
 200d3e8:	90200a37 	lui	a0,0x4014
 200d3ec:	80000413 	li	v0,1
 200d3f0:	1481c423 	sb	zero,369(a0)
 200d3f4:	90200a37 	lui	a0,0x4014
 200d3f8:	1ca08823 	sb	v0,418(a0)
 200d3fc:	1461b823 	sb	v0,366(v1)
 200d400:	004000eb 	ret
 200d404:	80200a37 	lui	v0,0x4014
 200d408:	8406a003 	lb	v0,424(v0)
 200d40c:	040070e3 	bnez	v0,200d444 <t5_taskB5_generic_KINDERSICHERUNG_CTRL+0x134>
 200d410:	98200a37 	lui	a1,0x4014
 200d414:	9cc6b803 	lb	a1,430(a1)
 200d418:	04c1d863 	beqz	a1,200d504 <t5_taskB5_generic_KINDERSICHERUNG_CTRL+0x1f4>
 200d41c:	80200a37 	lui	v0,0x4014
 200d420:	8406a803 	lb	v0,426(v0)
 200d424:	140060e3 	bnez	v0,200d654 <t5_taskB5_generic_KINDERSICHERUNG_CTRL+0x344>
 200d428:	80200a37 	lui	v0,0x4014
 200d42c:	1401c423 	sb	zero,369(v0)
 200d430:	98000413 	li	a1,1
 200d434:	80200a37 	lui	v0,0x4014
 200d438:	1c268823 	sb	a1,418(v0)
 200d43c:	1465b023 	sb	a0,364(v1)
 200d440:	004000eb 	ret
 200d444:	90200a37 	lui	a0,0x4014
 200d448:	9486c003 	lb	a0,432(a0)
 200d44c:	048118e3 	bnez	a0,200d4d8 <t5_taskB5_generic_KINDERSICHERUNG_CTRL+0x1c8>
 200d450:	90200a37 	lui	a0,0x4014
 200d454:	9486b003 	lb	a0,428(a0)
 200d458:	f481e063 	beqz	a0,200d348 <t5_taskB5_generic_KINDERSICHERUNG_CTRL+0x38>
 200d45c:	f401d8e3 	bnez	v0,200d348 <t5_taskB5_generic_KINDERSICHERUNG_CTRL+0x38>
 200d460:	90200a37 	lui	a0,0x4014
 200d464:	80000413 	li	v0,1
 200d468:	1481c423 	sb	zero,369(a0)
 200d46c:	90200a37 	lui	a0,0x4014
 200d470:	1ca07c23 	sb	v0,415(a0)
 200d474:	1461b023 	sb	v0,364(v1)
 200d478:	004000eb 	ret
 200d47c:	04005063 	beqz	v0,200d4a4 <t5_taskB5_generic_KINDERSICHERUNG_CTRL+0x194>
 200d480:	98200a37 	lui	a1,0x4014
 200d484:	9cc6a403 	lb	a1,425(a1)
 200d488:	04c038e3 	bnez	a1,200d4a4 <t5_taskB5_generic_KINDERSICHERUNG_CTRL+0x194>
 200d48c:	80200a37 	lui	v0,0x4014
 200d490:	1401c423 	sb	zero,369(v0)
 200d494:	80200a37 	lui	v0,0x4014
 200d498:	1c247c23 	sb	a0,415(v0)
 200d49c:	1465b423 	sb	a0,365(v1)
 200d4a0:	004000eb 	ret
 200d4a4:	90200a37 	lui	a0,0x4014
 200d4a8:	9486b803 	lb	a0,430(a0)
 200d4ac:	04817863 	beqz	a0,200d568 <t5_taskB5_generic_KINDERSICHERUNG_CTRL+0x258>
 200d4b0:	98200a37 	lui	a1,0x4014
 200d4b4:	9cc6b403 	lb	a1,429(a1)
 200d4b8:	04c160e3 	bnez	a1,200d568 <t5_taskB5_generic_KINDERSICHERUNG_CTRL+0x258>
 200d4bc:	90200a37 	lui	a0,0x4014
 200d4c0:	80000413 	li	v0,1
 200d4c4:	1481c423 	sb	zero,369(a0)
 200d4c8:	90200a37 	lui	a0,0x4014
 200d4cc:	1ca08823 	sb	v0,418(a0)
 200d4d0:	1461b423 	sb	v0,365(v1)
 200d4d4:	004000eb 	ret
 200d4d8:	90200a37 	lui	a0,0x4014
 200d4dc:	9486b003 	lb	a0,428(a0)
 200d4e0:	0c8030e3 	bnez	a0,200d5f8 <t5_taskB5_generic_KINDERSICHERUNG_CTRL+0x2e8>
 200d4e4:	f400c8e3 	bnez	v0,200d348 <t5_taskB5_generic_KINDERSICHERUNG_CTRL+0x38>
 200d4e8:	90200a37 	lui	a0,0x4014
 200d4ec:	80000413 	li	v0,1
 200d4f0:	1481c423 	sb	zero,369(a0)
 200d4f4:	90200a37 	lui	a0,0x4014
 200d4f8:	1ca08823 	sb	v0,418(a0)
 200d4fc:	1461b023 	sb	v0,364(v1)
 200d500:	004000eb 	ret
 200d504:	98200a37 	lui	a1,0x4014
 200d508:	9cc6a803 	lb	a1,426(a1)
 200d50c:	fcc07063 	beqz	a1,200d444 <t5_taskB5_generic_KINDERSICHERUNG_CTRL+0x134>
 200d510:	80200a37 	lui	v0,0x4014
 200d514:	1401c423 	sb	zero,369(v0)
 200d518:	98000413 	li	a1,1
 200d51c:	80200a37 	lui	v0,0x4014
 200d520:	1c267c23 	sb	a1,415(v0)
 200d524:	1465b023 	sb	a0,364(v1)
 200d528:	004000eb 	ret
 200d52c:	040020e3 	bnez	v0,200d53c <t5_taskB5_generic_KINDERSICHERUNG_CTRL+0x22c>
 200d530:	80200a37 	lui	v0,0x4014
 200d534:	8406ac03 	lb	v0,427(v0)
 200d538:	0401c8e3 	bnez	v0,200d61c <t5_taskB5_generic_KINDERSICHERUNG_CTRL+0x30c>
 200d53c:	f48018e3 	bnez	a0,200d348 <t5_taskB5_generic_KINDERSICHERUNG_CTRL+0x38>
 200d540:	80200a37 	lui	v0,0x4014
 200d544:	8406bc03 	lb	v0,431(v0)
 200d548:	f4000063 	beqz	v0,200d348 <t5_taskB5_generic_KINDERSICHERUNG_CTRL+0x38>
 200d54c:	80200a37 	lui	v0,0x4014
 200d550:	1401c423 	sb	zero,369(v0)
 200d554:	80200a37 	lui	v0,0x4014
 200d558:	1c008823 	sb	zero,418(v0)
 200d55c:	80000413 	li	v0,1
 200d560:	1461b823 	sb	v0,366(v1)
 200d564:	004000eb 	ret
 200d568:	040020e3 	bnez	v0,200d578 <t5_taskB5_generic_KINDERSICHERUNG_CTRL+0x268>
 200d56c:	80200a37 	lui	v0,0x4014
 200d570:	8406a403 	lb	v0,425(v0)
 200d574:	040188e3 	bnez	v0,200d638 <t5_taskB5_generic_KINDERSICHERUNG_CTRL+0x328>
 200d578:	ec81a0e3 	bnez	a0,200d348 <t5_taskB5_generic_KINDERSICHERUNG_CTRL+0x38>
 200d57c:	80200a37 	lui	v0,0x4014
 200d580:	8406b403 	lb	v0,429(v0)
 200d584:	ec018863 	beqz	v0,200d348 <t5_taskB5_generic_KINDERSICHERUNG_CTRL+0x38>
 200d588:	80200a37 	lui	v0,0x4014
 200d58c:	1401c423 	sb	zero,369(v0)
 200d590:	80200a37 	lui	v0,0x4014
 200d594:	1c008823 	sb	zero,418(v0)
 200d598:	80000413 	li	v0,1
 200d59c:	1461b423 	sb	v0,365(v1)
 200d5a0:	004000eb 	ret
 200d5a4:	80200a37 	lui	v0,0x4014
 200d5a8:	1401c423 	sb	zero,369(v0)
 200d5ac:	80200a37 	lui	v0,0x4014
 200d5b0:	1c008823 	sb	zero,418(v0)
 200d5b4:	80200a37 	lui	v0,0x4014
 200d5b8:	1c007c23 	sb	zero,415(v0)
 200d5bc:	80200a37 	lui	v0,0x4014
 200d5c0:	1467b023 	sb	a1,364(v1)
 200d5c4:	1401b823 	sb	zero,366(v0)
 200d5c8:	004000eb 	ret
 200d5cc:	80200a37 	lui	v0,0x4014
 200d5d0:	1401c423 	sb	zero,369(v0)
 200d5d4:	80200a37 	lui	v0,0x4014
 200d5d8:	1c008823 	sb	zero,418(v0)
 200d5dc:	80200a37 	lui	v0,0x4014
 200d5e0:	1c007c23 	sb	zero,415(v0)
 200d5e4:	80000c13 	li	v0,3
 200d5e8:	1461b023 	sb	v0,364(v1)
 200d5ec:	80200a37 	lui	v0,0x4014
 200d5f0:	1401b423 	sb	zero,365(v0)
 200d5f4:	004000eb 	ret
 200d5f8:	90200a37 	lui	a0,0x4014
 200d5fc:	80000413 	li	v0,1
 200d600:	1481c423 	sb	zero,369(a0)
 200d604:	90200a37 	lui	a0,0x4014
 200d608:	1ca07c23 	sb	v0,415(a0)
 200d60c:	90200a37 	lui	a0,0x4014
 200d610:	1ca08823 	sb	v0,418(a0)
 200d614:	1461b023 	sb	v0,364(v1)
 200d618:	004000eb 	ret
 200d61c:	80200a37 	lui	v0,0x4014
 200d620:	1401c423 	sb	zero,369(v0)
 200d624:	80200a37 	lui	v0,0x4014
 200d628:	1c007c23 	sb	zero,415(v0)
 200d62c:	80000413 	li	v0,1
 200d630:	1461b823 	sb	v0,366(v1)
 200d634:	004000eb 	ret
 200d638:	80200a37 	lui	v0,0x4014
 200d63c:	1401c423 	sb	zero,369(v0)
 200d640:	80200a37 	lui	v0,0x4014
 200d644:	1c007c23 	sb	zero,415(v0)
 200d648:	80000413 	li	v0,1
 200d64c:	1461b423 	sb	v0,365(v1)
 200d650:	004000eb 	ret
 200d654:	98200a37 	lui	a1,0x4014
 200d658:	80000413 	li	v0,1
 200d65c:	14c1c423 	sb	zero,369(a1)
 200d660:	98200a37 	lui	a1,0x4014
 200d664:	1ce08823 	sb	v0,418(a1)
 200d668:	98200a37 	lui	a1,0x4014
 200d66c:	1ce07c23 	sb	v0,415(a1)
 200d670:	1465b023 	sb	a0,364(v1)
 200d674:	004000eb 	ret

0200d678 <t5_taskB5_generic_FH_TUERMODUL_CTRL>:
 200d678:	80200a37 	lui	v0,0x4014
 200d67c:	84086013 	add	v0,v0,536
 200d680:	8c003403 	lb	v1,13(v0)
 200d684:	044048e3 	bnez	v1,200d6a8 <t5_taskB5_generic_FH_TUERMODUL_CTRL+0x30>
 200d688:	8c003c03 	lb	v1,15(v0)
 200d68c:	04403063 	beqz	v1,200d6a4 <t5_taskB5_generic_FH_TUERMODUL_CTRL+0x2c>
 200d690:	8c003803 	lb	v1,14(v0)
 200d694:	044020e3 	bnez	v1,200d6a4 <t5_taskB5_generic_FH_TUERMODUL_CTRL+0x2c>
 200d698:	04001023 	sb	zero,4(v0)
 200d69c:	04001823 	sb	zero,6(v0)
 200d6a0:	004000eb 	ret
 200d6a4:	004000eb 	ret
 200d6a8:	8c002803 	lb	v1,10(v0)
 200d6ac:	044020e3 	bnez	v1,200d6bc <t5_taskB5_generic_FH_TUERMODUL_CTRL+0x44>
 200d6b0:	90000c13 	li	a0,3
 200d6b4:	88200a37 	lui	v1,0x4014
 200d6b8:	1465b023 	sb	a0,364(v1)
 200d6bc:	8c004c03 	lb	v1,19(v0)
 200d6c0:	044030e3 	bnez	v1,200d6d8 <t5_taskB5_generic_FH_TUERMODUL_CTRL+0x60>
 200d6c4:	88200a37 	lui	v1,0x4014
 200d6c8:	24406023 	sb	zero,536(v1)
 200d6cc:	90000413 	li	a0,1
 200d6d0:	88200a37 	lui	v1,0x4014
 200d6d4:	14658023 	sb	a0,352(v1)
 200d6d8:	98200a37 	lui	a1,0x4014
 200d6dc:	8cc5ac03 	lb	v1,363(a1)
 200d6e0:	90000413 	li	a0,1
 200d6e4:	a0000813 	li	a2,2
 200d6e8:	04242c23 	sb	a0,11(v0)
 200d6ec:	04245023 	sb	a0,20(v0)
 200d6f0:	04693863 	beq	v1,a2,200d78c <t5_taskB5_generic_FH_TUERMODUL_CTRL+0x114>
 200d6f4:	a8000c13 	li	a3,3
 200d6f8:	0c6a2063 	beq	v1,a3,200d808 <t5_taskB5_generic_FH_TUERMODUL_CTRL+0x190>
 200d6fc:	90000413 	li	a0,1
 200d700:	0465a863 	beq	v1,a0,200d7d4 <t5_taskB5_generic_FH_TUERMODUL_CTRL+0x15c>
 200d704:	88200a37 	lui	v1,0x4014
 200d708:	1441c423 	sb	zero,369(v1)
 200d70c:	14e9ac23 	sb	a2,363(a1)
 200d710:	90200a37 	lui	a0,0x4014
 200d714:	9c85a803 	lb	a1,362(a0)
 200d718:	88000413 	li	v1,1
 200d71c:	04e26863 	beq	a1,v1,200d750 <t5_taskB5_generic_FH_TUERMODUL_CTRL+0xd8>
 200d720:	98200a37 	lui	a1,0x4014
 200d724:	14c1c423 	sb	zero,369(a1)
 200d728:	14a3a823 	sb	v1,362(a0)
 200d72c:	98200a37 	lui	a1,0x4014
 200d730:	90200a37 	lui	a0,0x4014
 200d734:	1cc1f123 	sw	zero,508(a1)
 200d738:	14a3a423 	sb	v1,361(a0)
 200d73c:	94001203 	lbu	a0,4(v0)
 200d740:	8c001a03 	lbu	v1,6(v0)
 200d744:	04241423 	sb	a0,5(v0)
 200d748:	04221c23 	sb	v1,7(v0)
 200d74c:	004000eb 	ret
 200d750:	88200a37 	lui	v1,0x4014
 200d754:	8c45c003 	lb	v1,368(v1)
 200d758:	0c67e063 	beq	v1,a1,200d948 <t5_taskB5_generic_FH_TUERMODUL_CTRL+0x2d0>
 200d75c:	90200a37 	lui	a0,0x4014
 200d760:	a485a403 	lb	a2,361(a0)
 200d764:	98000413 	li	a1,1
 200d768:	0d270863 	beq	a2,a1,200d8ec <t5_taskB5_generic_FH_TUERMODUL_CTRL+0x274>
 200d76c:	88200a37 	lui	v1,0x4014
 200d770:	1441c423 	sb	zero,369(v1)
 200d774:	14a7a423 	sb	a1,361(a0)
 200d778:	8c001a03 	lbu	v1,6(v0)
 200d77c:	94001203 	lbu	a0,4(v0)
 200d780:	04221c23 	sb	v1,7(v0)
 200d784:	04241423 	sb	a0,5(v0)
 200d788:	004000eb 	ret
 200d78c:	88200a37 	lui	v1,0x4014
 200d790:	8c469c03 	lb	v1,423(v1)
 200d794:	04402063 	beqz	v1,200d7a4 <t5_taskB5_generic_FH_TUERMODUL_CTRL+0x12c>
 200d798:	88200a37 	lui	v1,0x4014
 200d79c:	8c469403 	lb	v1,421(v1)
 200d7a0:	14401063 	beqz	v1,200d9a8 <t5_taskB5_generic_FH_TUERMODUL_CTRL+0x330>
 200d7a4:	90200a37 	lui	a0,0x4014
 200d7a8:	8c85bc03 	lb	v1,367(a0)
 200d7ac:	98000813 	li	a1,2
 200d7b0:	14675863 	beq	v1,a1,200da5c <t5_taskB5_generic_FH_TUERMODUL_CTRL+0x3e4>
 200d7b4:	a0000c13 	li	a2,3
 200d7b8:	1468f863 	beq	v1,a2,200da34 <t5_taskB5_generic_FH_TUERMODUL_CTRL+0x3bc>
 200d7bc:	98000413 	li	a1,1
 200d7c0:	14665063 	beq	v1,a1,200d9e8 <t5_taskB5_generic_FH_TUERMODUL_CTRL+0x370>
 200d7c4:	88200a37 	lui	v1,0x4014
 200d7c8:	1441c423 	sb	zero,369(v1)
 200d7cc:	14a9bc23 	sb	a2,367(a0)
 200d7d0:	ffffd067 	j	200d710 <t5_taskB5_generic_FH_TUERMODUL_CTRL+0x98>
 200d7d4:	88200a37 	lui	v1,0x4014
 200d7d8:	8c47f103 	lw	v1,508(v1)
 200d7dc:	9000ec13 	li	a0,59
 200d7e0:	fc6460e3 	bne	v1,a0,200d710 <t5_taskB5_generic_FH_TUERMODUL_CTRL+0x98>
 200d7e4:	90200a37 	lui	a0,0x4014
 200d7e8:	9487d103 	lw	a0,500(a0)
 200d7ec:	fca24863 	beq	a0,v1,200d710 <t5_taskB5_generic_FH_TUERMODUL_CTRL+0x98>
 200d7f0:	88200a37 	lui	v1,0x4014
 200d7f4:	1441c423 	sb	zero,369(v1)
 200d7f8:	88200a37 	lui	v1,0x4014
 200d7fc:	14ebac23 	sb	a3,363(a1)
 200d800:	146ba023 	sb	a3,360(v1)
 200d804:	ffffc367 	j	200d710 <t5_taskB5_generic_FH_TUERMODUL_CTRL+0x98>
 200d808:	88200a37 	lui	v1,0x4014
 200d80c:	8c47f103 	lw	v1,508(v1)
 200d810:	8c40f513 	slt	v1,v1,61
 200d814:	044098e3 	bnez	v1,200d860 <t5_taskB5_generic_FH_TUERMODUL_CTRL+0x1e8>
 200d818:	88200a37 	lui	v1,0x4014
 200d81c:	8c47d103 	lw	v1,500(v1)
 200d820:	8c40f513 	slt	v1,v1,61
 200d824:	04407863 	beqz	v1,200d860 <t5_taskB5_generic_FH_TUERMODUL_CTRL+0x1e8>
 200d828:	88200a37 	lui	v1,0x4014
 200d82c:	8c46cc03 	lb	v1,435(v1)
 200d830:	044060e3 	bnez	v1,200d860 <t5_taskB5_generic_FH_TUERMODUL_CTRL+0x1e8>
 200d834:	88200a37 	lui	v1,0x4014
 200d838:	8c46d403 	lb	v1,437(v1)
 200d83c:	044048e3 	bnez	v1,200d860 <t5_taskB5_generic_FH_TUERMODUL_CTRL+0x1e8>
 200d840:	88200a37 	lui	v1,0x4014
 200d844:	1441c423 	sb	zero,369(v1)
 200d848:	88200a37 	lui	v1,0x4014
 200d84c:	1c407023 	sb	zero,412(v1)
 200d850:	88200a37 	lui	v1,0x4014
 200d854:	1c406423 	sb	zero,409(v1)
 200d858:	14e5ac23 	sb	a0,363(a1)
 200d85c:	ffffad67 	j	200d710 <t5_taskB5_generic_FH_TUERMODUL_CTRL+0x98>
 200d860:	88200a37 	lui	v1,0x4014
 200d864:	8c469c03 	lb	v1,423(v1)
 200d868:	0440a863 	beqz	v1,200d8bc <t5_taskB5_generic_FH_TUERMODUL_CTRL+0x244>
 200d86c:	88200a37 	lui	v1,0x4014
 200d870:	8c469403 	lb	v1,421(v1)
 200d874:	044090e3 	bnez	v1,200d8bc <t5_taskB5_generic_FH_TUERMODUL_CTRL+0x244>
 200d878:	88200a37 	lui	v1,0x4014
 200d87c:	8c466803 	lb	v1,410(v1)
 200d880:	1441d863 	beqz	v1,200db6c <t5_taskB5_generic_FH_TUERMODUL_CTRL+0x4f4>
 200d884:	88200a37 	lui	v1,0x4014
 200d888:	9445d103 	lw	a0,372(v1)
 200d88c:	88200a37 	lui	v1,0x4014
 200d890:	1441c423 	sb	zero,369(v1)
 200d894:	88200a37 	lui	v1,0x4014
 200d898:	1c406423 	sb	zero,409(v1)
 200d89c:	88200a37 	lui	v1,0x4014
 200d8a0:	24642123 	sw	a0,520(v1)
 200d8a4:	88000813 	li	v1,2
 200d8a8:	14e3ac23 	sb	v1,363(a1)
 200d8ac:	90000c13 	li	a0,3
 200d8b0:	88200a37 	lui	v1,0x4014
 200d8b4:	1465bc23 	sb	a0,367(v1)
 200d8b8:	ffff9667 	j	200d710 <t5_taskB5_generic_FH_TUERMODUL_CTRL+0x98>
 200d8bc:	90200a37 	lui	a0,0x4014
 200d8c0:	8c85a003 	lb	v1,360(a0)
 200d8c4:	98000813 	li	a1,2
 200d8c8:	14662063 	beq	v1,a1,200dad8 <t5_taskB5_generic_FH_TUERMODUL_CTRL+0x460>
 200d8cc:	a0000c13 	li	a2,3
 200d8d0:	0c696863 	beq	v1,a2,200da84 <t5_taskB5_generic_FH_TUERMODUL_CTRL+0x40c>
 200d8d4:	a8000413 	li	a3,1
 200d8d8:	0c6a6863 	beq	v1,a3,200da0c <t5_taskB5_generic_FH_TUERMODUL_CTRL+0x394>
 200d8dc:	88200a37 	lui	v1,0x4014
 200d8e0:	1441c423 	sb	zero,369(v1)
 200d8e4:	14a9a023 	sb	a2,360(a0)
 200d8e8:	ffff8a67 	j	200d710 <t5_taskB5_generic_FH_TUERMODUL_CTRL+0x98>
 200d8ec:	f468a0e3 	bne	v1,a2,200d73c <t5_taskB5_generic_FH_TUERMODUL_CTRL+0xc4>
 200d8f0:	98200a37 	lui	a1,0x4014
 200d8f4:	9cc83103 	lw	a1,524(a1)
 200d8f8:	f4c08863 	beqz	a1,200d73c <t5_taskB5_generic_FH_TUERMODUL_CTRL+0xc4>
 200d8fc:	a0200a37 	lui	a2,0x4014
 200d900:	a505d103 	lw	a2,372(a2)
 200d904:	a53ff413 	add	a2,a2,-3
 200d908:	f4e868e3 	bne	a1,a2,200d73c <t5_taskB5_generic_FH_TUERMODUL_CTRL+0xc4>
 200d90c:	98200a37 	lui	a1,0x4014
 200d910:	9cc67403 	lb	a1,413(a1)
 200d914:	f4c050e3 	bnez	a1,200d73c <t5_taskB5_generic_FH_TUERMODUL_CTRL+0xc4>
 200d918:	98200a37 	lui	a1,0x4014
 200d91c:	9cc66803 	lb	a1,410(a1)
 200d920:	f4c038e3 	bnez	a1,200d73c <t5_taskB5_generic_FH_TUERMODUL_CTRL+0xc4>
 200d924:	98200a37 	lui	a1,0x4014
 200d928:	a4c7f103 	lw	a2,508(a1)
 200d92c:	f02822e3 	blez	a2,200d73c <t5_taskB5_generic_FH_TUERMODUL_CTRL+0xc4>
 200d930:	a53ffc13 	add	a2,a2,-1
 200d934:	a8200a37 	lui	a3,0x4014
 200d938:	1541c423 	sb	zero,369(a3)
 200d93c:	1ce9f123 	sw	a2,508(a1)
 200d940:	14a3a423 	sb	v1,361(a0)
 200d944:	ffff7e67 	j	200d73c <t5_taskB5_generic_FH_TUERMODUL_CTRL+0xc4>
 200d948:	98200a37 	lui	a1,0x4014
 200d94c:	9cc84103 	lw	a1,528(a1)
 200d950:	f4c01863 	beqz	a1,200d75c <t5_taskB5_generic_FH_TUERMODUL_CTRL+0xe4>
 200d954:	a0200a37 	lui	a2,0x4014
 200d958:	a505d103 	lw	a2,372(a2)
 200d95c:	9d270033 	sub	a1,a2,a1
 200d960:	ece3f8e3 	bne	a1,v1,200d75c <t5_taskB5_generic_FH_TUERMODUL_CTRL+0xe4>
 200d964:	98200a37 	lui	a1,0x4014
 200d968:	9cc67403 	lb	a1,413(a1)
 200d96c:	04c020e3 	bnez	a1,200d97c <t5_taskB5_generic_FH_TUERMODUL_CTRL+0x304>
 200d970:	98200a37 	lui	a1,0x4014
 200d974:	9cc66803 	lb	a1,410(a1)
 200d978:	ecc1c863 	beqz	a1,200d75c <t5_taskB5_generic_FH_TUERMODUL_CTRL+0xe4>
 200d97c:	98200a37 	lui	a1,0x4014
 200d980:	a4c7f103 	lw	a2,508(a1)
 200d984:	88000413 	li	v1,1
 200d988:	a8200a37 	lui	a3,0x4014
 200d98c:	a5000413 	add	a2,a2,1
 200d990:	14a3a823 	sb	v1,362(a0)
 200d994:	90200a37 	lui	a0,0x4014
 200d998:	1541c423 	sb	zero,369(a3)
 200d99c:	1ce9f123 	sw	a2,508(a1)
 200d9a0:	14a3a423 	sb	v1,361(a0)
 200d9a4:	ffff6667 	j	200d73c <t5_taskB5_generic_FH_TUERMODUL_CTRL+0xc4>
 200d9a8:	88200a37 	lui	v1,0x4014
 200d9ac:	8c467403 	lb	v1,413(v1)
 200d9b0:	ec41e863 	beqz	v1,200d7a4 <t5_taskB5_generic_FH_TUERMODUL_CTRL+0x12c>
 200d9b4:	88200a37 	lui	v1,0x4014
 200d9b8:	a445d103 	lw	a2,372(v1)
 200d9bc:	90200a37 	lui	a0,0x4014
 200d9c0:	1481c423 	sb	zero,369(a0)
 200d9c4:	90200a37 	lui	a0,0x4014
 200d9c8:	1c807023 	sb	zero,412(a0)
 200d9cc:	90200a37 	lui	a0,0x4014
 200d9d0:	88000c13 	li	v1,3
 200d9d4:	24a80123 	sw	a2,512(a0)
 200d9d8:	90200a37 	lui	a0,0x4014
 200d9dc:	14e3ac23 	sb	v1,363(a1)
 200d9e0:	14a3a023 	sb	v1,360(a0)
 200d9e4:	ffff4b67 	j	200d710 <t5_taskB5_generic_FH_TUERMODUL_CTRL+0x98>
 200d9e8:	88200a37 	lui	v1,0x4014
 200d9ec:	8c468c03 	lb	v1,419(v1)
 200d9f0:	ec4040e3 	bnez	v1,200d710 <t5_taskB5_generic_FH_TUERMODUL_CTRL+0x98>
 200d9f4:	88200a37 	lui	v1,0x4014
 200d9f8:	1441c423 	sb	zero,369(v1)
 200d9fc:	88200a37 	lui	v1,0x4014
 200da00:	1c407023 	sb	zero,412(v1)
 200da04:	14a9bc23 	sb	a2,367(a0)
 200da08:	ffff4267 	j	200d710 <t5_taskB5_generic_FH_TUERMODUL_CTRL+0x98>
 200da0c:	a8200a37 	lui	a3,0x4014
 200da10:	ad47a103 	lw	a3,488(a3)
 200da14:	ad465513 	slt	a3,a3,405
 200da18:	0d4158e3 	bnez	a3,200dbc4 <t5_taskB5_generic_FH_TUERMODUL_CTRL+0x54c>
 200da1c:	88200a37 	lui	v1,0x4014
 200da20:	1441c423 	sb	zero,369(v1)
 200da24:	88200a37 	lui	v1,0x4014
 200da28:	1c406423 	sb	zero,409(v1)
 200da2c:	14a9a023 	sb	a2,360(a0)
 200da30:	ffff3867 	j	200d710 <t5_taskB5_generic_FH_TUERMODUL_CTRL+0x98>
 200da34:	88200a37 	lui	v1,0x4014
 200da38:	8c468003 	lb	v1,416(v1)
 200da3c:	0c40c063 	beqz	v1,200db9c <t5_taskB5_generic_FH_TUERMODUL_CTRL+0x524>
 200da40:	88200a37 	lui	v1,0x4014
 200da44:	1441c423 	sb	zero,369(v1)
 200da48:	a0000413 	li	a2,1
 200da4c:	88200a37 	lui	v1,0x4014
 200da50:	1c686423 	sb	a2,409(v1)
 200da54:	14a7bc23 	sb	a1,367(a0)
 200da58:	ffff2e67 	j	200d710 <t5_taskB5_generic_FH_TUERMODUL_CTRL+0x98>
 200da5c:	88200a37 	lui	v1,0x4014
 200da60:	8c468003 	lb	v1,416(v1)
 200da64:	e44158e3 	bnez	v1,200d710 <t5_taskB5_generic_FH_TUERMODUL_CTRL+0x98>
 200da68:	88200a37 	lui	v1,0x4014
 200da6c:	1441c423 	sb	zero,369(v1)
 200da70:	88200a37 	lui	v1,0x4014
 200da74:	1c406423 	sb	zero,409(v1)
 200da78:	88000c13 	li	v1,3
 200da7c:	14a3bc23 	sb	v1,367(a0)
 200da80:	ffff2467 	j	200d710 <t5_taskB5_generic_FH_TUERMODUL_CTRL+0x98>
 200da84:	88200a37 	lui	v1,0x4014
 200da88:	8c468c03 	lb	v1,419(v1)
 200da8c:	04412063 	beqz	v1,200db1c <t5_taskB5_generic_FH_TUERMODUL_CTRL+0x4a4>
 200da90:	88200a37 	lui	v1,0x4014
 200da94:	8c468403 	lb	v1,417(v1)
 200da98:	044108e3 	bnez	v1,200db1c <t5_taskB5_generic_FH_TUERMODUL_CTRL+0x4a4>
 200da9c:	88200a37 	lui	v1,0x4014
 200daa0:	8c47a103 	lw	v1,488(v1)
 200daa4:	0022f2e3 	blez	v1,200db1c <t5_taskB5_generic_FH_TUERMODUL_CTRL+0x4a4>
 200daa8:	14a7a023 	sb	a1,360(a0)
 200daac:	90200a37 	lui	a0,0x4014
 200dab0:	14a79023 	sb	a1,356(a0)
 200dab4:	90200a37 	lui	a0,0x4014
 200dab8:	88000413 	li	v1,1
 200dabc:	a0200a37 	lui	a2,0x4014
 200dac0:	14a79823 	sb	a1,358(a0)
 200dac4:	90200a37 	lui	a0,0x4014
 200dac8:	1501c423 	sb	zero,369(a2)
 200dacc:	04224423 	sb	v1,17(v0)
 200dad0:	1ca27023 	sb	v1,412(a0)
 200dad4:	ffff0f67 	j	200d710 <t5_taskB5_generic_FH_TUERMODUL_CTRL+0x98>
 200dad8:	98200a37 	lui	a1,0x4014
 200dadc:	9cc7a103 	lw	a1,488(a1)
 200dae0:	08260ae3 	blez	a1,200dbe4 <t5_taskB5_generic_FH_TUERMODUL_CTRL+0x56c>
 200dae4:	a8200a37 	lui	a3,0x4014
 200dae8:	9d459003 	lb	a1,356(a3)
 200daec:	a0000413 	li	a2,1
 200daf0:	0ce8b863 	beq	a1,a2,200dc4c <t5_taskB5_generic_FH_TUERMODUL_CTRL+0x5d4>
 200daf4:	0ce21863 	beq	a1,v1,200dc00 <t5_taskB5_generic_FH_TUERMODUL_CTRL+0x588>
 200daf8:	90200a37 	lui	a0,0x4014
 200dafc:	1481c423 	sb	zero,369(a0)
 200db00:	90200a37 	lui	a0,0x4014
 200db04:	15639023 	sb	v1,356(a3)
 200db08:	14a39823 	sb	v1,358(a0)
 200db0c:	88200a37 	lui	v1,0x4014
 200db10:	04284423 	sb	a2,17(v0)
 200db14:	1c687023 	sb	a2,412(v1)
 200db18:	fffefe67 	j	200d710 <t5_taskB5_generic_FH_TUERMODUL_CTRL+0x98>
 200db1c:	88200a37 	lui	v1,0x4014
 200db20:	8c468003 	lb	v1,416(v1)
 200db24:	dc41d863 	beqz	v1,200d710 <t5_taskB5_generic_FH_TUERMODUL_CTRL+0x98>
 200db28:	88200a37 	lui	v1,0x4014
 200db2c:	8c467803 	lb	v1,414(v1)
 200db30:	dc41c0e3 	bnez	v1,200d710 <t5_taskB5_generic_FH_TUERMODUL_CTRL+0x98>
 200db34:	88200a37 	lui	v1,0x4014
 200db38:	8c47a103 	lw	v1,488(v1)
 200db3c:	8c465513 	slt	v1,v1,405
 200db40:	dc41a063 	beqz	v1,200d710 <t5_taskB5_generic_FH_TUERMODUL_CTRL+0x98>
 200db44:	98200a37 	lui	a1,0x4014
 200db48:	88000413 	li	v1,1
 200db4c:	14c1c423 	sb	zero,369(a1)
 200db50:	98200a37 	lui	a1,0x4014
 200db54:	14a3a023 	sb	v1,360(a0)
 200db58:	1ce26423 	sb	v1,409(a1)
 200db5c:	90000813 	li	a0,2
 200db60:	88200a37 	lui	v1,0x4014
 200db64:	14659423 	sb	a0,357(v1)
 200db68:	fffeea67 	j	200d710 <t5_taskB5_generic_FH_TUERMODUL_CTRL+0x98>
 200db6c:	88200a37 	lui	v1,0x4014
 200db70:	8c467403 	lb	v1,413(v1)
 200db74:	ec409063 	beqz	v1,200d8bc <t5_taskB5_generic_FH_TUERMODUL_CTRL+0x244>
 200db78:	88200a37 	lui	v1,0x4014
 200db7c:	9445d103 	lw	a0,372(v1)
 200db80:	88200a37 	lui	v1,0x4014
 200db84:	1441c423 	sb	zero,369(v1)
 200db88:	88200a37 	lui	v1,0x4014
 200db8c:	1c407023 	sb	zero,412(v1)
 200db90:	88200a37 	lui	v1,0x4014
 200db94:	24641123 	sw	a0,516(v1)
 200db98:	ffff4367 	j	200d8a4 <t5_taskB5_generic_FH_TUERMODUL_CTRL+0x22c>
 200db9c:	88200a37 	lui	v1,0x4014
 200dba0:	8c468c03 	lb	v1,419(v1)
 200dba4:	dc40d863 	beqz	v1,200d710 <t5_taskB5_generic_FH_TUERMODUL_CTRL+0x98>
 200dba8:	98200a37 	lui	a1,0x4014
 200dbac:	88000413 	li	v1,1
 200dbb0:	14c1c423 	sb	zero,369(a1)
 200dbb4:	98200a37 	lui	a1,0x4014
 200dbb8:	1ce27023 	sb	v1,412(a1)
 200dbbc:	14a3bc23 	sb	v1,367(a0)
 200dbc0:	fffed467 	j	200d710 <t5_taskB5_generic_FH_TUERMODUL_CTRL+0x98>
 200dbc4:	a8200a37 	lui	a3,0x4014
 200dbc8:	a5459403 	lb	a2,357(a3)
 200dbcc:	0d220863 	beq	a2,v1,200dcd0 <t5_taskB5_generic_FH_TUERMODUL_CTRL+0x658>
 200dbd0:	0527b063 	beq	a2,a1,200dca8 <t5_taskB5_generic_FH_TUERMODUL_CTRL+0x630>
 200dbd4:	88200a37 	lui	v1,0x4014
 200dbd8:	1441c423 	sb	zero,369(v1)
 200dbdc:	15679423 	sb	a1,357(a3)
 200dbe0:	fffecc67 	j	200d710 <t5_taskB5_generic_FH_TUERMODUL_CTRL+0x98>
 200dbe4:	88200a37 	lui	v1,0x4014
 200dbe8:	1441c423 	sb	zero,369(v1)
 200dbec:	88200a37 	lui	v1,0x4014
 200dbf0:	1c407023 	sb	zero,412(v1)
 200dbf4:	88000c13 	li	v1,3
 200dbf8:	14a3a023 	sb	v1,360(a0)
 200dbfc:	fffec567 	j	200d710 <t5_taskB5_generic_FH_TUERMODUL_CTRL+0x98>
 200dc00:	88200a37 	lui	v1,0x4014
 200dc04:	8c468c03 	lb	v1,419(v1)
 200dc08:	044020e3 	bnez	v1,200dc18 <t5_taskB5_generic_FH_TUERMODUL_CTRL+0x5a0>
 200dc0c:	88200a37 	lui	v1,0x4014
 200dc10:	8c468403 	lb	v1,417(v1)
 200dc14:	fc41a0e3 	bnez	v1,200dbe4 <t5_taskB5_generic_FH_TUERMODUL_CTRL+0x56c>
 200dc18:	98200a37 	lui	a1,0x4014
 200dc1c:	94c59803 	lb	a0,358(a1)
 200dc20:	88000413 	li	v1,1
 200dc24:	0ca2c863 	beq	a0,v1,200dd88 <t5_taskB5_generic_FH_TUERMODUL_CTRL+0x710>
 200dc28:	a0000813 	li	a2,2
 200dc2c:	0ca82863 	beq	a0,a2,200dd40 <t5_taskB5_generic_FH_TUERMODUL_CTRL+0x6c8>
 200dc30:	90200a37 	lui	a0,0x4014
 200dc34:	1481c423 	sb	zero,369(a0)
 200dc38:	90200a37 	lui	a0,0x4014
 200dc3c:	14e99823 	sb	a2,358(a1)
 200dc40:	04224423 	sb	v1,17(v0)
 200dc44:	1ca27023 	sb	v1,412(a0)
 200dc48:	fffeb267 	j	200d710 <t5_taskB5_generic_FH_TUERMODUL_CTRL+0x98>
 200dc4c:	88200a37 	lui	v1,0x4014
 200dc50:	8c468003 	lb	v1,416(v1)
 200dc54:	04402063 	beqz	v1,200dc64 <t5_taskB5_generic_FH_TUERMODUL_CTRL+0x5ec>
 200dc58:	88200a37 	lui	v1,0x4014
 200dc5c:	8c467803 	lb	v1,414(v1)
 200dc60:	fc410863 	beqz	v1,200dbe4 <t5_taskB5_generic_FH_TUERMODUL_CTRL+0x56c>
 200dc64:	88200a37 	lui	v1,0x4014
 200dc68:	8c468c03 	lb	v1,419(v1)
 200dc6c:	04402063 	beqz	v1,200dc7c <t5_taskB5_generic_FH_TUERMODUL_CTRL+0x604>
 200dc70:	88200a37 	lui	v1,0x4014
 200dc74:	8c468403 	lb	v1,417(v1)
 200dc78:	fc40d863 	beqz	v1,200dbe4 <t5_taskB5_generic_FH_TUERMODUL_CTRL+0x56c>
 200dc7c:	98200a37 	lui	a1,0x4014
 200dc80:	94c59c03 	lb	a0,359(a1)
 200dc84:	88000413 	li	v1,1
 200dc88:	0ca30863 	beq	a0,v1,200de0c <t5_taskB5_generic_FH_TUERMODUL_CTRL+0x794>
 200dc8c:	a0000813 	li	a2,2
 200dc90:	0ca86863 	beq	a0,a2,200ddc4 <t5_taskB5_generic_FH_TUERMODUL_CTRL+0x74c>
 200dc94:	90200a37 	lui	a0,0x4014
 200dc98:	1481c423 	sb	zero,369(a0)
 200dc9c:	14e99c23 	sb	a2,359(a1)
 200dca0:	04224423 	sb	v1,17(v0)
 200dca4:	fffe9b67 	j	200d710 <t5_taskB5_generic_FH_TUERMODUL_CTRL+0x98>
 200dca8:	98200a37 	lui	a1,0x4014
 200dcac:	9cc68c03 	lb	a1,419(a1)
 200dcb0:	04c0b063 	beqz	a1,200dd08 <t5_taskB5_generic_FH_TUERMODUL_CTRL+0x690>
 200dcb4:	98200a37 	lui	a1,0x4014
 200dcb8:	9cc68403 	lb	a1,417(a1)
 200dcbc:	04c098e3 	bnez	a1,200dd08 <t5_taskB5_generic_FH_TUERMODUL_CTRL+0x690>
 200dcc0:	90200a37 	lui	a0,0x4014
 200dcc4:	1481c423 	sb	zero,369(a0)
 200dcc8:	15639423 	sb	v1,357(a3)
 200dccc:	fffe9167 	j	200d710 <t5_taskB5_generic_FH_TUERMODUL_CTRL+0x98>
 200dcd0:	88200a37 	lui	v1,0x4014
 200dcd4:	8c468c03 	lb	v1,419(v1)
 200dcd8:	04409863 	beqz	v1,200dd24 <t5_taskB5_generic_FH_TUERMODUL_CTRL+0x6ac>
 200dcdc:	88200a37 	lui	v1,0x4014
 200dce0:	8c468403 	lb	v1,417(v1)
 200dce4:	044080e3 	bnez	v1,200dd24 <t5_taskB5_generic_FH_TUERMODUL_CTRL+0x6ac>
 200dce8:	88200a37 	lui	v1,0x4014
 200dcec:	1441c423 	sb	zero,369(v1)
 200dcf0:	88200a37 	lui	v1,0x4014
 200dcf4:	1c406423 	sb	zero,409(v1)
 200dcf8:	88000c13 	li	v1,3
 200dcfc:	14a3a023 	sb	v1,360(a0)
 200dd00:	15419423 	sb	zero,357(a3)
 200dd04:	fffe8367 	j	200d710 <t5_taskB5_generic_FH_TUERMODUL_CTRL+0x98>
 200dd08:	88200a37 	lui	v1,0x4014
 200dd0c:	8c468003 	lb	v1,416(v1)
 200dd10:	d44000e3 	bnez	v1,200d710 <t5_taskB5_generic_FH_TUERMODUL_CTRL+0x98>
 200dd14:	88200a37 	lui	v1,0x4014
 200dd18:	8c467803 	lb	v1,414(v1)
 200dd1c:	cc41e863 	beqz	v1,200d710 <t5_taskB5_generic_FH_TUERMODUL_CTRL+0x98>
 200dd20:	fffff267 	j	200dce8 <t5_taskB5_generic_FH_TUERMODUL_CTRL+0x670>
 200dd24:	88200a37 	lui	v1,0x4014
 200dd28:	8c468003 	lb	v1,416(v1)
 200dd2c:	cc41c863 	beqz	v1,200d710 <t5_taskB5_generic_FH_TUERMODUL_CTRL+0x98>
 200dd30:	88200a37 	lui	v1,0x4014
 200dd34:	8c467803 	lb	v1,414(v1)
 200dd38:	cc41b0e3 	bnez	v1,200d710 <t5_taskB5_generic_FH_TUERMODUL_CTRL+0x98>
 200dd3c:	ffffeb67 	j	200dce8 <t5_taskB5_generic_FH_TUERMODUL_CTRL+0x670>
 200dd40:	94006003 	lb	a0,24(v0)
 200dd44:	0c800863 	beqz	a0,200de48 <t5_taskB5_generic_FH_TUERMODUL_CTRL+0x7d0>
 200dd48:	90200a37 	lui	a0,0x4014
 200dd4c:	a485d103 	lw	a2,372(a0)
 200dd50:	90200a37 	lui	a0,0x4014
 200dd54:	1481c423 	sb	zero,369(a0)
 200dd58:	90200a37 	lui	a0,0x4014
 200dd5c:	1c807023 	sb	zero,412(a0)
 200dd60:	90200a37 	lui	a0,0x4014
 200dd64:	1ca2c823 	sb	v1,434(a0)
 200dd68:	90200a37 	lui	a0,0x4014
 200dd6c:	1ca9b123 	sw	a2,492(a0)
 200dd70:	90200a37 	lui	a0,0x4014
 200dd74:	04225c23 	sb	v1,23(v0)
 200dd78:	14e39823 	sb	v1,358(a1)
 200dd7c:	04004423 	sb	zero,17(v0)
 200dd80:	1ca26423 	sb	v1,409(a0)
 200dd84:	fffe6367 	j	200d710 <t5_taskB5_generic_FH_TUERMODUL_CTRL+0x98>
 200dd88:	8c005803 	lb	v1,22(v0)
 200dd8c:	04005c23 	sb	zero,23(v0)
 200dd90:	cc410063 	beqz	v1,200d710 <t5_taskB5_generic_FH_TUERMODUL_CTRL+0x98>
 200dd94:	88200a37 	lui	v1,0x4014
 200dd98:	1441c423 	sb	zero,369(v1)
 200dd9c:	88200a37 	lui	v1,0x4014
 200dda0:	1c40c823 	sb	zero,434(v1)
 200dda4:	88000813 	li	v1,2
 200dda8:	14e39823 	sb	v1,358(a1)
 200ddac:	88200a37 	lui	v1,0x4014
 200ddb0:	1c406423 	sb	zero,409(v1)
 200ddb4:	88200a37 	lui	v1,0x4014
 200ddb8:	04244423 	sb	a0,17(v0)
 200ddbc:	1c647023 	sb	a0,412(v1)
 200ddc0:	fffe5467 	j	200d710 <t5_taskB5_generic_FH_TUERMODUL_CTRL+0x98>
 200ddc4:	94006003 	lb	a0,24(v0)
 200ddc8:	cc809063 	beqz	a0,200d710 <t5_taskB5_generic_FH_TUERMODUL_CTRL+0x98>
 200ddcc:	90200a37 	lui	a0,0x4014
 200ddd0:	a485d103 	lw	a2,372(a0)
 200ddd4:	90200a37 	lui	a0,0x4014
 200ddd8:	1481c423 	sb	zero,369(a0)
 200dddc:	90200a37 	lui	a0,0x4014
 200dde0:	1ca2d023 	sb	v1,436(a0)
 200dde4:	90200a37 	lui	a0,0x4014
 200dde8:	1c807023 	sb	zero,412(a0)
 200ddec:	90200a37 	lui	a0,0x4014
 200ddf0:	1ca9c123 	sw	a2,496(a0)
 200ddf4:	90200a37 	lui	a0,0x4014
 200ddf8:	04225c23 	sb	v1,23(v0)
 200ddfc:	14e39c23 	sb	v1,359(a1)
 200de00:	04004423 	sb	zero,17(v0)
 200de04:	1ca26423 	sb	v1,409(a0)
 200de08:	fffe4267 	j	200d710 <t5_taskB5_generic_FH_TUERMODUL_CTRL+0x98>
 200de0c:	8c005803 	lb	v1,22(v0)
 200de10:	04005c23 	sb	zero,23(v0)
 200de14:	c441f863 	beqz	v1,200d710 <t5_taskB5_generic_FH_TUERMODUL_CTRL+0x98>
 200de18:	88200a37 	lui	v1,0x4014
 200de1c:	1441c423 	sb	zero,369(v1)
 200de20:	88200a37 	lui	v1,0x4014
 200de24:	1c647023 	sb	a0,412(v1)
 200de28:	88200a37 	lui	v1,0x4014
 200de2c:	1c40d023 	sb	zero,436(v1)
 200de30:	88000813 	li	v1,2
 200de34:	14e39c23 	sb	v1,359(a1)
 200de38:	88200a37 	lui	v1,0x4014
 200de3c:	1c406423 	sb	zero,409(v1)
 200de40:	04244423 	sb	a0,17(v0)
 200de44:	fffe3367 	j	200d710 <t5_taskB5_generic_FH_TUERMODUL_CTRL+0x98>
 200de48:	90200a37 	lui	a0,0x4014
 200de4c:	94868003 	lb	a0,416(a0)
 200de50:	c4818063 	beqz	a0,200d710 <t5_taskB5_generic_FH_TUERMODUL_CTRL+0x98>
 200de54:	90200a37 	lui	a0,0x4014
 200de58:	94867803 	lb	a0,414(a0)
 200de5c:	c48168e3 	bnez	a0,200d710 <t5_taskB5_generic_FH_TUERMODUL_CTRL+0x98>
 200de60:	90200a37 	lui	a0,0x4014
 200de64:	1481c423 	sb	zero,369(a0)
 200de68:	15639023 	sb	v1,356(a3)
 200de6c:	14c19823 	sb	zero,358(a1)
 200de70:	fffe2867 	j	200d710 <t5_taskB5_generic_FH_TUERMODUL_CTRL+0x98>

0200de74 <t5_taskB5_generic_EINKLEMMSCHUTZ_CTRL>:
 200de74:	80200a37 	lui	v0,0x4014
 200de78:	84086013 	add	v0,v0,536
 200de7c:	8c004003 	lb	v1,16(v0)
 200de80:	04405063 	beqz	v1,200dea8 <t5_taskB5_generic_EINKLEMMSCHUTZ_CTRL+0x34>
 200de84:	90200a37 	lui	a0,0x4014
 200de88:	8c858803 	lb	v1,354(a0)
 200de8c:	98000413 	li	a1,1
 200de90:	04663863 	beq	v1,a1,200deac <t5_taskB5_generic_EINKLEMMSCHUTZ_CTRL+0x38>
 200de94:	a0000813 	li	a2,2
 200de98:	0468c063 	beq	v1,a2,200def8 <t5_taskB5_generic_EINKLEMMSCHUTZ_CTRL+0x84>
 200de9c:	80200a37 	lui	v0,0x4014
 200dea0:	1401c423 	sb	zero,369(v0)
 200dea4:	14a78823 	sb	a1,354(a0)
 200dea8:	004000eb 	ret
 200deac:	88200a37 	lui	v1,0x4014
 200deb0:	8c465c03 	lb	v1,407(v1)
 200deb4:	fc41e863 	beqz	v1,200dea8 <t5_taskB5_generic_EINKLEMMSCHUTZ_CTRL+0x34>
 200deb8:	88200a37 	lui	v1,0x4014
 200debc:	8c465803 	lb	v1,406(v1)
 200dec0:	fc41d0e3 	bnez	v1,200dea8 <t5_taskB5_generic_EINKLEMMSCHUTZ_CTRL+0x34>
 200dec4:	88200a37 	lui	v1,0x4014
 200dec8:	8c468c03 	lb	v1,419(v1)
 200decc:	04402063 	beqz	v1,200dedc <t5_taskB5_generic_EINKLEMMSCHUTZ_CTRL+0x68>
 200ded0:	88200a37 	lui	v1,0x4014
 200ded4:	8c468003 	lb	v1,416(v1)
 200ded8:	fc41a0e3 	bnez	v1,200dea8 <t5_taskB5_generic_EINKLEMMSCHUTZ_CTRL+0x34>
 200dedc:	88200a37 	lui	v1,0x4014
 200dee0:	1441c423 	sb	zero,369(v1)
 200dee4:	88000413 	li	v1,1
 200dee8:	04226023 	sb	v1,24(v0)
 200deec:	80000813 	li	v0,2
 200def0:	14a18823 	sb	v0,354(a0)
 200def4:	004000eb 	ret
 200def8:	88200a37 	lui	v1,0x4014
 200defc:	8c465c03 	lb	v1,407(v1)
 200df00:	04006023 	sb	zero,24(v0)
 200df04:	fc4148e3 	bnez	v1,200dea8 <t5_taskB5_generic_EINKLEMMSCHUTZ_CTRL+0x34>
 200df08:	80200a37 	lui	v0,0x4014
 200df0c:	84065803 	lb	v0,406(v0)
 200df10:	fc013063 	beqz	v0,200dea8 <t5_taskB5_generic_EINKLEMMSCHUTZ_CTRL+0x34>
 200df14:	80200a37 	lui	v0,0x4014
 200df18:	1401c423 	sb	zero,369(v0)
 200df1c:	14a78823 	sb	a1,354(a0)
 200df20:	004000eb 	ret

0200df24 <t5_taskB5_generic_BLOCK_ERKENNUNG_CTRL>:
 200df24:	88200a37 	lui	v1,0x4014
 200df28:	84486013 	add	v0,v1,536
 200df2c:	94004c03 	lb	a0,19(v0)
 200df30:	048038e3 	bnez	a0,200df4c <t5_taskB5_generic_BLOCK_ERKENNUNG_CTRL+0x28>
 200df34:	94005403 	lb	a0,21(v0)
 200df38:	04807063 	beqz	a0,200df70 <t5_taskB5_generic_BLOCK_ERKENNUNG_CTRL+0x4c>
 200df3c:	84005003 	lb	v0,20(v0)
 200df40:	040060e3 	bnez	v0,200df70 <t5_taskB5_generic_BLOCK_ERKENNUNG_CTRL+0x4c>
 200df44:	24406023 	sb	zero,536(v1)
 200df48:	004000eb 	ret
 200df4c:	90200a37 	lui	a0,0x4014
 200df50:	84858003 	lb	v0,352(a0)
 200df54:	98000413 	li	a1,1
 200df58:	04263863 	beq	v0,a1,200df74 <t5_taskB5_generic_BLOCK_ERKENNUNG_CTRL+0x50>
 200df5c:	a0000813 	li	a2,2
 200df60:	0428d863 	beq	v0,a2,200dfcc <t5_taskB5_generic_BLOCK_ERKENNUNG_CTRL+0xa8>
 200df64:	80200a37 	lui	v0,0x4014
 200df68:	1401c423 	sb	zero,369(v0)
 200df6c:	14a78023 	sb	a1,352(a0)
 200df70:	004000eb 	ret
 200df74:	98200a37 	lui	a1,0x4014
 200df78:	a0200a37 	lui	a2,0x4014
 200df7c:	9cc79103 	lw	a1,484(a1)
 200df80:	a5078103 	lw	a2,480(a2)
 200df84:	fce9d863 	beq	a1,a2,200df70 <t5_taskB5_generic_BLOCK_ERKENNUNG_CTRL+0x4c>
 200df88:	f827d2e3 	blez	a1,200df70 <t5_taskB5_generic_BLOCK_ERKENNUNG_CTRL+0x4c>
 200df8c:	98200a37 	lui	a1,0x4014
 200df90:	14c1c423 	sb	zero,369(a1)
 200df94:	98200a37 	lui	a1,0x4014
 200df98:	1cc09823 	sb	zero,422(a1)
 200df9c:	98000813 	li	a1,2
 200dfa0:	14a78023 	sb	a1,352(a0)
 200dfa4:	90200a37 	lui	a0,0x4014
 200dfa8:	98000813 	li	a1,2
 200dfac:	1c810123 	sw	zero,448(a0)
 200dfb0:	90200a37 	lui	a0,0x4014
 200dfb4:	1ca72123 	sw	a1,456(a0)
 200dfb8:	98000c13 	li	a1,3
 200dfbc:	90200a37 	lui	a0,0x4014
 200dfc0:	14a78423 	sb	a1,353(a0)
 200dfc4:	24606023 	sb	v0,536(v1)
 200dfc8:	004000eb 	ret
 200dfcc:	80200a37 	lui	v0,0x4014
 200dfd0:	84066803 	lb	v0,410(v0)
 200dfd4:	0400c063 	beqz	v0,200e034 <t5_taskB5_generic_BLOCK_ERKENNUNG_CTRL+0x110>
 200dfd8:	80200a37 	lui	v0,0x4014
 200dfdc:	84067403 	lb	v0,413(v0)
 200dfe0:	040020e3 	bnez	v0,200dff0 <t5_taskB5_generic_BLOCK_ERKENNUNG_CTRL+0xcc>
 200dfe4:	80200a37 	lui	v0,0x4014
 200dfe8:	84066c03 	lb	v0,411(v0)
 200dfec:	0400a8e3 	bnez	v0,200e040 <t5_taskB5_generic_BLOCK_ERKENNUNG_CTRL+0x11c>
 200dff0:	90200a37 	lui	a0,0x4014
 200dff4:	84858403 	lb	v0,353(a0)
 200dff8:	98000813 	li	a1,2
 200dffc:	0427b063 	beq	v0,a1,200e0d4 <t5_taskB5_generic_BLOCK_ERKENNUNG_CTRL+0x1b0>
 200e000:	a0000c13 	li	a2,3
 200e004:	0428b863 	beq	v0,a2,200e060 <t5_taskB5_generic_BLOCK_ERKENNUNG_CTRL+0x13c>
 200e008:	a8000413 	li	a3,1
 200e00c:	042aa063 	beq	v0,a3,200e05c <t5_taskB5_generic_BLOCK_ERKENNUNG_CTRL+0x138>
 200e010:	80200a37 	lui	v0,0x4014
 200e014:	1401c423 	sb	zero,369(v0)
 200e018:	80200a37 	lui	v0,0x4014
 200e01c:	1c010123 	sw	zero,448(v0)
 200e020:	80200a37 	lui	v0,0x4014
 200e024:	1c272123 	sw	a1,456(v0)
 200e028:	14a98423 	sb	a2,353(a0)
 200e02c:	246a6023 	sb	a3,536(v1)
 200e030:	004000eb 	ret
 200e034:	80200a37 	lui	v0,0x4014
 200e038:	84066003 	lb	v0,408(v0)
 200e03c:	fc013863 	beqz	v0,200dfd8 <t5_taskB5_generic_BLOCK_ERKENNUNG_CTRL+0xb4>
 200e040:	80200a37 	lui	v0,0x4014
 200e044:	1401c423 	sb	zero,369(v0)
 200e048:	80000413 	li	v0,1
 200e04c:	14a18023 	sb	v0,352(a0)
 200e050:	80200a37 	lui	v0,0x4014
 200e054:	14018423 	sb	zero,353(v0)
 200e058:	004000eb 	ret
 200e05c:	004000eb 	ret
 200e060:	a0200a37 	lui	a2,0x4014
 200e064:	85070103 	lw	v0,448(a2)
 200e068:	24406023 	sb	zero,536(v1)
 200e06c:	88002c13 	li	v1,11
 200e070:	04233063 	beq	v0,v1,200e108 <t5_taskB5_generic_BLOCK_ERKENNUNG_CTRL+0x1e4>
 200e074:	88200a37 	lui	v1,0x4014
 200e078:	9445c003 	lb	a0,368(v1)
 200e07c:	88000413 	li	v1,1
 200e080:	f4a3e0e3 	bne	a0,v1,200df70 <t5_taskB5_generic_BLOCK_ERKENNUNG_CTRL+0x4c>
 200e084:	88200a37 	lui	v1,0x4014
 200e088:	8c485103 	lw	v1,532(v1)
 200e08c:	f441c863 	beqz	v1,200df70 <t5_taskB5_generic_BLOCK_ERKENNUNG_CTRL+0x4c>
 200e090:	90200a37 	lui	a0,0x4014
 200e094:	9485d103 	lw	a0,372(a0)
 200e098:	8ca30033 	sub	v1,a0,v1
 200e09c:	8c40f0d3 	fcvt.d.wu	fv1,v1
 200e0a0:	88200037 	lui	v1,0x4000
 200e0a4:	84402187 	fld	fv0,8(v1)
 200e0a8:	8c6150d3 	feq.d	v1,fv1,fv0
 200e0ac:	f4418863 	beqz	v1,200df70 <t5_taskB5_generic_BLOCK_ERKENNUNG_CTRL+0x4c>
 200e0b0:	88200a37 	lui	v1,0x4014
 200e0b4:	90200a37 	lui	a0,0x4014
 200e0b8:	94879103 	lw	a0,484(a0)
 200e0bc:	9c472103 	lw	a1,456(v1)
 200e0c0:	84000413 	add	v0,v0,1
 200e0c4:	1d210123 	sw	v0,448(a2)
 200e0c8:	f4e552e3 	ble	a0,a1,200df70 <t5_taskB5_generic_BLOCK_ERKENNUNG_CTRL+0x4c>
 200e0cc:	1c652123 	sw	a0,456(v1)
 200e0d0:	004000eb 	ret
 200e0d4:	80200a37 	lui	v0,0x4014
 200e0d8:	8c072103 	lw	v1,456(v0)
 200e0dc:	80200a37 	lui	v0,0x4014
 200e0e0:	84079103 	lw	v0,484(v0)
 200e0e4:	8c7ffc13 	add	v1,v1,-1
 200e0e8:	f4231263 	blt	v0,v1,200df70 <t5_taskB5_generic_BLOCK_ERKENNUNG_CTRL+0x4c>
 200e0ec:	88200a37 	lui	v1,0x4014
 200e0f0:	80000413 	li	v0,1
 200e0f4:	1441c423 	sb	zero,369(v1)
 200e0f8:	88200a37 	lui	v1,0x4014
 200e0fc:	1c609823 	sb	v0,422(v1)
 200e100:	14a18423 	sb	v0,353(a0)
 200e104:	004000eb 	ret
 200e108:	88200a37 	lui	v1,0x4014
 200e10c:	8c46e103 	lw	v1,440(v1)
 200e110:	fc60c863 	beq	v1,v0,200e074 <t5_taskB5_generic_BLOCK_ERKENNUNG_CTRL+0x150>
 200e114:	80200a37 	lui	v0,0x4014
 200e118:	1401c423 	sb	zero,369(v0)
 200e11c:	14a78423 	sb	a1,353(a0)
 200e120:	004000eb 	ret

0200e124 <t5_taskB5_FH_DU>:
 200e124:	73be2013 	add	sp,sp,-120
 200e128:	0385c123 	sw	s0,112(sp)
 200e12c:	10200a37 	lui	s0,0x4014
 200e130:	0387b123 	sw	s1,108(sp)
 200e134:	0389a123 	sw	s2,104(sp)
 200e138:	038b9123 	sw	s3,100(sp)
 200e13c:	038d8123 	sw	s4,96(sp)
 200e140:	038f7123 	sw	s5,92(sp)
 200e144:	03916123 	sw	s6,88(sp)
 200e148:	03935123 	sw	s7,84(sp)
 200e14c:	03954123 	sw	s8,80(sp)
 200e150:	03973123 	sw	s9,76(sp)
 200e154:	03992123 	sw	s10,72(sp)
 200e158:	039b1123 	sw	s11,68(sp)
 200e15c:	0383d123 	sw	ra,116(sp)
 200e160:	10886013 	add	s0,s0,536
 200e164:	88000413 	li	v1,1
 200e168:	80200a37 	lui	v0,0x4014
 200e16c:	1423d123 	sw	v1,372(v0)
 200e170:	a8804003 	lb	a3,16(s0)
 200e174:	88802803 	lb	v1,10(s0)
 200e178:	b0804c03 	lb	a4,19(s0)
 200e17c:	b8803403 	lb	a5,13(s0)
 200e180:	80200a37 	lui	v0,0x4014
 200e184:	c0200a37 	lui	a6,0x4014
 200e188:	c8200a37 	lui	a7,0x4014
 200e18c:	1401c023 	sb	zero,368(v0)
 200e190:	03a2a123 	sw	v1,40(sp)
 200e194:	86062803 	lb	v0,394(a6)
 200e198:	03aac123 	sw	a3,48(sp)
 200e19c:	03acd123 	sw	a4,52(sp)
 200e1a0:	03aeb123 	sw	a5,44(sp)
 200e1a4:	c6462003 	lb	a6,392(a7)
 200e1a8:	58200a37 	lui	s9,0x4014
 200e1ac:	60200a37 	lui	s10,0x4014
 200e1b0:	20200a37 	lui	s2,0x4014
 200e1b4:	e0200a37 	lui	a10,0x4014
 200e1b8:	18200a37 	lui	s1,0x4014
 200e1bc:	50200a37 	lui	s8,0x4014
 200e1c0:	48200a37 	lui	s7,0x4014
 200e1c4:	40200a37 	lui	s6,0x4014
 200e1c8:	38200a37 	lui	s5,0x4014
 200e1cc:	30200a37 	lui	s4,0x4014
 200e1d0:	28200a37 	lui	s3,0x4014
 200e1d4:	a0200a37 	lui	a2,0x4014
 200e1d8:	98200a37 	lui	a1,0x4014
 200e1dc:	90200a37 	lui	a0,0x4014
 200e1e0:	88200a37 	lui	v1,0x4014
 200e1e4:	68200a37 	lui	s11,0x4014
 200e1e8:	00016e67 	j	200e7a0 <t5_taskB5_FH_DU+0x67c>
 200e1ec:	b0000c13 	li	a4,3
 200e1f0:	356c2063 	beq	a3,a4,200e800 <t5_taskB5_FH_DU+0x6dc>
 200e1f4:	b0000413 	li	a4,1
 200e1f8:	356c7863 	beq	a3,a4,200e834 <t5_taskB5_FH_DU+0x710>
 200e1fc:	f8200a37 	lui	a13,0x4014
 200e200:	a8200a37 	lui	a3,0x4014
 200e204:	b8000813 	li	a5,2
 200e208:	b0200a37 	lui	a4,0x4014
 200e20c:	17c1c423 	sb	zero,369(a13)
 200e210:	1d417123 	sw	zero,476(a3)
 200e214:	15af8c23 	sb	a5,355(a4)
 200e218:	cb80a103 	lw	a7,40(sp)
 200e21c:	064020e3 	bnez	a7,200e22c <t5_taskB5_FH_DU+0x108>
 200e220:	a8000c13 	li	a3,3
 200e224:	d0200a37 	lui	a8,0x4014
 200e228:	16abb023 	sb	a3,364(a8)
 200e22c:	db80c103 	lw	a9,48(sp)
 200e230:	06c020e3 	bnez	a9,200e240 <t5_taskB5_FH_DU+0x11c>
 200e234:	b0000413 	li	a4,1
 200e238:	a8200a37 	lui	a3,0x4014
 200e23c:	156d8823 	sb	a4,354(a3)
 200e240:	eb80d103 	lw	a11,52(sp)
 200e244:	074030e3 	bnez	a11,200e25c <t5_taskB5_FH_DU+0x138>
 200e248:	a8200a37 	lui	a3,0x4014
 200e24c:	25406023 	sb	zero,536(a3)
 200e250:	b0000413 	li	a4,1
 200e254:	a8200a37 	lui	a3,0x4014
 200e258:	156d8023 	sb	a4,352(a3)
 200e25c:	f380b103 	lw	a12,44(sp)
 200e260:	078070e3 	bnez	a12,200e298 <t5_taskB5_FH_DU+0x174>
 200e264:	b0000813 	li	a4,2
 200e268:	f8200a37 	lui	a13,0x4014
 200e26c:	a8000413 	li	a3,1
 200e270:	17edac23 	sb	a4,363(a13)
 200e274:	b0200a37 	lui	a4,0x4014
 200e278:	b8200a37 	lui	a5,0x4014
 200e27c:	15aba823 	sb	a3,362(a4)
 200e280:	b0200a37 	lui	a4,0x4014
 200e284:	00801023 	sb	zero,4(s0)
 200e288:	00801823 	sb	zero,6(s0)
 200e28c:	1dc1f123 	sw	zero,508(a5)
 200e290:	00aa1423 	sb	a3,5(s0)
 200e294:	15aba423 	sb	a3,361(a4)
 200e298:	a8000413 	li	a3,1
 200e29c:	00aa2c23 	sb	a3,11(s0)
 200e2a0:	00aa4423 	sb	a3,17(s0)
 200e2a4:	00aa5023 	sb	a3,20(s0)
 200e2a8:	00aa3823 	sb	a3,14(s0)
 200e2ac:	04302863 	beq	v0,a6,200e2c0 <t5_taskB5_FH_DU+0x19c>
 200e2b0:	a8200a37 	lui	a3,0x4014
 200e2b4:	ad460403 	lb	a3,385(a3)
 200e2b8:	054010e3 	bnez	a3,200e2c0 <t5_taskB5_FH_DU+0x19c>
 200e2bc:	19204823 	sb	v0,402(s2)
 200e2c0:	c0200a37 	lui	a6,0x4014
 200e2c4:	c8200a37 	lui	a7,0x4014
 200e2c8:	86061c03 	lb	v0,391(a6)
 200e2cc:	ae461803 	lb	a3,390(a7)
 200e2d0:	05603063 	beq	a3,v0,200e2e8 <t5_taskB5_FH_DU+0x1c4>
 200e2d4:	a8200a37 	lui	a3,0x4014
 200e2d8:	ad460403 	lb	a3,385(a3)
 200e2dc:	05401863 	beqz	a3,200e2e8 <t5_taskB5_FH_DU+0x1c4>
 200e2e0:	d0200a37 	lui	a8,0x4014
 200e2e4:	1ea02823 	sb	v0,394(a8)
 200e2e8:	d8200a37 	lui	a9,0x4014
 200e2ec:	87063403 	lb	v0,397(a10)
 200e2f0:	aec62c03 	lb	a3,395(a9)
 200e2f4:	05602863 	beq	a3,v0,200e308 <t5_taskB5_FH_DU+0x1e4>
 200e2f8:	a8200a37 	lui	a3,0x4014
 200e2fc:	ad460403 	lb	a3,385(a3)
 200e300:	054010e3 	bnez	a3,200e308 <t5_taskB5_FH_DU+0x1e4>
 200e304:	18e04423 	sb	v0,401(s1)
 200e308:	e8200a37 	lui	a11,0x4014
 200e30c:	f0200a37 	lui	a12,0x4014
 200e310:	87461403 	lb	v0,389(a11)
 200e314:	af861003 	lb	a3,388(a12)
 200e318:	05602863 	beq	a3,v0,200e32c <t5_taskB5_FH_DU+0x208>
 200e31c:	a8200a37 	lui	a3,0x4014
 200e320:	ad460403 	lb	a3,385(a3)
 200e324:	05401063 	beqz	a3,200e32c <t5_taskB5_FH_DU+0x208>
 200e328:	1f203423 	sb	v0,397(a10)
 200e32c:	d8803203 	lbu	a9,12(s0)
 200e330:	d0803e03 	lbu	a8,15(s0)
 200e334:	c8804a03 	lbu	a7,18(s0)
 200e338:	c0805603 	lbu	a6,21(s0)
 200e33c:	ba460a03 	lbu	a5,386(s7)
 200e340:	b0c64603 	lbu	a4,401(s1)
 200e344:	a9860e03 	lbu	a3,387(s4)
 200e348:	81064a03 	lbu	v0,402(s2)
 200e34c:	00b62823 	sb	a9,10(s0)
 200e350:	00b43423 	sb	a8,13(s0)
 200e354:	00b24023 	sb	a7,16(s0)
 200e358:	00b04c23 	sb	a6,19(s0)
 200e35c:	1aaea823 	sb	a5,426(s8)
 200e360:	03b86123 	sw	a10,24(sp)
 200e364:	1a2cb023 	sb	a4,428(s6)
 200e368:	19eab823 	sb	a3,430(s5)
 200e36c:	1960c023 	sb	v0,432(s3)
 200e370:	03a25123 	sw	v1,20(sp)
 200e374:	03a48123 	sw	a0,32(sp)
 200e378:	03a64123 	sw	a1,16(sp)
 200e37c:	03a87123 	sw	a2,28(sp)
 200e380:	fffbe46f 	jal	200d310 <t5_taskB5_generic_KINDERSICHERUNG_CTRL>
 200e384:	a3807103 	lw	a2,28(sp)
 200e388:	9b804103 	lw	a1,16(sp)
 200e38c:	f8200a37 	lui	a13,0x4014
 200e390:	80200a37 	lui	v0,0x4014
 200e394:	0fc66a03 	lbu	ra,410(a13)
 200e398:	93808103 	lw	a0,32(sp)
 200e39c:	fc067603 	lbu	a13,413(v0)
 200e3a0:	8b805103 	lw	v1,20(sp)
 200e3a4:	f5079103 	lw	a12,484(a2)
 200e3a8:	a8200a37 	lui	a3,0x4014
 200e3ac:	ed465e03 	lbu	a11,407(a3)
 200e3b0:	dcc7a103 	lw	a9,488(a1)
 200e3b4:	d4869203 	lbu	a8,420(a0)
 200e3b8:	ac46a203 	lbu	a3,424(v1)
 200e3bc:	ca86aa03 	lbu	a7,426(s8)
 200e3c0:	c206b203 	lbu	a6,428(s6)
 200e3c4:	b9c6ba03 	lbu	a5,430(s5)
 200e3c8:	b146c203 	lbu	a4,432(s3)
 200e3cc:	83469e03 	lbu	v0,423(s11)
 200e3d0:	12fff423 	sb	a13,381(s9)
 200e3d4:	f8200a37 	lui	a13,0x4014
 200e3d8:	1ffd4123 	sw	a12,464(a13)
 200e3dc:	f8200a37 	lui	a13,0x4014
 200e3e0:	f0200a37 	lui	a12,0x4014
 200e3e4:	1fba3c23 	sb	a11,399(a12)
 200e3e8:	1ff75123 	sw	a9,468(a13)
 200e3ec:	e8200a37 	lui	a11,0x4014
 200e3f0:	d8200a37 	lui	a9,0x4014
 200e3f4:	f0200a37 	lui	a12,0x4014
 200e3f8:	1ef44023 	sb	a8,400(a9)
 200e3fc:	1f6a4c23 	sb	a3,403(a11)
 200e400:	1fa00023 	sb	v0,384(a12)
 200e404:	1303e823 	sb	ra,378(s10)
 200e408:	1a720823 	sb	a7,386(s7)
 200e40c:	18f04423 	sb	a6,401(s1)
 200e410:	19ae0c23 	sb	a5,387(s4)
 200e414:	192c4823 	sb	a4,402(s2)
 200e418:	fffc986f 	jal	200d678 <t5_taskB5_generic_FH_TUERMODUL_CTRL>
 200e41c:	a3807103 	lw	a2,28(sp)
 200e420:	9b804103 	lw	a1,16(sp)
 200e424:	f8200a37 	lui	a13,0x4014
 200e428:	80200a37 	lui	v0,0x4014
 200e42c:	0fc66a03 	lbu	ra,410(a13)
 200e430:	93808103 	lw	a0,32(sp)
 200e434:	fc067603 	lbu	a13,413(v0)
 200e438:	8b805103 	lw	v1,20(sp)
 200e43c:	f5079103 	lw	a12,484(a2)
 200e440:	a8200a37 	lui	a3,0x4014
 200e444:	ed465e03 	lbu	a11,407(a3)
 200e448:	dcc7a103 	lw	a9,488(a1)
 200e44c:	d4869203 	lbu	a8,420(a0)
 200e450:	ac46a203 	lbu	a3,424(v1)
 200e454:	ca86aa03 	lbu	a7,426(s8)
 200e458:	c206b203 	lbu	a6,428(s6)
 200e45c:	b9c6ba03 	lbu	a5,430(s5)
 200e460:	b146c203 	lbu	a4,432(s3)
 200e464:	83469e03 	lbu	v0,423(s11)
 200e468:	12fff423 	sb	a13,381(s9)
 200e46c:	f8200a37 	lui	a13,0x4014
 200e470:	1ffd4123 	sw	a12,464(a13)
 200e474:	f8200a37 	lui	a13,0x4014
 200e478:	f0200a37 	lui	a12,0x4014
 200e47c:	1fba3c23 	sb	a11,399(a12)
 200e480:	1ff75123 	sw	a9,468(a13)
 200e484:	e8200a37 	lui	a11,0x4014
 200e488:	d8200a37 	lui	a9,0x4014
 200e48c:	f0200a37 	lui	a12,0x4014
 200e490:	1ef44023 	sb	a8,400(a9)
 200e494:	1f6a4c23 	sb	a3,403(a11)
 200e498:	1fa00023 	sb	v0,384(a12)
 200e49c:	1303e823 	sb	ra,378(s10)
 200e4a0:	1a720823 	sb	a7,386(s7)
 200e4a4:	18f04423 	sb	a6,401(s1)
 200e4a8:	19ae0c23 	sb	a5,387(s4)
 200e4ac:	192c4823 	sb	a4,402(s2)
 200e4b0:	fffe716f 	jal	200de74 <t5_taskB5_generic_EINKLEMMSCHUTZ_CTRL>
 200e4b4:	a3807103 	lw	a2,28(sp)
 200e4b8:	9b804103 	lw	a1,16(sp)
 200e4bc:	f8200a37 	lui	a13,0x4014
 200e4c0:	80200a37 	lui	v0,0x4014
 200e4c4:	0fc66a03 	lbu	ra,410(a13)
 200e4c8:	93808103 	lw	a0,32(sp)
 200e4cc:	fc067603 	lbu	a13,413(v0)
 200e4d0:	8b805103 	lw	v1,20(sp)
 200e4d4:	f5079103 	lw	a12,484(a2)
 200e4d8:	a8200a37 	lui	a3,0x4014
 200e4dc:	ed465e03 	lbu	a11,407(a3)
 200e4e0:	dcc7a103 	lw	a9,488(a1)
 200e4e4:	d4869203 	lbu	a8,420(a0)
 200e4e8:	ac46a203 	lbu	a3,424(v1)
 200e4ec:	ca86aa03 	lbu	a7,426(s8)
 200e4f0:	c206b203 	lbu	a6,428(s6)
 200e4f4:	b9c6ba03 	lbu	a5,430(s5)
 200e4f8:	b146c203 	lbu	a4,432(s3)
 200e4fc:	83469e03 	lbu	v0,423(s11)
 200e500:	12fff423 	sb	a13,381(s9)
 200e504:	f8200a37 	lui	a13,0x4014
 200e508:	1ffd4123 	sw	a12,464(a13)
 200e50c:	f8200a37 	lui	a13,0x4014
 200e510:	f0200a37 	lui	a12,0x4014
 200e514:	1fba3c23 	sb	a11,399(a12)
 200e518:	1ff75123 	sw	a9,468(a13)
 200e51c:	e8200a37 	lui	a11,0x4014
 200e520:	d8200a37 	lui	a9,0x4014
 200e524:	f0200a37 	lui	a12,0x4014
 200e528:	1ef44023 	sb	a8,400(a9)
 200e52c:	1f6a4c23 	sb	a3,403(a11)
 200e530:	1fa00023 	sb	v0,384(a12)
 200e534:	1a720823 	sb	a7,386(s7)
 200e538:	18f04423 	sb	a6,401(s1)
 200e53c:	19ae0c23 	sb	a5,387(s4)
 200e540:	192c4823 	sb	a4,402(s2)
 200e544:	1303e823 	sb	ra,378(s10)
 200e548:	fffe776f 	jal	200df24 <t5_taskB5_generic_BLOCK_ERKENNUNG_CTRL>
 200e54c:	d0803403 	lb	a8,13(s0)
 200e550:	d8804003 	lb	a9,16(s0)
 200e554:	a3807103 	lw	a2,28(sp)
 200e558:	c8802803 	lb	a7,10(s0)
 200e55c:	f8200a37 	lui	a13,0x4014
 200e560:	afc65c03 	lb	a3,407(a13)
 200e564:	b286a803 	lb	a4,426(s8)
 200e568:	f8804c03 	lb	a13,19(s0)
 200e56c:	9b804103 	lw	a1,16(sp)
 200e570:	85079103 	lw	v0,484(a2)
 200e574:	ba06b003 	lb	a5,428(s6)
 200e578:	93808103 	lw	a0,32(sp)
 200e57c:	03b4b123 	sw	a8,44(sp)
 200e580:	03b6c123 	sw	a9,48(sp)
 200e584:	d0200a37 	lui	a8,0x4014
 200e588:	d8200a37 	lui	a9,0x4014
 200e58c:	03b2a123 	sw	a7,40(sp)
 200e590:	ce87f103 	lw	a7,508(a8)
 200e594:	d6c76103 	lw	a8,472(a9)
 200e598:	d8200a37 	lui	a9,0x4014
 200e59c:	03ace123 	sw	a4,56(sp)
 200e5a0:	03bed123 	sw	a13,52(sp)
 200e5a4:	b4c7a103 	lw	a4,488(a1)
 200e5a8:	fec70103 	lw	a13,448(a9)
 200e5ac:	d8200a37 	lui	a9,0x4014
 200e5b0:	03ae3123 	sw	a5,12(sp)
 200e5b4:	1ee14123 	sw	v0,464(a9)
 200e5b8:	bc869203 	lbu	a5,420(a0)
 200e5bc:	d8200a37 	lui	a9,0x4014
 200e5c0:	1eea3c23 	sb	a3,399(a9)
 200e5c4:	d8200a37 	lui	a9,0x4014
 200e5c8:	1eed5123 	sw	a4,468(a9)
 200e5cc:	8b805103 	lw	v1,20(sp)
 200e5d0:	b0200a37 	lui	a4,0x4014
 200e5d4:	1dae4023 	sb	a5,400(a4)
 200e5d8:	db803103 	lw	a9,12(sp)
 200e5dc:	bb80e103 	lw	a5,56(sp)
 200e5e0:	c446a203 	lbu	a6,424(v1)
 200e5e4:	e9c6b803 	lb	a11,430(s5)
 200e5e8:	f146c003 	lb	a12,432(s3)
 200e5ec:	1a6e0823 	sb	a5,386(s7)
 200e5f0:	18f64423 	sb	a9,401(s1)
 200e5f4:	bb80a103 	lw	a5,40(sp)
 200e5f8:	db80c103 	lw	a9,48(sp)
 200e5fc:	b0200a37 	lui	a4,0x4014
 200e600:	1db04c23 	sb	a6,403(a4)
 200e604:	c380b103 	lw	a6,44(sp)
 200e608:	00ae2c23 	sb	a5,11(s0)
 200e60c:	b8200a37 	lui	a5,0x4014
 200e610:	00b64423 	sb	a9,17(s0)
 200e614:	b380d103 	lw	a4,52(sp)
 200e618:	1df3d123 	sw	a7,500(a5)
 200e61c:	d8200a37 	lui	a9,0x4014
 200e620:	c8200a37 	lui	a7,0x4014
 200e624:	00b03823 	sb	a6,14(s0)
 200e628:	1e757123 	sw	a8,476(a7)
 200e62c:	1efee123 	sw	a13,440(a9)
 200e630:	c0200a37 	lui	a6,0x4014
 200e634:	d0200a37 	lui	a8,0x4014
 200e638:	f8200a37 	lui	a13,0x4014
 200e63c:	dfc69803 	lb	a9,422(a13)
 200e640:	1e218123 	sw	v0,480(a6)
 200e644:	1ea13123 	sw	v0,460(a8)
 200e648:	b8200a37 	lui	a5,0x4014
 200e64c:	80200a37 	lui	v0,0x4014
 200e650:	f8200a37 	lui	a13,0x4014
 200e654:	d4068803 	lb	a8,418(v0)
 200e658:	c5c67003 	lb	a6,412(a5)
 200e65c:	00ac5023 	sb	a4,20(s0)
 200e660:	bfc66403 	lb	a5,409(a13)
 200e664:	b0200a37 	lui	a4,0x4014
 200e668:	80200a37 	lui	v0,0x4014
 200e66c:	f8200a37 	lui	a13,0x4014
 200e670:	cd867c03 	lb	a7,415(a4)
 200e674:	b405fc03 	lb	a4,383(v0)
 200e678:	87c62803 	lb	v0,394(a13)
 200e67c:	f8200a37 	lui	a13,0x4014
 200e680:	ffc61e03 	lbu	a13,391(a13)
 200e684:	193c4823 	sb	a12,402(s2)
 200e688:	19ba0c23 	sb	a11,387(s4)
 200e68c:	03be9c23 	sb	a13,39(sp)
 200e690:	f8200a37 	lui	a13,0x4014
 200e694:	ffc61603 	lbu	a13,389(a13)
 200e698:	e3806103 	lw	a10,24(sp)
 200e69c:	03be9823 	sb	a13,38(sp)
 200e6a0:	f8200a37 	lui	a13,0x4014
 200e6a4:	ffc5f003 	lb	a13,380(a13)
 200e6a8:	03bef123 	sw	a13,60(sp)
 200e6ac:	f8200a37 	lui	a13,0x4014
 200e6b0:	1ffcbc23 	sb	a12,431(a13)
 200e6b4:	f0200a37 	lui	a12,0x4014
 200e6b8:	1fbab423 	sb	a11,429(a12)
 200e6bc:	eb803103 	lw	a11,12(sp)
 200e6c0:	f8200a37 	lui	a13,0x4014
 200e6c4:	f0200a37 	lui	a12,0x4014
 200e6c8:	1ffaac23 	sb	a11,427(a13)
 200e6cc:	fb80e103 	lw	a13,56(sp)
 200e6d0:	e8200a37 	lui	a11,0x4014
 200e6d4:	1f769423 	sb	a9,421(a11)
 200e6d8:	1fbea423 	sb	a13,425(a12)
 200e6dc:	f0200a37 	lui	a12,0x4014
 200e6e0:	f8200a37 	lui	a13,0x4014
 200e6e4:	1fb48c23 	sb	a8,419(a12)
 200e6e8:	1ff48423 	sb	a8,417(a13)
 200e6ec:	e8200a37 	lui	a11,0x4014
 200e6f0:	d0200a37 	lui	a8,0x4014
 200e6f4:	1b769c23 	sb	a9,423(s11)
 200e6f8:	d8200a37 	lui	a9,0x4014
 200e6fc:	1eb28023 	sb	a7,416(a8)
 200e700:	1ef27823 	sb	a7,414(a9)
 200e704:	1f707423 	sb	a6,413(a11)
 200e708:	c8200a37 	lui	a7,0x4014
 200e70c:	d0200a37 	lui	a8,0x4014
 200e710:	ef063603 	lbu	a11,397(a10)
 200e714:	f0200a37 	lui	a12,0x4014
 200e718:	1e6a5823 	sb	a3,406(a7)
 200e71c:	1eaa3823 	sb	a3,398(a8)
 200e720:	ab809e03 	lbu	a3,39(sp)
 200e724:	1fb06c23 	sb	a6,411(a12)
 200e728:	f8200a37 	lui	a13,0x4014
 200e72c:	c0200a37 	lui	a6,0x4014
 200e730:	d8200a37 	lui	a9,0x4014
 200e734:	f0200a37 	lui	a12,0x4014
 200e738:	1fee6823 	sb	a5,410(a13)
 200e73c:	1e2e6023 	sb	a5,408(a6)
 200e740:	1efa2c23 	sb	a11,395(a9)
 200e744:	f8200a37 	lui	a13,0x4014
 200e748:	1fa02023 	sb	v0,392(a12)
 200e74c:	c3809a03 	lbu	a6,38(sp)
 200e750:	c8200a37 	lui	a7,0x4014
 200e754:	d0200a37 	lui	a8,0x4014
 200e758:	e8200a37 	lui	a11,0x4014
 200e75c:	f0200a37 	lui	a12,0x4014
 200e760:	1fea1823 	sb	a3,390(a13)
 200e764:	db80f103 	lw	a9,60(sp)
 200e768:	af45e403 	lb	a3,377(a11)
 200e76c:	1e6c0023 	sb	a4,384(a7)
 200e770:	16adf823 	sb	a4,382(a8)
 200e774:	b785c403 	lb	a4,369(a12)
 200e778:	b8200a37 	lui	a5,0x4014
 200e77c:	1df01023 	sb	a6,388(a5)
 200e780:	f8200a37 	lui	a13,0x4014
 200e784:	b8200a37 	lui	a5,0x4014
 200e788:	12f7f423 	sb	a9,381(s9)
 200e78c:	17f7ec23 	sb	a9,379(a13)
 200e790:	132be823 	sb	a3,378(s10)
 200e794:	15ebe023 	sb	a3,376(a5)
 200e798:	0d8000e3 	bnez	a4,200e898 <t5_taskB5_FH_DU+0x774>
 200e79c:	c4000013 	move	a6,v0
 200e7a0:	d0200a37 	lui	a8,0x4014
 200e7a4:	be85c203 	lbu	a5,368(a8)
 200e7a8:	d8200a37 	lui	a9,0x4014
 200e7ac:	aec58c03 	lb	a3,355(a9)
 200e7b0:	b0000413 	li	a4,1
 200e7b4:	bdc00413 	add	a5,a5,1
 200e7b8:	e8200a37 	lui	a11,0x4014
 200e7bc:	f0000813 	li	a12,2
 200e7c0:	176dc423 	sb	a4,369(a11)
 200e7c4:	16afc023 	sb	a5,368(a8)
 200e7c8:	d57c48e3 	bne	a3,a12,200e1ec <t5_taskB5_FH_DU+0xc8>
 200e7cc:	aac5f403 	lb	a3,381(s9)
 200e7d0:	05412063 	beqz	a3,200e860 <t5_taskB5_FH_DU+0x73c>
 200e7d4:	d0200a37 	lui	a8,0x4014
 200e7d8:	ae85ec03 	lb	a3,379(a8)
 200e7dc:	054108e3 	bnez	a3,200e860 <t5_taskB5_FH_DU+0x73c>
 200e7e0:	d8200a37 	lui	a9,0x4014
 200e7e4:	a83e7013 	li	a3,-100
 200e7e8:	e8200a37 	lui	a11,0x4014
 200e7ec:	f0200a37 	lui	a12,0x4014
 200e7f0:	16c1c423 	sb	zero,369(a9)
 200e7f4:	1f6b7123 	sw	a3,476(a11)
 200e7f8:	17ad8c23 	sb	a4,355(a12)
 200e7fc:	fffe8767 	j	200e218 <t5_taskB5_FH_DU+0xf4>
 200e800:	ab05e803 	lb	a3,378(s10)
 200e804:	d54028e3 	bnez	a3,200e218 <t5_taskB5_FH_DU+0xf4>
 200e808:	c8200a37 	lui	a7,0x4014
 200e80c:	ae45e003 	lb	a3,376(a7)
 200e810:	d5401063 	beqz	a3,200e218 <t5_taskB5_FH_DU+0xf4>
 200e814:	d0200a37 	lui	a8,0x4014
 200e818:	d8200a37 	lui	a9,0x4014
 200e81c:	f0000813 	li	a12,2
 200e820:	e8200a37 	lui	a11,0x4014
 200e824:	1681c423 	sb	zero,369(a8)
 200e828:	1ec17123 	sw	zero,476(a9)
 200e82c:	177d8c23 	sb	a12,355(a11)
 200e830:	fffe7a67 	j	200e218 <t5_taskB5_FH_DU+0xf4>
 200e834:	aac5f403 	lb	a3,381(s9)
 200e838:	cd41c0e3 	bnez	a3,200e218 <t5_taskB5_FH_DU+0xf4>
 200e83c:	f8200a37 	lui	a13,0x4014
 200e840:	afc5ec03 	lb	a3,379(a13)
 200e844:	cd41a863 	beqz	a3,200e218 <t5_taskB5_FH_DU+0xf4>
 200e848:	b0200a37 	lui	a4,0x4014
 200e84c:	c8000813 	li	a7,2
 200e850:	1741c423 	sb	zero,369(a11)
 200e854:	1d817123 	sw	zero,476(a4)
 200e858:	16f38c23 	sb	a7,355(a9)
 200e85c:	fffe6f67 	j	200e218 <t5_taskB5_FH_DU+0xf4>
 200e860:	ab05e803 	lb	a3,378(s10)
 200e864:	cd416863 	beqz	a3,200e218 <t5_taskB5_FH_DU+0xf4>
 200e868:	f8200a37 	lui	a13,0x4014
 200e86c:	afc5e003 	lb	a3,376(a13)
 200e870:	cd4150e3 	bnez	a3,200e218 <t5_taskB5_FH_DU+0xf4>
 200e874:	a8200a37 	lui	a3,0x4014
 200e878:	1541c423 	sb	zero,369(a3)
 200e87c:	b0200a37 	lui	a4,0x4014
 200e880:	a8019013 	li	a3,100
 200e884:	1dab7123 	sw	a3,476(a4)
 200e888:	b8200a37 	lui	a5,0x4014
 200e88c:	a8000c13 	li	a3,3
 200e890:	15eb8c23 	sb	a3,355(a5)
 200e894:	fffe6167 	j	200e218 <t5_taskB5_FH_DU+0xf4>
 200e898:	0b81d103 	lw	ra,116(sp)
 200e89c:	1381c103 	lw	s0,112(sp)
 200e8a0:	1b81b103 	lw	s1,108(sp)
 200e8a4:	2381a103 	lw	s2,104(sp)
 200e8a8:	2b819103 	lw	s3,100(sp)
 200e8ac:	33818103 	lw	s4,96(sp)
 200e8b0:	3b817103 	lw	s5,92(sp)
 200e8b4:	43816103 	lw	s6,88(sp)
 200e8b8:	4b815103 	lw	s7,84(sp)
 200e8bc:	53814103 	lw	s8,80(sp)
 200e8c0:	5b813103 	lw	s9,76(sp)
 200e8c4:	63812103 	lw	s10,72(sp)
 200e8c8:	6b811103 	lw	s11,68(sp)
 200e8cc:	7381e013 	add	sp,sp,120
 200e8d0:	004000eb 	ret

0200e8d4 <t5_taskB5_main>:
 200e8d4:	73bfe013 	add	sp,sp,-8
 200e8d8:	03840123 	sw	s0,0(sp)
 200e8dc:	03821123 	sw	ra,4(sp)
 200e8e0:	10059013 	li	s0,356
 200e8e4:	10bffc13 	add	s0,s0,-1
 200e8e8:	fffa636f 	jal	200d274 <t5_taskB5_init>
 200e8ec:	fffa006f 	jal	200d0ec <t5_taskB5_interface>
 200e8f0:	fffe0d6f 	jal	200e124 <t5_taskB5_FH_DU>
 200e8f4:	f881e0e3 	bnez	s0,200e8e4 <t5_taskB5_main+0x10>
 200e8f8:	0b801103 	lw	ra,4(sp)
 200e8fc:	80000013 	li	v0,0
 200e900:	13800103 	lw	s0,0(sp)
 200e904:	73802013 	add	sp,sp,8
 200e908:	004000eb 	ret

0200e90c <t5_taskB6_interface>:
 200e90c:	80200a37 	lui	v0,0x4014
 200e910:	8c0c4013 	add	v1,v0,784
 200e914:	94401003 	lb	a0,4(v1)
 200e918:	0c805063 	beqz	a0,200ea40 <t5_taskB6_interface+0x134>
 200e91c:	88200a37 	lui	v1,0x4014
 200e920:	8c49b103 	lw	v1,620(v1)
 200e924:	90200a37 	lui	a0,0x4014
 200e928:	34a21123 	sw	v1,772(a0)
 200e92c:	90200a37 	lui	a0,0x4014
 200e930:	34a22123 	sw	v1,776(a0)
 200e934:	90200a37 	lui	a0,0x4014
 200e938:	8c8c0103 	lw	v1,768(a0)
 200e93c:	04404863 	beqz	v1,200e960 <t5_taskB6_interface+0x54>
 200e940:	98200a37 	lui	a1,0x4014
 200e944:	9cc9b103 	lw	a1,620(a1)
 200e948:	8ce30033 	sub	v1,a1,v1
 200e94c:	8c40f0d3 	fcvt.d.wu	fv1,v1
 200e950:	88200037 	lui	v1,0x4000
 200e954:	84400187 	fld	fv0,0(v1)
 200e958:	8c2370d3 	fle.d	v1,fv0,fv1
 200e95c:	0c4050e3 	bnez	v1,200ea84 <t5_taskB6_interface+0x178>
 200e960:	90200a37 	lui	a0,0x4014
 200e964:	8c8bf103 	lw	v1,764(a0)
 200e968:	04404863 	beqz	v1,200e98c <t5_taskB6_interface+0x80>
 200e96c:	98200a37 	lui	a1,0x4014
 200e970:	9cc9b103 	lw	a1,620(a1)
 200e974:	8ce30033 	sub	v1,a1,v1
 200e978:	8c40f0d3 	fcvt.d.wu	fv1,v1
 200e97c:	88200037 	lui	v1,0x4000
 200e980:	84400187 	fld	fv0,0(v1)
 200e984:	8c2370d3 	fle.d	v1,fv0,fv1
 200e988:	0441d8e3 	bnez	v1,200ea74 <t5_taskB6_interface+0x168>
 200e98c:	90200a37 	lui	a0,0x4014
 200e990:	8c8be103 	lw	v1,760(a0)
 200e994:	04404863 	beqz	v1,200e9b8 <t5_taskB6_interface+0xac>
 200e998:	98200a37 	lui	a1,0x4014
 200e99c:	9cc9b103 	lw	a1,620(a1)
 200e9a0:	8ce30033 	sub	v1,a1,v1
 200e9a4:	8c40f0d3 	fcvt.d.wu	fv1,v1
 200e9a8:	88200037 	lui	v1,0x4000
 200e9ac:	84400187 	fld	fv0,0(v1)
 200e9b0:	8c2370d3 	fle.d	v1,fv0,fv1
 200e9b4:	044160e3 	bnez	v1,200ea64 <t5_taskB6_interface+0x158>
 200e9b8:	90200a37 	lui	a0,0x4014
 200e9bc:	8c8ba103 	lw	v1,744(a0)
 200e9c0:	04404863 	beqz	v1,200e9e4 <t5_taskB6_interface+0xd8>
 200e9c4:	98200a37 	lui	a1,0x4014
 200e9c8:	9cc9b103 	lw	a1,620(a1)
 200e9cc:	8ce30033 	sub	v1,a1,v1
 200e9d0:	8c40f0d3 	fcvt.d.wu	fv1,v1
 200e9d4:	88200037 	lui	v1,0x4000
 200e9d8:	84400187 	fld	fv0,0(v1)
 200e9dc:	8c2370d3 	fle.d	v1,fv0,fv1
 200e9e0:	0440f8e3 	bnez	v1,200ea5c <t5_taskB6_interface+0x150>
 200e9e4:	90200a37 	lui	a0,0x4014
 200e9e8:	8c8b9103 	lw	v1,740(a0)
 200e9ec:	04404863 	beqz	v1,200ea10 <t5_taskB6_interface+0x104>
 200e9f0:	98200a37 	lui	a1,0x4014
 200e9f4:	9cc9b103 	lw	a1,620(a1)
 200e9f8:	8ce30033 	sub	v1,a1,v1
 200e9fc:	8c40f0d3 	fcvt.d.wu	fv1,v1
 200ea00:	88200037 	lui	v1,0x4000
 200ea04:	84400187 	fld	fv0,0(v1)
 200ea08:	8c2370d3 	fle.d	v1,fv0,fv1
 200ea0c:	044090e3 	bnez	v1,200ea54 <t5_taskB6_interface+0x148>
 200ea10:	840c4003 	lb	v0,784(v0)
 200ea14:	040030e3 	bnez	v0,200ea2c <t5_taskB6_interface+0x120>
 200ea18:	80200a37 	lui	v0,0x4014
 200ea1c:	8c0ae103 	lw	v1,696(v0)
 200ea20:	80200a37 	lui	v0,0x4014
 200ea24:	840ac103 	lw	v0,688(v0)
 200ea28:	04602863 	beq	v1,v0,200ea3c <t5_taskB6_interface+0x130>
 200ea2c:	80200a37 	lui	v0,0x4014
 200ea30:	8c09b103 	lw	v1,620(v0)
 200ea34:	80200a37 	lui	v0,0x4014
 200ea38:	34223123 	sw	v1,780(v0)
 200ea3c:	004000eb 	ret
 200ea40:	8c401803 	lb	v1,6(v1)
 200ea44:	f441e063 	beqz	v1,200e934 <t5_taskB6_interface+0x28>
 200ea48:	88200a37 	lui	v1,0x4014
 200ea4c:	8c49b103 	lw	v1,620(v1)
 200ea50:	ffffb767 	j	200e92c <t5_taskB6_interface+0x20>
 200ea54:	2c819123 	sw	zero,740(a0)
 200ea58:	ffffee67 	j	200ea10 <t5_taskB6_interface+0x104>
 200ea5c:	2c81a123 	sw	zero,744(a0)
 200ea60:	ffffe167 	j	200e9e4 <t5_taskB6_interface+0xd8>
 200ea64:	88200a37 	lui	v1,0x4014
 200ea68:	2c405023 	sb	zero,660(v1)
 200ea6c:	2c81e123 	sw	zero,760(a0)
 200ea70:	ffffd267 	j	200e9b8 <t5_taskB6_interface+0xac>
 200ea74:	88200a37 	lui	v1,0x4014
 200ea78:	2c405023 	sb	zero,660(v1)
 200ea7c:	2c81f123 	sw	zero,764(a0)
 200ea80:	ffffc367 	j	200e98c <t5_taskB6_interface+0x80>
 200ea84:	88200a37 	lui	v1,0x4014
 200ea88:	2c404423 	sb	zero,657(v1)
 200ea8c:	34800123 	sw	zero,768(a0)
 200ea90:	ffffb467 	j	200e960 <t5_taskB6_interface+0x54>

0200ea94 <t5_taskB6_init>:
 200ea94:	80200a37 	lui	v0,0x4014
 200ea98:	34003123 	sw	zero,780(v0)
 200ea9c:	80200a37 	lui	v0,0x4014
 200eaa0:	34002123 	sw	zero,776(v0)
 200eaa4:	80200a37 	lui	v0,0x4014
 200eaa8:	34001123 	sw	zero,772(v0)
 200eaac:	80200a37 	lui	v0,0x4014
 200eab0:	24019c23 	sb	zero,615(v0)
 200eab4:	80200a37 	lui	v0,0x4014
 200eab8:	24019823 	sb	zero,614(v0)
 200eabc:	80200a37 	lui	v0,0x4014
 200eac0:	24019423 	sb	zero,613(v0)
 200eac4:	80200a37 	lui	v0,0x4014
 200eac8:	24019023 	sb	zero,612(v0)
 200eacc:	80200a37 	lui	v0,0x4014
 200ead0:	24018c23 	sb	zero,611(v0)
 200ead4:	80200a37 	lui	v0,0x4014
 200ead8:	24018823 	sb	zero,610(v0)
 200eadc:	80200a37 	lui	v0,0x4014
 200eae0:	24018423 	sb	zero,609(v0)
 200eae4:	80200a37 	lui	v0,0x4014
 200eae8:	24018023 	sb	zero,608(v0)
 200eaec:	80200a37 	lui	v0,0x4014
 200eaf0:	24017c23 	sb	zero,607(v0)
 200eaf4:	80200a37 	lui	v0,0x4014
 200eaf8:	24017823 	sb	zero,606(v0)
 200eafc:	80200a37 	lui	v0,0x4014
 200eb00:	24017423 	sb	zero,605(v0)
 200eb04:	80200a37 	lui	v0,0x4014
 200eb08:	24017023 	sb	zero,604(v0)
 200eb0c:	80200a37 	lui	v0,0x4014
 200eb10:	24016c23 	sb	zero,603(v0)
 200eb14:	80200a37 	lui	v0,0x4014
 200eb18:	24016823 	sb	zero,602(v0)
 200eb1c:	80200a37 	lui	v0,0x4014
 200eb20:	24016423 	sb	zero,601(v0)
 200eb24:	80200a37 	lui	v0,0x4014
 200eb28:	24016023 	sb	zero,600(v0)
 200eb2c:	004000eb 	ret

0200eb30 <t5_taskB6_generic_KINDERSICHERUNG_CTRL>:
 200eb30:	80200a37 	lui	v0,0x4014
 200eb34:	840c6803 	lb	v0,794(v0)
 200eb38:	04006063 	beqz	v0,200eb68 <t5_taskB6_generic_KINDERSICHERUNG_CTRL+0x38>
 200eb3c:	88200a37 	lui	v1,0x4014
 200eb40:	84499003 	lb	v0,612(v1)
 200eb44:	90000813 	li	a0,2
 200eb48:	04244863 	beq	v0,a0,200eb6c <t5_taskB6_generic_KINDERSICHERUNG_CTRL+0x3c>
 200eb4c:	98000c13 	li	a1,3
 200eb50:	0427a863 	beq	v0,a1,200ec24 <t5_taskB6_generic_KINDERSICHERUNG_CTRL+0xf4>
 200eb54:	90000413 	li	a0,1
 200eb58:	04249063 	beq	v0,a0,200eba0 <t5_taskB6_generic_KINDERSICHERUNG_CTRL+0x70>
 200eb5c:	80200a37 	lui	v0,0x4014
 200eb60:	2401a423 	sb	zero,617(v0)
 200eb64:	24679023 	sb	a1,612(v1)
 200eb68:	004000eb 	ret
 200eb6c:	80200a37 	lui	v0,0x4014
 200eb70:	840a8803 	lb	v0,674(v0)
 200eb74:	040020e3 	bnez	v0,200eb84 <t5_taskB6_generic_KINDERSICHERUNG_CTRL+0x54>
 200eb78:	90200a37 	lui	a0,0x4014
 200eb7c:	948a9803 	lb	a0,678(a0)
 200eb80:	1480d863 	beqz	a0,200edec <t5_taskB6_generic_KINDERSICHERUNG_CTRL+0x2bc>
 200eb84:	88200a37 	lui	v1,0x4014
 200eb88:	94499403 	lb	a0,613(v1)
 200eb8c:	98000413 	li	a1,1
 200eb90:	0ca61863 	beq	a0,a1,200ec9c <t5_taskB6_generic_KINDERSICHERUNG_CTRL+0x16c>
 200eb94:	80200a37 	lui	v0,0x4014
 200eb98:	2401a423 	sb	zero,617(v0)
 200eb9c:	004000eb 	ret
 200eba0:	80200a37 	lui	v0,0x4014
 200eba4:	840a9003 	lb	v0,676(v0)
 200eba8:	040020e3 	bnez	v0,200ebb8 <t5_taskB6_generic_KINDERSICHERUNG_CTRL+0x88>
 200ebac:	90200a37 	lui	a0,0x4014
 200ebb0:	948aa003 	lb	a0,680(a0)
 200ebb4:	14802063 	beqz	a0,200edc4 <t5_taskB6_generic_KINDERSICHERUNG_CTRL+0x294>
 200ebb8:	88200a37 	lui	v1,0x4014
 200ebbc:	94499803 	lb	a0,614(v1)
 200ebc0:	98000413 	li	a1,1
 200ebc4:	fca7a0e3 	bne	a0,a1,200eb94 <t5_taskB6_generic_KINDERSICHERUNG_CTRL+0x64>
 200ebc8:	04005063 	beqz	v0,200ebf0 <t5_taskB6_generic_KINDERSICHERUNG_CTRL+0xc0>
 200ebcc:	98200a37 	lui	a1,0x4014
 200ebd0:	9cca8c03 	lb	a1,675(a1)
 200ebd4:	04c038e3 	bnez	a1,200ebf0 <t5_taskB6_generic_KINDERSICHERUNG_CTRL+0xc0>
 200ebd8:	80200a37 	lui	v0,0x4014
 200ebdc:	2401a423 	sb	zero,617(v0)
 200ebe0:	80200a37 	lui	v0,0x4014
 200ebe4:	2c245c23 	sb	a0,663(v0)
 200ebe8:	24659823 	sb	a0,614(v1)
 200ebec:	004000eb 	ret
 200ebf0:	90200a37 	lui	a0,0x4014
 200ebf4:	948aa003 	lb	a0,680(a0)
 200ebf8:	0c80a863 	beqz	a0,200ed4c <t5_taskB6_generic_KINDERSICHERUNG_CTRL+0x21c>
 200ebfc:	98200a37 	lui	a1,0x4014
 200ec00:	9cca9c03 	lb	a1,679(a1)
 200ec04:	0cc090e3 	bnez	a1,200ed4c <t5_taskB6_generic_KINDERSICHERUNG_CTRL+0x21c>
 200ec08:	90200a37 	lui	a0,0x4014
 200ec0c:	80000413 	li	v0,1
 200ec10:	2481a423 	sb	zero,617(a0)
 200ec14:	90200a37 	lui	a0,0x4014
 200ec18:	2ca06823 	sb	v0,666(a0)
 200ec1c:	24619823 	sb	v0,614(v1)
 200ec20:	004000eb 	ret
 200ec24:	80200a37 	lui	v0,0x4014
 200ec28:	840a8003 	lb	v0,672(v0)
 200ec2c:	040070e3 	bnez	v0,200ec64 <t5_taskB6_generic_KINDERSICHERUNG_CTRL+0x134>
 200ec30:	98200a37 	lui	a1,0x4014
 200ec34:	9cca9803 	lb	a1,678(a1)
 200ec38:	04c1d863 	beqz	a1,200ed24 <t5_taskB6_generic_KINDERSICHERUNG_CTRL+0x1f4>
 200ec3c:	80200a37 	lui	v0,0x4014
 200ec40:	840a8803 	lb	v0,674(v0)
 200ec44:	140060e3 	bnez	v0,200ee74 <t5_taskB6_generic_KINDERSICHERUNG_CTRL+0x344>
 200ec48:	80200a37 	lui	v0,0x4014
 200ec4c:	2401a423 	sb	zero,617(v0)
 200ec50:	98000413 	li	a1,1
 200ec54:	80200a37 	lui	v0,0x4014
 200ec58:	2c266823 	sb	a1,666(v0)
 200ec5c:	24659023 	sb	a0,612(v1)
 200ec60:	004000eb 	ret
 200ec64:	90200a37 	lui	a0,0x4014
 200ec68:	948aa003 	lb	a0,680(a0)
 200ec6c:	048118e3 	bnez	a0,200ecf8 <t5_taskB6_generic_KINDERSICHERUNG_CTRL+0x1c8>
 200ec70:	90200a37 	lui	a0,0x4014
 200ec74:	948a9003 	lb	a0,676(a0)
 200ec78:	f481e063 	beqz	a0,200eb68 <t5_taskB6_generic_KINDERSICHERUNG_CTRL+0x38>
 200ec7c:	f401d8e3 	bnez	v0,200eb68 <t5_taskB6_generic_KINDERSICHERUNG_CTRL+0x38>
 200ec80:	90200a37 	lui	a0,0x4014
 200ec84:	80000413 	li	v0,1
 200ec88:	2481a423 	sb	zero,617(a0)
 200ec8c:	90200a37 	lui	a0,0x4014
 200ec90:	2ca05c23 	sb	v0,663(a0)
 200ec94:	24619023 	sb	v0,612(v1)
 200ec98:	004000eb 	ret
 200ec9c:	04005063 	beqz	v0,200ecc4 <t5_taskB6_generic_KINDERSICHERUNG_CTRL+0x194>
 200eca0:	98200a37 	lui	a1,0x4014
 200eca4:	9cca8403 	lb	a1,673(a1)
 200eca8:	04c038e3 	bnez	a1,200ecc4 <t5_taskB6_generic_KINDERSICHERUNG_CTRL+0x194>
 200ecac:	80200a37 	lui	v0,0x4014
 200ecb0:	2401a423 	sb	zero,617(v0)
 200ecb4:	80200a37 	lui	v0,0x4014
 200ecb8:	2c245c23 	sb	a0,663(v0)
 200ecbc:	24659423 	sb	a0,613(v1)
 200ecc0:	004000eb 	ret
 200ecc4:	90200a37 	lui	a0,0x4014
 200ecc8:	948a9803 	lb	a0,678(a0)
 200eccc:	04817863 	beqz	a0,200ed88 <t5_taskB6_generic_KINDERSICHERUNG_CTRL+0x258>
 200ecd0:	98200a37 	lui	a1,0x4014
 200ecd4:	9cca9403 	lb	a1,677(a1)
 200ecd8:	04c160e3 	bnez	a1,200ed88 <t5_taskB6_generic_KINDERSICHERUNG_CTRL+0x258>
 200ecdc:	90200a37 	lui	a0,0x4014
 200ece0:	80000413 	li	v0,1
 200ece4:	2481a423 	sb	zero,617(a0)
 200ece8:	90200a37 	lui	a0,0x4014
 200ecec:	2ca06823 	sb	v0,666(a0)
 200ecf0:	24619423 	sb	v0,613(v1)
 200ecf4:	004000eb 	ret
 200ecf8:	90200a37 	lui	a0,0x4014
 200ecfc:	948a9003 	lb	a0,676(a0)
 200ed00:	0c8030e3 	bnez	a0,200ee18 <t5_taskB6_generic_KINDERSICHERUNG_CTRL+0x2e8>
 200ed04:	f400c8e3 	bnez	v0,200eb68 <t5_taskB6_generic_KINDERSICHERUNG_CTRL+0x38>
 200ed08:	90200a37 	lui	a0,0x4014
 200ed0c:	80000413 	li	v0,1
 200ed10:	2481a423 	sb	zero,617(a0)
 200ed14:	90200a37 	lui	a0,0x4014
 200ed18:	2ca06823 	sb	v0,666(a0)
 200ed1c:	24619023 	sb	v0,612(v1)
 200ed20:	004000eb 	ret
 200ed24:	98200a37 	lui	a1,0x4014
 200ed28:	9cca8803 	lb	a1,674(a1)
 200ed2c:	fcc07063 	beqz	a1,200ec64 <t5_taskB6_generic_KINDERSICHERUNG_CTRL+0x134>
 200ed30:	80200a37 	lui	v0,0x4014
 200ed34:	2401a423 	sb	zero,617(v0)
 200ed38:	98000413 	li	a1,1
 200ed3c:	80200a37 	lui	v0,0x4014
 200ed40:	2c265c23 	sb	a1,663(v0)
 200ed44:	24659023 	sb	a0,612(v1)
 200ed48:	004000eb 	ret
 200ed4c:	040020e3 	bnez	v0,200ed5c <t5_taskB6_generic_KINDERSICHERUNG_CTRL+0x22c>
 200ed50:	80200a37 	lui	v0,0x4014
 200ed54:	840a8c03 	lb	v0,675(v0)
 200ed58:	0401c8e3 	bnez	v0,200ee3c <t5_taskB6_generic_KINDERSICHERUNG_CTRL+0x30c>
 200ed5c:	f48018e3 	bnez	a0,200eb68 <t5_taskB6_generic_KINDERSICHERUNG_CTRL+0x38>
 200ed60:	80200a37 	lui	v0,0x4014
 200ed64:	840a9c03 	lb	v0,679(v0)
 200ed68:	f4000063 	beqz	v0,200eb68 <t5_taskB6_generic_KINDERSICHERUNG_CTRL+0x38>
 200ed6c:	80200a37 	lui	v0,0x4014
 200ed70:	2401a423 	sb	zero,617(v0)
 200ed74:	80200a37 	lui	v0,0x4014
 200ed78:	2c006823 	sb	zero,666(v0)
 200ed7c:	80000413 	li	v0,1
 200ed80:	24619823 	sb	v0,614(v1)
 200ed84:	004000eb 	ret
 200ed88:	040020e3 	bnez	v0,200ed98 <t5_taskB6_generic_KINDERSICHERUNG_CTRL+0x268>
 200ed8c:	80200a37 	lui	v0,0x4014
 200ed90:	840a8403 	lb	v0,673(v0)
 200ed94:	040188e3 	bnez	v0,200ee58 <t5_taskB6_generic_KINDERSICHERUNG_CTRL+0x328>
 200ed98:	ec81a0e3 	bnez	a0,200eb68 <t5_taskB6_generic_KINDERSICHERUNG_CTRL+0x38>
 200ed9c:	80200a37 	lui	v0,0x4014
 200eda0:	840a9403 	lb	v0,677(v0)
 200eda4:	ec018863 	beqz	v0,200eb68 <t5_taskB6_generic_KINDERSICHERUNG_CTRL+0x38>
 200eda8:	80200a37 	lui	v0,0x4014
 200edac:	2401a423 	sb	zero,617(v0)
 200edb0:	80200a37 	lui	v0,0x4014
 200edb4:	2c006823 	sb	zero,666(v0)
 200edb8:	80000413 	li	v0,1
 200edbc:	24619423 	sb	v0,613(v1)
 200edc0:	004000eb 	ret
 200edc4:	80200a37 	lui	v0,0x4014
 200edc8:	2401a423 	sb	zero,617(v0)
 200edcc:	80200a37 	lui	v0,0x4014
 200edd0:	2c006823 	sb	zero,666(v0)
 200edd4:	80200a37 	lui	v0,0x4014
 200edd8:	2c005c23 	sb	zero,663(v0)
 200eddc:	80200a37 	lui	v0,0x4014
 200ede0:	24679023 	sb	a1,612(v1)
 200ede4:	24019823 	sb	zero,614(v0)
 200ede8:	004000eb 	ret
 200edec:	80200a37 	lui	v0,0x4014
 200edf0:	2401a423 	sb	zero,617(v0)
 200edf4:	80200a37 	lui	v0,0x4014
 200edf8:	2c006823 	sb	zero,666(v0)
 200edfc:	80200a37 	lui	v0,0x4014
 200ee00:	2c005c23 	sb	zero,663(v0)
 200ee04:	80000c13 	li	v0,3
 200ee08:	24619023 	sb	v0,612(v1)
 200ee0c:	80200a37 	lui	v0,0x4014
 200ee10:	24019423 	sb	zero,613(v0)
 200ee14:	004000eb 	ret
 200ee18:	90200a37 	lui	a0,0x4014
 200ee1c:	80000413 	li	v0,1
 200ee20:	2481a423 	sb	zero,617(a0)
 200ee24:	90200a37 	lui	a0,0x4014
 200ee28:	2ca05c23 	sb	v0,663(a0)
 200ee2c:	90200a37 	lui	a0,0x4014
 200ee30:	2ca06823 	sb	v0,666(a0)
 200ee34:	24619023 	sb	v0,612(v1)
 200ee38:	004000eb 	ret
 200ee3c:	80200a37 	lui	v0,0x4014
 200ee40:	2401a423 	sb	zero,617(v0)
 200ee44:	80200a37 	lui	v0,0x4014
 200ee48:	2c005c23 	sb	zero,663(v0)
 200ee4c:	80000413 	li	v0,1
 200ee50:	24619823 	sb	v0,614(v1)
 200ee54:	004000eb 	ret
 200ee58:	80200a37 	lui	v0,0x4014
 200ee5c:	2401a423 	sb	zero,617(v0)
 200ee60:	80200a37 	lui	v0,0x4014
 200ee64:	2c005c23 	sb	zero,663(v0)
 200ee68:	80000413 	li	v0,1
 200ee6c:	24619423 	sb	v0,613(v1)
 200ee70:	004000eb 	ret
 200ee74:	98200a37 	lui	a1,0x4014
 200ee78:	80000413 	li	v0,1
 200ee7c:	24c1a423 	sb	zero,617(a1)
 200ee80:	98200a37 	lui	a1,0x4014
 200ee84:	2ce06823 	sb	v0,666(a1)
 200ee88:	98200a37 	lui	a1,0x4014
 200ee8c:	2ce05c23 	sb	v0,663(a1)
 200ee90:	24659023 	sb	a0,612(v1)
 200ee94:	004000eb 	ret

0200ee98 <t5_taskB6_generic_FH_TUERMODUL_CTRL>:
 200ee98:	80200a37 	lui	v0,0x4014
 200ee9c:	840c4013 	add	v0,v0,784
 200eea0:	8c003403 	lb	v1,13(v0)
 200eea4:	044048e3 	bnez	v1,200eec8 <t5_taskB6_generic_FH_TUERMODUL_CTRL+0x30>
 200eea8:	8c003c03 	lb	v1,15(v0)
 200eeac:	04403063 	beqz	v1,200eec4 <t5_taskB6_generic_FH_TUERMODUL_CTRL+0x2c>
 200eeb0:	8c003803 	lb	v1,14(v0)
 200eeb4:	044020e3 	bnez	v1,200eec4 <t5_taskB6_generic_FH_TUERMODUL_CTRL+0x2c>
 200eeb8:	04001023 	sb	zero,4(v0)
 200eebc:	04001823 	sb	zero,6(v0)
 200eec0:	004000eb 	ret
 200eec4:	004000eb 	ret
 200eec8:	8c002803 	lb	v1,10(v0)
 200eecc:	044020e3 	bnez	v1,200eedc <t5_taskB6_generic_FH_TUERMODUL_CTRL+0x44>
 200eed0:	90000c13 	li	a0,3
 200eed4:	88200a37 	lui	v1,0x4014
 200eed8:	24659023 	sb	a0,612(v1)
 200eedc:	8c004c03 	lb	v1,19(v0)
 200eee0:	044030e3 	bnez	v1,200eef8 <t5_taskB6_generic_FH_TUERMODUL_CTRL+0x60>
 200eee4:	88200a37 	lui	v1,0x4014
 200eee8:	34404023 	sb	zero,784(v1)
 200eeec:	90000413 	li	a0,1
 200eef0:	88200a37 	lui	v1,0x4014
 200eef4:	24656023 	sb	a0,600(v1)
 200eef8:	98200a37 	lui	a1,0x4014
 200eefc:	8cc98c03 	lb	v1,611(a1)
 200ef00:	90000413 	li	a0,1
 200ef04:	a0000813 	li	a2,2
 200ef08:	04242c23 	sb	a0,11(v0)
 200ef0c:	04245023 	sb	a0,20(v0)
 200ef10:	04693863 	beq	v1,a2,200efac <t5_taskB6_generic_FH_TUERMODUL_CTRL+0x114>
 200ef14:	a8000c13 	li	a3,3
 200ef18:	0c6a2063 	beq	v1,a3,200f028 <t5_taskB6_generic_FH_TUERMODUL_CTRL+0x190>
 200ef1c:	90000413 	li	a0,1
 200ef20:	0465a863 	beq	v1,a0,200eff4 <t5_taskB6_generic_FH_TUERMODUL_CTRL+0x15c>
 200ef24:	88200a37 	lui	v1,0x4014
 200ef28:	2441a423 	sb	zero,617(v1)
 200ef2c:	24e98c23 	sb	a2,611(a1)
 200ef30:	90200a37 	lui	a0,0x4014
 200ef34:	9c898803 	lb	a1,610(a0)
 200ef38:	88000413 	li	v1,1
 200ef3c:	04e26863 	beq	a1,v1,200ef70 <t5_taskB6_generic_FH_TUERMODUL_CTRL+0xd8>
 200ef40:	98200a37 	lui	a1,0x4014
 200ef44:	24c1a423 	sb	zero,617(a1)
 200ef48:	24a38823 	sb	v1,610(a0)
 200ef4c:	98200a37 	lui	a1,0x4014
 200ef50:	90200a37 	lui	a0,0x4014
 200ef54:	2cc1d123 	sw	zero,756(a1)
 200ef58:	24a38423 	sb	v1,609(a0)
 200ef5c:	94001203 	lbu	a0,4(v0)
 200ef60:	8c001a03 	lbu	v1,6(v0)
 200ef64:	04241423 	sb	a0,5(v0)
 200ef68:	04221c23 	sb	v1,7(v0)
 200ef6c:	004000eb 	ret
 200ef70:	88200a37 	lui	v1,0x4014
 200ef74:	8c49a003 	lb	v1,616(v1)
 200ef78:	0c67e063 	beq	v1,a1,200f168 <t5_taskB6_generic_FH_TUERMODUL_CTRL+0x2d0>
 200ef7c:	90200a37 	lui	a0,0x4014
 200ef80:	a4898403 	lb	a2,609(a0)
 200ef84:	98000413 	li	a1,1
 200ef88:	0d270863 	beq	a2,a1,200f10c <t5_taskB6_generic_FH_TUERMODUL_CTRL+0x274>
 200ef8c:	88200a37 	lui	v1,0x4014
 200ef90:	2441a423 	sb	zero,617(v1)
 200ef94:	24a78423 	sb	a1,609(a0)
 200ef98:	8c001a03 	lbu	v1,6(v0)
 200ef9c:	94001203 	lbu	a0,4(v0)
 200efa0:	04221c23 	sb	v1,7(v0)
 200efa4:	04241423 	sb	a0,5(v0)
 200efa8:	004000eb 	ret
 200efac:	88200a37 	lui	v1,0x4014
 200efb0:	8c4a7c03 	lb	v1,671(v1)
 200efb4:	04402063 	beqz	v1,200efc4 <t5_taskB6_generic_FH_TUERMODUL_CTRL+0x12c>
 200efb8:	88200a37 	lui	v1,0x4014
 200efbc:	8c4a7403 	lb	v1,669(v1)
 200efc0:	14401063 	beqz	v1,200f1c8 <t5_taskB6_generic_FH_TUERMODUL_CTRL+0x330>
 200efc4:	90200a37 	lui	a0,0x4014
 200efc8:	8c899c03 	lb	v1,615(a0)
 200efcc:	98000813 	li	a1,2
 200efd0:	14675863 	beq	v1,a1,200f27c <t5_taskB6_generic_FH_TUERMODUL_CTRL+0x3e4>
 200efd4:	a0000c13 	li	a2,3
 200efd8:	1468f863 	beq	v1,a2,200f254 <t5_taskB6_generic_FH_TUERMODUL_CTRL+0x3bc>
 200efdc:	98000413 	li	a1,1
 200efe0:	14665063 	beq	v1,a1,200f208 <t5_taskB6_generic_FH_TUERMODUL_CTRL+0x370>
 200efe4:	88200a37 	lui	v1,0x4014
 200efe8:	2441a423 	sb	zero,617(v1)
 200efec:	24a99c23 	sb	a2,615(a0)
 200eff0:	ffffd067 	j	200ef30 <t5_taskB6_generic_FH_TUERMODUL_CTRL+0x98>
 200eff4:	88200a37 	lui	v1,0x4014
 200eff8:	8c4bd103 	lw	v1,756(v1)
 200effc:	9000ec13 	li	a0,59
 200f000:	fc6460e3 	bne	v1,a0,200ef30 <t5_taskB6_generic_FH_TUERMODUL_CTRL+0x98>
 200f004:	90200a37 	lui	a0,0x4014
 200f008:	948bb103 	lw	a0,748(a0)
 200f00c:	fca24863 	beq	a0,v1,200ef30 <t5_taskB6_generic_FH_TUERMODUL_CTRL+0x98>
 200f010:	88200a37 	lui	v1,0x4014
 200f014:	2441a423 	sb	zero,617(v1)
 200f018:	88200a37 	lui	v1,0x4014
 200f01c:	24eb8c23 	sb	a3,611(a1)
 200f020:	246b8023 	sb	a3,608(v1)
 200f024:	ffffc367 	j	200ef30 <t5_taskB6_generic_FH_TUERMODUL_CTRL+0x98>
 200f028:	88200a37 	lui	v1,0x4014
 200f02c:	8c4bd103 	lw	v1,756(v1)
 200f030:	8c40f513 	slt	v1,v1,61
 200f034:	044098e3 	bnez	v1,200f080 <t5_taskB6_generic_FH_TUERMODUL_CTRL+0x1e8>
 200f038:	88200a37 	lui	v1,0x4014
 200f03c:	8c4bb103 	lw	v1,748(v1)
 200f040:	8c40f513 	slt	v1,v1,61
 200f044:	04407863 	beqz	v1,200f080 <t5_taskB6_generic_FH_TUERMODUL_CTRL+0x1e8>
 200f048:	88200a37 	lui	v1,0x4014
 200f04c:	8c4aac03 	lb	v1,683(v1)
 200f050:	044060e3 	bnez	v1,200f080 <t5_taskB6_generic_FH_TUERMODUL_CTRL+0x1e8>
 200f054:	88200a37 	lui	v1,0x4014
 200f058:	8c4ab403 	lb	v1,685(v1)
 200f05c:	044048e3 	bnez	v1,200f080 <t5_taskB6_generic_FH_TUERMODUL_CTRL+0x1e8>
 200f060:	88200a37 	lui	v1,0x4014
 200f064:	2441a423 	sb	zero,617(v1)
 200f068:	88200a37 	lui	v1,0x4014
 200f06c:	2c405023 	sb	zero,660(v1)
 200f070:	88200a37 	lui	v1,0x4014
 200f074:	2c404423 	sb	zero,657(v1)
 200f078:	24e58c23 	sb	a0,611(a1)
 200f07c:	ffffad67 	j	200ef30 <t5_taskB6_generic_FH_TUERMODUL_CTRL+0x98>
 200f080:	88200a37 	lui	v1,0x4014
 200f084:	8c4a7c03 	lb	v1,671(v1)
 200f088:	0440a863 	beqz	v1,200f0dc <t5_taskB6_generic_FH_TUERMODUL_CTRL+0x244>
 200f08c:	88200a37 	lui	v1,0x4014
 200f090:	8c4a7403 	lb	v1,669(v1)
 200f094:	044090e3 	bnez	v1,200f0dc <t5_taskB6_generic_FH_TUERMODUL_CTRL+0x244>
 200f098:	88200a37 	lui	v1,0x4014
 200f09c:	8c4a4803 	lb	v1,658(v1)
 200f0a0:	1441d863 	beqz	v1,200f38c <t5_taskB6_generic_FH_TUERMODUL_CTRL+0x4f4>
 200f0a4:	88200a37 	lui	v1,0x4014
 200f0a8:	9449b103 	lw	a0,620(v1)
 200f0ac:	88200a37 	lui	v1,0x4014
 200f0b0:	2441a423 	sb	zero,617(v1)
 200f0b4:	88200a37 	lui	v1,0x4014
 200f0b8:	2c404423 	sb	zero,657(v1)
 200f0bc:	88200a37 	lui	v1,0x4014
 200f0c0:	34640123 	sw	a0,768(v1)
 200f0c4:	88000813 	li	v1,2
 200f0c8:	24e38c23 	sb	v1,611(a1)
 200f0cc:	90000c13 	li	a0,3
 200f0d0:	88200a37 	lui	v1,0x4014
 200f0d4:	24659c23 	sb	a0,615(v1)
 200f0d8:	ffff9667 	j	200ef30 <t5_taskB6_generic_FH_TUERMODUL_CTRL+0x98>
 200f0dc:	90200a37 	lui	a0,0x4014
 200f0e0:	8c898003 	lb	v1,608(a0)
 200f0e4:	98000813 	li	a1,2
 200f0e8:	14662063 	beq	v1,a1,200f2f8 <t5_taskB6_generic_FH_TUERMODUL_CTRL+0x460>
 200f0ec:	a0000c13 	li	a2,3
 200f0f0:	0c696863 	beq	v1,a2,200f2a4 <t5_taskB6_generic_FH_TUERMODUL_CTRL+0x40c>
 200f0f4:	a8000413 	li	a3,1
 200f0f8:	0c6a6863 	beq	v1,a3,200f22c <t5_taskB6_generic_FH_TUERMODUL_CTRL+0x394>
 200f0fc:	88200a37 	lui	v1,0x4014
 200f100:	2441a423 	sb	zero,617(v1)
 200f104:	24a98023 	sb	a2,608(a0)
 200f108:	ffff8a67 	j	200ef30 <t5_taskB6_generic_FH_TUERMODUL_CTRL+0x98>
 200f10c:	f468a0e3 	bne	v1,a2,200ef5c <t5_taskB6_generic_FH_TUERMODUL_CTRL+0xc4>
 200f110:	98200a37 	lui	a1,0x4014
 200f114:	9ccc1103 	lw	a1,772(a1)
 200f118:	f4c08863 	beqz	a1,200ef5c <t5_taskB6_generic_FH_TUERMODUL_CTRL+0xc4>
 200f11c:	a0200a37 	lui	a2,0x4014
 200f120:	a509b103 	lw	a2,620(a2)
 200f124:	a53ff413 	add	a2,a2,-3
 200f128:	f4e868e3 	bne	a1,a2,200ef5c <t5_taskB6_generic_FH_TUERMODUL_CTRL+0xc4>
 200f12c:	98200a37 	lui	a1,0x4014
 200f130:	9cca5403 	lb	a1,661(a1)
 200f134:	f4c050e3 	bnez	a1,200ef5c <t5_taskB6_generic_FH_TUERMODUL_CTRL+0xc4>
 200f138:	98200a37 	lui	a1,0x4014
 200f13c:	9cca4803 	lb	a1,658(a1)
 200f140:	f4c038e3 	bnez	a1,200ef5c <t5_taskB6_generic_FH_TUERMODUL_CTRL+0xc4>
 200f144:	98200a37 	lui	a1,0x4014
 200f148:	a4cbd103 	lw	a2,756(a1)
 200f14c:	f02822e3 	blez	a2,200ef5c <t5_taskB6_generic_FH_TUERMODUL_CTRL+0xc4>
 200f150:	a53ffc13 	add	a2,a2,-1
 200f154:	a8200a37 	lui	a3,0x4014
 200f158:	2541a423 	sb	zero,617(a3)
 200f15c:	2ce9d123 	sw	a2,756(a1)
 200f160:	24a38423 	sb	v1,609(a0)
 200f164:	ffff7e67 	j	200ef5c <t5_taskB6_generic_FH_TUERMODUL_CTRL+0xc4>
 200f168:	98200a37 	lui	a1,0x4014
 200f16c:	9ccc2103 	lw	a1,776(a1)
 200f170:	f4c01863 	beqz	a1,200ef7c <t5_taskB6_generic_FH_TUERMODUL_CTRL+0xe4>
 200f174:	a0200a37 	lui	a2,0x4014
 200f178:	a509b103 	lw	a2,620(a2)
 200f17c:	9d270033 	sub	a1,a2,a1
 200f180:	ece3f8e3 	bne	a1,v1,200ef7c <t5_taskB6_generic_FH_TUERMODUL_CTRL+0xe4>
 200f184:	98200a37 	lui	a1,0x4014
 200f188:	9cca5403 	lb	a1,661(a1)
 200f18c:	04c020e3 	bnez	a1,200f19c <t5_taskB6_generic_FH_TUERMODUL_CTRL+0x304>
 200f190:	98200a37 	lui	a1,0x4014
 200f194:	9cca4803 	lb	a1,658(a1)
 200f198:	ecc1c863 	beqz	a1,200ef7c <t5_taskB6_generic_FH_TUERMODUL_CTRL+0xe4>
 200f19c:	98200a37 	lui	a1,0x4014
 200f1a0:	a4cbd103 	lw	a2,756(a1)
 200f1a4:	88000413 	li	v1,1
 200f1a8:	a8200a37 	lui	a3,0x4014
 200f1ac:	a5000413 	add	a2,a2,1
 200f1b0:	24a38823 	sb	v1,610(a0)
 200f1b4:	90200a37 	lui	a0,0x4014
 200f1b8:	2541a423 	sb	zero,617(a3)
 200f1bc:	2ce9d123 	sw	a2,756(a1)
 200f1c0:	24a38423 	sb	v1,609(a0)
 200f1c4:	ffff6667 	j	200ef5c <t5_taskB6_generic_FH_TUERMODUL_CTRL+0xc4>
 200f1c8:	88200a37 	lui	v1,0x4014
 200f1cc:	8c4a5403 	lb	v1,661(v1)
 200f1d0:	ec41e863 	beqz	v1,200efc4 <t5_taskB6_generic_FH_TUERMODUL_CTRL+0x12c>
 200f1d4:	88200a37 	lui	v1,0x4014
 200f1d8:	a449b103 	lw	a2,620(v1)
 200f1dc:	90200a37 	lui	a0,0x4014
 200f1e0:	2481a423 	sb	zero,617(a0)
 200f1e4:	90200a37 	lui	a0,0x4014
 200f1e8:	2c805023 	sb	zero,660(a0)
 200f1ec:	90200a37 	lui	a0,0x4014
 200f1f0:	88000c13 	li	v1,3
 200f1f4:	2ca9e123 	sw	a2,760(a0)
 200f1f8:	90200a37 	lui	a0,0x4014
 200f1fc:	24e38c23 	sb	v1,611(a1)
 200f200:	24a38023 	sb	v1,608(a0)
 200f204:	ffff4b67 	j	200ef30 <t5_taskB6_generic_FH_TUERMODUL_CTRL+0x98>
 200f208:	88200a37 	lui	v1,0x4014
 200f20c:	8c4a6c03 	lb	v1,667(v1)
 200f210:	ec4040e3 	bnez	v1,200ef30 <t5_taskB6_generic_FH_TUERMODUL_CTRL+0x98>
 200f214:	88200a37 	lui	v1,0x4014
 200f218:	2441a423 	sb	zero,617(v1)
 200f21c:	88200a37 	lui	v1,0x4014
 200f220:	2c405023 	sb	zero,660(v1)
 200f224:	24a99c23 	sb	a2,615(a0)
 200f228:	ffff4267 	j	200ef30 <t5_taskB6_generic_FH_TUERMODUL_CTRL+0x98>
 200f22c:	a8200a37 	lui	a3,0x4014
 200f230:	ad4b8103 	lw	a3,736(a3)
 200f234:	ad465513 	slt	a3,a3,405
 200f238:	0d4158e3 	bnez	a3,200f3e4 <t5_taskB6_generic_FH_TUERMODUL_CTRL+0x54c>
 200f23c:	88200a37 	lui	v1,0x4014
 200f240:	2441a423 	sb	zero,617(v1)
 200f244:	88200a37 	lui	v1,0x4014
 200f248:	2c404423 	sb	zero,657(v1)
 200f24c:	24a98023 	sb	a2,608(a0)
 200f250:	ffff3867 	j	200ef30 <t5_taskB6_generic_FH_TUERMODUL_CTRL+0x98>
 200f254:	88200a37 	lui	v1,0x4014
 200f258:	8c4a6003 	lb	v1,664(v1)
 200f25c:	0c40c063 	beqz	v1,200f3bc <t5_taskB6_generic_FH_TUERMODUL_CTRL+0x524>
 200f260:	88200a37 	lui	v1,0x4014
 200f264:	2441a423 	sb	zero,617(v1)
 200f268:	a0000413 	li	a2,1
 200f26c:	88200a37 	lui	v1,0x4014
 200f270:	2c684423 	sb	a2,657(v1)
 200f274:	24a79c23 	sb	a1,615(a0)
 200f278:	ffff2e67 	j	200ef30 <t5_taskB6_generic_FH_TUERMODUL_CTRL+0x98>
 200f27c:	88200a37 	lui	v1,0x4014
 200f280:	8c4a6003 	lb	v1,664(v1)
 200f284:	e44158e3 	bnez	v1,200ef30 <t5_taskB6_generic_FH_TUERMODUL_CTRL+0x98>
 200f288:	88200a37 	lui	v1,0x4014
 200f28c:	2441a423 	sb	zero,617(v1)
 200f290:	88200a37 	lui	v1,0x4014
 200f294:	2c404423 	sb	zero,657(v1)
 200f298:	88000c13 	li	v1,3
 200f29c:	24a39c23 	sb	v1,615(a0)
 200f2a0:	ffff2467 	j	200ef30 <t5_taskB6_generic_FH_TUERMODUL_CTRL+0x98>
 200f2a4:	88200a37 	lui	v1,0x4014
 200f2a8:	8c4a6c03 	lb	v1,667(v1)
 200f2ac:	04412063 	beqz	v1,200f33c <t5_taskB6_generic_FH_TUERMODUL_CTRL+0x4a4>
 200f2b0:	88200a37 	lui	v1,0x4014
 200f2b4:	8c4a6403 	lb	v1,665(v1)
 200f2b8:	044108e3 	bnez	v1,200f33c <t5_taskB6_generic_FH_TUERMODUL_CTRL+0x4a4>
 200f2bc:	88200a37 	lui	v1,0x4014
 200f2c0:	8c4b8103 	lw	v1,736(v1)
 200f2c4:	0022f2e3 	blez	v1,200f33c <t5_taskB6_generic_FH_TUERMODUL_CTRL+0x4a4>
 200f2c8:	24a78023 	sb	a1,608(a0)
 200f2cc:	90200a37 	lui	a0,0x4014
 200f2d0:	24a77023 	sb	a1,604(a0)
 200f2d4:	90200a37 	lui	a0,0x4014
 200f2d8:	88000413 	li	v1,1
 200f2dc:	a0200a37 	lui	a2,0x4014
 200f2e0:	24a77823 	sb	a1,606(a0)
 200f2e4:	90200a37 	lui	a0,0x4014
 200f2e8:	2501a423 	sb	zero,617(a2)
 200f2ec:	04224423 	sb	v1,17(v0)
 200f2f0:	2ca25023 	sb	v1,660(a0)
 200f2f4:	ffff0f67 	j	200ef30 <t5_taskB6_generic_FH_TUERMODUL_CTRL+0x98>
 200f2f8:	98200a37 	lui	a1,0x4014
 200f2fc:	9ccb8103 	lw	a1,736(a1)
 200f300:	08260ae3 	blez	a1,200f404 <t5_taskB6_generic_FH_TUERMODUL_CTRL+0x56c>
 200f304:	a8200a37 	lui	a3,0x4014
 200f308:	9d497003 	lb	a1,604(a3)
 200f30c:	a0000413 	li	a2,1
 200f310:	0ce8b863 	beq	a1,a2,200f46c <t5_taskB6_generic_FH_TUERMODUL_CTRL+0x5d4>
 200f314:	0ce21863 	beq	a1,v1,200f420 <t5_taskB6_generic_FH_TUERMODUL_CTRL+0x588>
 200f318:	90200a37 	lui	a0,0x4014
 200f31c:	2481a423 	sb	zero,617(a0)
 200f320:	90200a37 	lui	a0,0x4014
 200f324:	25637023 	sb	v1,604(a3)
 200f328:	24a37823 	sb	v1,606(a0)
 200f32c:	88200a37 	lui	v1,0x4014
 200f330:	04284423 	sb	a2,17(v0)
 200f334:	2c685023 	sb	a2,660(v1)
 200f338:	fffefe67 	j	200ef30 <t5_taskB6_generic_FH_TUERMODUL_CTRL+0x98>
 200f33c:	88200a37 	lui	v1,0x4014
 200f340:	8c4a6003 	lb	v1,664(v1)
 200f344:	dc41d863 	beqz	v1,200ef30 <t5_taskB6_generic_FH_TUERMODUL_CTRL+0x98>
 200f348:	88200a37 	lui	v1,0x4014
 200f34c:	8c4a5803 	lb	v1,662(v1)
 200f350:	dc41c0e3 	bnez	v1,200ef30 <t5_taskB6_generic_FH_TUERMODUL_CTRL+0x98>
 200f354:	88200a37 	lui	v1,0x4014
 200f358:	8c4b8103 	lw	v1,736(v1)
 200f35c:	8c465513 	slt	v1,v1,405
 200f360:	dc41a063 	beqz	v1,200ef30 <t5_taskB6_generic_FH_TUERMODUL_CTRL+0x98>
 200f364:	98200a37 	lui	a1,0x4014
 200f368:	88000413 	li	v1,1
 200f36c:	24c1a423 	sb	zero,617(a1)
 200f370:	98200a37 	lui	a1,0x4014
 200f374:	24a38023 	sb	v1,608(a0)
 200f378:	2ce24423 	sb	v1,657(a1)
 200f37c:	90000813 	li	a0,2
 200f380:	88200a37 	lui	v1,0x4014
 200f384:	24657423 	sb	a0,605(v1)
 200f388:	fffeea67 	j	200ef30 <t5_taskB6_generic_FH_TUERMODUL_CTRL+0x98>
 200f38c:	88200a37 	lui	v1,0x4014
 200f390:	8c4a5403 	lb	v1,661(v1)
 200f394:	ec409063 	beqz	v1,200f0dc <t5_taskB6_generic_FH_TUERMODUL_CTRL+0x244>
 200f398:	88200a37 	lui	v1,0x4014
 200f39c:	9449b103 	lw	a0,620(v1)
 200f3a0:	88200a37 	lui	v1,0x4014
 200f3a4:	2441a423 	sb	zero,617(v1)
 200f3a8:	88200a37 	lui	v1,0x4014
 200f3ac:	2c405023 	sb	zero,660(v1)
 200f3b0:	88200a37 	lui	v1,0x4014
 200f3b4:	2c65f123 	sw	a0,764(v1)
 200f3b8:	ffff4367 	j	200f0c4 <t5_taskB6_generic_FH_TUERMODUL_CTRL+0x22c>
 200f3bc:	88200a37 	lui	v1,0x4014
 200f3c0:	8c4a6c03 	lb	v1,667(v1)
 200f3c4:	dc40d863 	beqz	v1,200ef30 <t5_taskB6_generic_FH_TUERMODUL_CTRL+0x98>
 200f3c8:	98200a37 	lui	a1,0x4014
 200f3cc:	88000413 	li	v1,1
 200f3d0:	24c1a423 	sb	zero,617(a1)
 200f3d4:	98200a37 	lui	a1,0x4014
 200f3d8:	2ce25023 	sb	v1,660(a1)
 200f3dc:	24a39c23 	sb	v1,615(a0)
 200f3e0:	fffed467 	j	200ef30 <t5_taskB6_generic_FH_TUERMODUL_CTRL+0x98>
 200f3e4:	a8200a37 	lui	a3,0x4014
 200f3e8:	a5497403 	lb	a2,605(a3)
 200f3ec:	0d220863 	beq	a2,v1,200f4f0 <t5_taskB6_generic_FH_TUERMODUL_CTRL+0x658>
 200f3f0:	0527b063 	beq	a2,a1,200f4c8 <t5_taskB6_generic_FH_TUERMODUL_CTRL+0x630>
 200f3f4:	88200a37 	lui	v1,0x4014
 200f3f8:	2441a423 	sb	zero,617(v1)
 200f3fc:	25677423 	sb	a1,605(a3)
 200f400:	fffecc67 	j	200ef30 <t5_taskB6_generic_FH_TUERMODUL_CTRL+0x98>
 200f404:	88200a37 	lui	v1,0x4014
 200f408:	2441a423 	sb	zero,617(v1)
 200f40c:	88200a37 	lui	v1,0x4014
 200f410:	2c405023 	sb	zero,660(v1)
 200f414:	88000c13 	li	v1,3
 200f418:	24a38023 	sb	v1,608(a0)
 200f41c:	fffec567 	j	200ef30 <t5_taskB6_generic_FH_TUERMODUL_CTRL+0x98>
 200f420:	88200a37 	lui	v1,0x4014
 200f424:	8c4a6c03 	lb	v1,667(v1)
 200f428:	044020e3 	bnez	v1,200f438 <t5_taskB6_generic_FH_TUERMODUL_CTRL+0x5a0>
 200f42c:	88200a37 	lui	v1,0x4014
 200f430:	8c4a6403 	lb	v1,665(v1)
 200f434:	fc41a0e3 	bnez	v1,200f404 <t5_taskB6_generic_FH_TUERMODUL_CTRL+0x56c>
 200f438:	98200a37 	lui	a1,0x4014
 200f43c:	94c97803 	lb	a0,606(a1)
 200f440:	88000413 	li	v1,1
 200f444:	0ca2c863 	beq	a0,v1,200f5a8 <t5_taskB6_generic_FH_TUERMODUL_CTRL+0x710>
 200f448:	a0000813 	li	a2,2
 200f44c:	0ca82863 	beq	a0,a2,200f560 <t5_taskB6_generic_FH_TUERMODUL_CTRL+0x6c8>
 200f450:	90200a37 	lui	a0,0x4014
 200f454:	2481a423 	sb	zero,617(a0)
 200f458:	90200a37 	lui	a0,0x4014
 200f45c:	24e97823 	sb	a2,606(a1)
 200f460:	04224423 	sb	v1,17(v0)
 200f464:	2ca25023 	sb	v1,660(a0)
 200f468:	fffeb267 	j	200ef30 <t5_taskB6_generic_FH_TUERMODUL_CTRL+0x98>
 200f46c:	88200a37 	lui	v1,0x4014
 200f470:	8c4a6003 	lb	v1,664(v1)
 200f474:	04402063 	beqz	v1,200f484 <t5_taskB6_generic_FH_TUERMODUL_CTRL+0x5ec>
 200f478:	88200a37 	lui	v1,0x4014
 200f47c:	8c4a5803 	lb	v1,662(v1)
 200f480:	fc410863 	beqz	v1,200f404 <t5_taskB6_generic_FH_TUERMODUL_CTRL+0x56c>
 200f484:	88200a37 	lui	v1,0x4014
 200f488:	8c4a6c03 	lb	v1,667(v1)
 200f48c:	04402063 	beqz	v1,200f49c <t5_taskB6_generic_FH_TUERMODUL_CTRL+0x604>
 200f490:	88200a37 	lui	v1,0x4014
 200f494:	8c4a6403 	lb	v1,665(v1)
 200f498:	fc40d863 	beqz	v1,200f404 <t5_taskB6_generic_FH_TUERMODUL_CTRL+0x56c>
 200f49c:	98200a37 	lui	a1,0x4014
 200f4a0:	94c97c03 	lb	a0,607(a1)
 200f4a4:	88000413 	li	v1,1
 200f4a8:	0ca30863 	beq	a0,v1,200f62c <t5_taskB6_generic_FH_TUERMODUL_CTRL+0x794>
 200f4ac:	a0000813 	li	a2,2
 200f4b0:	0ca86863 	beq	a0,a2,200f5e4 <t5_taskB6_generic_FH_TUERMODUL_CTRL+0x74c>
 200f4b4:	90200a37 	lui	a0,0x4014
 200f4b8:	2481a423 	sb	zero,617(a0)
 200f4bc:	24e97c23 	sb	a2,607(a1)
 200f4c0:	04224423 	sb	v1,17(v0)
 200f4c4:	fffe9b67 	j	200ef30 <t5_taskB6_generic_FH_TUERMODUL_CTRL+0x98>
 200f4c8:	98200a37 	lui	a1,0x4014
 200f4cc:	9cca6c03 	lb	a1,667(a1)
 200f4d0:	04c0b063 	beqz	a1,200f528 <t5_taskB6_generic_FH_TUERMODUL_CTRL+0x690>
 200f4d4:	98200a37 	lui	a1,0x4014
 200f4d8:	9cca6403 	lb	a1,665(a1)
 200f4dc:	04c098e3 	bnez	a1,200f528 <t5_taskB6_generic_FH_TUERMODUL_CTRL+0x690>
 200f4e0:	90200a37 	lui	a0,0x4014
 200f4e4:	2481a423 	sb	zero,617(a0)
 200f4e8:	25637423 	sb	v1,605(a3)
 200f4ec:	fffe9167 	j	200ef30 <t5_taskB6_generic_FH_TUERMODUL_CTRL+0x98>
 200f4f0:	88200a37 	lui	v1,0x4014
 200f4f4:	8c4a6c03 	lb	v1,667(v1)
 200f4f8:	04409863 	beqz	v1,200f544 <t5_taskB6_generic_FH_TUERMODUL_CTRL+0x6ac>
 200f4fc:	88200a37 	lui	v1,0x4014
 200f500:	8c4a6403 	lb	v1,665(v1)
 200f504:	044080e3 	bnez	v1,200f544 <t5_taskB6_generic_FH_TUERMODUL_CTRL+0x6ac>
 200f508:	88200a37 	lui	v1,0x4014
 200f50c:	2441a423 	sb	zero,617(v1)
 200f510:	88200a37 	lui	v1,0x4014
 200f514:	2c404423 	sb	zero,657(v1)
 200f518:	88000c13 	li	v1,3
 200f51c:	24a38023 	sb	v1,608(a0)
 200f520:	25417423 	sb	zero,605(a3)
 200f524:	fffe8367 	j	200ef30 <t5_taskB6_generic_FH_TUERMODUL_CTRL+0x98>
 200f528:	88200a37 	lui	v1,0x4014
 200f52c:	8c4a6003 	lb	v1,664(v1)
 200f530:	d44000e3 	bnez	v1,200ef30 <t5_taskB6_generic_FH_TUERMODUL_CTRL+0x98>
 200f534:	88200a37 	lui	v1,0x4014
 200f538:	8c4a5803 	lb	v1,662(v1)
 200f53c:	cc41e863 	beqz	v1,200ef30 <t5_taskB6_generic_FH_TUERMODUL_CTRL+0x98>
 200f540:	fffff267 	j	200f508 <t5_taskB6_generic_FH_TUERMODUL_CTRL+0x670>
 200f544:	88200a37 	lui	v1,0x4014
 200f548:	8c4a6003 	lb	v1,664(v1)
 200f54c:	cc41c863 	beqz	v1,200ef30 <t5_taskB6_generic_FH_TUERMODUL_CTRL+0x98>
 200f550:	88200a37 	lui	v1,0x4014
 200f554:	8c4a5803 	lb	v1,662(v1)
 200f558:	cc41b0e3 	bnez	v1,200ef30 <t5_taskB6_generic_FH_TUERMODUL_CTRL+0x98>
 200f55c:	ffffeb67 	j	200f508 <t5_taskB6_generic_FH_TUERMODUL_CTRL+0x670>
 200f560:	94006003 	lb	a0,24(v0)
 200f564:	0c800863 	beqz	a0,200f668 <t5_taskB6_generic_FH_TUERMODUL_CTRL+0x7d0>
 200f568:	90200a37 	lui	a0,0x4014
 200f56c:	a489b103 	lw	a2,620(a0)
 200f570:	90200a37 	lui	a0,0x4014
 200f574:	2481a423 	sb	zero,617(a0)
 200f578:	90200a37 	lui	a0,0x4014
 200f57c:	2c805023 	sb	zero,660(a0)
 200f580:	90200a37 	lui	a0,0x4014
 200f584:	2ca2a823 	sb	v1,682(a0)
 200f588:	90200a37 	lui	a0,0x4014
 200f58c:	2ca99123 	sw	a2,740(a0)
 200f590:	90200a37 	lui	a0,0x4014
 200f594:	04225c23 	sb	v1,23(v0)
 200f598:	24e37823 	sb	v1,606(a1)
 200f59c:	04004423 	sb	zero,17(v0)
 200f5a0:	2ca24423 	sb	v1,657(a0)
 200f5a4:	fffe6367 	j	200ef30 <t5_taskB6_generic_FH_TUERMODUL_CTRL+0x98>
 200f5a8:	8c005803 	lb	v1,22(v0)
 200f5ac:	04005c23 	sb	zero,23(v0)
 200f5b0:	cc410063 	beqz	v1,200ef30 <t5_taskB6_generic_FH_TUERMODUL_CTRL+0x98>
 200f5b4:	88200a37 	lui	v1,0x4014
 200f5b8:	2441a423 	sb	zero,617(v1)
 200f5bc:	88200a37 	lui	v1,0x4014
 200f5c0:	2c40a823 	sb	zero,682(v1)
 200f5c4:	88000813 	li	v1,2
 200f5c8:	24e37823 	sb	v1,606(a1)
 200f5cc:	88200a37 	lui	v1,0x4014
 200f5d0:	2c404423 	sb	zero,657(v1)
 200f5d4:	88200a37 	lui	v1,0x4014
 200f5d8:	04244423 	sb	a0,17(v0)
 200f5dc:	2c645023 	sb	a0,660(v1)
 200f5e0:	fffe5467 	j	200ef30 <t5_taskB6_generic_FH_TUERMODUL_CTRL+0x98>
 200f5e4:	94006003 	lb	a0,24(v0)
 200f5e8:	cc809063 	beqz	a0,200ef30 <t5_taskB6_generic_FH_TUERMODUL_CTRL+0x98>
 200f5ec:	90200a37 	lui	a0,0x4014
 200f5f0:	a489b103 	lw	a2,620(a0)
 200f5f4:	90200a37 	lui	a0,0x4014
 200f5f8:	2481a423 	sb	zero,617(a0)
 200f5fc:	90200a37 	lui	a0,0x4014
 200f600:	2ca2b023 	sb	v1,684(a0)
 200f604:	90200a37 	lui	a0,0x4014
 200f608:	2c805023 	sb	zero,660(a0)
 200f60c:	90200a37 	lui	a0,0x4014
 200f610:	2ca9a123 	sw	a2,744(a0)
 200f614:	90200a37 	lui	a0,0x4014
 200f618:	04225c23 	sb	v1,23(v0)
 200f61c:	24e37c23 	sb	v1,607(a1)
 200f620:	04004423 	sb	zero,17(v0)
 200f624:	2ca24423 	sb	v1,657(a0)
 200f628:	fffe4267 	j	200ef30 <t5_taskB6_generic_FH_TUERMODUL_CTRL+0x98>
 200f62c:	8c005803 	lb	v1,22(v0)
 200f630:	04005c23 	sb	zero,23(v0)
 200f634:	c441f863 	beqz	v1,200ef30 <t5_taskB6_generic_FH_TUERMODUL_CTRL+0x98>
 200f638:	88200a37 	lui	v1,0x4014
 200f63c:	2441a423 	sb	zero,617(v1)
 200f640:	88200a37 	lui	v1,0x4014
 200f644:	2c645023 	sb	a0,660(v1)
 200f648:	88200a37 	lui	v1,0x4014
 200f64c:	2c40b023 	sb	zero,684(v1)
 200f650:	88000813 	li	v1,2
 200f654:	24e37c23 	sb	v1,607(a1)
 200f658:	88200a37 	lui	v1,0x4014
 200f65c:	2c404423 	sb	zero,657(v1)
 200f660:	04244423 	sb	a0,17(v0)
 200f664:	fffe3367 	j	200ef30 <t5_taskB6_generic_FH_TUERMODUL_CTRL+0x98>
 200f668:	90200a37 	lui	a0,0x4014
 200f66c:	948a6003 	lb	a0,664(a0)
 200f670:	c4818063 	beqz	a0,200ef30 <t5_taskB6_generic_FH_TUERMODUL_CTRL+0x98>
 200f674:	90200a37 	lui	a0,0x4014
 200f678:	948a5803 	lb	a0,662(a0)
 200f67c:	c48168e3 	bnez	a0,200ef30 <t5_taskB6_generic_FH_TUERMODUL_CTRL+0x98>
 200f680:	90200a37 	lui	a0,0x4014
 200f684:	2481a423 	sb	zero,617(a0)
 200f688:	25637023 	sb	v1,604(a3)
 200f68c:	24c17823 	sb	zero,606(a1)
 200f690:	fffe2867 	j	200ef30 <t5_taskB6_generic_FH_TUERMODUL_CTRL+0x98>

0200f694 <t5_taskB6_generic_EINKLEMMSCHUTZ_CTRL>:
 200f694:	80200a37 	lui	v0,0x4014
 200f698:	840c4013 	add	v0,v0,784
 200f69c:	8c004003 	lb	v1,16(v0)
 200f6a0:	04405063 	beqz	v1,200f6c8 <t5_taskB6_generic_EINKLEMMSCHUTZ_CTRL+0x34>
 200f6a4:	90200a37 	lui	a0,0x4014
 200f6a8:	8c896803 	lb	v1,602(a0)
 200f6ac:	98000413 	li	a1,1
 200f6b0:	04663863 	beq	v1,a1,200f6cc <t5_taskB6_generic_EINKLEMMSCHUTZ_CTRL+0x38>
 200f6b4:	a0000813 	li	a2,2
 200f6b8:	0468c063 	beq	v1,a2,200f718 <t5_taskB6_generic_EINKLEMMSCHUTZ_CTRL+0x84>
 200f6bc:	80200a37 	lui	v0,0x4014
 200f6c0:	2401a423 	sb	zero,617(v0)
 200f6c4:	24a76823 	sb	a1,602(a0)
 200f6c8:	004000eb 	ret
 200f6cc:	88200a37 	lui	v1,0x4014
 200f6d0:	8c4a3c03 	lb	v1,655(v1)
 200f6d4:	fc41e863 	beqz	v1,200f6c8 <t5_taskB6_generic_EINKLEMMSCHUTZ_CTRL+0x34>
 200f6d8:	88200a37 	lui	v1,0x4014
 200f6dc:	8c4a3803 	lb	v1,654(v1)
 200f6e0:	fc41d0e3 	bnez	v1,200f6c8 <t5_taskB6_generic_EINKLEMMSCHUTZ_CTRL+0x34>
 200f6e4:	88200a37 	lui	v1,0x4014
 200f6e8:	8c4a6c03 	lb	v1,667(v1)
 200f6ec:	04402063 	beqz	v1,200f6fc <t5_taskB6_generic_EINKLEMMSCHUTZ_CTRL+0x68>
 200f6f0:	88200a37 	lui	v1,0x4014
 200f6f4:	8c4a6003 	lb	v1,664(v1)
 200f6f8:	fc41a0e3 	bnez	v1,200f6c8 <t5_taskB6_generic_EINKLEMMSCHUTZ_CTRL+0x34>
 200f6fc:	88200a37 	lui	v1,0x4014
 200f700:	2441a423 	sb	zero,617(v1)
 200f704:	88000413 	li	v1,1
 200f708:	04226023 	sb	v1,24(v0)
 200f70c:	80000813 	li	v0,2
 200f710:	24a16823 	sb	v0,602(a0)
 200f714:	004000eb 	ret
 200f718:	88200a37 	lui	v1,0x4014
 200f71c:	8c4a3c03 	lb	v1,655(v1)
 200f720:	04006023 	sb	zero,24(v0)
 200f724:	fc4148e3 	bnez	v1,200f6c8 <t5_taskB6_generic_EINKLEMMSCHUTZ_CTRL+0x34>
 200f728:	80200a37 	lui	v0,0x4014
 200f72c:	840a3803 	lb	v0,654(v0)
 200f730:	fc013063 	beqz	v0,200f6c8 <t5_taskB6_generic_EINKLEMMSCHUTZ_CTRL+0x34>
 200f734:	80200a37 	lui	v0,0x4014
 200f738:	2401a423 	sb	zero,617(v0)
 200f73c:	24a76823 	sb	a1,602(a0)
 200f740:	004000eb 	ret

0200f744 <t5_taskB6_generic_BLOCK_ERKENNUNG_CTRL>:
 200f744:	88200a37 	lui	v1,0x4014
 200f748:	844c4013 	add	v0,v1,784
 200f74c:	94004c03 	lb	a0,19(v0)
 200f750:	048038e3 	bnez	a0,200f76c <t5_taskB6_generic_BLOCK_ERKENNUNG_CTRL+0x28>
 200f754:	94005403 	lb	a0,21(v0)
 200f758:	04807063 	beqz	a0,200f790 <t5_taskB6_generic_BLOCK_ERKENNUNG_CTRL+0x4c>
 200f75c:	84005003 	lb	v0,20(v0)
 200f760:	040060e3 	bnez	v0,200f790 <t5_taskB6_generic_BLOCK_ERKENNUNG_CTRL+0x4c>
 200f764:	34404023 	sb	zero,784(v1)
 200f768:	004000eb 	ret
 200f76c:	90200a37 	lui	a0,0x4014
 200f770:	84896003 	lb	v0,600(a0)
 200f774:	98000413 	li	a1,1
 200f778:	04263863 	beq	v0,a1,200f794 <t5_taskB6_generic_BLOCK_ERKENNUNG_CTRL+0x50>
 200f77c:	a0000813 	li	a2,2
 200f780:	0428d863 	beq	v0,a2,200f7ec <t5_taskB6_generic_BLOCK_ERKENNUNG_CTRL+0xa8>
 200f784:	80200a37 	lui	v0,0x4014
 200f788:	2401a423 	sb	zero,617(v0)
 200f78c:	24a76023 	sb	a1,600(a0)
 200f790:	004000eb 	ret
 200f794:	98200a37 	lui	a1,0x4014
 200f798:	a0200a37 	lui	a2,0x4014
 200f79c:	9ccb7103 	lw	a1,732(a1)
 200f7a0:	a50b6103 	lw	a2,728(a2)
 200f7a4:	fce9d863 	beq	a1,a2,200f790 <t5_taskB6_generic_BLOCK_ERKENNUNG_CTRL+0x4c>
 200f7a8:	f827d2e3 	blez	a1,200f790 <t5_taskB6_generic_BLOCK_ERKENNUNG_CTRL+0x4c>
 200f7ac:	98200a37 	lui	a1,0x4014
 200f7b0:	24c1a423 	sb	zero,617(a1)
 200f7b4:	98200a37 	lui	a1,0x4014
 200f7b8:	2cc07823 	sb	zero,670(a1)
 200f7bc:	98000813 	li	a1,2
 200f7c0:	24a76023 	sb	a1,600(a0)
 200f7c4:	90200a37 	lui	a0,0x4014
 200f7c8:	98000813 	li	a1,2
 200f7cc:	2c80e123 	sw	zero,696(a0)
 200f7d0:	90200a37 	lui	a0,0x4014
 200f7d4:	2ca70123 	sw	a1,704(a0)
 200f7d8:	98000c13 	li	a1,3
 200f7dc:	90200a37 	lui	a0,0x4014
 200f7e0:	24a76423 	sb	a1,601(a0)
 200f7e4:	34604023 	sb	v0,784(v1)
 200f7e8:	004000eb 	ret
 200f7ec:	80200a37 	lui	v0,0x4014
 200f7f0:	840a4803 	lb	v0,658(v0)
 200f7f4:	0400c063 	beqz	v0,200f854 <t5_taskB6_generic_BLOCK_ERKENNUNG_CTRL+0x110>
 200f7f8:	80200a37 	lui	v0,0x4014
 200f7fc:	840a5403 	lb	v0,661(v0)
 200f800:	040020e3 	bnez	v0,200f810 <t5_taskB6_generic_BLOCK_ERKENNUNG_CTRL+0xcc>
 200f804:	80200a37 	lui	v0,0x4014
 200f808:	840a4c03 	lb	v0,659(v0)
 200f80c:	0400a8e3 	bnez	v0,200f860 <t5_taskB6_generic_BLOCK_ERKENNUNG_CTRL+0x11c>
 200f810:	90200a37 	lui	a0,0x4014
 200f814:	84896403 	lb	v0,601(a0)
 200f818:	98000813 	li	a1,2
 200f81c:	0427b063 	beq	v0,a1,200f8f4 <t5_taskB6_generic_BLOCK_ERKENNUNG_CTRL+0x1b0>
 200f820:	a0000c13 	li	a2,3
 200f824:	0428b863 	beq	v0,a2,200f880 <t5_taskB6_generic_BLOCK_ERKENNUNG_CTRL+0x13c>
 200f828:	a8000413 	li	a3,1
 200f82c:	042aa063 	beq	v0,a3,200f87c <t5_taskB6_generic_BLOCK_ERKENNUNG_CTRL+0x138>
 200f830:	80200a37 	lui	v0,0x4014
 200f834:	2401a423 	sb	zero,617(v0)
 200f838:	80200a37 	lui	v0,0x4014
 200f83c:	2c00e123 	sw	zero,696(v0)
 200f840:	80200a37 	lui	v0,0x4014
 200f844:	2c270123 	sw	a1,704(v0)
 200f848:	24a96423 	sb	a2,601(a0)
 200f84c:	346a4023 	sb	a3,784(v1)
 200f850:	004000eb 	ret
 200f854:	80200a37 	lui	v0,0x4014
 200f858:	840a4003 	lb	v0,656(v0)
 200f85c:	fc013863 	beqz	v0,200f7f8 <t5_taskB6_generic_BLOCK_ERKENNUNG_CTRL+0xb4>
 200f860:	80200a37 	lui	v0,0x4014
 200f864:	2401a423 	sb	zero,617(v0)
 200f868:	80000413 	li	v0,1
 200f86c:	24a16023 	sb	v0,600(a0)
 200f870:	80200a37 	lui	v0,0x4014
 200f874:	24016423 	sb	zero,601(v0)
 200f878:	004000eb 	ret
 200f87c:	004000eb 	ret
 200f880:	a0200a37 	lui	a2,0x4014
 200f884:	850ae103 	lw	v0,696(a2)
 200f888:	34404023 	sb	zero,784(v1)
 200f88c:	88002c13 	li	v1,11
 200f890:	04233063 	beq	v0,v1,200f928 <t5_taskB6_generic_BLOCK_ERKENNUNG_CTRL+0x1e4>
 200f894:	88200a37 	lui	v1,0x4014
 200f898:	9449a003 	lb	a0,616(v1)
 200f89c:	88000413 	li	v1,1
 200f8a0:	f4a3e0e3 	bne	a0,v1,200f790 <t5_taskB6_generic_BLOCK_ERKENNUNG_CTRL+0x4c>
 200f8a4:	88200a37 	lui	v1,0x4014
 200f8a8:	8c4c3103 	lw	v1,780(v1)
 200f8ac:	f441c863 	beqz	v1,200f790 <t5_taskB6_generic_BLOCK_ERKENNUNG_CTRL+0x4c>
 200f8b0:	90200a37 	lui	a0,0x4014
 200f8b4:	9489b103 	lw	a0,620(a0)
 200f8b8:	8ca30033 	sub	v1,a0,v1
 200f8bc:	8c40f0d3 	fcvt.d.wu	fv1,v1
 200f8c0:	88200037 	lui	v1,0x4000
 200f8c4:	84402187 	fld	fv0,8(v1)
 200f8c8:	8c6150d3 	feq.d	v1,fv1,fv0
 200f8cc:	f4418863 	beqz	v1,200f790 <t5_taskB6_generic_BLOCK_ERKENNUNG_CTRL+0x4c>
 200f8d0:	88200a37 	lui	v1,0x4014
 200f8d4:	90200a37 	lui	a0,0x4014
 200f8d8:	948b7103 	lw	a0,732(a0)
 200f8dc:	9c4b0103 	lw	a1,704(v1)
 200f8e0:	84000413 	add	v0,v0,1
 200f8e4:	2d20e123 	sw	v0,696(a2)
 200f8e8:	f4e552e3 	ble	a0,a1,200f790 <t5_taskB6_generic_BLOCK_ERKENNUNG_CTRL+0x4c>
 200f8ec:	2c650123 	sw	a0,704(v1)
 200f8f0:	004000eb 	ret
 200f8f4:	80200a37 	lui	v0,0x4014
 200f8f8:	8c0b0103 	lw	v1,704(v0)
 200f8fc:	80200a37 	lui	v0,0x4014
 200f900:	840b7103 	lw	v0,732(v0)
 200f904:	8c7ffc13 	add	v1,v1,-1
 200f908:	f4231263 	blt	v0,v1,200f790 <t5_taskB6_generic_BLOCK_ERKENNUNG_CTRL+0x4c>
 200f90c:	88200a37 	lui	v1,0x4014
 200f910:	80000413 	li	v0,1
 200f914:	2441a423 	sb	zero,617(v1)
 200f918:	88200a37 	lui	v1,0x4014
 200f91c:	2c607823 	sb	v0,670(v1)
 200f920:	24a16423 	sb	v0,601(a0)
 200f924:	004000eb 	ret
 200f928:	88200a37 	lui	v1,0x4014
 200f92c:	8c4ac103 	lw	v1,688(v1)
 200f930:	fc60c863 	beq	v1,v0,200f894 <t5_taskB6_generic_BLOCK_ERKENNUNG_CTRL+0x150>
 200f934:	80200a37 	lui	v0,0x4014
 200f938:	2401a423 	sb	zero,617(v0)
 200f93c:	24a76423 	sb	a1,601(a0)
 200f940:	004000eb 	ret

0200f944 <t5_taskB6_FH_DU>:
 200f944:	73be2013 	add	sp,sp,-120
 200f948:	0385c123 	sw	s0,112(sp)
 200f94c:	10200a37 	lui	s0,0x4014
 200f950:	0387b123 	sw	s1,108(sp)
 200f954:	0389a123 	sw	s2,104(sp)
 200f958:	038b9123 	sw	s3,100(sp)
 200f95c:	038d8123 	sw	s4,96(sp)
 200f960:	038f7123 	sw	s5,92(sp)
 200f964:	03916123 	sw	s6,88(sp)
 200f968:	03935123 	sw	s7,84(sp)
 200f96c:	03954123 	sw	s8,80(sp)
 200f970:	03973123 	sw	s9,76(sp)
 200f974:	03992123 	sw	s10,72(sp)
 200f978:	039b1123 	sw	s11,68(sp)
 200f97c:	0383d123 	sw	ra,116(sp)
 200f980:	108c4013 	add	s0,s0,784
 200f984:	88000413 	li	v1,1
 200f988:	80200a37 	lui	v0,0x4014
 200f98c:	2423b123 	sw	v1,620(v0)
 200f990:	a8804003 	lb	a3,16(s0)
 200f994:	88802803 	lb	v1,10(s0)
 200f998:	b0804c03 	lb	a4,19(s0)
 200f99c:	b8803403 	lb	a5,13(s0)
 200f9a0:	80200a37 	lui	v0,0x4014
 200f9a4:	c0200a37 	lui	a6,0x4014
 200f9a8:	c8200a37 	lui	a7,0x4014
 200f9ac:	2401a023 	sb	zero,616(v0)
 200f9b0:	03a2a123 	sw	v1,40(sp)
 200f9b4:	860a0803 	lb	v0,642(a6)
 200f9b8:	03aac123 	sw	a3,48(sp)
 200f9bc:	03acd123 	sw	a4,52(sp)
 200f9c0:	03aeb123 	sw	a5,44(sp)
 200f9c4:	c64a0003 	lb	a6,640(a7)
 200f9c8:	58200a37 	lui	s9,0x4014
 200f9cc:	60200a37 	lui	s10,0x4014
 200f9d0:	20200a37 	lui	s2,0x4014
 200f9d4:	e0200a37 	lui	a10,0x4014
 200f9d8:	18200a37 	lui	s1,0x4014
 200f9dc:	50200a37 	lui	s8,0x4014
 200f9e0:	48200a37 	lui	s7,0x4014
 200f9e4:	40200a37 	lui	s6,0x4014
 200f9e8:	38200a37 	lui	s5,0x4014
 200f9ec:	30200a37 	lui	s4,0x4014
 200f9f0:	28200a37 	lui	s3,0x4014
 200f9f4:	a0200a37 	lui	a2,0x4014
 200f9f8:	98200a37 	lui	a1,0x4014
 200f9fc:	90200a37 	lui	a0,0x4014
 200fa00:	88200a37 	lui	v1,0x4014
 200fa04:	68200a37 	lui	s11,0x4014
 200fa08:	00016e67 	j	200ffc0 <t5_taskB6_FH_DU+0x67c>
 200fa0c:	b0000c13 	li	a4,3
 200fa10:	356c2063 	beq	a3,a4,2010020 <t5_taskB6_FH_DU+0x6dc>
 200fa14:	b0000413 	li	a4,1
 200fa18:	356c7863 	beq	a3,a4,2010054 <t5_taskB6_FH_DU+0x710>
 200fa1c:	f8200a37 	lui	a13,0x4014
 200fa20:	a8200a37 	lui	a3,0x4014
 200fa24:	b8000813 	li	a5,2
 200fa28:	b0200a37 	lui	a4,0x4014
 200fa2c:	27c1a423 	sb	zero,617(a13)
 200fa30:	2d415123 	sw	zero,724(a3)
 200fa34:	25af6c23 	sb	a5,603(a4)
 200fa38:	cb80a103 	lw	a7,40(sp)
 200fa3c:	064020e3 	bnez	a7,200fa4c <t5_taskB6_FH_DU+0x108>
 200fa40:	a8000c13 	li	a3,3
 200fa44:	d0200a37 	lui	a8,0x4014
 200fa48:	26ab9023 	sb	a3,612(a8)
 200fa4c:	db80c103 	lw	a9,48(sp)
 200fa50:	06c020e3 	bnez	a9,200fa60 <t5_taskB6_FH_DU+0x11c>
 200fa54:	b0000413 	li	a4,1
 200fa58:	a8200a37 	lui	a3,0x4014
 200fa5c:	256d6823 	sb	a4,602(a3)
 200fa60:	eb80d103 	lw	a11,52(sp)
 200fa64:	074030e3 	bnez	a11,200fa7c <t5_taskB6_FH_DU+0x138>
 200fa68:	a8200a37 	lui	a3,0x4014
 200fa6c:	35404023 	sb	zero,784(a3)
 200fa70:	b0000413 	li	a4,1
 200fa74:	a8200a37 	lui	a3,0x4014
 200fa78:	256d6023 	sb	a4,600(a3)
 200fa7c:	f380b103 	lw	a12,44(sp)
 200fa80:	078070e3 	bnez	a12,200fab8 <t5_taskB6_FH_DU+0x174>
 200fa84:	b0000813 	li	a4,2
 200fa88:	f8200a37 	lui	a13,0x4014
 200fa8c:	a8000413 	li	a3,1
 200fa90:	27ed8c23 	sb	a4,611(a13)
 200fa94:	b0200a37 	lui	a4,0x4014
 200fa98:	b8200a37 	lui	a5,0x4014
 200fa9c:	25ab8823 	sb	a3,610(a4)
 200faa0:	b0200a37 	lui	a4,0x4014
 200faa4:	00801023 	sb	zero,4(s0)
 200faa8:	00801823 	sb	zero,6(s0)
 200faac:	2dc1d123 	sw	zero,756(a5)
 200fab0:	00aa1423 	sb	a3,5(s0)
 200fab4:	25ab8423 	sb	a3,609(a4)
 200fab8:	a8000413 	li	a3,1
 200fabc:	00aa2c23 	sb	a3,11(s0)
 200fac0:	00aa4423 	sb	a3,17(s0)
 200fac4:	00aa5023 	sb	a3,20(s0)
 200fac8:	00aa3823 	sb	a3,14(s0)
 200facc:	04302863 	beq	v0,a6,200fae0 <t5_taskB6_FH_DU+0x19c>
 200fad0:	a8200a37 	lui	a3,0x4014
 200fad4:	ad49e403 	lb	a3,633(a3)
 200fad8:	054010e3 	bnez	a3,200fae0 <t5_taskB6_FH_DU+0x19c>
 200fadc:	29202823 	sb	v0,650(s2)
 200fae0:	c0200a37 	lui	a6,0x4014
 200fae4:	c8200a37 	lui	a7,0x4014
 200fae8:	8609fc03 	lb	v0,639(a6)
 200faec:	ae49f803 	lb	a3,638(a7)
 200faf0:	05603063 	beq	a3,v0,200fb08 <t5_taskB6_FH_DU+0x1c4>
 200faf4:	a8200a37 	lui	a3,0x4014
 200faf8:	ad49e403 	lb	a3,633(a3)
 200fafc:	05401863 	beqz	a3,200fb08 <t5_taskB6_FH_DU+0x1c4>
 200fb00:	d0200a37 	lui	a8,0x4014
 200fb04:	2ea00823 	sb	v0,642(a8)
 200fb08:	d8200a37 	lui	a9,0x4014
 200fb0c:	870a1403 	lb	v0,645(a10)
 200fb10:	aeca0c03 	lb	a3,643(a9)
 200fb14:	05602863 	beq	a3,v0,200fb28 <t5_taskB6_FH_DU+0x1e4>
 200fb18:	a8200a37 	lui	a3,0x4014
 200fb1c:	ad49e403 	lb	a3,633(a3)
 200fb20:	054010e3 	bnez	a3,200fb28 <t5_taskB6_FH_DU+0x1e4>
 200fb24:	28e02423 	sb	v0,649(s1)
 200fb28:	e8200a37 	lui	a11,0x4014
 200fb2c:	f0200a37 	lui	a12,0x4014
 200fb30:	8749f403 	lb	v0,637(a11)
 200fb34:	af89f003 	lb	a3,636(a12)
 200fb38:	05602863 	beq	a3,v0,200fb4c <t5_taskB6_FH_DU+0x208>
 200fb3c:	a8200a37 	lui	a3,0x4014
 200fb40:	ad49e403 	lb	a3,633(a3)
 200fb44:	05401063 	beqz	a3,200fb4c <t5_taskB6_FH_DU+0x208>
 200fb48:	2f201423 	sb	v0,645(a10)
 200fb4c:	d8803203 	lbu	a9,12(s0)
 200fb50:	d0803e03 	lbu	a8,15(s0)
 200fb54:	c8804a03 	lbu	a7,18(s0)
 200fb58:	c0805603 	lbu	a6,21(s0)
 200fb5c:	ba49ea03 	lbu	a5,634(s7)
 200fb60:	b0ca2603 	lbu	a4,649(s1)
 200fb64:	a989ee03 	lbu	a3,635(s4)
 200fb68:	810a2a03 	lbu	v0,650(s2)
 200fb6c:	00b62823 	sb	a9,10(s0)
 200fb70:	00b43423 	sb	a8,13(s0)
 200fb74:	00b24023 	sb	a7,16(s0)
 200fb78:	00b04c23 	sb	a6,19(s0)
 200fb7c:	2aae8823 	sb	a5,674(s8)
 200fb80:	03b86123 	sw	a10,24(sp)
 200fb84:	2a2c9023 	sb	a4,676(s6)
 200fb88:	29ea9823 	sb	a3,678(s5)
 200fb8c:	2960a023 	sb	v0,680(s3)
 200fb90:	03a25123 	sw	v1,20(sp)
 200fb94:	03a48123 	sw	a0,32(sp)
 200fb98:	03a64123 	sw	a1,16(sp)
 200fb9c:	03a87123 	sw	a2,28(sp)
 200fba0:	fffbe46f 	jal	200eb30 <t5_taskB6_generic_KINDERSICHERUNG_CTRL>
 200fba4:	a3807103 	lw	a2,28(sp)
 200fba8:	9b804103 	lw	a1,16(sp)
 200fbac:	f8200a37 	lui	a13,0x4014
 200fbb0:	80200a37 	lui	v0,0x4014
 200fbb4:	0fca4a03 	lbu	ra,658(a13)
 200fbb8:	93808103 	lw	a0,32(sp)
 200fbbc:	fc0a5603 	lbu	a13,661(v0)
 200fbc0:	8b805103 	lw	v1,20(sp)
 200fbc4:	f50b7103 	lw	a12,732(a2)
 200fbc8:	a8200a37 	lui	a3,0x4014
 200fbcc:	ed4a3e03 	lbu	a11,655(a3)
 200fbd0:	dccb8103 	lw	a9,736(a1)
 200fbd4:	d48a7203 	lbu	a8,668(a0)
 200fbd8:	ac4a8203 	lbu	a3,672(v1)
 200fbdc:	ca8a8a03 	lbu	a7,674(s8)
 200fbe0:	c20a9203 	lbu	a6,676(s6)
 200fbe4:	b9ca9a03 	lbu	a5,678(s5)
 200fbe8:	b14aa203 	lbu	a4,680(s3)
 200fbec:	834a7e03 	lbu	v0,671(s11)
 200fbf0:	22ffd423 	sb	a13,629(s9)
 200fbf4:	f8200a37 	lui	a13,0x4014
 200fbf8:	2ffd2123 	sw	a12,712(a13)
 200fbfc:	f8200a37 	lui	a13,0x4014
 200fc00:	f0200a37 	lui	a12,0x4014
 200fc04:	2fba1c23 	sb	a11,647(a12)
 200fc08:	2ff73123 	sw	a9,716(a13)
 200fc0c:	e8200a37 	lui	a11,0x4014
 200fc10:	d8200a37 	lui	a9,0x4014
 200fc14:	f0200a37 	lui	a12,0x4014
 200fc18:	2ef42023 	sb	a8,648(a9)
 200fc1c:	2f6a2c23 	sb	a3,651(a11)
 200fc20:	27a1e023 	sb	v0,632(a12)
 200fc24:	2303c823 	sb	ra,626(s10)
 200fc28:	2273e823 	sb	a7,634(s7)
 200fc2c:	28f02423 	sb	a6,649(s1)
 200fc30:	21afec23 	sb	a5,635(s4)
 200fc34:	292c2823 	sb	a4,650(s2)
 200fc38:	fffc986f 	jal	200ee98 <t5_taskB6_generic_FH_TUERMODUL_CTRL>
 200fc3c:	a3807103 	lw	a2,28(sp)
 200fc40:	9b804103 	lw	a1,16(sp)
 200fc44:	f8200a37 	lui	a13,0x4014
 200fc48:	80200a37 	lui	v0,0x4014
 200fc4c:	0fca4a03 	lbu	ra,658(a13)
 200fc50:	93808103 	lw	a0,32(sp)
 200fc54:	fc0a5603 	lbu	a13,661(v0)
 200fc58:	8b805103 	lw	v1,20(sp)
 200fc5c:	f50b7103 	lw	a12,732(a2)
 200fc60:	a8200a37 	lui	a3,0x4014
 200fc64:	ed4a3e03 	lbu	a11,655(a3)
 200fc68:	dccb8103 	lw	a9,736(a1)
 200fc6c:	d48a7203 	lbu	a8,668(a0)
 200fc70:	ac4a8203 	lbu	a3,672(v1)
 200fc74:	ca8a8a03 	lbu	a7,674(s8)
 200fc78:	c20a9203 	lbu	a6,676(s6)
 200fc7c:	b9ca9a03 	lbu	a5,678(s5)
 200fc80:	b14aa203 	lbu	a4,680(s3)
 200fc84:	834a7e03 	lbu	v0,671(s11)
 200fc88:	22ffd423 	sb	a13,629(s9)
 200fc8c:	f8200a37 	lui	a13,0x4014
 200fc90:	2ffd2123 	sw	a12,712(a13)
 200fc94:	f8200a37 	lui	a13,0x4014
 200fc98:	f0200a37 	lui	a12,0x4014
 200fc9c:	2fba1c23 	sb	a11,647(a12)
 200fca0:	2ff73123 	sw	a9,716(a13)
 200fca4:	e8200a37 	lui	a11,0x4014
 200fca8:	d8200a37 	lui	a9,0x4014
 200fcac:	f0200a37 	lui	a12,0x4014
 200fcb0:	2ef42023 	sb	a8,648(a9)
 200fcb4:	2f6a2c23 	sb	a3,651(a11)
 200fcb8:	27a1e023 	sb	v0,632(a12)
 200fcbc:	2303c823 	sb	ra,626(s10)
 200fcc0:	2273e823 	sb	a7,634(s7)
 200fcc4:	28f02423 	sb	a6,649(s1)
 200fcc8:	21afec23 	sb	a5,635(s4)
 200fccc:	292c2823 	sb	a4,650(s2)
 200fcd0:	fffe716f 	jal	200f694 <t5_taskB6_generic_EINKLEMMSCHUTZ_CTRL>
 200fcd4:	a3807103 	lw	a2,28(sp)
 200fcd8:	9b804103 	lw	a1,16(sp)
 200fcdc:	f8200a37 	lui	a13,0x4014
 200fce0:	80200a37 	lui	v0,0x4014
 200fce4:	0fca4a03 	lbu	ra,658(a13)
 200fce8:	93808103 	lw	a0,32(sp)
 200fcec:	fc0a5603 	lbu	a13,661(v0)
 200fcf0:	8b805103 	lw	v1,20(sp)
 200fcf4:	f50b7103 	lw	a12,732(a2)
 200fcf8:	a8200a37 	lui	a3,0x4014
 200fcfc:	ed4a3e03 	lbu	a11,655(a3)
 200fd00:	dccb8103 	lw	a9,736(a1)
 200fd04:	d48a7203 	lbu	a8,668(a0)
 200fd08:	ac4a8203 	lbu	a3,672(v1)
 200fd0c:	ca8a8a03 	lbu	a7,674(s8)
 200fd10:	c20a9203 	lbu	a6,676(s6)
 200fd14:	b9ca9a03 	lbu	a5,678(s5)
 200fd18:	b14aa203 	lbu	a4,680(s3)
 200fd1c:	834a7e03 	lbu	v0,671(s11)
 200fd20:	22ffd423 	sb	a13,629(s9)
 200fd24:	f8200a37 	lui	a13,0x4014
 200fd28:	2ffd2123 	sw	a12,712(a13)
 200fd2c:	f8200a37 	lui	a13,0x4014
 200fd30:	f0200a37 	lui	a12,0x4014
 200fd34:	2fba1c23 	sb	a11,647(a12)
 200fd38:	2ff73123 	sw	a9,716(a13)
 200fd3c:	e8200a37 	lui	a11,0x4014
 200fd40:	d8200a37 	lui	a9,0x4014
 200fd44:	f0200a37 	lui	a12,0x4014
 200fd48:	2ef42023 	sb	a8,648(a9)
 200fd4c:	2f6a2c23 	sb	a3,651(a11)
 200fd50:	27a1e023 	sb	v0,632(a12)
 200fd54:	2273e823 	sb	a7,634(s7)
 200fd58:	28f02423 	sb	a6,649(s1)
 200fd5c:	21afec23 	sb	a5,635(s4)
 200fd60:	292c2823 	sb	a4,650(s2)
 200fd64:	2303c823 	sb	ra,626(s10)
 200fd68:	fffe776f 	jal	200f744 <t5_taskB6_generic_BLOCK_ERKENNUNG_CTRL>
 200fd6c:	d0803403 	lb	a8,13(s0)
 200fd70:	d8804003 	lb	a9,16(s0)
 200fd74:	a3807103 	lw	a2,28(sp)
 200fd78:	c8802803 	lb	a7,10(s0)
 200fd7c:	f8200a37 	lui	a13,0x4014
 200fd80:	afca3c03 	lb	a3,655(a13)
 200fd84:	b28a8803 	lb	a4,674(s8)
 200fd88:	f8804c03 	lb	a13,19(s0)
 200fd8c:	9b804103 	lw	a1,16(sp)
 200fd90:	850b7103 	lw	v0,732(a2)
 200fd94:	ba0a9003 	lb	a5,676(s6)
 200fd98:	93808103 	lw	a0,32(sp)
 200fd9c:	03b4b123 	sw	a8,44(sp)
 200fda0:	03b6c123 	sw	a9,48(sp)
 200fda4:	d0200a37 	lui	a8,0x4014
 200fda8:	d8200a37 	lui	a9,0x4014
 200fdac:	03b2a123 	sw	a7,40(sp)
 200fdb0:	ce8bd103 	lw	a7,756(a8)
 200fdb4:	d6cb4103 	lw	a8,720(a9)
 200fdb8:	d8200a37 	lui	a9,0x4014
 200fdbc:	03ace123 	sw	a4,56(sp)
 200fdc0:	03bed123 	sw	a13,52(sp)
 200fdc4:	b4cb8103 	lw	a4,736(a1)
 200fdc8:	fecae103 	lw	a13,696(a9)
 200fdcc:	d8200a37 	lui	a9,0x4014
 200fdd0:	03ae3123 	sw	a5,12(sp)
 200fdd4:	2ee12123 	sw	v0,712(a9)
 200fdd8:	bc8a7203 	lbu	a5,668(a0)
 200fddc:	d8200a37 	lui	a9,0x4014
 200fde0:	2eea1c23 	sb	a3,647(a9)
 200fde4:	d8200a37 	lui	a9,0x4014
 200fde8:	2eed3123 	sw	a4,716(a9)
 200fdec:	8b805103 	lw	v1,20(sp)
 200fdf0:	b0200a37 	lui	a4,0x4014
 200fdf4:	2dae2023 	sb	a5,648(a4)
 200fdf8:	db803103 	lw	a9,12(sp)
 200fdfc:	bb80e103 	lw	a5,56(sp)
 200fe00:	c44a8203 	lbu	a6,672(v1)
 200fe04:	e9ca9803 	lb	a11,678(s5)
 200fe08:	f14aa003 	lb	a12,680(s3)
 200fe0c:	226fe823 	sb	a5,634(s7)
 200fe10:	28f62423 	sb	a9,649(s1)
 200fe14:	bb80a103 	lw	a5,40(sp)
 200fe18:	db80c103 	lw	a9,48(sp)
 200fe1c:	b0200a37 	lui	a4,0x4014
 200fe20:	2db02c23 	sb	a6,651(a4)
 200fe24:	c380b103 	lw	a6,44(sp)
 200fe28:	00ae2c23 	sb	a5,11(s0)
 200fe2c:	b8200a37 	lui	a5,0x4014
 200fe30:	00b64423 	sb	a9,17(s0)
 200fe34:	b380d103 	lw	a4,52(sp)
 200fe38:	2df3b123 	sw	a7,748(a5)
 200fe3c:	d8200a37 	lui	a9,0x4014
 200fe40:	c8200a37 	lui	a7,0x4014
 200fe44:	00b03823 	sb	a6,14(s0)
 200fe48:	2e755123 	sw	a8,724(a7)
 200fe4c:	2efec123 	sw	a13,688(a9)
 200fe50:	c0200a37 	lui	a6,0x4014
 200fe54:	d0200a37 	lui	a8,0x4014
 200fe58:	f8200a37 	lui	a13,0x4014
 200fe5c:	dfca7803 	lb	a9,670(a13)
 200fe60:	2e216123 	sw	v0,728(a6)
 200fe64:	2ea11123 	sw	v0,708(a8)
 200fe68:	b8200a37 	lui	a5,0x4014
 200fe6c:	80200a37 	lui	v0,0x4014
 200fe70:	f8200a37 	lui	a13,0x4014
 200fe74:	d40a6803 	lb	a8,666(v0)
 200fe78:	c5ca5003 	lb	a6,660(a5)
 200fe7c:	00ac5023 	sb	a4,20(s0)
 200fe80:	bfca4403 	lb	a5,657(a13)
 200fe84:	b0200a37 	lui	a4,0x4014
 200fe88:	80200a37 	lui	v0,0x4014
 200fe8c:	f8200a37 	lui	a13,0x4014
 200fe90:	cd8a5c03 	lb	a7,663(a4)
 200fe94:	b409dc03 	lb	a4,631(v0)
 200fe98:	87ca0803 	lb	v0,642(a13)
 200fe9c:	f8200a37 	lui	a13,0x4014
 200fea0:	ffc9fe03 	lbu	a13,639(a13)
 200fea4:	293c2823 	sb	a12,650(s2)
 200fea8:	21bbec23 	sb	a11,635(s4)
 200feac:	03be9c23 	sb	a13,39(sp)
 200feb0:	f8200a37 	lui	a13,0x4014
 200feb4:	ffc9f603 	lbu	a13,637(a13)
 200feb8:	e3806103 	lw	a10,24(sp)
 200febc:	03be9823 	sb	a13,38(sp)
 200fec0:	f8200a37 	lui	a13,0x4014
 200fec4:	ffc9d003 	lb	a13,628(a13)
 200fec8:	03bef123 	sw	a13,60(sp)
 200fecc:	f8200a37 	lui	a13,0x4014
 200fed0:	2ffc9c23 	sb	a12,679(a13)
 200fed4:	f0200a37 	lui	a12,0x4014
 200fed8:	2fba9423 	sb	a11,677(a12)
 200fedc:	eb803103 	lw	a11,12(sp)
 200fee0:	f8200a37 	lui	a13,0x4014
 200fee4:	f0200a37 	lui	a12,0x4014
 200fee8:	2ffa8c23 	sb	a11,675(a13)
 200feec:	fb80e103 	lw	a13,56(sp)
 200fef0:	e8200a37 	lui	a11,0x4014
 200fef4:	2f767423 	sb	a9,669(a11)
 200fef8:	2fbe8423 	sb	a13,673(a12)
 200fefc:	f0200a37 	lui	a12,0x4014
 200ff00:	f8200a37 	lui	a13,0x4014
 200ff04:	2fb46c23 	sb	a8,667(a12)
 200ff08:	2ff46423 	sb	a8,665(a13)
 200ff0c:	e8200a37 	lui	a11,0x4014
 200ff10:	d0200a37 	lui	a8,0x4014
 200ff14:	2b767c23 	sb	a9,671(s11)
 200ff18:	d8200a37 	lui	a9,0x4014
 200ff1c:	2eb26023 	sb	a7,664(a8)
 200ff20:	2ef25823 	sb	a7,662(a9)
 200ff24:	2f705423 	sb	a6,661(a11)
 200ff28:	c8200a37 	lui	a7,0x4014
 200ff2c:	d0200a37 	lui	a8,0x4014
 200ff30:	ef0a1603 	lbu	a11,645(a10)
 200ff34:	f0200a37 	lui	a12,0x4014
 200ff38:	2e6a3823 	sb	a3,654(a7)
 200ff3c:	2eaa1823 	sb	a3,646(a8)
 200ff40:	ab809e03 	lbu	a3,39(sp)
 200ff44:	2fb04c23 	sb	a6,659(a12)
 200ff48:	f8200a37 	lui	a13,0x4014
 200ff4c:	c0200a37 	lui	a6,0x4014
 200ff50:	d8200a37 	lui	a9,0x4014
 200ff54:	f0200a37 	lui	a12,0x4014
 200ff58:	2fee4823 	sb	a5,658(a13)
 200ff5c:	2e2e4023 	sb	a5,656(a6)
 200ff60:	2efa0c23 	sb	a11,643(a9)
 200ff64:	f8200a37 	lui	a13,0x4014
 200ff68:	2fa00023 	sb	v0,640(a12)
 200ff6c:	c3809a03 	lbu	a6,38(sp)
 200ff70:	c8200a37 	lui	a7,0x4014
 200ff74:	d0200a37 	lui	a8,0x4014
 200ff78:	e8200a37 	lui	a11,0x4014
 200ff7c:	f0200a37 	lui	a12,0x4014
 200ff80:	27ebf823 	sb	a3,638(a13)
 200ff84:	db80f103 	lw	a9,60(sp)
 200ff88:	af49c403 	lb	a3,625(a11)
 200ff8c:	266de023 	sb	a4,632(a7)
 200ff90:	26add823 	sb	a4,630(a8)
 200ff94:	b789a403 	lb	a4,617(a12)
 200ff98:	b8200a37 	lui	a5,0x4014
 200ff9c:	25f1f023 	sb	a6,636(a5)
 200ffa0:	f8200a37 	lui	a13,0x4014
 200ffa4:	b8200a37 	lui	a5,0x4014
 200ffa8:	22f7d423 	sb	a9,629(s9)
 200ffac:	27f7cc23 	sb	a9,627(a13)
 200ffb0:	232bc823 	sb	a3,626(s10)
 200ffb4:	25ebc023 	sb	a3,624(a5)
 200ffb8:	0d8000e3 	bnez	a4,20100b8 <t5_taskB6_FH_DU+0x774>
 200ffbc:	c4000013 	move	a6,v0
 200ffc0:	d0200a37 	lui	a8,0x4014
 200ffc4:	be89a203 	lbu	a5,616(a8)
 200ffc8:	d8200a37 	lui	a9,0x4014
 200ffcc:	aec96c03 	lb	a3,603(a9)
 200ffd0:	b0000413 	li	a4,1
 200ffd4:	bdc00413 	add	a5,a5,1
 200ffd8:	e8200a37 	lui	a11,0x4014
 200ffdc:	f0000813 	li	a12,2
 200ffe0:	276da423 	sb	a4,617(a11)
 200ffe4:	26afa023 	sb	a5,616(a8)
 200ffe8:	d57c48e3 	bne	a3,a12,200fa0c <t5_taskB6_FH_DU+0xc8>
 200ffec:	aac9d403 	lb	a3,629(s9)
 200fff0:	05412063 	beqz	a3,2010080 <t5_taskB6_FH_DU+0x73c>
 200fff4:	d0200a37 	lui	a8,0x4014
 200fff8:	ae89cc03 	lb	a3,627(a8)
 200fffc:	054108e3 	bnez	a3,2010080 <t5_taskB6_FH_DU+0x73c>
 2010000:	d8200a37 	lui	a9,0x4014
 2010004:	a83e7013 	li	a3,-100
 2010008:	e8200a37 	lui	a11,0x4014
 201000c:	f0200a37 	lui	a12,0x4014
 2010010:	26c1a423 	sb	zero,617(a9)
 2010014:	2f6b5123 	sw	a3,724(a11)
 2010018:	27ad6c23 	sb	a4,603(a12)
 201001c:	fffe8767 	j	200fa38 <t5_taskB6_FH_DU+0xf4>
 2010020:	ab09c803 	lb	a3,626(s10)
 2010024:	d54028e3 	bnez	a3,200fa38 <t5_taskB6_FH_DU+0xf4>
 2010028:	c8200a37 	lui	a7,0x4014
 201002c:	ae49c003 	lb	a3,624(a7)
 2010030:	d5401063 	beqz	a3,200fa38 <t5_taskB6_FH_DU+0xf4>
 2010034:	d0200a37 	lui	a8,0x4014
 2010038:	d8200a37 	lui	a9,0x4014
 201003c:	f0000813 	li	a12,2
 2010040:	e8200a37 	lui	a11,0x4014
 2010044:	2681a423 	sb	zero,617(a8)
 2010048:	2ec15123 	sw	zero,724(a9)
 201004c:	277d6c23 	sb	a12,603(a11)
 2010050:	fffe7a67 	j	200fa38 <t5_taskB6_FH_DU+0xf4>
 2010054:	aac9d403 	lb	a3,629(s9)
 2010058:	cd41c0e3 	bnez	a3,200fa38 <t5_taskB6_FH_DU+0xf4>
 201005c:	f8200a37 	lui	a13,0x4014
 2010060:	afc9cc03 	lb	a3,627(a13)
 2010064:	cd41a863 	beqz	a3,200fa38 <t5_taskB6_FH_DU+0xf4>
 2010068:	b0200a37 	lui	a4,0x4014
 201006c:	c8000813 	li	a7,2
 2010070:	2741a423 	sb	zero,617(a11)
 2010074:	2d815123 	sw	zero,724(a4)
 2010078:	26f36c23 	sb	a7,603(a9)
 201007c:	fffe6f67 	j	200fa38 <t5_taskB6_FH_DU+0xf4>
 2010080:	ab09c803 	lb	a3,626(s10)
 2010084:	cd416863 	beqz	a3,200fa38 <t5_taskB6_FH_DU+0xf4>
 2010088:	f8200a37 	lui	a13,0x4014
 201008c:	afc9c003 	lb	a3,624(a13)
 2010090:	cd4150e3 	bnez	a3,200fa38 <t5_taskB6_FH_DU+0xf4>
 2010094:	a8200a37 	lui	a3,0x4014
 2010098:	2541a423 	sb	zero,617(a3)
 201009c:	b0200a37 	lui	a4,0x4014
 20100a0:	a8019013 	li	a3,100
 20100a4:	2dab5123 	sw	a3,724(a4)
 20100a8:	b8200a37 	lui	a5,0x4014
 20100ac:	a8000c13 	li	a3,3
 20100b0:	25eb6c23 	sb	a3,603(a5)
 20100b4:	fffe6167 	j	200fa38 <t5_taskB6_FH_DU+0xf4>
 20100b8:	0b81d103 	lw	ra,116(sp)
 20100bc:	1381c103 	lw	s0,112(sp)
 20100c0:	1b81b103 	lw	s1,108(sp)
 20100c4:	2381a103 	lw	s2,104(sp)
 20100c8:	2b819103 	lw	s3,100(sp)
 20100cc:	33818103 	lw	s4,96(sp)
 20100d0:	3b817103 	lw	s5,92(sp)
 20100d4:	43816103 	lw	s6,88(sp)
 20100d8:	4b815103 	lw	s7,84(sp)
 20100dc:	53814103 	lw	s8,80(sp)
 20100e0:	5b813103 	lw	s9,76(sp)
 20100e4:	63812103 	lw	s10,72(sp)
 20100e8:	6b811103 	lw	s11,68(sp)
 20100ec:	7381e013 	add	sp,sp,120
 20100f0:	004000eb 	ret

020100f4 <t5_taskB6_main>:
 20100f4:	73bfe013 	add	sp,sp,-8
 20100f8:	03840123 	sw	s0,0(sp)
 20100fc:	03821123 	sw	ra,4(sp)
 2010100:	1002b413 	li	s0,173
 2010104:	10bffc13 	add	s0,s0,-1
 2010108:	fffa636f 	jal	200ea94 <t5_taskB6_init>
 201010c:	fffa006f 	jal	200e90c <t5_taskB6_interface>
 2010110:	fffe0d6f 	jal	200f944 <t5_taskB6_FH_DU>
 2010114:	f881e0e3 	bnez	s0,2010104 <t5_taskB6_main+0x10>
 2010118:	0b801103 	lw	ra,4(sp)
 201011c:	80000013 	li	v0,0
 2010120:	13800103 	lw	s0,0(sp)
 2010124:	73802013 	add	sp,sp,8
 2010128:	004000eb 	ret

0201012c <t5_taskB7_interface>:
 201012c:	80200a37 	lui	v0,0x4014
 2010130:	8c102013 	add	v1,v0,1032
 2010134:	94401003 	lb	a0,4(v1)
 2010138:	0c805063 	beqz	a0,2010260 <t5_taskB7_interface+0x134>
 201013c:	88200a37 	lui	v1,0x4014
 2010140:	8c4d9103 	lw	v1,868(v1)
 2010144:	90200a37 	lui	a0,0x4014
 2010148:	3ca3f123 	sw	v1,1020(a0)
 201014c:	90200a37 	lui	a0,0x4014
 2010150:	44a20123 	sw	v1,1024(a0)
 2010154:	90200a37 	lui	a0,0x4014
 2010158:	8c8fe103 	lw	v1,1016(a0)
 201015c:	04404863 	beqz	v1,2010180 <t5_taskB7_interface+0x54>
 2010160:	98200a37 	lui	a1,0x4014
 2010164:	9ccd9103 	lw	a1,868(a1)
 2010168:	8ce30033 	sub	v1,a1,v1
 201016c:	8c40f0d3 	fcvt.d.wu	fv1,v1
 2010170:	88200037 	lui	v1,0x4000
 2010174:	84400187 	fld	fv0,0(v1)
 2010178:	8c2370d3 	fle.d	v1,fv0,fv1
 201017c:	0c4050e3 	bnez	v1,20102a4 <t5_taskB7_interface+0x178>
 2010180:	90200a37 	lui	a0,0x4014
 2010184:	8c8fd103 	lw	v1,1012(a0)
 2010188:	04404863 	beqz	v1,20101ac <t5_taskB7_interface+0x80>
 201018c:	98200a37 	lui	a1,0x4014
 2010190:	9ccd9103 	lw	a1,868(a1)
 2010194:	8ce30033 	sub	v1,a1,v1
 2010198:	8c40f0d3 	fcvt.d.wu	fv1,v1
 201019c:	88200037 	lui	v1,0x4000
 20101a0:	84400187 	fld	fv0,0(v1)
 20101a4:	8c2370d3 	fle.d	v1,fv0,fv1
 20101a8:	0441d8e3 	bnez	v1,2010294 <t5_taskB7_interface+0x168>
 20101ac:	90200a37 	lui	a0,0x4014
 20101b0:	8c8fc103 	lw	v1,1008(a0)
 20101b4:	04404863 	beqz	v1,20101d8 <t5_taskB7_interface+0xac>
 20101b8:	98200a37 	lui	a1,0x4014
 20101bc:	9ccd9103 	lw	a1,868(a1)
 20101c0:	8ce30033 	sub	v1,a1,v1
 20101c4:	8c40f0d3 	fcvt.d.wu	fv1,v1
 20101c8:	88200037 	lui	v1,0x4000
 20101cc:	84400187 	fld	fv0,0(v1)
 20101d0:	8c2370d3 	fle.d	v1,fv0,fv1
 20101d4:	044160e3 	bnez	v1,2010284 <t5_taskB7_interface+0x158>
 20101d8:	90200a37 	lui	a0,0x4014
 20101dc:	8c8f8103 	lw	v1,992(a0)
 20101e0:	04404863 	beqz	v1,2010204 <t5_taskB7_interface+0xd8>
 20101e4:	98200a37 	lui	a1,0x4014
 20101e8:	9ccd9103 	lw	a1,868(a1)
 20101ec:	8ce30033 	sub	v1,a1,v1
 20101f0:	8c40f0d3 	fcvt.d.wu	fv1,v1
 20101f4:	88200037 	lui	v1,0x4000
 20101f8:	84400187 	fld	fv0,0(v1)
 20101fc:	8c2370d3 	fle.d	v1,fv0,fv1
 2010200:	0440f8e3 	bnez	v1,201027c <t5_taskB7_interface+0x150>
 2010204:	90200a37 	lui	a0,0x4014
 2010208:	8c8f7103 	lw	v1,988(a0)
 201020c:	04404863 	beqz	v1,2010230 <t5_taskB7_interface+0x104>
 2010210:	98200a37 	lui	a1,0x4014
 2010214:	9ccd9103 	lw	a1,868(a1)
 2010218:	8ce30033 	sub	v1,a1,v1
 201021c:	8c40f0d3 	fcvt.d.wu	fv1,v1
 2010220:	88200037 	lui	v1,0x4000
 2010224:	84400187 	fld	fv0,0(v1)
 2010228:	8c2370d3 	fle.d	v1,fv0,fv1
 201022c:	044090e3 	bnez	v1,2010274 <t5_taskB7_interface+0x148>
 2010230:	84102003 	lb	v0,1032(v0)
 2010234:	040030e3 	bnez	v0,201024c <t5_taskB7_interface+0x120>
 2010238:	80200a37 	lui	v0,0x4014
 201023c:	8c0ec103 	lw	v1,944(v0)
 2010240:	80200a37 	lui	v0,0x4014
 2010244:	840ea103 	lw	v0,936(v0)
 2010248:	04602863 	beq	v1,v0,201025c <t5_taskB7_interface+0x130>
 201024c:	80200a37 	lui	v0,0x4014
 2010250:	8c0d9103 	lw	v1,868(v0)
 2010254:	80200a37 	lui	v0,0x4014
 2010258:	44221123 	sw	v1,1028(v0)
 201025c:	004000eb 	ret
 2010260:	8c401803 	lb	v1,6(v1)
 2010264:	f441e063 	beqz	v1,2010154 <t5_taskB7_interface+0x28>
 2010268:	88200a37 	lui	v1,0x4014
 201026c:	8c4d9103 	lw	v1,868(v1)
 2010270:	ffffb767 	j	201014c <t5_taskB7_interface+0x20>
 2010274:	3c817123 	sw	zero,988(a0)
 2010278:	ffffee67 	j	2010230 <t5_taskB7_interface+0x104>
 201027c:	3c818123 	sw	zero,992(a0)
 2010280:	ffffe167 	j	2010204 <t5_taskB7_interface+0xd8>
 2010284:	88200a37 	lui	v1,0x4014
 2010288:	3c403023 	sb	zero,908(v1)
 201028c:	3c81c123 	sw	zero,1008(a0)
 2010290:	ffffd267 	j	20101d8 <t5_taskB7_interface+0xac>
 2010294:	88200a37 	lui	v1,0x4014
 2010298:	3c403023 	sb	zero,908(v1)
 201029c:	3c81d123 	sw	zero,1012(a0)
 20102a0:	ffffc367 	j	20101ac <t5_taskB7_interface+0x80>
 20102a4:	88200a37 	lui	v1,0x4014
 20102a8:	3c402423 	sb	zero,905(v1)
 20102ac:	3c81e123 	sw	zero,1016(a0)
 20102b0:	ffffb467 	j	2010180 <t5_taskB7_interface+0x54>

020102b4 <t5_taskB7_init>:
 20102b4:	80200a37 	lui	v0,0x4014
 20102b8:	44001123 	sw	zero,1028(v0)
 20102bc:	80200a37 	lui	v0,0x4014
 20102c0:	44000123 	sw	zero,1024(v0)
 20102c4:	80200a37 	lui	v0,0x4014
 20102c8:	3c01f123 	sw	zero,1020(v0)
 20102cc:	80200a37 	lui	v0,0x4014
 20102d0:	34017c23 	sb	zero,863(v0)
 20102d4:	80200a37 	lui	v0,0x4014
 20102d8:	34017823 	sb	zero,862(v0)
 20102dc:	80200a37 	lui	v0,0x4014
 20102e0:	34017423 	sb	zero,861(v0)
 20102e4:	80200a37 	lui	v0,0x4014
 20102e8:	34017023 	sb	zero,860(v0)
 20102ec:	80200a37 	lui	v0,0x4014
 20102f0:	34016c23 	sb	zero,859(v0)
 20102f4:	80200a37 	lui	v0,0x4014
 20102f8:	34016823 	sb	zero,858(v0)
 20102fc:	80200a37 	lui	v0,0x4014
 2010300:	34016423 	sb	zero,857(v0)
 2010304:	80200a37 	lui	v0,0x4014
 2010308:	34016023 	sb	zero,856(v0)
 201030c:	80200a37 	lui	v0,0x4014
 2010310:	34015c23 	sb	zero,855(v0)
 2010314:	80200a37 	lui	v0,0x4014
 2010318:	34015823 	sb	zero,854(v0)
 201031c:	80200a37 	lui	v0,0x4014
 2010320:	34015423 	sb	zero,853(v0)
 2010324:	80200a37 	lui	v0,0x4014
 2010328:	34015023 	sb	zero,852(v0)
 201032c:	80200a37 	lui	v0,0x4014
 2010330:	34014c23 	sb	zero,851(v0)
 2010334:	80200a37 	lui	v0,0x4014
 2010338:	34014823 	sb	zero,850(v0)
 201033c:	80200a37 	lui	v0,0x4014
 2010340:	34014423 	sb	zero,849(v0)
 2010344:	80200a37 	lui	v0,0x4014
 2010348:	34014023 	sb	zero,848(v0)
 201034c:	004000eb 	ret

02010350 <t5_taskB7_generic_KINDERSICHERUNG_CTRL>:
 2010350:	80200a37 	lui	v0,0x4014
 2010354:	84104803 	lb	v0,1042(v0)
 2010358:	04006063 	beqz	v0,2010388 <t5_taskB7_generic_KINDERSICHERUNG_CTRL+0x38>
 201035c:	88200a37 	lui	v1,0x4014
 2010360:	844d7003 	lb	v0,860(v1)
 2010364:	90000813 	li	a0,2
 2010368:	04244863 	beq	v0,a0,201038c <t5_taskB7_generic_KINDERSICHERUNG_CTRL+0x3c>
 201036c:	98000c13 	li	a1,3
 2010370:	0427a863 	beq	v0,a1,2010444 <t5_taskB7_generic_KINDERSICHERUNG_CTRL+0xf4>
 2010374:	90000413 	li	a0,1
 2010378:	04249063 	beq	v0,a0,20103c0 <t5_taskB7_generic_KINDERSICHERUNG_CTRL+0x70>
 201037c:	80200a37 	lui	v0,0x4014
 2010380:	34018423 	sb	zero,865(v0)
 2010384:	34677023 	sb	a1,860(v1)
 2010388:	004000eb 	ret
 201038c:	80200a37 	lui	v0,0x4014
 2010390:	840e6803 	lb	v0,922(v0)
 2010394:	040020e3 	bnez	v0,20103a4 <t5_taskB7_generic_KINDERSICHERUNG_CTRL+0x54>
 2010398:	90200a37 	lui	a0,0x4014
 201039c:	948e7803 	lb	a0,926(a0)
 20103a0:	1480d863 	beqz	a0,201060c <t5_taskB7_generic_KINDERSICHERUNG_CTRL+0x2bc>
 20103a4:	88200a37 	lui	v1,0x4014
 20103a8:	944d7403 	lb	a0,861(v1)
 20103ac:	98000413 	li	a1,1
 20103b0:	0ca61863 	beq	a0,a1,20104bc <t5_taskB7_generic_KINDERSICHERUNG_CTRL+0x16c>
 20103b4:	80200a37 	lui	v0,0x4014
 20103b8:	34018423 	sb	zero,865(v0)
 20103bc:	004000eb 	ret
 20103c0:	80200a37 	lui	v0,0x4014
 20103c4:	840e7003 	lb	v0,924(v0)
 20103c8:	040020e3 	bnez	v0,20103d8 <t5_taskB7_generic_KINDERSICHERUNG_CTRL+0x88>
 20103cc:	90200a37 	lui	a0,0x4014
 20103d0:	948e8003 	lb	a0,928(a0)
 20103d4:	14802063 	beqz	a0,20105e4 <t5_taskB7_generic_KINDERSICHERUNG_CTRL+0x294>
 20103d8:	88200a37 	lui	v1,0x4014
 20103dc:	944d7803 	lb	a0,862(v1)
 20103e0:	98000413 	li	a1,1
 20103e4:	fca7a0e3 	bne	a0,a1,20103b4 <t5_taskB7_generic_KINDERSICHERUNG_CTRL+0x64>
 20103e8:	04005063 	beqz	v0,2010410 <t5_taskB7_generic_KINDERSICHERUNG_CTRL+0xc0>
 20103ec:	98200a37 	lui	a1,0x4014
 20103f0:	9cce6c03 	lb	a1,923(a1)
 20103f4:	04c038e3 	bnez	a1,2010410 <t5_taskB7_generic_KINDERSICHERUNG_CTRL+0xc0>
 20103f8:	80200a37 	lui	v0,0x4014
 20103fc:	34018423 	sb	zero,865(v0)
 2010400:	80200a37 	lui	v0,0x4014
 2010404:	3c243c23 	sb	a0,911(v0)
 2010408:	34657823 	sb	a0,862(v1)
 201040c:	004000eb 	ret
 2010410:	90200a37 	lui	a0,0x4014
 2010414:	948e8003 	lb	a0,928(a0)
 2010418:	0c80a863 	beqz	a0,201056c <t5_taskB7_generic_KINDERSICHERUNG_CTRL+0x21c>
 201041c:	98200a37 	lui	a1,0x4014
 2010420:	9cce7c03 	lb	a1,927(a1)
 2010424:	0cc090e3 	bnez	a1,201056c <t5_taskB7_generic_KINDERSICHERUNG_CTRL+0x21c>
 2010428:	90200a37 	lui	a0,0x4014
 201042c:	80000413 	li	v0,1
 2010430:	34818423 	sb	zero,865(a0)
 2010434:	90200a37 	lui	a0,0x4014
 2010438:	3ca04823 	sb	v0,914(a0)
 201043c:	34617823 	sb	v0,862(v1)
 2010440:	004000eb 	ret
 2010444:	80200a37 	lui	v0,0x4014
 2010448:	840e6003 	lb	v0,920(v0)
 201044c:	040070e3 	bnez	v0,2010484 <t5_taskB7_generic_KINDERSICHERUNG_CTRL+0x134>
 2010450:	98200a37 	lui	a1,0x4014
 2010454:	9cce7803 	lb	a1,926(a1)
 2010458:	04c1d863 	beqz	a1,2010544 <t5_taskB7_generic_KINDERSICHERUNG_CTRL+0x1f4>
 201045c:	80200a37 	lui	v0,0x4014
 2010460:	840e6803 	lb	v0,922(v0)
 2010464:	140060e3 	bnez	v0,2010694 <t5_taskB7_generic_KINDERSICHERUNG_CTRL+0x344>
 2010468:	80200a37 	lui	v0,0x4014
 201046c:	34018423 	sb	zero,865(v0)
 2010470:	98000413 	li	a1,1
 2010474:	80200a37 	lui	v0,0x4014
 2010478:	3c264823 	sb	a1,914(v0)
 201047c:	34657023 	sb	a0,860(v1)
 2010480:	004000eb 	ret
 2010484:	90200a37 	lui	a0,0x4014
 2010488:	948e8003 	lb	a0,928(a0)
 201048c:	048118e3 	bnez	a0,2010518 <t5_taskB7_generic_KINDERSICHERUNG_CTRL+0x1c8>
 2010490:	90200a37 	lui	a0,0x4014
 2010494:	948e7003 	lb	a0,924(a0)
 2010498:	f481e063 	beqz	a0,2010388 <t5_taskB7_generic_KINDERSICHERUNG_CTRL+0x38>
 201049c:	f401d8e3 	bnez	v0,2010388 <t5_taskB7_generic_KINDERSICHERUNG_CTRL+0x38>
 20104a0:	90200a37 	lui	a0,0x4014
 20104a4:	80000413 	li	v0,1
 20104a8:	34818423 	sb	zero,865(a0)
 20104ac:	90200a37 	lui	a0,0x4014
 20104b0:	3ca03c23 	sb	v0,911(a0)
 20104b4:	34617023 	sb	v0,860(v1)
 20104b8:	004000eb 	ret
 20104bc:	04005063 	beqz	v0,20104e4 <t5_taskB7_generic_KINDERSICHERUNG_CTRL+0x194>
 20104c0:	98200a37 	lui	a1,0x4014
 20104c4:	9cce6403 	lb	a1,921(a1)
 20104c8:	04c038e3 	bnez	a1,20104e4 <t5_taskB7_generic_KINDERSICHERUNG_CTRL+0x194>
 20104cc:	80200a37 	lui	v0,0x4014
 20104d0:	34018423 	sb	zero,865(v0)
 20104d4:	80200a37 	lui	v0,0x4014
 20104d8:	3c243c23 	sb	a0,911(v0)
 20104dc:	34657423 	sb	a0,861(v1)
 20104e0:	004000eb 	ret
 20104e4:	90200a37 	lui	a0,0x4014
 20104e8:	948e7803 	lb	a0,926(a0)
 20104ec:	04817863 	beqz	a0,20105a8 <t5_taskB7_generic_KINDERSICHERUNG_CTRL+0x258>
 20104f0:	98200a37 	lui	a1,0x4014
 20104f4:	9cce7403 	lb	a1,925(a1)
 20104f8:	04c160e3 	bnez	a1,20105a8 <t5_taskB7_generic_KINDERSICHERUNG_CTRL+0x258>
 20104fc:	90200a37 	lui	a0,0x4014
 2010500:	80000413 	li	v0,1
 2010504:	34818423 	sb	zero,865(a0)
 2010508:	90200a37 	lui	a0,0x4014
 201050c:	3ca04823 	sb	v0,914(a0)
 2010510:	34617423 	sb	v0,861(v1)
 2010514:	004000eb 	ret
 2010518:	90200a37 	lui	a0,0x4014
 201051c:	948e7003 	lb	a0,924(a0)
 2010520:	0c8030e3 	bnez	a0,2010638 <t5_taskB7_generic_KINDERSICHERUNG_CTRL+0x2e8>
 2010524:	f400c8e3 	bnez	v0,2010388 <t5_taskB7_generic_KINDERSICHERUNG_CTRL+0x38>
 2010528:	90200a37 	lui	a0,0x4014
 201052c:	80000413 	li	v0,1
 2010530:	34818423 	sb	zero,865(a0)
 2010534:	90200a37 	lui	a0,0x4014
 2010538:	3ca04823 	sb	v0,914(a0)
 201053c:	34617023 	sb	v0,860(v1)
 2010540:	004000eb 	ret
 2010544:	98200a37 	lui	a1,0x4014
 2010548:	9cce6803 	lb	a1,922(a1)
 201054c:	fcc07063 	beqz	a1,2010484 <t5_taskB7_generic_KINDERSICHERUNG_CTRL+0x134>
 2010550:	80200a37 	lui	v0,0x4014
 2010554:	34018423 	sb	zero,865(v0)
 2010558:	98000413 	li	a1,1
 201055c:	80200a37 	lui	v0,0x4014
 2010560:	3c263c23 	sb	a1,911(v0)
 2010564:	34657023 	sb	a0,860(v1)
 2010568:	004000eb 	ret
 201056c:	040020e3 	bnez	v0,201057c <t5_taskB7_generic_KINDERSICHERUNG_CTRL+0x22c>
 2010570:	80200a37 	lui	v0,0x4014
 2010574:	840e6c03 	lb	v0,923(v0)
 2010578:	0401c8e3 	bnez	v0,201065c <t5_taskB7_generic_KINDERSICHERUNG_CTRL+0x30c>
 201057c:	f48018e3 	bnez	a0,2010388 <t5_taskB7_generic_KINDERSICHERUNG_CTRL+0x38>
 2010580:	80200a37 	lui	v0,0x4014
 2010584:	840e7c03 	lb	v0,927(v0)
 2010588:	f4000063 	beqz	v0,2010388 <t5_taskB7_generic_KINDERSICHERUNG_CTRL+0x38>
 201058c:	80200a37 	lui	v0,0x4014
 2010590:	34018423 	sb	zero,865(v0)
 2010594:	80200a37 	lui	v0,0x4014
 2010598:	3c004823 	sb	zero,914(v0)
 201059c:	80000413 	li	v0,1
 20105a0:	34617823 	sb	v0,862(v1)
 20105a4:	004000eb 	ret
 20105a8:	040020e3 	bnez	v0,20105b8 <t5_taskB7_generic_KINDERSICHERUNG_CTRL+0x268>
 20105ac:	80200a37 	lui	v0,0x4014
 20105b0:	840e6403 	lb	v0,921(v0)
 20105b4:	040188e3 	bnez	v0,2010678 <t5_taskB7_generic_KINDERSICHERUNG_CTRL+0x328>
 20105b8:	ec81a0e3 	bnez	a0,2010388 <t5_taskB7_generic_KINDERSICHERUNG_CTRL+0x38>
 20105bc:	80200a37 	lui	v0,0x4014
 20105c0:	840e7403 	lb	v0,925(v0)
 20105c4:	ec018863 	beqz	v0,2010388 <t5_taskB7_generic_KINDERSICHERUNG_CTRL+0x38>
 20105c8:	80200a37 	lui	v0,0x4014
 20105cc:	34018423 	sb	zero,865(v0)
 20105d0:	80200a37 	lui	v0,0x4014
 20105d4:	3c004823 	sb	zero,914(v0)
 20105d8:	80000413 	li	v0,1
 20105dc:	34617423 	sb	v0,861(v1)
 20105e0:	004000eb 	ret
 20105e4:	80200a37 	lui	v0,0x4014
 20105e8:	34018423 	sb	zero,865(v0)
 20105ec:	80200a37 	lui	v0,0x4014
 20105f0:	3c004823 	sb	zero,914(v0)
 20105f4:	80200a37 	lui	v0,0x4014
 20105f8:	3c003c23 	sb	zero,911(v0)
 20105fc:	80200a37 	lui	v0,0x4014
 2010600:	34677023 	sb	a1,860(v1)
 2010604:	34017823 	sb	zero,862(v0)
 2010608:	004000eb 	ret
 201060c:	80200a37 	lui	v0,0x4014
 2010610:	34018423 	sb	zero,865(v0)
 2010614:	80200a37 	lui	v0,0x4014
 2010618:	3c004823 	sb	zero,914(v0)
 201061c:	80200a37 	lui	v0,0x4014
 2010620:	3c003c23 	sb	zero,911(v0)
 2010624:	80000c13 	li	v0,3
 2010628:	34617023 	sb	v0,860(v1)
 201062c:	80200a37 	lui	v0,0x4014
 2010630:	34017423 	sb	zero,861(v0)
 2010634:	004000eb 	ret
 2010638:	90200a37 	lui	a0,0x4014
 201063c:	80000413 	li	v0,1
 2010640:	34818423 	sb	zero,865(a0)
 2010644:	90200a37 	lui	a0,0x4014
 2010648:	3ca03c23 	sb	v0,911(a0)
 201064c:	90200a37 	lui	a0,0x4014
 2010650:	3ca04823 	sb	v0,914(a0)
 2010654:	34617023 	sb	v0,860(v1)
 2010658:	004000eb 	ret
 201065c:	80200a37 	lui	v0,0x4014
 2010660:	34018423 	sb	zero,865(v0)
 2010664:	80200a37 	lui	v0,0x4014
 2010668:	3c003c23 	sb	zero,911(v0)
 201066c:	80000413 	li	v0,1
 2010670:	34617823 	sb	v0,862(v1)
 2010674:	004000eb 	ret
 2010678:	80200a37 	lui	v0,0x4014
 201067c:	34018423 	sb	zero,865(v0)
 2010680:	80200a37 	lui	v0,0x4014
 2010684:	3c003c23 	sb	zero,911(v0)
 2010688:	80000413 	li	v0,1
 201068c:	34617423 	sb	v0,861(v1)
 2010690:	004000eb 	ret
 2010694:	98200a37 	lui	a1,0x4014
 2010698:	80000413 	li	v0,1
 201069c:	34c18423 	sb	zero,865(a1)
 20106a0:	98200a37 	lui	a1,0x4014
 20106a4:	3ce04823 	sb	v0,914(a1)
 20106a8:	98200a37 	lui	a1,0x4014
 20106ac:	3ce03c23 	sb	v0,911(a1)
 20106b0:	34657023 	sb	a0,860(v1)
 20106b4:	004000eb 	ret

020106b8 <t5_taskB7_generic_FH_TUERMODUL_CTRL>:
 20106b8:	80200a37 	lui	v0,0x4014
 20106bc:	84102013 	add	v0,v0,1032
 20106c0:	8c003403 	lb	v1,13(v0)
 20106c4:	044048e3 	bnez	v1,20106e8 <t5_taskB7_generic_FH_TUERMODUL_CTRL+0x30>
 20106c8:	8c003c03 	lb	v1,15(v0)
 20106cc:	04403063 	beqz	v1,20106e4 <t5_taskB7_generic_FH_TUERMODUL_CTRL+0x2c>
 20106d0:	8c003803 	lb	v1,14(v0)
 20106d4:	044020e3 	bnez	v1,20106e4 <t5_taskB7_generic_FH_TUERMODUL_CTRL+0x2c>
 20106d8:	04001023 	sb	zero,4(v0)
 20106dc:	04001823 	sb	zero,6(v0)
 20106e0:	004000eb 	ret
 20106e4:	004000eb 	ret
 20106e8:	8c002803 	lb	v1,10(v0)
 20106ec:	044020e3 	bnez	v1,20106fc <t5_taskB7_generic_FH_TUERMODUL_CTRL+0x44>
 20106f0:	90000c13 	li	a0,3
 20106f4:	88200a37 	lui	v1,0x4014
 20106f8:	34657023 	sb	a0,860(v1)
 20106fc:	8c004c03 	lb	v1,19(v0)
 2010700:	044030e3 	bnez	v1,2010718 <t5_taskB7_generic_FH_TUERMODUL_CTRL+0x60>
 2010704:	88200a37 	lui	v1,0x4014
 2010708:	44402023 	sb	zero,1032(v1)
 201070c:	90000413 	li	a0,1
 2010710:	88200a37 	lui	v1,0x4014
 2010714:	34654023 	sb	a0,848(v1)
 2010718:	98200a37 	lui	a1,0x4014
 201071c:	8ccd6c03 	lb	v1,859(a1)
 2010720:	90000413 	li	a0,1
 2010724:	a0000813 	li	a2,2
 2010728:	04242c23 	sb	a0,11(v0)
 201072c:	04245023 	sb	a0,20(v0)
 2010730:	04693863 	beq	v1,a2,20107cc <t5_taskB7_generic_FH_TUERMODUL_CTRL+0x114>
 2010734:	a8000c13 	li	a3,3
 2010738:	0c6a2063 	beq	v1,a3,2010848 <t5_taskB7_generic_FH_TUERMODUL_CTRL+0x190>
 201073c:	90000413 	li	a0,1
 2010740:	0465a863 	beq	v1,a0,2010814 <t5_taskB7_generic_FH_TUERMODUL_CTRL+0x15c>
 2010744:	88200a37 	lui	v1,0x4014
 2010748:	34418423 	sb	zero,865(v1)
 201074c:	34e96c23 	sb	a2,859(a1)
 2010750:	90200a37 	lui	a0,0x4014
 2010754:	9c8d6803 	lb	a1,858(a0)
 2010758:	88000413 	li	v1,1
 201075c:	04e26863 	beq	a1,v1,2010790 <t5_taskB7_generic_FH_TUERMODUL_CTRL+0xd8>
 2010760:	98200a37 	lui	a1,0x4014
 2010764:	34c18423 	sb	zero,865(a1)
 2010768:	34a36823 	sb	v1,858(a0)
 201076c:	98200a37 	lui	a1,0x4014
 2010770:	90200a37 	lui	a0,0x4014
 2010774:	3cc1b123 	sw	zero,1004(a1)
 2010778:	34a36423 	sb	v1,857(a0)
 201077c:	94001203 	lbu	a0,4(v0)
 2010780:	8c001a03 	lbu	v1,6(v0)
 2010784:	04241423 	sb	a0,5(v0)
 2010788:	04221c23 	sb	v1,7(v0)
 201078c:	004000eb 	ret
 2010790:	88200a37 	lui	v1,0x4014
 2010794:	8c4d8003 	lb	v1,864(v1)
 2010798:	0c67e063 	beq	v1,a1,2010988 <t5_taskB7_generic_FH_TUERMODUL_CTRL+0x2d0>
 201079c:	90200a37 	lui	a0,0x4014
 20107a0:	a48d6403 	lb	a2,857(a0)
 20107a4:	98000413 	li	a1,1
 20107a8:	0d270863 	beq	a2,a1,201092c <t5_taskB7_generic_FH_TUERMODUL_CTRL+0x274>
 20107ac:	88200a37 	lui	v1,0x4014
 20107b0:	34418423 	sb	zero,865(v1)
 20107b4:	34a76423 	sb	a1,857(a0)
 20107b8:	8c001a03 	lbu	v1,6(v0)
 20107bc:	94001203 	lbu	a0,4(v0)
 20107c0:	04221c23 	sb	v1,7(v0)
 20107c4:	04241423 	sb	a0,5(v0)
 20107c8:	004000eb 	ret
 20107cc:	88200a37 	lui	v1,0x4014
 20107d0:	8c4e5c03 	lb	v1,919(v1)
 20107d4:	04402063 	beqz	v1,20107e4 <t5_taskB7_generic_FH_TUERMODUL_CTRL+0x12c>
 20107d8:	88200a37 	lui	v1,0x4014
 20107dc:	8c4e5403 	lb	v1,917(v1)
 20107e0:	14401063 	beqz	v1,20109e8 <t5_taskB7_generic_FH_TUERMODUL_CTRL+0x330>
 20107e4:	90200a37 	lui	a0,0x4014
 20107e8:	8c8d7c03 	lb	v1,863(a0)
 20107ec:	98000813 	li	a1,2
 20107f0:	14675863 	beq	v1,a1,2010a9c <t5_taskB7_generic_FH_TUERMODUL_CTRL+0x3e4>
 20107f4:	a0000c13 	li	a2,3
 20107f8:	1468f863 	beq	v1,a2,2010a74 <t5_taskB7_generic_FH_TUERMODUL_CTRL+0x3bc>
 20107fc:	98000413 	li	a1,1
 2010800:	14665063 	beq	v1,a1,2010a28 <t5_taskB7_generic_FH_TUERMODUL_CTRL+0x370>
 2010804:	88200a37 	lui	v1,0x4014
 2010808:	34418423 	sb	zero,865(v1)
 201080c:	34a97c23 	sb	a2,863(a0)
 2010810:	ffffd067 	j	2010750 <t5_taskB7_generic_FH_TUERMODUL_CTRL+0x98>
 2010814:	88200a37 	lui	v1,0x4014
 2010818:	8c4fb103 	lw	v1,1004(v1)
 201081c:	9000ec13 	li	a0,59
 2010820:	fc6460e3 	bne	v1,a0,2010750 <t5_taskB7_generic_FH_TUERMODUL_CTRL+0x98>
 2010824:	90200a37 	lui	a0,0x4014
 2010828:	948f9103 	lw	a0,996(a0)
 201082c:	fca24863 	beq	a0,v1,2010750 <t5_taskB7_generic_FH_TUERMODUL_CTRL+0x98>
 2010830:	88200a37 	lui	v1,0x4014
 2010834:	34418423 	sb	zero,865(v1)
 2010838:	88200a37 	lui	v1,0x4014
 201083c:	34eb6c23 	sb	a3,859(a1)
 2010840:	346b6023 	sb	a3,856(v1)
 2010844:	ffffc367 	j	2010750 <t5_taskB7_generic_FH_TUERMODUL_CTRL+0x98>
 2010848:	88200a37 	lui	v1,0x4014
 201084c:	8c4fb103 	lw	v1,1004(v1)
 2010850:	8c40f513 	slt	v1,v1,61
 2010854:	044098e3 	bnez	v1,20108a0 <t5_taskB7_generic_FH_TUERMODUL_CTRL+0x1e8>
 2010858:	88200a37 	lui	v1,0x4014
 201085c:	8c4f9103 	lw	v1,996(v1)
 2010860:	8c40f513 	slt	v1,v1,61
 2010864:	04407863 	beqz	v1,20108a0 <t5_taskB7_generic_FH_TUERMODUL_CTRL+0x1e8>
 2010868:	88200a37 	lui	v1,0x4014
 201086c:	8c4e8c03 	lb	v1,931(v1)
 2010870:	044060e3 	bnez	v1,20108a0 <t5_taskB7_generic_FH_TUERMODUL_CTRL+0x1e8>
 2010874:	88200a37 	lui	v1,0x4014
 2010878:	8c4e9403 	lb	v1,933(v1)
 201087c:	044048e3 	bnez	v1,20108a0 <t5_taskB7_generic_FH_TUERMODUL_CTRL+0x1e8>
 2010880:	88200a37 	lui	v1,0x4014
 2010884:	34418423 	sb	zero,865(v1)
 2010888:	88200a37 	lui	v1,0x4014
 201088c:	3c403023 	sb	zero,908(v1)
 2010890:	88200a37 	lui	v1,0x4014
 2010894:	3c402423 	sb	zero,905(v1)
 2010898:	34e56c23 	sb	a0,859(a1)
 201089c:	ffffad67 	j	2010750 <t5_taskB7_generic_FH_TUERMODUL_CTRL+0x98>
 20108a0:	88200a37 	lui	v1,0x4014
 20108a4:	8c4e5c03 	lb	v1,919(v1)
 20108a8:	0440a863 	beqz	v1,20108fc <t5_taskB7_generic_FH_TUERMODUL_CTRL+0x244>
 20108ac:	88200a37 	lui	v1,0x4014
 20108b0:	8c4e5403 	lb	v1,917(v1)
 20108b4:	044090e3 	bnez	v1,20108fc <t5_taskB7_generic_FH_TUERMODUL_CTRL+0x244>
 20108b8:	88200a37 	lui	v1,0x4014
 20108bc:	8c4e2803 	lb	v1,906(v1)
 20108c0:	1441d863 	beqz	v1,2010bac <t5_taskB7_generic_FH_TUERMODUL_CTRL+0x4f4>
 20108c4:	88200a37 	lui	v1,0x4014
 20108c8:	944d9103 	lw	a0,868(v1)
 20108cc:	88200a37 	lui	v1,0x4014
 20108d0:	34418423 	sb	zero,865(v1)
 20108d4:	88200a37 	lui	v1,0x4014
 20108d8:	3c402423 	sb	zero,905(v1)
 20108dc:	88200a37 	lui	v1,0x4014
 20108e0:	3c65e123 	sw	a0,1016(v1)
 20108e4:	88000813 	li	v1,2
 20108e8:	34e36c23 	sb	v1,859(a1)
 20108ec:	90000c13 	li	a0,3
 20108f0:	88200a37 	lui	v1,0x4014
 20108f4:	34657c23 	sb	a0,863(v1)
 20108f8:	ffff9667 	j	2010750 <t5_taskB7_generic_FH_TUERMODUL_CTRL+0x98>
 20108fc:	90200a37 	lui	a0,0x4014
 2010900:	8c8d6003 	lb	v1,856(a0)
 2010904:	98000813 	li	a1,2
 2010908:	14662063 	beq	v1,a1,2010b18 <t5_taskB7_generic_FH_TUERMODUL_CTRL+0x460>
 201090c:	a0000c13 	li	a2,3
 2010910:	0c696863 	beq	v1,a2,2010ac4 <t5_taskB7_generic_FH_TUERMODUL_CTRL+0x40c>
 2010914:	a8000413 	li	a3,1
 2010918:	0c6a6863 	beq	v1,a3,2010a4c <t5_taskB7_generic_FH_TUERMODUL_CTRL+0x394>
 201091c:	88200a37 	lui	v1,0x4014
 2010920:	34418423 	sb	zero,865(v1)
 2010924:	34a96023 	sb	a2,856(a0)
 2010928:	ffff8a67 	j	2010750 <t5_taskB7_generic_FH_TUERMODUL_CTRL+0x98>
 201092c:	f468a0e3 	bne	v1,a2,201077c <t5_taskB7_generic_FH_TUERMODUL_CTRL+0xc4>
 2010930:	98200a37 	lui	a1,0x4014
 2010934:	9ccff103 	lw	a1,1020(a1)
 2010938:	f4c08863 	beqz	a1,201077c <t5_taskB7_generic_FH_TUERMODUL_CTRL+0xc4>
 201093c:	a0200a37 	lui	a2,0x4014
 2010940:	a50d9103 	lw	a2,868(a2)
 2010944:	a53ff413 	add	a2,a2,-3
 2010948:	f4e868e3 	bne	a1,a2,201077c <t5_taskB7_generic_FH_TUERMODUL_CTRL+0xc4>
 201094c:	98200a37 	lui	a1,0x4014
 2010950:	9cce3403 	lb	a1,909(a1)
 2010954:	f4c050e3 	bnez	a1,201077c <t5_taskB7_generic_FH_TUERMODUL_CTRL+0xc4>
 2010958:	98200a37 	lui	a1,0x4014
 201095c:	9cce2803 	lb	a1,906(a1)
 2010960:	f4c038e3 	bnez	a1,201077c <t5_taskB7_generic_FH_TUERMODUL_CTRL+0xc4>
 2010964:	98200a37 	lui	a1,0x4014
 2010968:	a4cfb103 	lw	a2,1004(a1)
 201096c:	f02822e3 	blez	a2,201077c <t5_taskB7_generic_FH_TUERMODUL_CTRL+0xc4>
 2010970:	a53ffc13 	add	a2,a2,-1
 2010974:	a8200a37 	lui	a3,0x4014
 2010978:	35418423 	sb	zero,865(a3)
 201097c:	3ce9b123 	sw	a2,1004(a1)
 2010980:	34a36423 	sb	v1,857(a0)
 2010984:	ffff7e67 	j	201077c <t5_taskB7_generic_FH_TUERMODUL_CTRL+0xc4>
 2010988:	98200a37 	lui	a1,0x4014
 201098c:	9cd00103 	lw	a1,1024(a1)
 2010990:	f4c01863 	beqz	a1,201079c <t5_taskB7_generic_FH_TUERMODUL_CTRL+0xe4>
 2010994:	a0200a37 	lui	a2,0x4014
 2010998:	a50d9103 	lw	a2,868(a2)
 201099c:	9d270033 	sub	a1,a2,a1
 20109a0:	ece3f8e3 	bne	a1,v1,201079c <t5_taskB7_generic_FH_TUERMODUL_CTRL+0xe4>
 20109a4:	98200a37 	lui	a1,0x4014
 20109a8:	9cce3403 	lb	a1,909(a1)
 20109ac:	04c020e3 	bnez	a1,20109bc <t5_taskB7_generic_FH_TUERMODUL_CTRL+0x304>
 20109b0:	98200a37 	lui	a1,0x4014
 20109b4:	9cce2803 	lb	a1,906(a1)
 20109b8:	ecc1c863 	beqz	a1,201079c <t5_taskB7_generic_FH_TUERMODUL_CTRL+0xe4>
 20109bc:	98200a37 	lui	a1,0x4014
 20109c0:	a4cfb103 	lw	a2,1004(a1)
 20109c4:	88000413 	li	v1,1
 20109c8:	a8200a37 	lui	a3,0x4014
 20109cc:	a5000413 	add	a2,a2,1
 20109d0:	34a36823 	sb	v1,858(a0)
 20109d4:	90200a37 	lui	a0,0x4014
 20109d8:	35418423 	sb	zero,865(a3)
 20109dc:	3ce9b123 	sw	a2,1004(a1)
 20109e0:	34a36423 	sb	v1,857(a0)
 20109e4:	ffff6667 	j	201077c <t5_taskB7_generic_FH_TUERMODUL_CTRL+0xc4>
 20109e8:	88200a37 	lui	v1,0x4014
 20109ec:	8c4e3403 	lb	v1,909(v1)
 20109f0:	ec41e863 	beqz	v1,20107e4 <t5_taskB7_generic_FH_TUERMODUL_CTRL+0x12c>
 20109f4:	88200a37 	lui	v1,0x4014
 20109f8:	a44d9103 	lw	a2,868(v1)
 20109fc:	90200a37 	lui	a0,0x4014
 2010a00:	34818423 	sb	zero,865(a0)
 2010a04:	90200a37 	lui	a0,0x4014
 2010a08:	3c803023 	sb	zero,908(a0)
 2010a0c:	90200a37 	lui	a0,0x4014
 2010a10:	88000c13 	li	v1,3
 2010a14:	3ca9c123 	sw	a2,1008(a0)
 2010a18:	90200a37 	lui	a0,0x4014
 2010a1c:	34e36c23 	sb	v1,859(a1)
 2010a20:	34a36023 	sb	v1,856(a0)
 2010a24:	ffff4b67 	j	2010750 <t5_taskB7_generic_FH_TUERMODUL_CTRL+0x98>
 2010a28:	88200a37 	lui	v1,0x4014
 2010a2c:	8c4e4c03 	lb	v1,915(v1)
 2010a30:	ec4040e3 	bnez	v1,2010750 <t5_taskB7_generic_FH_TUERMODUL_CTRL+0x98>
 2010a34:	88200a37 	lui	v1,0x4014
 2010a38:	34418423 	sb	zero,865(v1)
 2010a3c:	88200a37 	lui	v1,0x4014
 2010a40:	3c403023 	sb	zero,908(v1)
 2010a44:	34a97c23 	sb	a2,863(a0)
 2010a48:	ffff4267 	j	2010750 <t5_taskB7_generic_FH_TUERMODUL_CTRL+0x98>
 2010a4c:	a8200a37 	lui	a3,0x4014
 2010a50:	ad4f6103 	lw	a3,984(a3)
 2010a54:	ad465513 	slt	a3,a3,405
 2010a58:	0d4158e3 	bnez	a3,2010c04 <t5_taskB7_generic_FH_TUERMODUL_CTRL+0x54c>
 2010a5c:	88200a37 	lui	v1,0x4014
 2010a60:	34418423 	sb	zero,865(v1)
 2010a64:	88200a37 	lui	v1,0x4014
 2010a68:	3c402423 	sb	zero,905(v1)
 2010a6c:	34a96023 	sb	a2,856(a0)
 2010a70:	ffff3867 	j	2010750 <t5_taskB7_generic_FH_TUERMODUL_CTRL+0x98>
 2010a74:	88200a37 	lui	v1,0x4014
 2010a78:	8c4e4003 	lb	v1,912(v1)
 2010a7c:	0c40c063 	beqz	v1,2010bdc <t5_taskB7_generic_FH_TUERMODUL_CTRL+0x524>
 2010a80:	88200a37 	lui	v1,0x4014
 2010a84:	34418423 	sb	zero,865(v1)
 2010a88:	a0000413 	li	a2,1
 2010a8c:	88200a37 	lui	v1,0x4014
 2010a90:	3c682423 	sb	a2,905(v1)
 2010a94:	34a77c23 	sb	a1,863(a0)
 2010a98:	ffff2e67 	j	2010750 <t5_taskB7_generic_FH_TUERMODUL_CTRL+0x98>
 2010a9c:	88200a37 	lui	v1,0x4014
 2010aa0:	8c4e4003 	lb	v1,912(v1)
 2010aa4:	e44158e3 	bnez	v1,2010750 <t5_taskB7_generic_FH_TUERMODUL_CTRL+0x98>
 2010aa8:	88200a37 	lui	v1,0x4014
 2010aac:	34418423 	sb	zero,865(v1)
 2010ab0:	88200a37 	lui	v1,0x4014
 2010ab4:	3c402423 	sb	zero,905(v1)
 2010ab8:	88000c13 	li	v1,3
 2010abc:	34a37c23 	sb	v1,863(a0)
 2010ac0:	ffff2467 	j	2010750 <t5_taskB7_generic_FH_TUERMODUL_CTRL+0x98>
 2010ac4:	88200a37 	lui	v1,0x4014
 2010ac8:	8c4e4c03 	lb	v1,915(v1)
 2010acc:	04412063 	beqz	v1,2010b5c <t5_taskB7_generic_FH_TUERMODUL_CTRL+0x4a4>
 2010ad0:	88200a37 	lui	v1,0x4014
 2010ad4:	8c4e4403 	lb	v1,913(v1)
 2010ad8:	044108e3 	bnez	v1,2010b5c <t5_taskB7_generic_FH_TUERMODUL_CTRL+0x4a4>
 2010adc:	88200a37 	lui	v1,0x4014
 2010ae0:	8c4f6103 	lw	v1,984(v1)
 2010ae4:	0022f2e3 	blez	v1,2010b5c <t5_taskB7_generic_FH_TUERMODUL_CTRL+0x4a4>
 2010ae8:	34a76023 	sb	a1,856(a0)
 2010aec:	90200a37 	lui	a0,0x4014
 2010af0:	34a75023 	sb	a1,852(a0)
 2010af4:	90200a37 	lui	a0,0x4014
 2010af8:	88000413 	li	v1,1
 2010afc:	a0200a37 	lui	a2,0x4014
 2010b00:	34a75823 	sb	a1,854(a0)
 2010b04:	90200a37 	lui	a0,0x4014
 2010b08:	35018423 	sb	zero,865(a2)
 2010b0c:	04224423 	sb	v1,17(v0)
 2010b10:	3ca23023 	sb	v1,908(a0)
 2010b14:	ffff0f67 	j	2010750 <t5_taskB7_generic_FH_TUERMODUL_CTRL+0x98>
 2010b18:	98200a37 	lui	a1,0x4014
 2010b1c:	9ccf6103 	lw	a1,984(a1)
 2010b20:	08260ae3 	blez	a1,2010c24 <t5_taskB7_generic_FH_TUERMODUL_CTRL+0x56c>
 2010b24:	a8200a37 	lui	a3,0x4014
 2010b28:	9d4d5003 	lb	a1,852(a3)
 2010b2c:	a0000413 	li	a2,1
 2010b30:	0ce8b863 	beq	a1,a2,2010c8c <t5_taskB7_generic_FH_TUERMODUL_CTRL+0x5d4>
 2010b34:	0ce21863 	beq	a1,v1,2010c40 <t5_taskB7_generic_FH_TUERMODUL_CTRL+0x588>
 2010b38:	90200a37 	lui	a0,0x4014
 2010b3c:	34818423 	sb	zero,865(a0)
 2010b40:	90200a37 	lui	a0,0x4014
 2010b44:	35635023 	sb	v1,852(a3)
 2010b48:	34a35823 	sb	v1,854(a0)
 2010b4c:	88200a37 	lui	v1,0x4014
 2010b50:	04284423 	sb	a2,17(v0)
 2010b54:	3c683023 	sb	a2,908(v1)
 2010b58:	fffefe67 	j	2010750 <t5_taskB7_generic_FH_TUERMODUL_CTRL+0x98>
 2010b5c:	88200a37 	lui	v1,0x4014
 2010b60:	8c4e4003 	lb	v1,912(v1)
 2010b64:	dc41d863 	beqz	v1,2010750 <t5_taskB7_generic_FH_TUERMODUL_CTRL+0x98>
 2010b68:	88200a37 	lui	v1,0x4014
 2010b6c:	8c4e3803 	lb	v1,910(v1)
 2010b70:	dc41c0e3 	bnez	v1,2010750 <t5_taskB7_generic_FH_TUERMODUL_CTRL+0x98>
 2010b74:	88200a37 	lui	v1,0x4014
 2010b78:	8c4f6103 	lw	v1,984(v1)
 2010b7c:	8c465513 	slt	v1,v1,405
 2010b80:	dc41a063 	beqz	v1,2010750 <t5_taskB7_generic_FH_TUERMODUL_CTRL+0x98>
 2010b84:	98200a37 	lui	a1,0x4014
 2010b88:	88000413 	li	v1,1
 2010b8c:	34c18423 	sb	zero,865(a1)
 2010b90:	98200a37 	lui	a1,0x4014
 2010b94:	34a36023 	sb	v1,856(a0)
 2010b98:	3ce22423 	sb	v1,905(a1)
 2010b9c:	90000813 	li	a0,2
 2010ba0:	88200a37 	lui	v1,0x4014
 2010ba4:	34655423 	sb	a0,853(v1)
 2010ba8:	fffeea67 	j	2010750 <t5_taskB7_generic_FH_TUERMODUL_CTRL+0x98>
 2010bac:	88200a37 	lui	v1,0x4014
 2010bb0:	8c4e3403 	lb	v1,909(v1)
 2010bb4:	ec409063 	beqz	v1,20108fc <t5_taskB7_generic_FH_TUERMODUL_CTRL+0x244>
 2010bb8:	88200a37 	lui	v1,0x4014
 2010bbc:	944d9103 	lw	a0,868(v1)
 2010bc0:	88200a37 	lui	v1,0x4014
 2010bc4:	34418423 	sb	zero,865(v1)
 2010bc8:	88200a37 	lui	v1,0x4014
 2010bcc:	3c403023 	sb	zero,908(v1)
 2010bd0:	88200a37 	lui	v1,0x4014
 2010bd4:	3c65d123 	sw	a0,1012(v1)
 2010bd8:	ffff4367 	j	20108e4 <t5_taskB7_generic_FH_TUERMODUL_CTRL+0x22c>
 2010bdc:	88200a37 	lui	v1,0x4014
 2010be0:	8c4e4c03 	lb	v1,915(v1)
 2010be4:	dc40d863 	beqz	v1,2010750 <t5_taskB7_generic_FH_TUERMODUL_CTRL+0x98>
 2010be8:	98200a37 	lui	a1,0x4014
 2010bec:	88000413 	li	v1,1
 2010bf0:	34c18423 	sb	zero,865(a1)
 2010bf4:	98200a37 	lui	a1,0x4014
 2010bf8:	3ce23023 	sb	v1,908(a1)
 2010bfc:	34a37c23 	sb	v1,863(a0)
 2010c00:	fffed467 	j	2010750 <t5_taskB7_generic_FH_TUERMODUL_CTRL+0x98>
 2010c04:	a8200a37 	lui	a3,0x4014
 2010c08:	a54d5403 	lb	a2,853(a3)
 2010c0c:	0d220863 	beq	a2,v1,2010d10 <t5_taskB7_generic_FH_TUERMODUL_CTRL+0x658>
 2010c10:	0527b063 	beq	a2,a1,2010ce8 <t5_taskB7_generic_FH_TUERMODUL_CTRL+0x630>
 2010c14:	88200a37 	lui	v1,0x4014
 2010c18:	34418423 	sb	zero,865(v1)
 2010c1c:	35675423 	sb	a1,853(a3)
 2010c20:	fffecc67 	j	2010750 <t5_taskB7_generic_FH_TUERMODUL_CTRL+0x98>
 2010c24:	88200a37 	lui	v1,0x4014
 2010c28:	34418423 	sb	zero,865(v1)
 2010c2c:	88200a37 	lui	v1,0x4014
 2010c30:	3c403023 	sb	zero,908(v1)
 2010c34:	88000c13 	li	v1,3
 2010c38:	34a36023 	sb	v1,856(a0)
 2010c3c:	fffec567 	j	2010750 <t5_taskB7_generic_FH_TUERMODUL_CTRL+0x98>
 2010c40:	88200a37 	lui	v1,0x4014
 2010c44:	8c4e4c03 	lb	v1,915(v1)
 2010c48:	044020e3 	bnez	v1,2010c58 <t5_taskB7_generic_FH_TUERMODUL_CTRL+0x5a0>
 2010c4c:	88200a37 	lui	v1,0x4014
 2010c50:	8c4e4403 	lb	v1,913(v1)
 2010c54:	fc41a0e3 	bnez	v1,2010c24 <t5_taskB7_generic_FH_TUERMODUL_CTRL+0x56c>
 2010c58:	98200a37 	lui	a1,0x4014
 2010c5c:	94cd5803 	lb	a0,854(a1)
 2010c60:	88000413 	li	v1,1
 2010c64:	0ca2c863 	beq	a0,v1,2010dc8 <t5_taskB7_generic_FH_TUERMODUL_CTRL+0x710>
 2010c68:	a0000813 	li	a2,2
 2010c6c:	0ca82863 	beq	a0,a2,2010d80 <t5_taskB7_generic_FH_TUERMODUL_CTRL+0x6c8>
 2010c70:	90200a37 	lui	a0,0x4014
 2010c74:	34818423 	sb	zero,865(a0)
 2010c78:	90200a37 	lui	a0,0x4014
 2010c7c:	34e95823 	sb	a2,854(a1)
 2010c80:	04224423 	sb	v1,17(v0)
 2010c84:	3ca23023 	sb	v1,908(a0)
 2010c88:	fffeb267 	j	2010750 <t5_taskB7_generic_FH_TUERMODUL_CTRL+0x98>
 2010c8c:	88200a37 	lui	v1,0x4014
 2010c90:	8c4e4003 	lb	v1,912(v1)
 2010c94:	04402063 	beqz	v1,2010ca4 <t5_taskB7_generic_FH_TUERMODUL_CTRL+0x5ec>
 2010c98:	88200a37 	lui	v1,0x4014
 2010c9c:	8c4e3803 	lb	v1,910(v1)
 2010ca0:	fc410863 	beqz	v1,2010c24 <t5_taskB7_generic_FH_TUERMODUL_CTRL+0x56c>
 2010ca4:	88200a37 	lui	v1,0x4014
 2010ca8:	8c4e4c03 	lb	v1,915(v1)
 2010cac:	04402063 	beqz	v1,2010cbc <t5_taskB7_generic_FH_TUERMODUL_CTRL+0x604>
 2010cb0:	88200a37 	lui	v1,0x4014
 2010cb4:	8c4e4403 	lb	v1,913(v1)
 2010cb8:	fc40d863 	beqz	v1,2010c24 <t5_taskB7_generic_FH_TUERMODUL_CTRL+0x56c>
 2010cbc:	98200a37 	lui	a1,0x4014
 2010cc0:	94cd5c03 	lb	a0,855(a1)
 2010cc4:	88000413 	li	v1,1
 2010cc8:	0ca30863 	beq	a0,v1,2010e4c <t5_taskB7_generic_FH_TUERMODUL_CTRL+0x794>
 2010ccc:	a0000813 	li	a2,2
 2010cd0:	0ca86863 	beq	a0,a2,2010e04 <t5_taskB7_generic_FH_TUERMODUL_CTRL+0x74c>
 2010cd4:	90200a37 	lui	a0,0x4014
 2010cd8:	34818423 	sb	zero,865(a0)
 2010cdc:	34e95c23 	sb	a2,855(a1)
 2010ce0:	04224423 	sb	v1,17(v0)
 2010ce4:	fffe9b67 	j	2010750 <t5_taskB7_generic_FH_TUERMODUL_CTRL+0x98>
 2010ce8:	98200a37 	lui	a1,0x4014
 2010cec:	9cce4c03 	lb	a1,915(a1)
 2010cf0:	04c0b063 	beqz	a1,2010d48 <t5_taskB7_generic_FH_TUERMODUL_CTRL+0x690>
 2010cf4:	98200a37 	lui	a1,0x4014
 2010cf8:	9cce4403 	lb	a1,913(a1)
 2010cfc:	04c098e3 	bnez	a1,2010d48 <t5_taskB7_generic_FH_TUERMODUL_CTRL+0x690>
 2010d00:	90200a37 	lui	a0,0x4014
 2010d04:	34818423 	sb	zero,865(a0)
 2010d08:	35635423 	sb	v1,853(a3)
 2010d0c:	fffe9167 	j	2010750 <t5_taskB7_generic_FH_TUERMODUL_CTRL+0x98>
 2010d10:	88200a37 	lui	v1,0x4014
 2010d14:	8c4e4c03 	lb	v1,915(v1)
 2010d18:	04409863 	beqz	v1,2010d64 <t5_taskB7_generic_FH_TUERMODUL_CTRL+0x6ac>
 2010d1c:	88200a37 	lui	v1,0x4014
 2010d20:	8c4e4403 	lb	v1,913(v1)
 2010d24:	044080e3 	bnez	v1,2010d64 <t5_taskB7_generic_FH_TUERMODUL_CTRL+0x6ac>
 2010d28:	88200a37 	lui	v1,0x4014
 2010d2c:	34418423 	sb	zero,865(v1)
 2010d30:	88200a37 	lui	v1,0x4014
 2010d34:	3c402423 	sb	zero,905(v1)
 2010d38:	88000c13 	li	v1,3
 2010d3c:	34a36023 	sb	v1,856(a0)
 2010d40:	35415423 	sb	zero,853(a3)
 2010d44:	fffe8367 	j	2010750 <t5_taskB7_generic_FH_TUERMODUL_CTRL+0x98>
 2010d48:	88200a37 	lui	v1,0x4014
 2010d4c:	8c4e4003 	lb	v1,912(v1)
 2010d50:	d44000e3 	bnez	v1,2010750 <t5_taskB7_generic_FH_TUERMODUL_CTRL+0x98>
 2010d54:	88200a37 	lui	v1,0x4014
 2010d58:	8c4e3803 	lb	v1,910(v1)
 2010d5c:	cc41e863 	beqz	v1,2010750 <t5_taskB7_generic_FH_TUERMODUL_CTRL+0x98>
 2010d60:	fffff267 	j	2010d28 <t5_taskB7_generic_FH_TUERMODUL_CTRL+0x670>
 2010d64:	88200a37 	lui	v1,0x4014
 2010d68:	8c4e4003 	lb	v1,912(v1)
 2010d6c:	cc41c863 	beqz	v1,2010750 <t5_taskB7_generic_FH_TUERMODUL_CTRL+0x98>
 2010d70:	88200a37 	lui	v1,0x4014
 2010d74:	8c4e3803 	lb	v1,910(v1)
 2010d78:	cc41b0e3 	bnez	v1,2010750 <t5_taskB7_generic_FH_TUERMODUL_CTRL+0x98>
 2010d7c:	ffffeb67 	j	2010d28 <t5_taskB7_generic_FH_TUERMODUL_CTRL+0x670>
 2010d80:	94006003 	lb	a0,24(v0)
 2010d84:	0c800863 	beqz	a0,2010e88 <t5_taskB7_generic_FH_TUERMODUL_CTRL+0x7d0>
 2010d88:	90200a37 	lui	a0,0x4014
 2010d8c:	a48d9103 	lw	a2,868(a0)
 2010d90:	90200a37 	lui	a0,0x4014
 2010d94:	34818423 	sb	zero,865(a0)
 2010d98:	90200a37 	lui	a0,0x4014
 2010d9c:	3c803023 	sb	zero,908(a0)
 2010da0:	90200a37 	lui	a0,0x4014
 2010da4:	3ca28823 	sb	v1,930(a0)
 2010da8:	90200a37 	lui	a0,0x4014
 2010dac:	3ca97123 	sw	a2,988(a0)
 2010db0:	90200a37 	lui	a0,0x4014
 2010db4:	04225c23 	sb	v1,23(v0)
 2010db8:	34e35823 	sb	v1,854(a1)
 2010dbc:	04004423 	sb	zero,17(v0)
 2010dc0:	3ca22423 	sb	v1,905(a0)
 2010dc4:	fffe6367 	j	2010750 <t5_taskB7_generic_FH_TUERMODUL_CTRL+0x98>
 2010dc8:	8c005803 	lb	v1,22(v0)
 2010dcc:	04005c23 	sb	zero,23(v0)
 2010dd0:	cc410063 	beqz	v1,2010750 <t5_taskB7_generic_FH_TUERMODUL_CTRL+0x98>
 2010dd4:	88200a37 	lui	v1,0x4014
 2010dd8:	34418423 	sb	zero,865(v1)
 2010ddc:	88200a37 	lui	v1,0x4014
 2010de0:	3c408823 	sb	zero,930(v1)
 2010de4:	88000813 	li	v1,2
 2010de8:	34e35823 	sb	v1,854(a1)
 2010dec:	88200a37 	lui	v1,0x4014
 2010df0:	3c402423 	sb	zero,905(v1)
 2010df4:	88200a37 	lui	v1,0x4014
 2010df8:	04244423 	sb	a0,17(v0)
 2010dfc:	3c643023 	sb	a0,908(v1)
 2010e00:	fffe5467 	j	2010750 <t5_taskB7_generic_FH_TUERMODUL_CTRL+0x98>
 2010e04:	94006003 	lb	a0,24(v0)
 2010e08:	cc809063 	beqz	a0,2010750 <t5_taskB7_generic_FH_TUERMODUL_CTRL+0x98>
 2010e0c:	90200a37 	lui	a0,0x4014
 2010e10:	a48d9103 	lw	a2,868(a0)
 2010e14:	90200a37 	lui	a0,0x4014
 2010e18:	34818423 	sb	zero,865(a0)
 2010e1c:	90200a37 	lui	a0,0x4014
 2010e20:	3ca29023 	sb	v1,932(a0)
 2010e24:	90200a37 	lui	a0,0x4014
 2010e28:	3c803023 	sb	zero,908(a0)
 2010e2c:	90200a37 	lui	a0,0x4014
 2010e30:	3ca98123 	sw	a2,992(a0)
 2010e34:	90200a37 	lui	a0,0x4014
 2010e38:	04225c23 	sb	v1,23(v0)
 2010e3c:	34e35c23 	sb	v1,855(a1)
 2010e40:	04004423 	sb	zero,17(v0)
 2010e44:	3ca22423 	sb	v1,905(a0)
 2010e48:	fffe4267 	j	2010750 <t5_taskB7_generic_FH_TUERMODUL_CTRL+0x98>
 2010e4c:	8c005803 	lb	v1,22(v0)
 2010e50:	04005c23 	sb	zero,23(v0)
 2010e54:	c441f863 	beqz	v1,2010750 <t5_taskB7_generic_FH_TUERMODUL_CTRL+0x98>
 2010e58:	88200a37 	lui	v1,0x4014
 2010e5c:	34418423 	sb	zero,865(v1)
 2010e60:	88200a37 	lui	v1,0x4014
 2010e64:	3c643023 	sb	a0,908(v1)
 2010e68:	88200a37 	lui	v1,0x4014
 2010e6c:	3c409023 	sb	zero,932(v1)
 2010e70:	88000813 	li	v1,2
 2010e74:	34e35c23 	sb	v1,855(a1)
 2010e78:	88200a37 	lui	v1,0x4014
 2010e7c:	3c402423 	sb	zero,905(v1)
 2010e80:	04244423 	sb	a0,17(v0)
 2010e84:	fffe3367 	j	2010750 <t5_taskB7_generic_FH_TUERMODUL_CTRL+0x98>
 2010e88:	90200a37 	lui	a0,0x4014
 2010e8c:	948e4003 	lb	a0,912(a0)
 2010e90:	c4818063 	beqz	a0,2010750 <t5_taskB7_generic_FH_TUERMODUL_CTRL+0x98>
 2010e94:	90200a37 	lui	a0,0x4014
 2010e98:	948e3803 	lb	a0,910(a0)
 2010e9c:	c48168e3 	bnez	a0,2010750 <t5_taskB7_generic_FH_TUERMODUL_CTRL+0x98>
 2010ea0:	90200a37 	lui	a0,0x4014
 2010ea4:	34818423 	sb	zero,865(a0)
 2010ea8:	35635023 	sb	v1,852(a3)
 2010eac:	34c15823 	sb	zero,854(a1)
 2010eb0:	fffe2867 	j	2010750 <t5_taskB7_generic_FH_TUERMODUL_CTRL+0x98>

02010eb4 <t5_taskB7_generic_EINKLEMMSCHUTZ_CTRL>:
 2010eb4:	80200a37 	lui	v0,0x4014
 2010eb8:	84102013 	add	v0,v0,1032
 2010ebc:	8c004003 	lb	v1,16(v0)
 2010ec0:	04405063 	beqz	v1,2010ee8 <t5_taskB7_generic_EINKLEMMSCHUTZ_CTRL+0x34>
 2010ec4:	90200a37 	lui	a0,0x4014
 2010ec8:	8c8d4803 	lb	v1,850(a0)
 2010ecc:	98000413 	li	a1,1
 2010ed0:	04663863 	beq	v1,a1,2010eec <t5_taskB7_generic_EINKLEMMSCHUTZ_CTRL+0x38>
 2010ed4:	a0000813 	li	a2,2
 2010ed8:	0468c063 	beq	v1,a2,2010f38 <t5_taskB7_generic_EINKLEMMSCHUTZ_CTRL+0x84>
 2010edc:	80200a37 	lui	v0,0x4014
 2010ee0:	34018423 	sb	zero,865(v0)
 2010ee4:	34a74823 	sb	a1,850(a0)
 2010ee8:	004000eb 	ret
 2010eec:	88200a37 	lui	v1,0x4014
 2010ef0:	8c4e1c03 	lb	v1,903(v1)
 2010ef4:	fc41e863 	beqz	v1,2010ee8 <t5_taskB7_generic_EINKLEMMSCHUTZ_CTRL+0x34>
 2010ef8:	88200a37 	lui	v1,0x4014
 2010efc:	8c4e1803 	lb	v1,902(v1)
 2010f00:	fc41d0e3 	bnez	v1,2010ee8 <t5_taskB7_generic_EINKLEMMSCHUTZ_CTRL+0x34>
 2010f04:	88200a37 	lui	v1,0x4014
 2010f08:	8c4e4c03 	lb	v1,915(v1)
 2010f0c:	04402063 	beqz	v1,2010f1c <t5_taskB7_generic_EINKLEMMSCHUTZ_CTRL+0x68>
 2010f10:	88200a37 	lui	v1,0x4014
 2010f14:	8c4e4003 	lb	v1,912(v1)
 2010f18:	fc41a0e3 	bnez	v1,2010ee8 <t5_taskB7_generic_EINKLEMMSCHUTZ_CTRL+0x34>
 2010f1c:	88200a37 	lui	v1,0x4014
 2010f20:	34418423 	sb	zero,865(v1)
 2010f24:	88000413 	li	v1,1
 2010f28:	04226023 	sb	v1,24(v0)
 2010f2c:	80000813 	li	v0,2
 2010f30:	34a14823 	sb	v0,850(a0)
 2010f34:	004000eb 	ret
 2010f38:	88200a37 	lui	v1,0x4014
 2010f3c:	8c4e1c03 	lb	v1,903(v1)
 2010f40:	04006023 	sb	zero,24(v0)
 2010f44:	fc4148e3 	bnez	v1,2010ee8 <t5_taskB7_generic_EINKLEMMSCHUTZ_CTRL+0x34>
 2010f48:	80200a37 	lui	v0,0x4014
 2010f4c:	840e1803 	lb	v0,902(v0)
 2010f50:	fc013063 	beqz	v0,2010ee8 <t5_taskB7_generic_EINKLEMMSCHUTZ_CTRL+0x34>
 2010f54:	80200a37 	lui	v0,0x4014
 2010f58:	34018423 	sb	zero,865(v0)
 2010f5c:	34a74823 	sb	a1,850(a0)
 2010f60:	004000eb 	ret

02010f64 <t5_taskB7_generic_BLOCK_ERKENNUNG_CTRL>:
 2010f64:	88200a37 	lui	v1,0x4014
 2010f68:	84502013 	add	v0,v1,1032
 2010f6c:	94004c03 	lb	a0,19(v0)
 2010f70:	048038e3 	bnez	a0,2010f8c <t5_taskB7_generic_BLOCK_ERKENNUNG_CTRL+0x28>
 2010f74:	94005403 	lb	a0,21(v0)
 2010f78:	04807063 	beqz	a0,2010fb0 <t5_taskB7_generic_BLOCK_ERKENNUNG_CTRL+0x4c>
 2010f7c:	84005003 	lb	v0,20(v0)
 2010f80:	040060e3 	bnez	v0,2010fb0 <t5_taskB7_generic_BLOCK_ERKENNUNG_CTRL+0x4c>
 2010f84:	44402023 	sb	zero,1032(v1)
 2010f88:	004000eb 	ret
 2010f8c:	90200a37 	lui	a0,0x4014
 2010f90:	848d4003 	lb	v0,848(a0)
 2010f94:	98000413 	li	a1,1
 2010f98:	04263863 	beq	v0,a1,2010fb4 <t5_taskB7_generic_BLOCK_ERKENNUNG_CTRL+0x50>
 2010f9c:	a0000813 	li	a2,2
 2010fa0:	0428d863 	beq	v0,a2,201100c <t5_taskB7_generic_BLOCK_ERKENNUNG_CTRL+0xa8>
 2010fa4:	80200a37 	lui	v0,0x4014
 2010fa8:	34018423 	sb	zero,865(v0)
 2010fac:	34a74023 	sb	a1,848(a0)
 2010fb0:	004000eb 	ret
 2010fb4:	98200a37 	lui	a1,0x4014
 2010fb8:	a0200a37 	lui	a2,0x4014
 2010fbc:	9ccf5103 	lw	a1,980(a1)
 2010fc0:	a50f4103 	lw	a2,976(a2)
 2010fc4:	fce9d863 	beq	a1,a2,2010fb0 <t5_taskB7_generic_BLOCK_ERKENNUNG_CTRL+0x4c>
 2010fc8:	f827d2e3 	blez	a1,2010fb0 <t5_taskB7_generic_BLOCK_ERKENNUNG_CTRL+0x4c>
 2010fcc:	98200a37 	lui	a1,0x4014
 2010fd0:	34c18423 	sb	zero,865(a1)
 2010fd4:	98200a37 	lui	a1,0x4014
 2010fd8:	3cc05823 	sb	zero,918(a1)
 2010fdc:	98000813 	li	a1,2
 2010fe0:	34a74023 	sb	a1,848(a0)
 2010fe4:	90200a37 	lui	a0,0x4014
 2010fe8:	98000813 	li	a1,2
 2010fec:	3c80c123 	sw	zero,944(a0)
 2010ff0:	90200a37 	lui	a0,0x4014
 2010ff4:	3ca6e123 	sw	a1,952(a0)
 2010ff8:	98000c13 	li	a1,3
 2010ffc:	90200a37 	lui	a0,0x4014
 2011000:	34a74423 	sb	a1,849(a0)
 2011004:	44602023 	sb	v0,1032(v1)
 2011008:	004000eb 	ret
 201100c:	80200a37 	lui	v0,0x4014
 2011010:	840e2803 	lb	v0,906(v0)
 2011014:	0400c063 	beqz	v0,2011074 <t5_taskB7_generic_BLOCK_ERKENNUNG_CTRL+0x110>
 2011018:	80200a37 	lui	v0,0x4014
 201101c:	840e3403 	lb	v0,909(v0)
 2011020:	040020e3 	bnez	v0,2011030 <t5_taskB7_generic_BLOCK_ERKENNUNG_CTRL+0xcc>
 2011024:	80200a37 	lui	v0,0x4014
 2011028:	840e2c03 	lb	v0,907(v0)
 201102c:	0400a8e3 	bnez	v0,2011080 <t5_taskB7_generic_BLOCK_ERKENNUNG_CTRL+0x11c>
 2011030:	90200a37 	lui	a0,0x4014
 2011034:	848d4403 	lb	v0,849(a0)
 2011038:	98000813 	li	a1,2
 201103c:	0427b063 	beq	v0,a1,2011114 <t5_taskB7_generic_BLOCK_ERKENNUNG_CTRL+0x1b0>
 2011040:	a0000c13 	li	a2,3
 2011044:	0428b863 	beq	v0,a2,20110a0 <t5_taskB7_generic_BLOCK_ERKENNUNG_CTRL+0x13c>
 2011048:	a8000413 	li	a3,1
 201104c:	042aa063 	beq	v0,a3,201109c <t5_taskB7_generic_BLOCK_ERKENNUNG_CTRL+0x138>
 2011050:	80200a37 	lui	v0,0x4014
 2011054:	34018423 	sb	zero,865(v0)
 2011058:	80200a37 	lui	v0,0x4014
 201105c:	3c00c123 	sw	zero,944(v0)
 2011060:	80200a37 	lui	v0,0x4014
 2011064:	3c26e123 	sw	a1,952(v0)
 2011068:	34a94423 	sb	a2,849(a0)
 201106c:	446a2023 	sb	a3,1032(v1)
 2011070:	004000eb 	ret
 2011074:	80200a37 	lui	v0,0x4014
 2011078:	840e2003 	lb	v0,904(v0)
 201107c:	fc013863 	beqz	v0,2011018 <t5_taskB7_generic_BLOCK_ERKENNUNG_CTRL+0xb4>
 2011080:	80200a37 	lui	v0,0x4014
 2011084:	34018423 	sb	zero,865(v0)
 2011088:	80000413 	li	v0,1
 201108c:	34a14023 	sb	v0,848(a0)
 2011090:	80200a37 	lui	v0,0x4014
 2011094:	34014423 	sb	zero,849(v0)
 2011098:	004000eb 	ret
 201109c:	004000eb 	ret
 20110a0:	a0200a37 	lui	a2,0x4014
 20110a4:	850ec103 	lw	v0,944(a2)
 20110a8:	44402023 	sb	zero,1032(v1)
 20110ac:	88002c13 	li	v1,11
 20110b0:	04233063 	beq	v0,v1,2011148 <t5_taskB7_generic_BLOCK_ERKENNUNG_CTRL+0x1e4>
 20110b4:	88200a37 	lui	v1,0x4014
 20110b8:	944d8003 	lb	a0,864(v1)
 20110bc:	88000413 	li	v1,1
 20110c0:	f4a3e0e3 	bne	a0,v1,2010fb0 <t5_taskB7_generic_BLOCK_ERKENNUNG_CTRL+0x4c>
 20110c4:	88200a37 	lui	v1,0x4014
 20110c8:	8c501103 	lw	v1,1028(v1)
 20110cc:	f441c863 	beqz	v1,2010fb0 <t5_taskB7_generic_BLOCK_ERKENNUNG_CTRL+0x4c>
 20110d0:	90200a37 	lui	a0,0x4014
 20110d4:	948d9103 	lw	a0,868(a0)
 20110d8:	8ca30033 	sub	v1,a0,v1
 20110dc:	8c40f0d3 	fcvt.d.wu	fv1,v1
 20110e0:	88200037 	lui	v1,0x4000
 20110e4:	84402187 	fld	fv0,8(v1)
 20110e8:	8c6150d3 	feq.d	v1,fv1,fv0
 20110ec:	f4418863 	beqz	v1,2010fb0 <t5_taskB7_generic_BLOCK_ERKENNUNG_CTRL+0x4c>
 20110f0:	88200a37 	lui	v1,0x4014
 20110f4:	90200a37 	lui	a0,0x4014
 20110f8:	948f5103 	lw	a0,980(a0)
 20110fc:	9c4ee103 	lw	a1,952(v1)
 2011100:	84000413 	add	v0,v0,1
 2011104:	3d20c123 	sw	v0,944(a2)
 2011108:	f4e552e3 	ble	a0,a1,2010fb0 <t5_taskB7_generic_BLOCK_ERKENNUNG_CTRL+0x4c>
 201110c:	3c64e123 	sw	a0,952(v1)
 2011110:	004000eb 	ret
 2011114:	80200a37 	lui	v0,0x4014
 2011118:	8c0ee103 	lw	v1,952(v0)
 201111c:	80200a37 	lui	v0,0x4014
 2011120:	840f5103 	lw	v0,980(v0)
 2011124:	8c7ffc13 	add	v1,v1,-1
 2011128:	f4231263 	blt	v0,v1,2010fb0 <t5_taskB7_generic_BLOCK_ERKENNUNG_CTRL+0x4c>
 201112c:	88200a37 	lui	v1,0x4014
 2011130:	80000413 	li	v0,1
 2011134:	34418423 	sb	zero,865(v1)
 2011138:	88200a37 	lui	v1,0x4014
 201113c:	3c605823 	sb	v0,918(v1)
 2011140:	34a14423 	sb	v0,849(a0)
 2011144:	004000eb 	ret
 2011148:	88200a37 	lui	v1,0x4014
 201114c:	8c4ea103 	lw	v1,936(v1)
 2011150:	fc60c863 	beq	v1,v0,20110b4 <t5_taskB7_generic_BLOCK_ERKENNUNG_CTRL+0x150>
 2011154:	80200a37 	lui	v0,0x4014
 2011158:	34018423 	sb	zero,865(v0)
 201115c:	34a74423 	sb	a1,849(a0)
 2011160:	004000eb 	ret

02011164 <t5_taskB7_FH_DU>:
 2011164:	73be2013 	add	sp,sp,-120
 2011168:	0385c123 	sw	s0,112(sp)
 201116c:	10200a37 	lui	s0,0x4014
 2011170:	0387b123 	sw	s1,108(sp)
 2011174:	0389a123 	sw	s2,104(sp)
 2011178:	038b9123 	sw	s3,100(sp)
 201117c:	038d8123 	sw	s4,96(sp)
 2011180:	038f7123 	sw	s5,92(sp)
 2011184:	03916123 	sw	s6,88(sp)
 2011188:	03935123 	sw	s7,84(sp)
 201118c:	03954123 	sw	s8,80(sp)
 2011190:	03973123 	sw	s9,76(sp)
 2011194:	03992123 	sw	s10,72(sp)
 2011198:	039b1123 	sw	s11,68(sp)
 201119c:	0383d123 	sw	ra,116(sp)
 20111a0:	10902013 	add	s0,s0,1032
 20111a4:	88000413 	li	v1,1
 20111a8:	80200a37 	lui	v0,0x4014
 20111ac:	34239123 	sw	v1,868(v0)
 20111b0:	a8804003 	lb	a3,16(s0)
 20111b4:	88802803 	lb	v1,10(s0)
 20111b8:	b0804c03 	lb	a4,19(s0)
 20111bc:	b8803403 	lb	a5,13(s0)
 20111c0:	80200a37 	lui	v0,0x4014
 20111c4:	c0200a37 	lui	a6,0x4014
 20111c8:	c8200a37 	lui	a7,0x4014
 20111cc:	34018023 	sb	zero,864(v0)
 20111d0:	03a2a123 	sw	v1,40(sp)
 20111d4:	860de803 	lb	v0,890(a6)
 20111d8:	03aac123 	sw	a3,48(sp)
 20111dc:	03acd123 	sw	a4,52(sp)
 20111e0:	03aeb123 	sw	a5,44(sp)
 20111e4:	c64de003 	lb	a6,888(a7)
 20111e8:	58200a37 	lui	s9,0x4014
 20111ec:	60200a37 	lui	s10,0x4014
 20111f0:	20200a37 	lui	s2,0x4014
 20111f4:	e0200a37 	lui	a10,0x4014
 20111f8:	18200a37 	lui	s1,0x4014
 20111fc:	50200a37 	lui	s8,0x4014
 2011200:	48200a37 	lui	s7,0x4014
 2011204:	40200a37 	lui	s6,0x4014
 2011208:	38200a37 	lui	s5,0x4014
 201120c:	30200a37 	lui	s4,0x4014
 2011210:	28200a37 	lui	s3,0x4014
 2011214:	a0200a37 	lui	a2,0x4014
 2011218:	98200a37 	lui	a1,0x4014
 201121c:	90200a37 	lui	a0,0x4014
 2011220:	88200a37 	lui	v1,0x4014
 2011224:	68200a37 	lui	s11,0x4014
 2011228:	00016e67 	j	20117e0 <t5_taskB7_FH_DU+0x67c>
 201122c:	b0000c13 	li	a4,3
 2011230:	356c2063 	beq	a3,a4,2011840 <t5_taskB7_FH_DU+0x6dc>
 2011234:	b0000413 	li	a4,1
 2011238:	356c7863 	beq	a3,a4,2011874 <t5_taskB7_FH_DU+0x710>
 201123c:	f8200a37 	lui	a13,0x4014
 2011240:	a8200a37 	lui	a3,0x4014
 2011244:	b8000813 	li	a5,2
 2011248:	b0200a37 	lui	a4,0x4014
 201124c:	37c18423 	sb	zero,865(a13)
 2011250:	3d413123 	sw	zero,972(a3)
 2011254:	35af4c23 	sb	a5,851(a4)
 2011258:	cb80a103 	lw	a7,40(sp)
 201125c:	064020e3 	bnez	a7,201126c <t5_taskB7_FH_DU+0x108>
 2011260:	a8000c13 	li	a3,3
 2011264:	d0200a37 	lui	a8,0x4014
 2011268:	36ab7023 	sb	a3,860(a8)
 201126c:	db80c103 	lw	a9,48(sp)
 2011270:	06c020e3 	bnez	a9,2011280 <t5_taskB7_FH_DU+0x11c>
 2011274:	b0000413 	li	a4,1
 2011278:	a8200a37 	lui	a3,0x4014
 201127c:	356d4823 	sb	a4,850(a3)
 2011280:	eb80d103 	lw	a11,52(sp)
 2011284:	074030e3 	bnez	a11,201129c <t5_taskB7_FH_DU+0x138>
 2011288:	a8200a37 	lui	a3,0x4014
 201128c:	45402023 	sb	zero,1032(a3)
 2011290:	b0000413 	li	a4,1
 2011294:	a8200a37 	lui	a3,0x4014
 2011298:	356d4023 	sb	a4,848(a3)
 201129c:	f380b103 	lw	a12,44(sp)
 20112a0:	078070e3 	bnez	a12,20112d8 <t5_taskB7_FH_DU+0x174>
 20112a4:	b0000813 	li	a4,2
 20112a8:	f8200a37 	lui	a13,0x4014
 20112ac:	a8000413 	li	a3,1
 20112b0:	37ed6c23 	sb	a4,859(a13)
 20112b4:	b0200a37 	lui	a4,0x4014
 20112b8:	b8200a37 	lui	a5,0x4014
 20112bc:	35ab6823 	sb	a3,858(a4)
 20112c0:	b0200a37 	lui	a4,0x4014
 20112c4:	00801023 	sb	zero,4(s0)
 20112c8:	00801823 	sb	zero,6(s0)
 20112cc:	3dc1b123 	sw	zero,1004(a5)
 20112d0:	00aa1423 	sb	a3,5(s0)
 20112d4:	35ab6423 	sb	a3,857(a4)
 20112d8:	a8000413 	li	a3,1
 20112dc:	00aa2c23 	sb	a3,11(s0)
 20112e0:	00aa4423 	sb	a3,17(s0)
 20112e4:	00aa5023 	sb	a3,20(s0)
 20112e8:	00aa3823 	sb	a3,14(s0)
 20112ec:	04302863 	beq	v0,a6,2011300 <t5_taskB7_FH_DU+0x19c>
 20112f0:	a8200a37 	lui	a3,0x4014
 20112f4:	ad4dc403 	lb	a3,881(a3)
 20112f8:	054010e3 	bnez	a3,2011300 <t5_taskB7_FH_DU+0x19c>
 20112fc:	39200823 	sb	v0,898(s2)
 2011300:	c0200a37 	lui	a6,0x4014
 2011304:	c8200a37 	lui	a7,0x4014
 2011308:	860ddc03 	lb	v0,887(a6)
 201130c:	ae4dd803 	lb	a3,886(a7)
 2011310:	05603063 	beq	a3,v0,2011328 <t5_taskB7_FH_DU+0x1c4>
 2011314:	a8200a37 	lui	a3,0x4014
 2011318:	ad4dc403 	lb	a3,881(a3)
 201131c:	05401863 	beqz	a3,2011328 <t5_taskB7_FH_DU+0x1c4>
 2011320:	d0200a37 	lui	a8,0x4014
 2011324:	36a1e823 	sb	v0,890(a8)
 2011328:	d8200a37 	lui	a9,0x4014
 201132c:	870df403 	lb	v0,893(a10)
 2011330:	aecdec03 	lb	a3,891(a9)
 2011334:	05602863 	beq	a3,v0,2011348 <t5_taskB7_FH_DU+0x1e4>
 2011338:	a8200a37 	lui	a3,0x4014
 201133c:	ad4dc403 	lb	a3,881(a3)
 2011340:	054010e3 	bnez	a3,2011348 <t5_taskB7_FH_DU+0x1e4>
 2011344:	38e00423 	sb	v0,897(s1)
 2011348:	e8200a37 	lui	a11,0x4014
 201134c:	f0200a37 	lui	a12,0x4014
 2011350:	874dd403 	lb	v0,885(a11)
 2011354:	af8dd003 	lb	a3,884(a12)
 2011358:	05602863 	beq	a3,v0,201136c <t5_taskB7_FH_DU+0x208>
 201135c:	a8200a37 	lui	a3,0x4014
 2011360:	ad4dc403 	lb	a3,881(a3)
 2011364:	05401063 	beqz	a3,201136c <t5_taskB7_FH_DU+0x208>
 2011368:	3721f423 	sb	v0,893(a10)
 201136c:	d8803203 	lbu	a9,12(s0)
 2011370:	d0803e03 	lbu	a8,15(s0)
 2011374:	c8804a03 	lbu	a7,18(s0)
 2011378:	c0805603 	lbu	a6,21(s0)
 201137c:	ba4dca03 	lbu	a5,882(s7)
 2011380:	b0ce0603 	lbu	a4,897(s1)
 2011384:	a98dce03 	lbu	a3,883(s4)
 2011388:	810e0a03 	lbu	v0,898(s2)
 201138c:	00b62823 	sb	a9,10(s0)
 2011390:	00b43423 	sb	a8,13(s0)
 2011394:	00b24023 	sb	a7,16(s0)
 2011398:	00b04c23 	sb	a6,19(s0)
 201139c:	3aae6823 	sb	a5,922(s8)
 20113a0:	03b86123 	sw	a10,24(sp)
 20113a4:	3a2c7023 	sb	a4,924(s6)
 20113a8:	39ea7823 	sb	a3,926(s5)
 20113ac:	39608023 	sb	v0,928(s3)
 20113b0:	03a25123 	sw	v1,20(sp)
 20113b4:	03a48123 	sw	a0,32(sp)
 20113b8:	03a64123 	sw	a1,16(sp)
 20113bc:	03a87123 	sw	a2,28(sp)
 20113c0:	fffbe46f 	jal	2010350 <t5_taskB7_generic_KINDERSICHERUNG_CTRL>
 20113c4:	a3807103 	lw	a2,28(sp)
 20113c8:	9b804103 	lw	a1,16(sp)
 20113cc:	f8200a37 	lui	a13,0x4014
 20113d0:	80200a37 	lui	v0,0x4014
 20113d4:	0fce2a03 	lbu	ra,906(a13)
 20113d8:	93808103 	lw	a0,32(sp)
 20113dc:	fc0e3603 	lbu	a13,909(v0)
 20113e0:	8b805103 	lw	v1,20(sp)
 20113e4:	f50f5103 	lw	a12,980(a2)
 20113e8:	a8200a37 	lui	a3,0x4014
 20113ec:	ed4e1e03 	lbu	a11,903(a3)
 20113f0:	dccf6103 	lw	a9,984(a1)
 20113f4:	d48e5203 	lbu	a8,916(a0)
 20113f8:	ac4e6203 	lbu	a3,920(v1)
 20113fc:	ca8e6a03 	lbu	a7,922(s8)
 2011400:	c20e7203 	lbu	a6,924(s6)
 2011404:	b9ce7a03 	lbu	a5,926(s5)
 2011408:	b14e8203 	lbu	a4,928(s3)
 201140c:	834e5e03 	lbu	v0,919(s11)
 2011410:	32ffb423 	sb	a13,877(s9)
 2011414:	f8200a37 	lui	a13,0x4014
 2011418:	3ffd0123 	sw	a12,960(a13)
 201141c:	f8200a37 	lui	a13,0x4014
 2011420:	f0200a37 	lui	a12,0x4014
 2011424:	37bbfc23 	sb	a11,895(a12)
 2011428:	3ff71123 	sw	a9,964(a13)
 201142c:	e8200a37 	lui	a11,0x4014
 2011430:	d8200a37 	lui	a9,0x4014
 2011434:	f0200a37 	lui	a12,0x4014
 2011438:	3ef40023 	sb	a8,896(a9)
 201143c:	3f6a0c23 	sb	a3,899(a11)
 2011440:	37a1c023 	sb	v0,880(a12)
 2011444:	3303a823 	sb	ra,874(s10)
 2011448:	3273c823 	sb	a7,882(s7)
 201144c:	38f00423 	sb	a6,897(s1)
 2011450:	31afcc23 	sb	a5,883(s4)
 2011454:	392c0823 	sb	a4,898(s2)
 2011458:	fffc986f 	jal	20106b8 <t5_taskB7_generic_FH_TUERMODUL_CTRL>
 201145c:	a3807103 	lw	a2,28(sp)
 2011460:	9b804103 	lw	a1,16(sp)
 2011464:	f8200a37 	lui	a13,0x4014
 2011468:	80200a37 	lui	v0,0x4014
 201146c:	0fce2a03 	lbu	ra,906(a13)
 2011470:	93808103 	lw	a0,32(sp)
 2011474:	fc0e3603 	lbu	a13,909(v0)
 2011478:	8b805103 	lw	v1,20(sp)
 201147c:	f50f5103 	lw	a12,980(a2)
 2011480:	a8200a37 	lui	a3,0x4014
 2011484:	ed4e1e03 	lbu	a11,903(a3)
 2011488:	dccf6103 	lw	a9,984(a1)
 201148c:	d48e5203 	lbu	a8,916(a0)
 2011490:	ac4e6203 	lbu	a3,920(v1)
 2011494:	ca8e6a03 	lbu	a7,922(s8)
 2011498:	c20e7203 	lbu	a6,924(s6)
 201149c:	b9ce7a03 	lbu	a5,926(s5)
 20114a0:	b14e8203 	lbu	a4,928(s3)
 20114a4:	834e5e03 	lbu	v0,919(s11)
 20114a8:	32ffb423 	sb	a13,877(s9)
 20114ac:	f8200a37 	lui	a13,0x4014
 20114b0:	3ffd0123 	sw	a12,960(a13)
 20114b4:	f8200a37 	lui	a13,0x4014
 20114b8:	f0200a37 	lui	a12,0x4014
 20114bc:	37bbfc23 	sb	a11,895(a12)
 20114c0:	3ff71123 	sw	a9,964(a13)
 20114c4:	e8200a37 	lui	a11,0x4014
 20114c8:	d8200a37 	lui	a9,0x4014
 20114cc:	f0200a37 	lui	a12,0x4014
 20114d0:	3ef40023 	sb	a8,896(a9)
 20114d4:	3f6a0c23 	sb	a3,899(a11)
 20114d8:	37a1c023 	sb	v0,880(a12)
 20114dc:	3303a823 	sb	ra,874(s10)
 20114e0:	3273c823 	sb	a7,882(s7)
 20114e4:	38f00423 	sb	a6,897(s1)
 20114e8:	31afcc23 	sb	a5,883(s4)
 20114ec:	392c0823 	sb	a4,898(s2)
 20114f0:	fffe716f 	jal	2010eb4 <t5_taskB7_generic_EINKLEMMSCHUTZ_CTRL>
 20114f4:	a3807103 	lw	a2,28(sp)
 20114f8:	9b804103 	lw	a1,16(sp)
 20114fc:	f8200a37 	lui	a13,0x4014
 2011500:	80200a37 	lui	v0,0x4014
 2011504:	0fce2a03 	lbu	ra,906(a13)
 2011508:	93808103 	lw	a0,32(sp)
 201150c:	fc0e3603 	lbu	a13,909(v0)
 2011510:	8b805103 	lw	v1,20(sp)
 2011514:	f50f5103 	lw	a12,980(a2)
 2011518:	a8200a37 	lui	a3,0x4014
 201151c:	ed4e1e03 	lbu	a11,903(a3)
 2011520:	dccf6103 	lw	a9,984(a1)
 2011524:	d48e5203 	lbu	a8,916(a0)
 2011528:	ac4e6203 	lbu	a3,920(v1)
 201152c:	ca8e6a03 	lbu	a7,922(s8)
 2011530:	c20e7203 	lbu	a6,924(s6)
 2011534:	b9ce7a03 	lbu	a5,926(s5)
 2011538:	b14e8203 	lbu	a4,928(s3)
 201153c:	834e5e03 	lbu	v0,919(s11)
 2011540:	32ffb423 	sb	a13,877(s9)
 2011544:	f8200a37 	lui	a13,0x4014
 2011548:	3ffd0123 	sw	a12,960(a13)
 201154c:	f8200a37 	lui	a13,0x4014
 2011550:	f0200a37 	lui	a12,0x4014
 2011554:	37bbfc23 	sb	a11,895(a12)
 2011558:	3ff71123 	sw	a9,964(a13)
 201155c:	e8200a37 	lui	a11,0x4014
 2011560:	d8200a37 	lui	a9,0x4014
 2011564:	f0200a37 	lui	a12,0x4014
 2011568:	3ef40023 	sb	a8,896(a9)
 201156c:	3f6a0c23 	sb	a3,899(a11)
 2011570:	37a1c023 	sb	v0,880(a12)
 2011574:	3273c823 	sb	a7,882(s7)
 2011578:	38f00423 	sb	a6,897(s1)
 201157c:	31afcc23 	sb	a5,883(s4)
 2011580:	392c0823 	sb	a4,898(s2)
 2011584:	3303a823 	sb	ra,874(s10)
 2011588:	fffe776f 	jal	2010f64 <t5_taskB7_generic_BLOCK_ERKENNUNG_CTRL>
 201158c:	d0803403 	lb	a8,13(s0)
 2011590:	d8804003 	lb	a9,16(s0)
 2011594:	a3807103 	lw	a2,28(sp)
 2011598:	c8802803 	lb	a7,10(s0)
 201159c:	f8200a37 	lui	a13,0x4014
 20115a0:	afce1c03 	lb	a3,903(a13)
 20115a4:	b28e6803 	lb	a4,922(s8)
 20115a8:	f8804c03 	lb	a13,19(s0)
 20115ac:	9b804103 	lw	a1,16(sp)
 20115b0:	850f5103 	lw	v0,980(a2)
 20115b4:	ba0e7003 	lb	a5,924(s6)
 20115b8:	93808103 	lw	a0,32(sp)
 20115bc:	03b4b123 	sw	a8,44(sp)
 20115c0:	03b6c123 	sw	a9,48(sp)
 20115c4:	d0200a37 	lui	a8,0x4014
 20115c8:	d8200a37 	lui	a9,0x4014
 20115cc:	03b2a123 	sw	a7,40(sp)
 20115d0:	ce8fb103 	lw	a7,1004(a8)
 20115d4:	d6cf2103 	lw	a8,968(a9)
 20115d8:	d8200a37 	lui	a9,0x4014
 20115dc:	03ace123 	sw	a4,56(sp)
 20115e0:	03bed123 	sw	a13,52(sp)
 20115e4:	b4cf6103 	lw	a4,984(a1)
 20115e8:	fecec103 	lw	a13,944(a9)
 20115ec:	d8200a37 	lui	a9,0x4014
 20115f0:	03ae3123 	sw	a5,12(sp)
 20115f4:	3ee10123 	sw	v0,960(a9)
 20115f8:	bc8e5203 	lbu	a5,916(a0)
 20115fc:	d8200a37 	lui	a9,0x4014
 2011600:	36ebfc23 	sb	a3,895(a9)
 2011604:	d8200a37 	lui	a9,0x4014
 2011608:	3eed1123 	sw	a4,964(a9)
 201160c:	8b805103 	lw	v1,20(sp)
 2011610:	b0200a37 	lui	a4,0x4014
 2011614:	3dae0023 	sb	a5,896(a4)
 2011618:	db803103 	lw	a9,12(sp)
 201161c:	bb80e103 	lw	a5,56(sp)
 2011620:	c44e6203 	lbu	a6,920(v1)
 2011624:	e9ce7803 	lb	a11,926(s5)
 2011628:	f14e8003 	lb	a12,928(s3)
 201162c:	326fc823 	sb	a5,882(s7)
 2011630:	38f60423 	sb	a9,897(s1)
 2011634:	bb80a103 	lw	a5,40(sp)
 2011638:	db80c103 	lw	a9,48(sp)
 201163c:	b0200a37 	lui	a4,0x4014
 2011640:	3db00c23 	sb	a6,899(a4)
 2011644:	c380b103 	lw	a6,44(sp)
 2011648:	00ae2c23 	sb	a5,11(s0)
 201164c:	b8200a37 	lui	a5,0x4014
 2011650:	00b64423 	sb	a9,17(s0)
 2011654:	b380d103 	lw	a4,52(sp)
 2011658:	3df39123 	sw	a7,996(a5)
 201165c:	d8200a37 	lui	a9,0x4014
 2011660:	c8200a37 	lui	a7,0x4014
 2011664:	00b03823 	sb	a6,14(s0)
 2011668:	3e753123 	sw	a8,972(a7)
 201166c:	3efea123 	sw	a13,936(a9)
 2011670:	c0200a37 	lui	a6,0x4014
 2011674:	d0200a37 	lui	a8,0x4014
 2011678:	f8200a37 	lui	a13,0x4014
 201167c:	dfce5803 	lb	a9,918(a13)
 2011680:	3e214123 	sw	v0,976(a6)
 2011684:	3ea0f123 	sw	v0,956(a8)
 2011688:	b8200a37 	lui	a5,0x4014
 201168c:	80200a37 	lui	v0,0x4014
 2011690:	f8200a37 	lui	a13,0x4014
 2011694:	d40e4803 	lb	a8,914(v0)
 2011698:	c5ce3003 	lb	a6,908(a5)
 201169c:	00ac5023 	sb	a4,20(s0)
 20116a0:	bfce2403 	lb	a5,905(a13)
 20116a4:	b0200a37 	lui	a4,0x4014
 20116a8:	80200a37 	lui	v0,0x4014
 20116ac:	f8200a37 	lui	a13,0x4014
 20116b0:	cd8e3c03 	lb	a7,911(a4)
 20116b4:	b40dbc03 	lb	a4,879(v0)
 20116b8:	87cde803 	lb	v0,890(a13)
 20116bc:	f8200a37 	lui	a13,0x4014
 20116c0:	ffcdde03 	lbu	a13,887(a13)
 20116c4:	393c0823 	sb	a12,898(s2)
 20116c8:	31bbcc23 	sb	a11,883(s4)
 20116cc:	03be9c23 	sb	a13,39(sp)
 20116d0:	f8200a37 	lui	a13,0x4014
 20116d4:	ffcdd603 	lbu	a13,885(a13)
 20116d8:	e3806103 	lw	a10,24(sp)
 20116dc:	03be9823 	sb	a13,38(sp)
 20116e0:	f8200a37 	lui	a13,0x4014
 20116e4:	ffcdb003 	lb	a13,876(a13)
 20116e8:	03bef123 	sw	a13,60(sp)
 20116ec:	f8200a37 	lui	a13,0x4014
 20116f0:	3ffc7c23 	sb	a12,927(a13)
 20116f4:	f0200a37 	lui	a12,0x4014
 20116f8:	3fba7423 	sb	a11,925(a12)
 20116fc:	eb803103 	lw	a11,12(sp)
 2011700:	f8200a37 	lui	a13,0x4014
 2011704:	f0200a37 	lui	a12,0x4014
 2011708:	3ffa6c23 	sb	a11,923(a13)
 201170c:	fb80e103 	lw	a13,56(sp)
 2011710:	e8200a37 	lui	a11,0x4014
 2011714:	3f765423 	sb	a9,917(a11)
 2011718:	3fbe6423 	sb	a13,921(a12)
 201171c:	f0200a37 	lui	a12,0x4014
 2011720:	f8200a37 	lui	a13,0x4014
 2011724:	3fb44c23 	sb	a8,915(a12)
 2011728:	3ff44423 	sb	a8,913(a13)
 201172c:	e8200a37 	lui	a11,0x4014
 2011730:	d0200a37 	lui	a8,0x4014
 2011734:	3b765c23 	sb	a9,919(s11)
 2011738:	d8200a37 	lui	a9,0x4014
 201173c:	3eb24023 	sb	a7,912(a8)
 2011740:	3ef23823 	sb	a7,910(a9)
 2011744:	3f703423 	sb	a6,909(a11)
 2011748:	c8200a37 	lui	a7,0x4014
 201174c:	d0200a37 	lui	a8,0x4014
 2011750:	ef0df603 	lbu	a11,893(a10)
 2011754:	f0200a37 	lui	a12,0x4014
 2011758:	3e6a1823 	sb	a3,902(a7)
 201175c:	36abf823 	sb	a3,894(a8)
 2011760:	ab809e03 	lbu	a3,39(sp)
 2011764:	3fb02c23 	sb	a6,907(a12)
 2011768:	f8200a37 	lui	a13,0x4014
 201176c:	c0200a37 	lui	a6,0x4014
 2011770:	d8200a37 	lui	a9,0x4014
 2011774:	f0200a37 	lui	a12,0x4014
 2011778:	3fee2823 	sb	a5,906(a13)
 201177c:	3e2e2023 	sb	a5,904(a6)
 2011780:	36fbec23 	sb	a11,891(a9)
 2011784:	f8200a37 	lui	a13,0x4014
 2011788:	37a1e023 	sb	v0,888(a12)
 201178c:	c3809a03 	lbu	a6,38(sp)
 2011790:	c8200a37 	lui	a7,0x4014
 2011794:	d0200a37 	lui	a8,0x4014
 2011798:	e8200a37 	lui	a11,0x4014
 201179c:	f0200a37 	lui	a12,0x4014
 20117a0:	37ebd823 	sb	a3,886(a13)
 20117a4:	db80f103 	lw	a9,60(sp)
 20117a8:	af4da403 	lb	a3,873(a11)
 20117ac:	366dc023 	sb	a4,880(a7)
 20117b0:	36adb823 	sb	a4,878(a8)
 20117b4:	b78d8403 	lb	a4,865(a12)
 20117b8:	b8200a37 	lui	a5,0x4014
 20117bc:	35f1d023 	sb	a6,884(a5)
 20117c0:	f8200a37 	lui	a13,0x4014
 20117c4:	b8200a37 	lui	a5,0x4014
 20117c8:	32f7b423 	sb	a9,877(s9)
 20117cc:	37f7ac23 	sb	a9,875(a13)
 20117d0:	332ba823 	sb	a3,874(s10)
 20117d4:	35eba023 	sb	a3,872(a5)
 20117d8:	0d8000e3 	bnez	a4,20118d8 <t5_taskB7_FH_DU+0x774>
 20117dc:	c4000013 	move	a6,v0
 20117e0:	d0200a37 	lui	a8,0x4014
 20117e4:	be8d8203 	lbu	a5,864(a8)
 20117e8:	d8200a37 	lui	a9,0x4014
 20117ec:	aecd4c03 	lb	a3,851(a9)
 20117f0:	b0000413 	li	a4,1
 20117f4:	bdc00413 	add	a5,a5,1
 20117f8:	e8200a37 	lui	a11,0x4014
 20117fc:	f0000813 	li	a12,2
 2011800:	376d8423 	sb	a4,865(a11)
 2011804:	36af8023 	sb	a5,864(a8)
 2011808:	d57c48e3 	bne	a3,a12,201122c <t5_taskB7_FH_DU+0xc8>
 201180c:	aacdb403 	lb	a3,877(s9)
 2011810:	05412063 	beqz	a3,20118a0 <t5_taskB7_FH_DU+0x73c>
 2011814:	d0200a37 	lui	a8,0x4014
 2011818:	ae8dac03 	lb	a3,875(a8)
 201181c:	054108e3 	bnez	a3,20118a0 <t5_taskB7_FH_DU+0x73c>
 2011820:	d8200a37 	lui	a9,0x4014
 2011824:	a83e7013 	li	a3,-100
 2011828:	e8200a37 	lui	a11,0x4014
 201182c:	f0200a37 	lui	a12,0x4014
 2011830:	36c18423 	sb	zero,865(a9)
 2011834:	3f6b3123 	sw	a3,972(a11)
 2011838:	37ad4c23 	sb	a4,851(a12)
 201183c:	fffe8767 	j	2011258 <t5_taskB7_FH_DU+0xf4>
 2011840:	ab0da803 	lb	a3,874(s10)
 2011844:	d54028e3 	bnez	a3,2011258 <t5_taskB7_FH_DU+0xf4>
 2011848:	c8200a37 	lui	a7,0x4014
 201184c:	ae4da003 	lb	a3,872(a7)
 2011850:	d5401063 	beqz	a3,2011258 <t5_taskB7_FH_DU+0xf4>
 2011854:	d0200a37 	lui	a8,0x4014
 2011858:	d8200a37 	lui	a9,0x4014
 201185c:	f0000813 	li	a12,2
 2011860:	e8200a37 	lui	a11,0x4014
 2011864:	36818423 	sb	zero,865(a8)
 2011868:	3ec13123 	sw	zero,972(a9)
 201186c:	377d4c23 	sb	a12,851(a11)
 2011870:	fffe7a67 	j	2011258 <t5_taskB7_FH_DU+0xf4>
 2011874:	aacdb403 	lb	a3,877(s9)
 2011878:	cd41c0e3 	bnez	a3,2011258 <t5_taskB7_FH_DU+0xf4>
 201187c:	f8200a37 	lui	a13,0x4014
 2011880:	afcdac03 	lb	a3,875(a13)
 2011884:	cd41a863 	beqz	a3,2011258 <t5_taskB7_FH_DU+0xf4>
 2011888:	b0200a37 	lui	a4,0x4014
 201188c:	c8000813 	li	a7,2
 2011890:	37418423 	sb	zero,865(a11)
 2011894:	3d813123 	sw	zero,972(a4)
 2011898:	36f34c23 	sb	a7,851(a9)
 201189c:	fffe6f67 	j	2011258 <t5_taskB7_FH_DU+0xf4>
 20118a0:	ab0da803 	lb	a3,874(s10)
 20118a4:	cd416863 	beqz	a3,2011258 <t5_taskB7_FH_DU+0xf4>
 20118a8:	f8200a37 	lui	a13,0x4014
 20118ac:	afcda003 	lb	a3,872(a13)
 20118b0:	cd4150e3 	bnez	a3,2011258 <t5_taskB7_FH_DU+0xf4>
 20118b4:	a8200a37 	lui	a3,0x4014
 20118b8:	35418423 	sb	zero,865(a3)
 20118bc:	b0200a37 	lui	a4,0x4014
 20118c0:	a8019013 	li	a3,100
 20118c4:	3dab3123 	sw	a3,972(a4)
 20118c8:	b8200a37 	lui	a5,0x4014
 20118cc:	a8000c13 	li	a3,3
 20118d0:	35eb4c23 	sb	a3,851(a5)
 20118d4:	fffe6167 	j	2011258 <t5_taskB7_FH_DU+0xf4>
 20118d8:	0b81d103 	lw	ra,116(sp)
 20118dc:	1381c103 	lw	s0,112(sp)
 20118e0:	1b81b103 	lw	s1,108(sp)
 20118e4:	2381a103 	lw	s2,104(sp)
 20118e8:	2b819103 	lw	s3,100(sp)
 20118ec:	33818103 	lw	s4,96(sp)
 20118f0:	3b817103 	lw	s5,92(sp)
 20118f4:	43816103 	lw	s6,88(sp)
 20118f8:	4b815103 	lw	s7,84(sp)
 20118fc:	53814103 	lw	s8,80(sp)
 2011900:	5b813103 	lw	s9,76(sp)
 2011904:	63812103 	lw	s10,72(sp)
 2011908:	6b811103 	lw	s11,68(sp)
 201190c:	7381e013 	add	sp,sp,120
 2011910:	004000eb 	ret

02011914 <t5_taskB7_main>:
 2011914:	73bfe013 	add	sp,sp,-8
 2011918:	03840123 	sw	s0,0(sp)
 201191c:	03821123 	sw	ra,4(sp)
 2011920:	100cc813 	li	s0,818
 2011924:	10bffc13 	add	s0,s0,-1
 2011928:	fffa636f 	jal	20102b4 <t5_taskB7_init>
 201192c:	fffa006f 	jal	201012c <t5_taskB7_interface>
 2011930:	fffe0d6f 	jal	2011164 <t5_taskB7_FH_DU>
 2011934:	f881e0e3 	bnez	s0,2011924 <t5_taskB7_main+0x10>
 2011938:	0b801103 	lw	ra,4(sp)
 201193c:	80000013 	li	v0,0
 2011940:	13800103 	lw	s0,0(sp)
 2011944:	73802013 	add	sp,sp,8
 2011948:	004000eb 	ret

0201194c <t6_exception_proxy>:
 201194c:	73bfe013 	add	sp,sp,-8
 2011950:	03821123 	sw	ra,4(sp)
 2011954:	7840017b 	mfpcr	tp,cr1
 2011958:	73bef013 	add	sp,sp,-68
 201195c:	039e1123 	sw	tp,4(sp)
 2011960:	03a02123 	sw	v0,8(sp)
 2011964:	03a23123 	sw	v1,12(sp)
 2011968:	03a44123 	sw	a0,16(sp)
 201196c:	03a65123 	sw	a1,20(sp)
 2011970:	03a86123 	sw	a2,24(sp)
 2011974:	03aa7123 	sw	a3,28(sp)
 2011978:	03ac8123 	sw	a4,32(sp)
 201197c:	03ae9123 	sw	a5,36(sp)
 2011980:	03b0a123 	sw	a6,40(sp)
 2011984:	03b2b123 	sw	a7,44(sp)
 2011988:	03b4c123 	sw	a8,48(sp)
 201198c:	03b6d123 	sw	a9,52(sp)
 2011990:	03b8e123 	sw	a10,56(sp)
 2011994:	03baf123 	sw	a11,60(sp)
 2011998:	03bd0123 	sw	a12,64(sp)
 201199c:	03bf1123 	sw	a13,68(sp)
 20119a0:	80200c37 	lui	v0,0x4018
 20119a4:	84018103 	lw	v0,96(v0)
 20119a8:	0c00006b 	jalr	v0
 20119ac:	7b801103 	lw	tp,4(sp)
 20119b0:	83802103 	lw	v0,8(sp)
 20119b4:	8b803103 	lw	v1,12(sp)
 20119b8:	93804103 	lw	a0,16(sp)
 20119bc:	9b805103 	lw	a1,20(sp)
 20119c0:	a3806103 	lw	a2,24(sp)
 20119c4:	ab807103 	lw	a3,28(sp)
 20119c8:	b3808103 	lw	a4,32(sp)
 20119cc:	bb809103 	lw	a5,36(sp)
 20119d0:	c380a103 	lw	a6,40(sp)
 20119d4:	cb80b103 	lw	a7,44(sp)
 20119d8:	d380c103 	lw	a8,48(sp)
 20119dc:	db80d103 	lw	a9,52(sp)
 20119e0:	e380e103 	lw	a10,56(sp)
 20119e4:	eb80f103 	lw	a11,60(sp)
 20119e8:	f3810103 	lw	a12,64(sp)
 20119ec:	fb811103 	lw	a13,68(sp)
 20119f0:	73811013 	add	sp,sp,68
 20119f4:	0b801103 	lw	ra,4(sp)
 20119f8:	73802013 	add	sp,sp,8
 20119fc:	03c0016b 	jr	tp
 2011a00:	0b801103 	lw	ra,4(sp)
 2011a04:	73802013 	add	sp,sp,8
 2011a08:	004000eb 	ret

02011a0c <t6_ready_queue_init>:
 2011a0c:	88200c37 	lui	v1,0x4018
 2011a10:	80200c37 	lui	v0,0x4018
 2011a14:	84002013 	add	v0,v0,8
 2011a18:	04401123 	sw	zero,4(v1)
 2011a1c:	88200c37 	lui	v1,0x4018
 2011a20:	04600123 	sw	v0,0(v1)
 2011a24:	88200c37 	lui	v1,0x4018
 2011a28:	8c406013 	add	v1,v1,24
 2011a2c:	04222123 	sw	v1,8(v0)
 2011a30:	88200c37 	lui	v1,0x4018
 2011a34:	8c40a013 	add	v1,v1,40
 2011a38:	04226123 	sw	v1,24(v0)
 2011a3c:	88200c37 	lui	v1,0x4018
 2011a40:	8c40e013 	add	v1,v1,56
 2011a44:	0422a123 	sw	v1,40(v0)
 2011a48:	88200c37 	lui	v1,0x4018
 2011a4c:	8c412013 	add	v1,v1,72
 2011a50:	0422e123 	sw	v1,56(v0)
 2011a54:	04012123 	sw	zero,72(v0)
 2011a58:	004000eb 	ret

02011a5c <t6_ready_queue_add>:
 2011a5c:	a8200c37 	lui	a3,0x4018
 2011a60:	8d400103 	lw	v1,0(a3)
 2011a64:	b0200c37 	lui	a4,0x4018
 2011a68:	85801103 	lw	v0,4(a4)
 2011a6c:	bc402103 	lw	a5,8(v1)
 2011a70:	04661123 	sw	a1,4(v1)
 2011a74:	04683023 	sb	a2,12(v1)
 2011a78:	056e0123 	sw	a5,0(a3)
 2011a7c:	04640123 	sw	a0,0(v1)
 2011a80:	04006063 	beqz	v0,2011ab0 <t6_ready_queue_add+0x54>
 2011a84:	94001103 	lw	a0,4(v0)
 2011a88:	04e42be3 	bleu	a0,a1,2011a9c <t6_ready_queue_add+0x40>
 2011a8c:	00000967 	j	2011ab0 <t6_ready_queue_add+0x54>
 2011a90:	a4801103 	lw	a2,4(a0)
 2011a94:	04e82363 	bltu	a1,a2,2011aa4 <t6_ready_queue_add+0x48>
 2011a98:	84800013 	move	v0,a0
 2011a9c:	94002103 	lw	a0,8(v0)
 2011aa0:	fc81e0e3 	bnez	a0,2011a90 <t6_ready_queue_add+0x34>
 2011aa4:	04642123 	sw	a0,8(v1)
 2011aa8:	04222123 	sw	v1,8(v0)
 2011aac:	004000eb 	ret
 2011ab0:	04602123 	sw	v0,8(v1)
 2011ab4:	05a21123 	sw	v1,4(a4)
 2011ab8:	004000eb 	ret

02011abc <t6_ready_queue_peek>:
 2011abc:	80200c37 	lui	v0,0x4018
 2011ac0:	84001103 	lw	v0,4(v0)
 2011ac4:	004000eb 	ret

02011ac8 <t6_ready_queue_pop>:
 2011ac8:	73bfe013 	add	sp,sp,-8
 2011acc:	03841123 	sw	s0,4(sp)
 2011ad0:	03860123 	sw	s1,0(sp)
 2011ad4:	0000025b 	0x25b
 2011ad8:	90200c37 	lui	a0,0x4018
 2011adc:	84801103 	lw	v0,4(a0)
 2011ae0:	88200c37 	lui	v1,0x4018
 2011ae4:	a4400103 	lw	a2,0(v1)
 2011ae8:	9c003003 	lb	a1,12(v0)
 2011aec:	ac002103 	lw	a3,8(v0)
 2011af0:	04600123 	sw	v0,0(v1)
 2011af4:	9cc02813 	add	a1,a1,10
 2011af8:	8b800037 	lui	v1,0x70000
 2011afc:	04282123 	sw	a2,8(v0)
 2011b00:	04aa1123 	sw	a3,4(a0)
 2011b04:	84e20333 	or	v0,a1,v1
 2011b08:	87a001fb 	mtpcr	v0,v0,cr30
 2011b0c:	1000005b 	0x1000005b
 2011b10:	80800013 	move	v0,s0
 2011b14:	8c000037 	lui	v1,0x80000
 2011b18:	84220333 	or	v0,v0,v1
 2011b1c:	87a001fb 	mtpcr	v0,v0,cr30
 2011b20:	80200c37 	lui	v0,0x4018
 2011b24:	8c017103 	lw	v1,92(v0)
 2011b28:	80200c37 	lui	v0,0x4018
 2011b2c:	94016103 	lw	a0,88(v0)
 2011b30:	80100937 	lui	v0,0x2012
 2011b34:	84253013 	add	v0,v0,-1716
 2011b38:	00e001fb 	mtpcr	zero,v0,cr3
 2011b3c:	1c400013 	move	s1,v1
 2011b40:	14800013 	move	s0,a0
 2011b44:	00c401db 	0xc401db
 2011b48:	13801103 	lw	s0,4(sp)
 2011b4c:	1b800103 	lw	s1,0(sp)
 2011b50:	73802013 	add	sp,sp,8
 2011b54:	004000eb 	ret

02011b58 <t6_handler>:
 2011b58:	73bf8013 	add	sp,sp,-32
 2011b5c:	038c2123 	sw	s4,8(sp)
 2011b60:	30200c37 	lui	s4,0x4018
 2011b64:	81819103 	lw	v0,100(s4)
 2011b68:	03884123 	sw	s2,16(sp)
 2011b6c:	88000413 	li	v1,1
 2011b70:	20200c37 	lui	s2,0x4018
 2011b74:	038a3123 	sw	s3,12(sp)
 2011b78:	03827123 	sw	ra,28(sp)
 2011b7c:	03846123 	sw	s0,24(sp)
 2011b80:	03865123 	sw	s1,20(sp)
 2011b84:	038e1123 	sw	s5,4(sp)
 2011b88:	03900123 	sw	s6,0(sp)
 2011b8c:	29001103 	lw	s3,4(s2)
 2011b90:	1422a863 	beq	v0,v1,2011de4 <t6_handler+0x28c>
 2011b94:	0c0088e3 	bnez	v0,2011cd8 <t6_handler+0x180>
 2011b98:	18200c37 	lui	s1,0x4018
 2011b9c:	98c16103 	lw	a1,88(s1)
 2011ba0:	3817d7b7 	lui	s5,0x2faf
 2011ba4:	39c20013 	add	s5,s5,128
 2011ba8:	90100937 	lui	a0,0x2012
 2011bac:	94bcc013 	add	a0,a0,-208
 2011bb0:	9cce0033 	add	a1,a1,s5
 2011bb4:	a0000013 	li	a2,0
 2011bb8:	ffffa96f 	jal	2011a5c <t6_ready_queue_add>
 2011bbc:	98c16103 	lw	a1,88(s1)
 2011bc0:	90100937 	lui	a0,0x2012
 2011bc4:	9480c013 	add	a0,a0,48
 2011bc8:	9cce0033 	add	a1,a1,s5
 2011bcc:	a0000413 	li	a2,1
 2011bd0:	ffffa36f 	jal	2011a5c <t6_ready_queue_add>
 2011bd4:	98c16103 	lw	a1,88(s1)
 2011bd8:	405f5e37 	lui	s6,0xbebc
 2011bdc:	42080013 	add	s6,s6,512
 2011be0:	90100937 	lui	a0,0x2012
 2011be4:	949b2013 	add	a0,a0,1736
 2011be8:	9cd00033 	add	a1,a1,s6
 2011bec:	a0000813 	li	a2,2
 2011bf0:	ffff9b6f 	jal	2011a5c <t6_ready_queue_add>
 2011bf4:	98c16103 	lw	a1,88(s1)
 2011bf8:	901009b7 	lui	a0,0x2013
 2011bfc:	94b43013 	add	a0,a0,-756
 2011c00:	9cce0033 	add	a1,a1,s5
 2011c04:	a0000c13 	li	a2,3
 2011c08:	ffff956f 	jal	2011a5c <t6_ready_queue_add>
 2011c0c:	98c16103 	lw	a1,88(s1)
 2011c10:	901009b7 	lui	a0,0x2013
 2011c14:	948d4013 	add	a0,a0,848
 2011c18:	9cd00033 	add	a1,a1,s6
 2011c1c:	a0001013 	li	a2,4
 2011c20:	ffff8f6f 	jal	2011a5c <t6_ready_queue_add>
 2011c24:	89001103 	lw	v1,4(s2)
 2011c28:	98000413 	li	a1,1
 2011c2c:	80c16103 	lw	v0,88(s1)
 2011c30:	9017d7b7 	lui	a0,0x2faf
 2011c34:	94820013 	add	a0,a0,128
 2011c38:	84240033 	add	v0,v0,a0
 2011c3c:	01a79123 	sw	a1,100(s4)
 2011c40:	00e16123 	sw	v0,88(s1)
 2011c44:	04259b63 	bltu	v0,a0,2011d10 <t6_handler+0x1b8>
 2011c48:	90200c37 	lui	a0,0x4018
 2011c4c:	94817103 	lw	a0,92(a0)
 2011c50:	98100937 	lui	a1,0x2012
 2011c54:	9ce53013 	add	a1,a1,-1716
 2011c58:	00e601fb 	mtpcr	zero,a1,cr3
 2011c5c:	1c800013 	move	s1,a0
 2011c60:	14000013 	move	s0,v0
 2011c64:	00c401db 	0xc401db
 2011c68:	04409063 	beqz	v1,2011cb0 <t6_handler+0x158>
 2011c6c:	01628863 	beq	s3,v1,2011cb0 <t6_handler+0x158>
 2011c70:	33800037 	lui	s4,0x70000
 2011c74:	1c000037 	lui	s1,0x80000
 2011c78:	00000267 	j	2011c80 <t6_handler+0x128>
 2011c7c:	01626863 	beq	s3,v1,2011cb0 <t6_handler+0x158>
 2011c80:	84403003 	lb	v0,12(v1)
 2011c84:	840c0333 	or	v0,v0,s4
 2011c88:	87a001fb 	mtpcr	v0,v0,cr30
 2011c8c:	1000005b 	0x1000005b
 2011c90:	80800013 	move	v0,s0
 2011c94:	84060333 	or	v0,v0,s1
 2011c98:	87a001fb 	mtpcr	v0,v0,cr30
 2011c9c:	84400103 	lw	v0,0(v1)
 2011ca0:	0c00006b 	jalr	v0
 2011ca4:	ffff896f 	jal	2011ac8 <t6_ready_queue_pop>
 2011ca8:	89001103 	lw	v1,4(s2)
 2011cac:	fc41a0e3 	bnez	v1,2011c7c <t6_handler+0x124>
 2011cb0:	0b807103 	lw	ra,28(sp)
 2011cb4:	13806103 	lw	s0,24(sp)
 2011cb8:	1b805103 	lw	s1,20(sp)
 2011cbc:	23804103 	lw	s2,16(sp)
 2011cc0:	2b803103 	lw	s3,12(sp)
 2011cc4:	33802103 	lw	s4,8(sp)
 2011cc8:	3b801103 	lw	s5,4(sp)
 2011ccc:	43800103 	lw	s6,0(sp)
 2011cd0:	73808013 	add	sp,sp,32
 2011cd4:	004000eb 	ret
 2011cd8:	88000813 	li	v1,2
 2011cdc:	04235063 	beq	v0,v1,2011d84 <t6_handler+0x22c>
 2011ce0:	88000c13 	li	v1,3
 2011ce4:	04228063 	beq	v0,v1,2011d24 <t6_handler+0x1cc>
 2011ce8:	18200c37 	lui	s1,0x4018
 2011cec:	80c16103 	lw	v0,88(s1)
 2011cf0:	9017d7b7 	lui	a0,0x2faf
 2011cf4:	94820013 	add	a0,a0,128
 2011cf8:	98000413 	li	a1,1
 2011cfc:	84240033 	add	v0,v0,a0
 2011d00:	89400013 	move	v1,s3
 2011d04:	01a79123 	sw	a1,100(s4)
 2011d08:	00e16123 	sw	v0,88(s1)
 2011d0c:	fc247be3 	bleu	a0,v0,2011c48 <t6_handler+0xf0>
 2011d10:	98200c37 	lui	a1,0x4018
 2011d14:	94c17103 	lw	a0,92(a1)
 2011d18:	94800413 	add	a0,a0,1
 2011d1c:	04e57123 	sw	a0,92(a1)
 2011d20:	ffffcc67 	j	2011c50 <t6_handler+0xf8>
 2011d24:	18200c37 	lui	s1,0x4018
 2011d28:	98c16103 	lw	a1,88(s1)
 2011d2c:	3817d7b7 	lui	s5,0x2faf
 2011d30:	39c20013 	add	s5,s5,128
 2011d34:	90100937 	lui	a0,0x2012
 2011d38:	94bcc013 	add	a0,a0,-208
 2011d3c:	9cce0033 	add	a1,a1,s5
 2011d40:	a0000013 	li	a2,0
 2011d44:	ffff466f 	jal	2011a5c <t6_ready_queue_add>
 2011d48:	98c16103 	lw	a1,88(s1)
 2011d4c:	90100937 	lui	a0,0x2012
 2011d50:	9480c013 	add	a0,a0,48
 2011d54:	9cce0033 	add	a1,a1,s5
 2011d58:	a0000413 	li	a2,1
 2011d5c:	ffff406f 	jal	2011a5c <t6_ready_queue_add>
 2011d60:	98c16103 	lw	a1,88(s1)
 2011d64:	901009b7 	lui	a0,0x2013
 2011d68:	94b43013 	add	a0,a0,-756
 2011d6c:	9cce0033 	add	a1,a1,s5
 2011d70:	a0000c13 	li	a2,3
 2011d74:	ffff3a6f 	jal	2011a5c <t6_ready_queue_add>
 2011d78:	89001103 	lw	v1,4(s2)
 2011d7c:	98000013 	li	a1,0
 2011d80:	ffffab67 	j	2011c2c <t6_handler+0xd4>
 2011d84:	18200c37 	lui	s1,0x4018
 2011d88:	98c16103 	lw	a1,88(s1)
 2011d8c:	3817d7b7 	lui	s5,0x2faf
 2011d90:	39c20013 	add	s5,s5,128
 2011d94:	90100937 	lui	a0,0x2012
 2011d98:	94bcc013 	add	a0,a0,-208
 2011d9c:	9cce0033 	add	a1,a1,s5
 2011da0:	a0000013 	li	a2,0
 2011da4:	ffff2e6f 	jal	2011a5c <t6_ready_queue_add>
 2011da8:	98c16103 	lw	a1,88(s1)
 2011dac:	90100937 	lui	a0,0x2012
 2011db0:	9480c013 	add	a0,a0,48
 2011db4:	9cce0033 	add	a1,a1,s5
 2011db8:	a0000413 	li	a2,1
 2011dbc:	ffff286f 	jal	2011a5c <t6_ready_queue_add>
 2011dc0:	98c16103 	lw	a1,88(s1)
 2011dc4:	901009b7 	lui	a0,0x2013
 2011dc8:	94b43013 	add	a0,a0,-756
 2011dcc:	9cce0033 	add	a1,a1,s5
 2011dd0:	a0000c13 	li	a2,3
 2011dd4:	ffff226f 	jal	2011a5c <t6_ready_queue_add>
 2011dd8:	89001103 	lw	v1,4(s2)
 2011ddc:	98000c13 	li	a1,3
 2011de0:	ffff9367 	j	2011c2c <t6_handler+0xd4>
 2011de4:	18200c37 	lui	s1,0x4018
 2011de8:	98c16103 	lw	a1,88(s1)
 2011dec:	3817d7b7 	lui	s5,0x2faf
 2011df0:	39c20013 	add	s5,s5,128
 2011df4:	90100937 	lui	a0,0x2012
 2011df8:	94bcc013 	add	a0,a0,-208
 2011dfc:	9cce0033 	add	a1,a1,s5
 2011e00:	a0000013 	li	a2,0
 2011e04:	ffff166f 	jal	2011a5c <t6_ready_queue_add>
 2011e08:	98c16103 	lw	a1,88(s1)
 2011e0c:	90100937 	lui	a0,0x2012
 2011e10:	9480c013 	add	a0,a0,48
 2011e14:	9cce0033 	add	a1,a1,s5
 2011e18:	a0000413 	li	a2,1
 2011e1c:	ffff106f 	jal	2011a5c <t6_ready_queue_add>
 2011e20:	98c16103 	lw	a1,88(s1)
 2011e24:	901009b7 	lui	a0,0x2013
 2011e28:	94b43013 	add	a0,a0,-756
 2011e2c:	9cce0033 	add	a1,a1,s5
 2011e30:	a0000c13 	li	a2,3
 2011e34:	ffff0a6f 	jal	2011a5c <t6_ready_queue_add>
 2011e38:	89001103 	lw	v1,4(s2)
 2011e3c:	98000813 	li	a1,2
 2011e40:	ffff7b67 	j	2011c2c <t6_handler+0xd4>

02011e44 <t6_main>:
 2011e44:	88200c37 	lui	v1,0x4018
 2011e48:	8c402013 	add	v1,v1,8
 2011e4c:	90200c37 	lui	a0,0x4018
 2011e50:	04a20123 	sw	v1,0(a0)
 2011e54:	90200c37 	lui	a0,0x4018
 2011e58:	73bfa013 	add	sp,sp,-24
 2011e5c:	94806013 	add	a0,a0,24
 2011e60:	03882123 	sw	s2,8(sp)
 2011e64:	03825123 	sw	ra,20(sp)
 2011e68:	03844123 	sw	s0,16(sp)
 2011e6c:	03863123 	sw	s1,12(sp)
 2011e70:	038a1123 	sw	s3,4(sp)
 2011e74:	04642123 	sw	a0,8(v1)
 2011e78:	90200c37 	lui	a0,0x4018
 2011e7c:	9480a013 	add	a0,a0,40
 2011e80:	04646123 	sw	a0,24(v1)
 2011e84:	90200c37 	lui	a0,0x4018
 2011e88:	9480e013 	add	a0,a0,56
 2011e8c:	0464a123 	sw	a0,40(v1)
 2011e90:	90200c37 	lui	a0,0x4018
 2011e94:	94812013 	add	a0,a0,72
 2011e98:	0464e123 	sw	a0,56(v1)
 2011e9c:	90100937 	lui	a0,0x2012
 2011ea0:	94ad6013 	add	a0,a0,-1192
 2011ea4:	04412123 	sw	zero,72(v1)
 2011ea8:	88200c37 	lui	v1,0x4018
 2011eac:	04658123 	sw	a0,96(v1)
 2011eb0:	80000c37 	lui	v0,0x18
 2011eb4:	88200c37 	lui	v1,0x4018
 2011eb8:	841a8013 	add	v0,v0,1696
 2011ebc:	04417123 	sw	zero,92(v1)
 2011ec0:	88200c37 	lui	v1,0x4018
 2011ec4:	20200c37 	lui	s2,0x4018
 2011ec8:	04616123 	sw	v0,88(v1)
 2011ecc:	88100937 	lui	v1,0x2012
 2011ed0:	01001123 	sw	zero,4(s2)
 2011ed4:	90000013 	li	a0,0
 2011ed8:	8c653013 	add	v1,v1,-1716
 2011edc:	00e201fb 	mtpcr	zero,v1,cr3
 2011ee0:	1c800013 	move	s1,a0
 2011ee4:	14000013 	move	s0,v0
 2011ee8:	00c401db 	0xc401db
 2011eec:	2b800037 	lui	s3,0x70000
 2011ef0:	1c000037 	lui	s1,0x80000
 2011ef4:	00000b67 	j	2011f20 <t6_main+0xdc>
 2011ef8:	8c003003 	lb	v1,12(v0)
 2011efc:	8c4a0333 	or	v1,v1,s3
 2011f00:	8fa201fb 	mtpcr	v1,v1,cr30
 2011f04:	1000005b 	0x1000005b
 2011f08:	88800013 	move	v1,s0
 2011f0c:	8c460333 	or	v1,v1,s1
 2011f10:	8fa201fb 	mtpcr	v1,v1,cr30
 2011f14:	84000103 	lw	v0,0(v0)
 2011f18:	0c00006b 	jalr	v0
 2011f1c:	fffeeb6f 	jal	2011ac8 <t6_ready_queue_pop>
 2011f20:	81001103 	lw	v0,4(s2)
 2011f24:	fc01a8e3 	bnez	v0,2011ef8 <t6_main+0xb4>
 2011f28:	000002db 	0x2db
 2011f2c:	fffffd67 	j	2011f20 <t6_main+0xdc>

02011f30 <t6_taskC1_main>:
 2011f30:	73bfa013 	add	sp,sp,-24
 2011f34:	038c1123 	sw	s4,4(sp)
 2011f38:	d0200c37 	lui	a8,0x4018
 2011f3c:	30200c37 	lui	s4,0x4018
 2011f40:	03845123 	sw	s0,20(sp)
 2011f44:	03864123 	sw	s1,16(sp)
 2011f48:	03883123 	sw	s2,12(sp)
 2011f4c:	038a2123 	sw	s3,8(sp)
 2011f50:	c8049813 	li	a7,294
 2011f54:	ae81a013 	add	a3,a8,104
 2011f58:	3181c013 	add	s4,s4,112
 2011f5c:	c0002c13 	li	a6,11
 2011f60:	28002813 	li	s3,10
 2011f64:	20002413 	li	s2,9
 2011f68:	18002013 	li	s1,8
 2011f6c:	10001c13 	li	s0,7
 2011f70:	f8001813 	li	a13,6
 2011f74:	f0001413 	li	a12,5
 2011f78:	e8001013 	li	a11,4
 2011f7c:	e0000c13 	li	a10,3
 2011f80:	d8000813 	li	a9,2
 2011f84:	0681a123 	sw	zero,104(a8)
 2011f88:	05701123 	sw	a6,4(a3)
 2011f8c:	054a2123 	sw	s3,8(a3)
 2011f90:	05483123 	sw	s2,12(a3)
 2011f94:	05464123 	sw	s1,16(a3)
 2011f98:	05445123 	sw	s0,20(a3)
 2011f9c:	057e6123 	sw	a13,24(a3)
 2011fa0:	057c7123 	sw	a12,28(a3)
 2011fa4:	057a8123 	sw	a11,32(a3)
 2011fa8:	05789123 	sw	a10,36(a3)
 2011fac:	0576a123 	sw	a9,40(a3)
 2011fb0:	b9800013 	move	a5,s4
 2011fb4:	b0000813 	li	a4,2
 2011fb8:	8dc00103 	lw	v1,0(a5)
 2011fbc:	95fff103 	lw	a0,-4(a5)
 2011fc0:	a5bffc13 	add	a2,a4,-1
 2011fc4:	046473e3 	bleu	a0,v1,2011ffc <t6_taskC1_main+0xcc>
 2011fc8:	85800893 	sll	v0,a4,0x2
 2011fcc:	9dbff813 	add	a1,a4,-2
 2011fd0:	85600033 	add	v0,a3,v0
 2011fd4:	a5000893 	sll	a2,a2,0x2
 2011fd8:	a5680033 	add	a2,a3,a2
 2011fdc:	04240123 	sw	a0,0(v0)
 2011fe0:	05220123 	sw	v1,0(a2)
 2011fe4:	8c3ff103 	lw	v1,-4(v0)
 2011fe8:	943fe103 	lw	a0,-8(v0)
 2011fec:	a4c00013 	move	a2,a1
 2011ff0:	843ff013 	add	v0,v0,-4
 2011ff4:	9cfffc13 	add	a1,a1,-1
 2011ff8:	fc65bb63 	bltu	v1,a0,2011fd4 <t6_taskC1_main+0xa4>
 2011ffc:	b5800413 	add	a4,a4,1
 2012000:	bdc01013 	add	a5,a5,4
 2012004:	fdb168e3 	bne	a4,a6,2011fb8 <t6_taskC1_main+0x88>
 2012008:	ce7ffc13 	add	a7,a7,-1
 201200c:	fe40f0e3 	bnez	a7,2011f84 <t6_taskC1_main+0x54>
 2012010:	80000413 	li	v0,1
 2012014:	13805103 	lw	s0,20(sp)
 2012018:	1b804103 	lw	s1,16(sp)
 201201c:	23803103 	lw	s2,12(sp)
 2012020:	2b802103 	lw	s3,8(sp)
 2012024:	33801103 	lw	s4,4(sp)
 2012028:	73806013 	add	sp,sp,24
 201202c:	004000eb 	ret

02012030 <t6_taskD1_main>:
 2012030:	73bfa013 	add	sp,sp,-24
 2012034:	038c1123 	sw	s4,4(sp)
 2012038:	d0200c37 	lui	a8,0x4018
 201203c:	30200c37 	lui	s4,0x4018
 2012040:	03845123 	sw	s0,20(sp)
 2012044:	03864123 	sw	s1,16(sp)
 2012048:	03883123 	sw	s2,12(sp)
 201204c:	038a2123 	sw	s3,8(sp)
 2012050:	c80d1413 	li	a7,837
 2012054:	ae825013 	add	a3,a8,148
 2012058:	31827013 	add	s4,s4,156
 201205c:	c0002c13 	li	a6,11
 2012060:	28002813 	li	s3,10
 2012064:	20002413 	li	s2,9
 2012068:	18002013 	li	s1,8
 201206c:	10001c13 	li	s0,7
 2012070:	f8001813 	li	a13,6
 2012074:	f0001413 	li	a12,5
 2012078:	e8001013 	li	a11,4
 201207c:	e0000c13 	li	a10,3
 2012080:	d8000813 	li	a9,2
 2012084:	0e805123 	sw	zero,148(a8)
 2012088:	05701123 	sw	a6,4(a3)
 201208c:	054a2123 	sw	s3,8(a3)
 2012090:	05483123 	sw	s2,12(a3)
 2012094:	05464123 	sw	s1,16(a3)
 2012098:	05445123 	sw	s0,20(a3)
 201209c:	057e6123 	sw	a13,24(a3)
 20120a0:	057c7123 	sw	a12,28(a3)
 20120a4:	057a8123 	sw	a11,32(a3)
 20120a8:	05789123 	sw	a10,36(a3)
 20120ac:	0576a123 	sw	a9,40(a3)
 20120b0:	b9800013 	move	a5,s4
 20120b4:	b0000813 	li	a4,2
 20120b8:	8dc00103 	lw	v1,0(a5)
 20120bc:	95fff103 	lw	a0,-4(a5)
 20120c0:	a5bffc13 	add	a2,a4,-1
 20120c4:	046473e3 	bleu	a0,v1,20120fc <t6_taskD1_main+0xcc>
 20120c8:	85800893 	sll	v0,a4,0x2
 20120cc:	9dbff813 	add	a1,a4,-2
 20120d0:	85600033 	add	v0,a3,v0
 20120d4:	a5000893 	sll	a2,a2,0x2
 20120d8:	a5680033 	add	a2,a3,a2
 20120dc:	04240123 	sw	a0,0(v0)
 20120e0:	05220123 	sw	v1,0(a2)
 20120e4:	8c3ff103 	lw	v1,-4(v0)
 20120e8:	943fe103 	lw	a0,-8(v0)
 20120ec:	a4c00013 	move	a2,a1
 20120f0:	843ff013 	add	v0,v0,-4
 20120f4:	9cfffc13 	add	a1,a1,-1
 20120f8:	fc65bb63 	bltu	v1,a0,20120d4 <t6_taskD1_main+0xa4>
 20120fc:	b5800413 	add	a4,a4,1
 2012100:	bdc01013 	add	a5,a5,4
 2012104:	fdb168e3 	bne	a4,a6,20120b8 <t6_taskD1_main+0x88>
 2012108:	ce7ffc13 	add	a7,a7,-1
 201210c:	fe40f0e3 	bnez	a7,2012084 <t6_taskD1_main+0x54>
 2012110:	80000413 	li	v0,1
 2012114:	13805103 	lw	s0,20(sp)
 2012118:	1b804103 	lw	s1,16(sp)
 201211c:	23803103 	lw	s2,12(sp)
 2012120:	2b802103 	lw	s3,8(sp)
 2012124:	33801103 	lw	s4,4(sp)
 2012128:	73806013 	add	sp,sp,24
 201212c:	004000eb 	ret

02012130 <t6_taskD2_jpeg_fdct_islow>:
 2012130:	73bf0013 	add	sp,sp,-64
 2012134:	80200c37 	lui	v0,0x4018
 2012138:	0384f123 	sw	s0,60(sp)
 201213c:	0386e123 	sw	s1,56(sp)
 2012140:	0388d123 	sw	s2,52(sp)
 2012144:	038ac123 	sw	s3,48(sp)
 2012148:	038cb123 	sw	s4,44(sp)
 201214c:	038ea123 	sw	s5,40(sp)
 2012150:	03909123 	sw	s6,36(sp)
 2012154:	03928123 	sw	s7,32(sp)
 2012158:	03947123 	sw	s8,28(sp)
 201215c:	03966123 	sw	s9,24(sp)
 2012160:	03985123 	sw	s10,20(sp)
 2012164:	039a4123 	sw	s11,16(sp)
 2012168:	84030013 	add	v0,v0,192
 201216c:	e4000103 	lw	a10,0(v0)
 2012170:	cc003103 	lw	a7,12(v0)
 2012174:	d4007103 	lw	a8,28(v0)
 2012178:	b4004103 	lw	a4,16(v0)
 201217c:	1fffff37 	lui	s1,0xffffe
 2012180:	a7350033 	sub	a2,a10,a8
 2012184:	ae6d0033 	sub	a3,a7,a4
 2012188:	dd680033 	add	a9,a3,a2
 201218c:	18cccc13 	add	s1,s1,819
 2012190:	dec60433 	mul	a9,a9,s1
 2012194:	fc001103 	lw	a13,4(v0)
 2012198:	f4006103 	lw	a12,24(v0)
 201219c:	ec002103 	lw	a11,8(v0)
 20121a0:	8c005103 	lw	v1,20(v0)
 20121a4:	47fd0033 	sub	s6,a13,a12
 20121a8:	f7fc0033 	add	a12,a13,a12
 20121ac:	97630033 	sub	a0,a11,v1
 20121b0:	03bc0123 	sw	a12,0(sp)
 20121b4:	9d500033 	add	a1,a3,s6
 20121b8:	c4a80033 	add	a6,a0,a2
 20121bc:	4c900033 	add	s7,a0,s6
 20121c0:	1c801893 	sll	s1,a0,0x6
 20121c4:	14800c93 	sll	s0,a0,0x3
 20121c8:	23800103 	lw	s2,0(sp)
 20121cc:	bcf00033 	add	a5,a1,a6
 20121d0:	8f620033 	add	v1,a11,v1
 20121d4:	10c50033 	sub	s0,s1,s0
 20121d8:	fa001093 	sll	a13,s6,0x4
 20121dc:	1a400893 	sll	s1,s7,0x2
 20121e0:	f2401493 	sll	a12,s7,0x5
 20121e4:	ea000893 	sll	a11,s6,0x2
 20121e8:	d7340033 	add	a8,a10,a8
 20121ec:	b66c0033 	add	a4,a7,a4
 20121f0:	f0fc0033 	add	a12,s1,a12
 20121f4:	effb0033 	sub	a11,a13,a11
 20121f8:	e4c00893 	sll	a10,a1,0x2
 20121fc:	fdc01093 	sll	a13,a5,0x4
 2012200:	35c00893 	sll	s4,a5,0x2
 2012204:	2cc02093 	sll	s3,a1,0x8
 2012208:	31be0033 	add	s4,s4,a13
 201220c:	66001493 	sll	s10,a6,0x5
 2012210:	fd401893 	sll	a13,a3,0x6
 2012214:	03a21123 	sw	v1,4(sp)
 2012218:	03ac2123 	sw	a4,8(sp)
 201221c:	89230033 	sub	v1,s2,v1
 2012220:	b6ad0033 	sub	a4,a8,a4
 2012224:	5f800c93 	sll	s9,a12,0x3
 2012228:	29790033 	sub	s3,s3,a10
 201222c:	26001c93 	sll	s2,a6,0x7
 2012230:	1d400c93 	sll	s1,a3,0x3
 2012234:	e7401093 	sll	a10,a11,0x4
 2012238:	54401893 	sll	s8,v1,0x6
 201223c:	23080033 	add	s2,s10,s2
 2012240:	18fe0033 	add	s1,s1,a13
 2012244:	65802493 	sll	s10,a4,0x9
 2012248:	c8801093 	sll	a7,s0,0x4
 201224c:	3c400893 	sll	s5,v1,0x2
 2012250:	fd801893 	sll	a13,a4,0x6
 2012254:	f7960033 	add	a12,a12,s9
 2012258:	ef780033 	add	a11,a11,a10
 201225c:	5d001093 	sll	s9,a2,0x4
 2012260:	e5000893 	sll	a10,a2,0x2
 2012264:	fb3f0033 	sub	a13,s10,a13
 2012268:	e2f90033 	sub	a10,s9,a10
 201226c:	16450033 	sub	s0,a7,s0
 2012270:	3a8f0033 	sub	s5,s8,s5
 2012274:	29670033 	sub	s3,s3,a1
 2012278:	51801093 	sll	s8,s4,0x4
 201227c:	61000893 	sll	s10,s2,0x2
 2012280:	58c01093 	sll	s9,s1,0x4
 2012284:	cc6c0033 	add	a7,v1,a4
 2012288:	10a40033 	add	s0,s0,a0
 201228c:	18d60033 	add	s1,s1,s9
 2012290:	328d0033 	sub	s4,s8,s4
 2012294:	21180033 	add	s2,s2,s10
 2012298:	29401093 	sll	s3,s3,0x4
 201229c:	67002893 	sll	s10,a10,0xa
 20122a0:	f7930033 	sub	a12,a12,s7
 20122a4:	ef510033 	sub	a11,a11,s6
 20122a8:	4e401093 	sll	s7,a7,0x4
 20122ac:	46401c93 	sll	s6,a7,0x7
 20122b0:	39e30033 	sub	s5,s5,v1
 20122b4:	50800893 	sll	s8,s0,0x2
 20122b8:	31ae0033 	add	s4,s4,a5
 20122bc:	29660033 	add	s3,s3,a1
 20122c0:	a8eb0033 	sub	a3,s1,a3
 20122c4:	e7180033 	add	a10,a10,s10
 20122c8:	4a500033 	add	s7,s7,s6
 20122cc:	10940033 	add	s0,s0,s8
 20122d0:	29400893 	sll	s3,s3,0x2
 20122d4:	a7290033 	sub	a2,a10,a2
 20122d8:	47c00c93 	sll	s6,a13,0x3
 20122dc:	39c00c93 	sll	s5,s5,0x3
 20122e0:	6f801893 	sll	s11,a12,0x6
 20122e4:	5f401493 	sll	s9,a11,0x5
 20122e8:	31801493 	sll	s4,s4,0x5
 20122ec:	ad400493 	sll	a3,a3,0x1
 20122f0:	31ae0033 	add	s4,s4,a5
 20122f4:	ca730033 	sub	a7,s7,a7
 20122f8:	39e20033 	add	s5,s5,v1
 20122fc:	26090033 	sub	s2,a6,s2
 2012300:	99660033 	add	a1,s3,a1
 2012304:	ad760033 	add	a3,a3,a9
 2012308:	fa3f0033 	sub	a13,s6,a13
 201230c:	dd360033 	add	a9,a2,a9
 2012310:	f79a0033 	add	a12,a12,s11
 2012314:	10800893 	sll	s0,s0,0x2
 2012318:	eafb0033 	sub	a11,s9,a11
 201231c:	2b802103 	lw	s3,8(sp)
 2012320:	a3800103 	lw	a2,0(sp)
 2012324:	bb801103 	lw	a5,4(sp)
 2012328:	f03d0033 	neg	a12,a12
 201232c:	4e401493 	sll	s7,a7,0x5
 2012330:	b7ed0033 	sub	a4,a13,a4
 2012334:	39c01493 	sll	s5,s5,0x5
 2012338:	21000893 	sll	s2,s2,0x2
 201233c:	90a50033 	sub	a0,s0,a0
 2012340:	ef400893 	sll	a11,a11,0x2
 2012344:	99a70033 	sub	a1,s4,a1
 2012348:	ca730033 	sub	a7,s7,a7
 201234c:	310c0033 	add	s4,s2,s4
 2012350:	94bc0033 	add	a0,a0,a12
 2012354:	b5800493 	sll	a4,a4,0x1
 2012358:	89e20033 	add	v1,s5,v1
 201235c:	f77c0033 	add	a12,a11,a12
 2012360:	d68a0033 	add	a8,a8,s3
 2012364:	552e0033 	add	s8,a2,a5
 2012368:	b5b20033 	add	a4,a4,a7
 201236c:	ad660033 	add	a3,a3,a1
 2012370:	948c0033 	add	a0,a0,s4
 2012374:	ce630033 	sub	a7,a7,v1
 2012378:	9fa60033 	add	a1,a12,a1
 201237c:	36cc0033 	add	s4,a9,s4
 2012380:	c6940033 	add	a6,a8,s8
 2012384:	b5900013 	add	a4,a4,1024
 2012388:	d6950033 	sub	a8,a8,s8
 201238c:	ce500013 	add	a7,a7,1024
 2012390:	ad500013 	add	a3,a3,1024
 2012394:	94900013 	add	a0,a0,1024
 2012398:	9cd00013 	add	a1,a1,1024
 201239c:	31900013 	add	s4,s4,1024
 20123a0:	c6000893 	sll	a6,a6,0x2
 20123a4:	d6800893 	sll	a8,a8,0x2
 20123a8:	b5812e93 	sra	a4,a4,0xb
 20123ac:	ce412e93 	sra	a7,a7,0xb
 20123b0:	ad412e93 	sra	a3,a3,0xb
 20123b4:	94812e93 	sra	a0,a0,0xb
 20123b8:	9cc12e93 	sra	a1,a1,0xb
 20123bc:	31812e93 	sra	s4,s4,0xb
 20123c0:	18200c37 	lui	s1,0x4018
 20123c4:	04300123 	sw	a6,0(v0)
 20123c8:	04344123 	sw	a8,16(v0)
 20123cc:	042c2123 	sw	a4,8(v0)
 20123d0:	04326123 	sw	a7,24(v0)
 20123d4:	042a7123 	sw	a3,28(v0)
 20123d8:	04245123 	sw	a0,20(v0)
 20123dc:	04263123 	sw	a1,12(v0)
 20123e0:	040c1123 	sw	s4,4(v0)
 20123e4:	18c70013 	add	s1,s1,448
 20123e8:	84008013 	add	v0,v0,32
 20123ec:	ec0700e3 	bne	v0,s1,201216c <t6_taskD2_jpeg_fdct_islow+0x3c>
 20123f0:	80200c37 	lui	v0,0x4018
 20123f4:	84030013 	add	v0,v0,192
 20123f8:	a0000237 	lui	a2,0x4
 20123fc:	e4000103 	lw	a10,0(v0)
 2012400:	d4018103 	lw	a8,96(v0)
 2012404:	dc038103 	lw	a9,224(v0)
 2012408:	bc020103 	lw	a5,128(v0)
 201240c:	27ffff37 	lui	s2,0xffffe
 2012410:	af370033 	sub	a3,a10,a9
 2012414:	b6af0033 	sub	a4,a8,a5
 2012418:	8daa0033 	add	v1,a4,a3
 201241c:	210ccc13 	add	s2,s2,819
 2012420:	8c480433 	mul	v1,v1,s2
 2012424:	fc008103 	lw	a13,32(v0)
 2012428:	f4030103 	lw	a12,192(v0)
 201242c:	ec010103 	lw	a11,64(v0)
 2012430:	df360033 	add	a9,a10,a9
 2012434:	47fd0033 	sub	s6,a13,a12
 2012438:	f7fc0033 	add	a12,a13,a12
 201243c:	03bc0123 	sw	a12,0(sp)
 2012440:	2b800103 	lw	s3,0(sp)
 2012444:	9d900033 	add	a1,a4,s6
 2012448:	fa001093 	sll	a13,s6,0x4
 201244c:	beae0033 	add	a5,a8,a5
 2012450:	e4c00893 	sll	a10,a1,0x2
 2012454:	03ae2123 	sw	a5,8(sp)
 2012458:	beef0033 	sub	a5,a9,a5
 201245c:	03a23123 	sw	v1,12(sp)
 2012460:	8c028103 	lw	v1,160(v0)
 2012464:	97630033 	sub	a0,a11,v1
 2012468:	ccaa0033 	add	a7,a0,a3
 201246c:	4c900033 	add	s7,a0,s6
 2012470:	c4f20033 	add	a6,a1,a7
 2012474:	1c801893 	sll	s1,a0,0x6
 2012478:	8f620033 	add	v1,a11,v1
 201247c:	14800c93 	sll	s0,a0,0x3
 2012480:	ea000893 	sll	a11,s6,0x2
 2012484:	10c50033 	sub	s0,s1,s0
 2012488:	effb0033 	sub	a11,a13,a11
 201248c:	1a400893 	sll	s1,s7,0x2
 2012490:	03a21123 	sw	v1,4(sp)
 2012494:	f2401493 	sll	a12,s7,0x5
 2012498:	89630033 	sub	v1,s3,v1
 201249c:	fe001093 	sll	a13,a6,0x4
 20124a0:	2cc02093 	sll	s3,a1,0x8
 20124a4:	36000893 	sll	s4,a6,0x2
 20124a8:	f0fc0033 	add	a12,s1,a12
 20124ac:	31be0033 	add	s4,s4,a13
 20124b0:	66401493 	sll	s10,a7,0x5
 20124b4:	fd801893 	sll	a13,a4,0x6
 20124b8:	54401893 	sll	s8,v1,0x6
 20124bc:	29790033 	sub	s3,s3,a10
 20124c0:	26401c93 	sll	s2,a7,0x7
 20124c4:	1d800c93 	sll	s1,a4,0x3
 20124c8:	3c400893 	sll	s5,v1,0x2
 20124cc:	23080033 	add	s2,s10,s2
 20124d0:	18fe0033 	add	s1,s1,a13
 20124d4:	65c02493 	sll	s10,a5,0x9
 20124d8:	fdc01893 	sll	a13,a5,0x6
 20124dc:	3a8f0033 	sub	s5,s8,s5
 20124e0:	29670033 	sub	s3,s3,a1
 20124e4:	51801093 	sll	s8,s4,0x4
 20124e8:	fb3f0033 	sub	a13,s10,a13
 20124ec:	d0801093 	sll	a8,s0,0x4
 20124f0:	5f800c93 	sll	s9,a12,0x3
 20124f4:	e7401093 	sll	a10,a11,0x4
 20124f8:	328d0033 	sub	s4,s8,s4
 20124fc:	61000893 	sll	s10,s2,0x2
 2012500:	29401093 	sll	s3,s3,0x4
 2012504:	16850033 	sub	s0,a8,s0
 2012508:	f7960033 	add	a12,a12,s9
 201250c:	d46e0033 	add	a8,v1,a5
 2012510:	5d401093 	sll	s9,a3,0x4
 2012514:	ef780033 	add	a11,a11,a10
 2012518:	29660033 	add	s3,s3,a1
 201251c:	e5400893 	sll	a10,a3,0x2
 2012520:	21180033 	add	s2,s2,s10
 2012524:	31b00033 	add	s4,s4,a6
 2012528:	10a40033 	add	s0,s0,a0
 201252c:	f7930033 	sub	a12,a12,s7
 2012530:	ef510033 	sub	a11,a11,s6
 2012534:	e2f90033 	sub	a10,s9,a10
 2012538:	46801c93 	sll	s6,a8,0x7
 201253c:	4e801093 	sll	s7,a8,0x4
 2012540:	26490033 	sub	s2,a7,s2
 2012544:	31801493 	sll	s4,s4,0x5
 2012548:	29400893 	sll	s3,s3,0x2
 201254c:	4a500033 	add	s7,s7,s6
 2012550:	58c01093 	sll	s9,s1,0x4
 2012554:	47c00c93 	sll	s6,a13,0x3
 2012558:	31b00033 	add	s4,s4,a6
 201255c:	29660033 	add	s3,s3,a1
 2012560:	21000893 	sll	s2,s2,0x2
 2012564:	50800893 	sll	s8,s0,0x2
 2012568:	67002893 	sll	s10,a10,0xa
 201256c:	298b0033 	sub	s3,s4,s3
 2012570:	18d60033 	add	s1,s1,s9
 2012574:	310c0033 	add	s4,s2,s4
 2012578:	fa3f0033 	sub	a13,s6,a13
 201257c:	23803103 	lw	s2,12(sp)
 2012580:	39e30033 	sub	s5,s5,v1
 2012584:	6f801893 	sll	s11,a12,0x6
 2012588:	10940033 	add	s0,s0,s8
 201258c:	5f401493 	sll	s9,a11,0x5
 2012590:	e7180033 	add	a10,a10,s10
 2012594:	18ed0033 	sub	s1,s1,a4
 2012598:	ffef0033 	sub	a13,a13,a5
 201259c:	e72b0033 	sub	a10,a10,a3
 20125a0:	39c00c93 	sll	s5,s5,0x3
 20125a4:	f79a0033 	add	a12,a12,s11
 20125a8:	10800893 	sll	s0,s0,0x2
 20125ac:	eafb0033 	sub	a11,s9,a11
 20125b0:	9b802103 	lw	a1,8(sp)
 20125b4:	ab800103 	lw	a3,0(sp)
 20125b8:	bb801103 	lw	a5,4(sp)
 20125bc:	d2750033 	sub	a8,s7,a8
 20125c0:	f03d0033 	neg	a12,a12
 20125c4:	39e20033 	add	s5,s5,v1
 20125c8:	18c00493 	sll	s1,s1,0x1
 20125cc:	90a50033 	sub	a0,s0,a0
 20125d0:	ef400893 	sll	a11,a11,0x2
 20125d4:	94bc0033 	add	a0,a0,a12
 20125d8:	46801493 	sll	s6,a8,0x5
 20125dc:	39c01493 	sll	s5,s5,0x5
 20125e0:	b0c80033 	add	a4,s1,s2
 20125e4:	f77c0033 	add	a12,a11,a12
 20125e8:	dee60033 	add	a9,a9,a1
 20125ec:	4d6e0033 	add	s7,a3,a5
 20125f0:	d2350033 	sub	a8,s6,a8
 20125f4:	b58a0033 	add	a4,a4,s3
 20125f8:	ffc00493 	sll	a13,a13,0x1
 20125fc:	39e20033 	add	s5,s5,v1
 2012600:	e7080033 	add	a10,a10,s2
 2012604:	2f8a0033 	add	s3,a12,s3
 2012608:	ced20033 	add	a7,a9,s7
 201260c:	fff40033 	add	a13,a13,a8
 2012610:	948c0033 	add	a0,a0,s4
 2012614:	ded30033 	sub	a9,a9,s7
 2012618:	d68f0033 	sub	a8,a8,s5
 201261c:	370c0033 	add	s4,a10,s4
 2012620:	29680033 	add	s3,s3,a2
 2012624:	29413e93 	sra	s3,s3,0xf
 2012628:	ce400813 	add	a7,a7,2
 201262c:	dec00813 	add	a9,a9,2
 2012630:	ffe80033 	add	a13,a13,a2
 2012634:	d6a80033 	add	a8,a8,a2
 2012638:	b5a80033 	add	a4,a4,a2
 201263c:	94a80033 	add	a0,a0,a2
 2012640:	31a80033 	add	s4,s4,a2
 2012644:	040b8123 	sw	s3,96(v0)
 2012648:	ce410a93 	sra	a7,a7,0x2
 201264c:	dec10a93 	sra	a9,a9,0x2
 2012650:	ffc13e93 	sra	a13,a13,0xf
 2012654:	d6813e93 	sra	a8,a8,0xf
 2012658:	b5813e93 	sra	a4,a4,0xf
 201265c:	94813e93 	sra	a0,a0,0xf
 2012660:	31813e93 	sra	s4,s4,0xf
 2012664:	28200c37 	lui	s3,0x4018
 2012668:	04320123 	sw	a7,0(v0)
 201266c:	0c360123 	sw	a9,128(v0)
 2012670:	043f0123 	sw	a13,64(v0)
 2012674:	0c350123 	sw	a8,192(v0)
 2012678:	0c2d8123 	sw	a4,224(v0)
 201267c:	0c248123 	sw	a0,160(v0)
 2012680:	040c8123 	sw	s4,32(v0)
 2012684:	29438013 	add	s3,s3,224
 2012688:	84001013 	add	v0,v0,4
 201268c:	ec0ae0e3 	bne	v0,s3,20123fc <t6_taskD2_jpeg_fdct_islow+0x2cc>
 2012690:	1380f103 	lw	s0,60(sp)
 2012694:	1b80e103 	lw	s1,56(sp)
 2012698:	2380d103 	lw	s2,52(sp)
 201269c:	2b80c103 	lw	s3,48(sp)
 20126a0:	3380b103 	lw	s4,44(sp)
 20126a4:	3b80a103 	lw	s5,40(sp)
 20126a8:	43809103 	lw	s6,36(sp)
 20126ac:	4b808103 	lw	s7,32(sp)
 20126b0:	53807103 	lw	s8,28(sp)
 20126b4:	5b806103 	lw	s9,24(sp)
 20126b8:	63805103 	lw	s10,20(sp)
 20126bc:	6b804103 	lw	s11,16(sp)
 20126c0:	73810013 	add	sp,sp,64
 20126c4:	004000eb 	ret

020126c8 <t6_taskD2_main>:
 20126c8:	73bfa013 	add	sp,sp,-24
 20126cc:	03844123 	sw	s0,16(sp)
 20126d0:	03863123 	sw	s1,12(sp)
 20126d4:	038a1123 	sw	s3,4(sp)
 20126d8:	18200c37 	lui	s1,0x4018
 20126dc:	28200c37 	lui	s3,0x4018
 20126e0:	14000437 	lui	s0,0x80008
 20126e4:	03882123 	sw	s2,8(sp)
 20126e8:	03825123 	sw	ra,20(sp)
 20126ec:	2000f413 	li	s2,61
 20126f0:	29430013 	add	s3,s3,192
 20126f4:	18c70013 	add	s1,s1,448
 20126f8:	10800413 	add	s0,s0,1
 20126fc:	89400013 	move	v1,s3
 2012700:	80000413 	li	v0,1
 2012704:	9c000893 	sll	a1,v0,0x2
 2012708:	94001c93 	sll	a0,v0,0x7
 201270c:	94e40033 	add	a0,a1,a0
 2012710:	84a00033 	add	v0,a0,v0
 2012714:	94014413 	add	a0,v0,81
 2012718:	a48405b3 	mulhu	a2,a0,s0
 201271c:	9c817e93 	sra	a1,a0,0x1f
 2012720:	84c403b3 	and	v0,a1,s0
 2012724:	85210033 	sub	v0,a2,v0
 2012728:	84013e93 	sra	v0,v0,0xf
 201272c:	84270033 	sub	v0,v0,a1
 2012730:	9c004093 	sll	a1,v0,0x10
 2012734:	84e10033 	sub	v0,a1,v0
 2012738:	84a10033 	sub	v0,a0,v0
 201273c:	04600123 	sw	v0,0(v1)
 2012740:	8c401013 	add	v1,v1,4
 2012744:	fc4780e3 	bne	v1,s1,2012704 <t6_taskD2_main+0x3c>
 2012748:	213ffc13 	add	s2,s2,-1
 201274c:	fffe796f 	jal	2012130 <t6_taskD2_jpeg_fdct_islow>
 2012750:	f90158e3 	bnez	s2,20126fc <t6_taskD2_main+0x34>
 2012754:	0b805103 	lw	ra,20(sp)
 2012758:	80000013 	li	v0,0
 201275c:	13804103 	lw	s0,16(sp)
 2012760:	1b803103 	lw	s1,12(sp)
 2012764:	23802103 	lw	s2,8(sp)
 2012768:	2b801103 	lw	s3,4(sp)
 201276c:	73806013 	add	sp,sp,24
 2012770:	004000eb 	ret

02012774 <t6_taskD3_jpeg_fdct_islow>:
 2012774:	73bf0013 	add	sp,sp,-64
 2012778:	80200c37 	lui	v0,0x4018
 201277c:	0384f123 	sw	s0,60(sp)
 2012780:	0386e123 	sw	s1,56(sp)
 2012784:	0388d123 	sw	s2,52(sp)
 2012788:	038ac123 	sw	s3,48(sp)
 201278c:	038cb123 	sw	s4,44(sp)
 2012790:	038ea123 	sw	s5,40(sp)
 2012794:	03909123 	sw	s6,36(sp)
 2012798:	03928123 	sw	s7,32(sp)
 201279c:	03947123 	sw	s8,28(sp)
 20127a0:	03966123 	sw	s9,24(sp)
 20127a4:	03985123 	sw	s10,20(sp)
 20127a8:	039a4123 	sw	s11,16(sp)
 20127ac:	84070013 	add	v0,v0,448
 20127b0:	e4000103 	lw	a10,0(v0)
 20127b4:	cc003103 	lw	a7,12(v0)
 20127b8:	d4007103 	lw	a8,28(v0)
 20127bc:	b4004103 	lw	a4,16(v0)
 20127c0:	1fffff37 	lui	s1,0xffffe
 20127c4:	a7350033 	sub	a2,a10,a8
 20127c8:	ae6d0033 	sub	a3,a7,a4
 20127cc:	dd680033 	add	a9,a3,a2
 20127d0:	18cccc13 	add	s1,s1,819
 20127d4:	dec60433 	mul	a9,a9,s1
 20127d8:	fc001103 	lw	a13,4(v0)
 20127dc:	f4006103 	lw	a12,24(v0)
 20127e0:	ec002103 	lw	a11,8(v0)
 20127e4:	8c005103 	lw	v1,20(v0)
 20127e8:	47fd0033 	sub	s6,a13,a12
 20127ec:	f7fc0033 	add	a12,a13,a12
 20127f0:	97630033 	sub	a0,a11,v1
 20127f4:	03bc0123 	sw	a12,0(sp)
 20127f8:	9d500033 	add	a1,a3,s6
 20127fc:	c4a80033 	add	a6,a0,a2
 2012800:	4c900033 	add	s7,a0,s6
 2012804:	1c801893 	sll	s1,a0,0x6
 2012808:	14800c93 	sll	s0,a0,0x3
 201280c:	23800103 	lw	s2,0(sp)
 2012810:	bcf00033 	add	a5,a1,a6
 2012814:	8f620033 	add	v1,a11,v1
 2012818:	10c50033 	sub	s0,s1,s0
 201281c:	fa001093 	sll	a13,s6,0x4
 2012820:	1a400893 	sll	s1,s7,0x2
 2012824:	f2401493 	sll	a12,s7,0x5
 2012828:	ea000893 	sll	a11,s6,0x2
 201282c:	d7340033 	add	a8,a10,a8
 2012830:	b66c0033 	add	a4,a7,a4
 2012834:	f0fc0033 	add	a12,s1,a12
 2012838:	effb0033 	sub	a11,a13,a11
 201283c:	e4c00893 	sll	a10,a1,0x2
 2012840:	fdc01093 	sll	a13,a5,0x4
 2012844:	35c00893 	sll	s4,a5,0x2
 2012848:	2cc02093 	sll	s3,a1,0x8
 201284c:	31be0033 	add	s4,s4,a13
 2012850:	66001493 	sll	s10,a6,0x5
 2012854:	fd401893 	sll	a13,a3,0x6
 2012858:	03a21123 	sw	v1,4(sp)
 201285c:	03ac2123 	sw	a4,8(sp)
 2012860:	89230033 	sub	v1,s2,v1
 2012864:	b6ad0033 	sub	a4,a8,a4
 2012868:	5f800c93 	sll	s9,a12,0x3
 201286c:	29790033 	sub	s3,s3,a10
 2012870:	26001c93 	sll	s2,a6,0x7
 2012874:	1d400c93 	sll	s1,a3,0x3
 2012878:	e7401093 	sll	a10,a11,0x4
 201287c:	54401893 	sll	s8,v1,0x6
 2012880:	23080033 	add	s2,s10,s2
 2012884:	18fe0033 	add	s1,s1,a13
 2012888:	65802493 	sll	s10,a4,0x9
 201288c:	c8801093 	sll	a7,s0,0x4
 2012890:	3c400893 	sll	s5,v1,0x2
 2012894:	fd801893 	sll	a13,a4,0x6
 2012898:	f7960033 	add	a12,a12,s9
 201289c:	ef780033 	add	a11,a11,a10
 20128a0:	5d001093 	sll	s9,a2,0x4
 20128a4:	e5000893 	sll	a10,a2,0x2
 20128a8:	fb3f0033 	sub	a13,s10,a13
 20128ac:	e2f90033 	sub	a10,s9,a10
 20128b0:	16450033 	sub	s0,a7,s0
 20128b4:	3a8f0033 	sub	s5,s8,s5
 20128b8:	29670033 	sub	s3,s3,a1
 20128bc:	51801093 	sll	s8,s4,0x4
 20128c0:	61000893 	sll	s10,s2,0x2
 20128c4:	58c01093 	sll	s9,s1,0x4
 20128c8:	cc6c0033 	add	a7,v1,a4
 20128cc:	10a40033 	add	s0,s0,a0
 20128d0:	18d60033 	add	s1,s1,s9
 20128d4:	328d0033 	sub	s4,s8,s4
 20128d8:	21180033 	add	s2,s2,s10
 20128dc:	29401093 	sll	s3,s3,0x4
 20128e0:	67002893 	sll	s10,a10,0xa
 20128e4:	f7930033 	sub	a12,a12,s7
 20128e8:	ef510033 	sub	a11,a11,s6
 20128ec:	4e401093 	sll	s7,a7,0x4
 20128f0:	46401c93 	sll	s6,a7,0x7
 20128f4:	39e30033 	sub	s5,s5,v1
 20128f8:	50800893 	sll	s8,s0,0x2
 20128fc:	31ae0033 	add	s4,s4,a5
 2012900:	29660033 	add	s3,s3,a1
 2012904:	a8eb0033 	sub	a3,s1,a3
 2012908:	e7180033 	add	a10,a10,s10
 201290c:	4a500033 	add	s7,s7,s6
 2012910:	10940033 	add	s0,s0,s8
 2012914:	29400893 	sll	s3,s3,0x2
 2012918:	a7290033 	sub	a2,a10,a2
 201291c:	47c00c93 	sll	s6,a13,0x3
 2012920:	39c00c93 	sll	s5,s5,0x3
 2012924:	6f801893 	sll	s11,a12,0x6
 2012928:	5f401493 	sll	s9,a11,0x5
 201292c:	31801493 	sll	s4,s4,0x5
 2012930:	ad400493 	sll	a3,a3,0x1
 2012934:	31ae0033 	add	s4,s4,a5
 2012938:	ca730033 	sub	a7,s7,a7
 201293c:	39e20033 	add	s5,s5,v1
 2012940:	26090033 	sub	s2,a6,s2
 2012944:	99660033 	add	a1,s3,a1
 2012948:	ad760033 	add	a3,a3,a9
 201294c:	fa3f0033 	sub	a13,s6,a13
 2012950:	dd360033 	add	a9,a2,a9
 2012954:	f79a0033 	add	a12,a12,s11
 2012958:	10800893 	sll	s0,s0,0x2
 201295c:	eafb0033 	sub	a11,s9,a11
 2012960:	2b802103 	lw	s3,8(sp)
 2012964:	a3800103 	lw	a2,0(sp)
 2012968:	bb801103 	lw	a5,4(sp)
 201296c:	f03d0033 	neg	a12,a12
 2012970:	4e401493 	sll	s7,a7,0x5
 2012974:	b7ed0033 	sub	a4,a13,a4
 2012978:	39c01493 	sll	s5,s5,0x5
 201297c:	21000893 	sll	s2,s2,0x2
 2012980:	90a50033 	sub	a0,s0,a0
 2012984:	ef400893 	sll	a11,a11,0x2
 2012988:	99a70033 	sub	a1,s4,a1
 201298c:	ca730033 	sub	a7,s7,a7
 2012990:	310c0033 	add	s4,s2,s4
 2012994:	94bc0033 	add	a0,a0,a12
 2012998:	b5800493 	sll	a4,a4,0x1
 201299c:	89e20033 	add	v1,s5,v1
 20129a0:	f77c0033 	add	a12,a11,a12
 20129a4:	d68a0033 	add	a8,a8,s3
 20129a8:	552e0033 	add	s8,a2,a5
 20129ac:	b5b20033 	add	a4,a4,a7
 20129b0:	ad660033 	add	a3,a3,a1
 20129b4:	948c0033 	add	a0,a0,s4
 20129b8:	ce630033 	sub	a7,a7,v1
 20129bc:	9fa60033 	add	a1,a12,a1
 20129c0:	36cc0033 	add	s4,a9,s4
 20129c4:	c6940033 	add	a6,a8,s8
 20129c8:	b5900013 	add	a4,a4,1024
 20129cc:	d6950033 	sub	a8,a8,s8
 20129d0:	ce500013 	add	a7,a7,1024
 20129d4:	ad500013 	add	a3,a3,1024
 20129d8:	94900013 	add	a0,a0,1024
 20129dc:	9cd00013 	add	a1,a1,1024
 20129e0:	31900013 	add	s4,s4,1024
 20129e4:	c6000893 	sll	a6,a6,0x2
 20129e8:	d6800893 	sll	a8,a8,0x2
 20129ec:	b5812e93 	sra	a4,a4,0xb
 20129f0:	ce412e93 	sra	a7,a7,0xb
 20129f4:	ad412e93 	sra	a3,a3,0xb
 20129f8:	94812e93 	sra	a0,a0,0xb
 20129fc:	9cc12e93 	sra	a1,a1,0xb
 2012a00:	31812e93 	sra	s4,s4,0xb
 2012a04:	18200c37 	lui	s1,0x4018
 2012a08:	04300123 	sw	a6,0(v0)
 2012a0c:	04344123 	sw	a8,16(v0)
 2012a10:	042c2123 	sw	a4,8(v0)
 2012a14:	04326123 	sw	a7,24(v0)
 2012a18:	042a7123 	sw	a3,28(v0)
 2012a1c:	04245123 	sw	a0,20(v0)
 2012a20:	04263123 	sw	a1,12(v0)
 2012a24:	040c1123 	sw	s4,4(v0)
 2012a28:	18cb0013 	add	s1,s1,704
 2012a2c:	84008013 	add	v0,v0,32
 2012a30:	ec0700e3 	bne	v0,s1,20127b0 <t6_taskD3_jpeg_fdct_islow+0x3c>
 2012a34:	80200c37 	lui	v0,0x4018
 2012a38:	84070013 	add	v0,v0,448
 2012a3c:	a0000237 	lui	a2,0x4
 2012a40:	e4000103 	lw	a10,0(v0)
 2012a44:	d4018103 	lw	a8,96(v0)
 2012a48:	dc038103 	lw	a9,224(v0)
 2012a4c:	bc020103 	lw	a5,128(v0)
 2012a50:	27ffff37 	lui	s2,0xffffe
 2012a54:	af370033 	sub	a3,a10,a9
 2012a58:	b6af0033 	sub	a4,a8,a5
 2012a5c:	8daa0033 	add	v1,a4,a3
 2012a60:	210ccc13 	add	s2,s2,819
 2012a64:	8c480433 	mul	v1,v1,s2
 2012a68:	fc008103 	lw	a13,32(v0)
 2012a6c:	f4030103 	lw	a12,192(v0)
 2012a70:	ec010103 	lw	a11,64(v0)
 2012a74:	df360033 	add	a9,a10,a9
 2012a78:	47fd0033 	sub	s6,a13,a12
 2012a7c:	f7fc0033 	add	a12,a13,a12
 2012a80:	03bc0123 	sw	a12,0(sp)
 2012a84:	2b800103 	lw	s3,0(sp)
 2012a88:	9d900033 	add	a1,a4,s6
 2012a8c:	fa001093 	sll	a13,s6,0x4
 2012a90:	beae0033 	add	a5,a8,a5
 2012a94:	e4c00893 	sll	a10,a1,0x2
 2012a98:	03ae2123 	sw	a5,8(sp)
 2012a9c:	beef0033 	sub	a5,a9,a5
 2012aa0:	03a23123 	sw	v1,12(sp)
 2012aa4:	8c028103 	lw	v1,160(v0)
 2012aa8:	97630033 	sub	a0,a11,v1
 2012aac:	ccaa0033 	add	a7,a0,a3
 2012ab0:	4c900033 	add	s7,a0,s6
 2012ab4:	c4f20033 	add	a6,a1,a7
 2012ab8:	1c801893 	sll	s1,a0,0x6
 2012abc:	8f620033 	add	v1,a11,v1
 2012ac0:	14800c93 	sll	s0,a0,0x3
 2012ac4:	ea000893 	sll	a11,s6,0x2
 2012ac8:	10c50033 	sub	s0,s1,s0
 2012acc:	effb0033 	sub	a11,a13,a11
 2012ad0:	1a400893 	sll	s1,s7,0x2
 2012ad4:	03a21123 	sw	v1,4(sp)
 2012ad8:	f2401493 	sll	a12,s7,0x5
 2012adc:	89630033 	sub	v1,s3,v1
 2012ae0:	fe001093 	sll	a13,a6,0x4
 2012ae4:	2cc02093 	sll	s3,a1,0x8
 2012ae8:	36000893 	sll	s4,a6,0x2
 2012aec:	f0fc0033 	add	a12,s1,a12
 2012af0:	31be0033 	add	s4,s4,a13
 2012af4:	66401493 	sll	s10,a7,0x5
 2012af8:	fd801893 	sll	a13,a4,0x6
 2012afc:	54401893 	sll	s8,v1,0x6
 2012b00:	29790033 	sub	s3,s3,a10
 2012b04:	26401c93 	sll	s2,a7,0x7
 2012b08:	1d800c93 	sll	s1,a4,0x3
 2012b0c:	3c400893 	sll	s5,v1,0x2
 2012b10:	23080033 	add	s2,s10,s2
 2012b14:	18fe0033 	add	s1,s1,a13
 2012b18:	65c02493 	sll	s10,a5,0x9
 2012b1c:	fdc01893 	sll	a13,a5,0x6
 2012b20:	3a8f0033 	sub	s5,s8,s5
 2012b24:	29670033 	sub	s3,s3,a1
 2012b28:	51801093 	sll	s8,s4,0x4
 2012b2c:	fb3f0033 	sub	a13,s10,a13
 2012b30:	d0801093 	sll	a8,s0,0x4
 2012b34:	5f800c93 	sll	s9,a12,0x3
 2012b38:	e7401093 	sll	a10,a11,0x4
 2012b3c:	328d0033 	sub	s4,s8,s4
 2012b40:	61000893 	sll	s10,s2,0x2
 2012b44:	29401093 	sll	s3,s3,0x4
 2012b48:	16850033 	sub	s0,a8,s0
 2012b4c:	f7960033 	add	a12,a12,s9
 2012b50:	d46e0033 	add	a8,v1,a5
 2012b54:	5d401093 	sll	s9,a3,0x4
 2012b58:	ef780033 	add	a11,a11,a10
 2012b5c:	29660033 	add	s3,s3,a1
 2012b60:	e5400893 	sll	a10,a3,0x2
 2012b64:	21180033 	add	s2,s2,s10
 2012b68:	31b00033 	add	s4,s4,a6
 2012b6c:	10a40033 	add	s0,s0,a0
 2012b70:	f7930033 	sub	a12,a12,s7
 2012b74:	ef510033 	sub	a11,a11,s6
 2012b78:	e2f90033 	sub	a10,s9,a10
 2012b7c:	46801c93 	sll	s6,a8,0x7
 2012b80:	4e801093 	sll	s7,a8,0x4
 2012b84:	26490033 	sub	s2,a7,s2
 2012b88:	31801493 	sll	s4,s4,0x5
 2012b8c:	29400893 	sll	s3,s3,0x2
 2012b90:	4a500033 	add	s7,s7,s6
 2012b94:	58c01093 	sll	s9,s1,0x4
 2012b98:	47c00c93 	sll	s6,a13,0x3
 2012b9c:	31b00033 	add	s4,s4,a6
 2012ba0:	29660033 	add	s3,s3,a1
 2012ba4:	21000893 	sll	s2,s2,0x2
 2012ba8:	50800893 	sll	s8,s0,0x2
 2012bac:	67002893 	sll	s10,a10,0xa
 2012bb0:	298b0033 	sub	s3,s4,s3
 2012bb4:	18d60033 	add	s1,s1,s9
 2012bb8:	310c0033 	add	s4,s2,s4
 2012bbc:	fa3f0033 	sub	a13,s6,a13
 2012bc0:	23803103 	lw	s2,12(sp)
 2012bc4:	39e30033 	sub	s5,s5,v1
 2012bc8:	6f801893 	sll	s11,a12,0x6
 2012bcc:	10940033 	add	s0,s0,s8
 2012bd0:	5f401493 	sll	s9,a11,0x5
 2012bd4:	e7180033 	add	a10,a10,s10
 2012bd8:	18ed0033 	sub	s1,s1,a4
 2012bdc:	ffef0033 	sub	a13,a13,a5
 2012be0:	e72b0033 	sub	a10,a10,a3
 2012be4:	39c00c93 	sll	s5,s5,0x3
 2012be8:	f79a0033 	add	a12,a12,s11
 2012bec:	10800893 	sll	s0,s0,0x2
 2012bf0:	eafb0033 	sub	a11,s9,a11
 2012bf4:	9b802103 	lw	a1,8(sp)
 2012bf8:	ab800103 	lw	a3,0(sp)
 2012bfc:	bb801103 	lw	a5,4(sp)
 2012c00:	d2750033 	sub	a8,s7,a8
 2012c04:	f03d0033 	neg	a12,a12
 2012c08:	39e20033 	add	s5,s5,v1
 2012c0c:	18c00493 	sll	s1,s1,0x1
 2012c10:	90a50033 	sub	a0,s0,a0
 2012c14:	ef400893 	sll	a11,a11,0x2
 2012c18:	94bc0033 	add	a0,a0,a12
 2012c1c:	46801493 	sll	s6,a8,0x5
 2012c20:	39c01493 	sll	s5,s5,0x5
 2012c24:	b0c80033 	add	a4,s1,s2
 2012c28:	f77c0033 	add	a12,a11,a12
 2012c2c:	dee60033 	add	a9,a9,a1
 2012c30:	4d6e0033 	add	s7,a3,a5
 2012c34:	d2350033 	sub	a8,s6,a8
 2012c38:	b58a0033 	add	a4,a4,s3
 2012c3c:	ffc00493 	sll	a13,a13,0x1
 2012c40:	39e20033 	add	s5,s5,v1
 2012c44:	e7080033 	add	a10,a10,s2
 2012c48:	2f8a0033 	add	s3,a12,s3
 2012c4c:	ced20033 	add	a7,a9,s7
 2012c50:	fff40033 	add	a13,a13,a8
 2012c54:	948c0033 	add	a0,a0,s4
 2012c58:	ded30033 	sub	a9,a9,s7
 2012c5c:	d68f0033 	sub	a8,a8,s5
 2012c60:	370c0033 	add	s4,a10,s4
 2012c64:	29680033 	add	s3,s3,a2
 2012c68:	29413e93 	sra	s3,s3,0xf
 2012c6c:	ce400813 	add	a7,a7,2
 2012c70:	dec00813 	add	a9,a9,2
 2012c74:	ffe80033 	add	a13,a13,a2
 2012c78:	d6a80033 	add	a8,a8,a2
 2012c7c:	b5a80033 	add	a4,a4,a2
 2012c80:	94a80033 	add	a0,a0,a2
 2012c84:	31a80033 	add	s4,s4,a2
 2012c88:	040b8123 	sw	s3,96(v0)
 2012c8c:	ce410a93 	sra	a7,a7,0x2
 2012c90:	dec10a93 	sra	a9,a9,0x2
 2012c94:	ffc13e93 	sra	a13,a13,0xf
 2012c98:	d6813e93 	sra	a8,a8,0xf
 2012c9c:	b5813e93 	sra	a4,a4,0xf
 2012ca0:	94813e93 	sra	a0,a0,0xf
 2012ca4:	31813e93 	sra	s4,s4,0xf
 2012ca8:	28200c37 	lui	s3,0x4018
 2012cac:	04320123 	sw	a7,0(v0)
 2012cb0:	0c360123 	sw	a9,128(v0)
 2012cb4:	043f0123 	sw	a13,64(v0)
 2012cb8:	0c350123 	sw	a8,192(v0)
 2012cbc:	0c2d8123 	sw	a4,224(v0)
 2012cc0:	0c248123 	sw	a0,160(v0)
 2012cc4:	040c8123 	sw	s4,32(v0)
 2012cc8:	29478013 	add	s3,s3,480
 2012ccc:	84001013 	add	v0,v0,4
 2012cd0:	ec0ae0e3 	bne	v0,s3,2012a40 <t6_taskD3_jpeg_fdct_islow+0x2cc>
 2012cd4:	1380f103 	lw	s0,60(sp)
 2012cd8:	1b80e103 	lw	s1,56(sp)
 2012cdc:	2380d103 	lw	s2,52(sp)
 2012ce0:	2b80c103 	lw	s3,48(sp)
 2012ce4:	3380b103 	lw	s4,44(sp)
 2012ce8:	3b80a103 	lw	s5,40(sp)
 2012cec:	43809103 	lw	s6,36(sp)
 2012cf0:	4b808103 	lw	s7,32(sp)
 2012cf4:	53807103 	lw	s8,28(sp)
 2012cf8:	5b806103 	lw	s9,24(sp)
 2012cfc:	63805103 	lw	s10,20(sp)
 2012d00:	6b804103 	lw	s11,16(sp)
 2012d04:	73810013 	add	sp,sp,64
 2012d08:	004000eb 	ret

02012d0c <t6_taskD3_main>:
 2012d0c:	73bfa013 	add	sp,sp,-24
 2012d10:	03844123 	sw	s0,16(sp)
 2012d14:	03863123 	sw	s1,12(sp)
 2012d18:	038a1123 	sw	s3,4(sp)
 2012d1c:	18200c37 	lui	s1,0x4018
 2012d20:	28200c37 	lui	s3,0x4018
 2012d24:	14000437 	lui	s0,0x80008
 2012d28:	03882123 	sw	s2,8(sp)
 2012d2c:	03825123 	sw	ra,20(sp)
 2012d30:	20008413 	li	s2,33
 2012d34:	29470013 	add	s3,s3,448
 2012d38:	18cb0013 	add	s1,s1,704
 2012d3c:	10800413 	add	s0,s0,1
 2012d40:	89400013 	move	v1,s3
 2012d44:	80000413 	li	v0,1
 2012d48:	9c000893 	sll	a1,v0,0x2
 2012d4c:	94001c93 	sll	a0,v0,0x7
 2012d50:	94e40033 	add	a0,a1,a0
 2012d54:	84a00033 	add	v0,a0,v0
 2012d58:	94014413 	add	a0,v0,81
 2012d5c:	a48405b3 	mulhu	a2,a0,s0
 2012d60:	9c817e93 	sra	a1,a0,0x1f
 2012d64:	84c403b3 	and	v0,a1,s0
 2012d68:	85210033 	sub	v0,a2,v0
 2012d6c:	84013e93 	sra	v0,v0,0xf
 2012d70:	84270033 	sub	v0,v0,a1
 2012d74:	9c004093 	sll	a1,v0,0x10
 2012d78:	84e10033 	sub	v0,a1,v0
 2012d7c:	84a10033 	sub	v0,a0,v0
 2012d80:	04600123 	sw	v0,0(v1)
 2012d84:	8c401013 	add	v1,v1,4
 2012d88:	fc4780e3 	bne	v1,s1,2012d48 <t6_taskD3_main+0x3c>
 2012d8c:	213ffc13 	add	s2,s2,-1
 2012d90:	fffe796f 	jal	2012774 <t6_taskD3_jpeg_fdct_islow>
 2012d94:	f90158e3 	bnez	s2,2012d40 <t6_taskD3_main+0x34>
 2012d98:	0b805103 	lw	ra,20(sp)
 2012d9c:	80000013 	li	v0,0
 2012da0:	13804103 	lw	s0,16(sp)
 2012da4:	1b803103 	lw	s1,12(sp)
 2012da8:	23802103 	lw	s2,8(sp)
 2012dac:	2b801103 	lw	s3,4(sp)
 2012db0:	73806013 	add	sp,sp,24
 2012db4:	004000eb 	ret

02012db8 <t6_taskD4_jpeg_fdct_islow>:
 2012db8:	73bf0013 	add	sp,sp,-64
 2012dbc:	80200c37 	lui	v0,0x4018
 2012dc0:	0384f123 	sw	s0,60(sp)
 2012dc4:	0386e123 	sw	s1,56(sp)
 2012dc8:	0388d123 	sw	s2,52(sp)
 2012dcc:	038ac123 	sw	s3,48(sp)
 2012dd0:	038cb123 	sw	s4,44(sp)
 2012dd4:	038ea123 	sw	s5,40(sp)
 2012dd8:	03909123 	sw	s6,36(sp)
 2012ddc:	03928123 	sw	s7,32(sp)
 2012de0:	03947123 	sw	s8,28(sp)
 2012de4:	03966123 	sw	s9,24(sp)
 2012de8:	03985123 	sw	s10,20(sp)
 2012dec:	039a4123 	sw	s11,16(sp)
 2012df0:	840b0013 	add	v0,v0,704
 2012df4:	e4000103 	lw	a10,0(v0)
 2012df8:	cc003103 	lw	a7,12(v0)
 2012dfc:	d4007103 	lw	a8,28(v0)
 2012e00:	b4004103 	lw	a4,16(v0)
 2012e04:	1fffff37 	lui	s1,0xffffe
 2012e08:	a7350033 	sub	a2,a10,a8
 2012e0c:	ae6d0033 	sub	a3,a7,a4
 2012e10:	dd680033 	add	a9,a3,a2
 2012e14:	18cccc13 	add	s1,s1,819
 2012e18:	dec60433 	mul	a9,a9,s1
 2012e1c:	fc001103 	lw	a13,4(v0)
 2012e20:	f4006103 	lw	a12,24(v0)
 2012e24:	ec002103 	lw	a11,8(v0)
 2012e28:	8c005103 	lw	v1,20(v0)
 2012e2c:	47fd0033 	sub	s6,a13,a12
 2012e30:	f7fc0033 	add	a12,a13,a12
 2012e34:	97630033 	sub	a0,a11,v1
 2012e38:	03bc0123 	sw	a12,0(sp)
 2012e3c:	9d500033 	add	a1,a3,s6
 2012e40:	c4a80033 	add	a6,a0,a2
 2012e44:	4c900033 	add	s7,a0,s6
 2012e48:	1c801893 	sll	s1,a0,0x6
 2012e4c:	14800c93 	sll	s0,a0,0x3
 2012e50:	23800103 	lw	s2,0(sp)
 2012e54:	bcf00033 	add	a5,a1,a6
 2012e58:	8f620033 	add	v1,a11,v1
 2012e5c:	10c50033 	sub	s0,s1,s0
 2012e60:	fa001093 	sll	a13,s6,0x4
 2012e64:	1a400893 	sll	s1,s7,0x2
 2012e68:	f2401493 	sll	a12,s7,0x5
 2012e6c:	ea000893 	sll	a11,s6,0x2
 2012e70:	d7340033 	add	a8,a10,a8
 2012e74:	b66c0033 	add	a4,a7,a4
 2012e78:	f0fc0033 	add	a12,s1,a12
 2012e7c:	effb0033 	sub	a11,a13,a11
 2012e80:	e4c00893 	sll	a10,a1,0x2
 2012e84:	fdc01093 	sll	a13,a5,0x4
 2012e88:	35c00893 	sll	s4,a5,0x2
 2012e8c:	2cc02093 	sll	s3,a1,0x8
 2012e90:	31be0033 	add	s4,s4,a13
 2012e94:	66001493 	sll	s10,a6,0x5
 2012e98:	fd401893 	sll	a13,a3,0x6
 2012e9c:	03a21123 	sw	v1,4(sp)
 2012ea0:	03ac2123 	sw	a4,8(sp)
 2012ea4:	89230033 	sub	v1,s2,v1
 2012ea8:	b6ad0033 	sub	a4,a8,a4
 2012eac:	5f800c93 	sll	s9,a12,0x3
 2012eb0:	29790033 	sub	s3,s3,a10
 2012eb4:	26001c93 	sll	s2,a6,0x7
 2012eb8:	1d400c93 	sll	s1,a3,0x3
 2012ebc:	e7401093 	sll	a10,a11,0x4
 2012ec0:	54401893 	sll	s8,v1,0x6
 2012ec4:	23080033 	add	s2,s10,s2
 2012ec8:	18fe0033 	add	s1,s1,a13
 2012ecc:	65802493 	sll	s10,a4,0x9
 2012ed0:	c8801093 	sll	a7,s0,0x4
 2012ed4:	3c400893 	sll	s5,v1,0x2
 2012ed8:	fd801893 	sll	a13,a4,0x6
 2012edc:	f7960033 	add	a12,a12,s9
 2012ee0:	ef780033 	add	a11,a11,a10
 2012ee4:	5d001093 	sll	s9,a2,0x4
 2012ee8:	e5000893 	sll	a10,a2,0x2
 2012eec:	fb3f0033 	sub	a13,s10,a13
 2012ef0:	e2f90033 	sub	a10,s9,a10
 2012ef4:	16450033 	sub	s0,a7,s0
 2012ef8:	3a8f0033 	sub	s5,s8,s5
 2012efc:	29670033 	sub	s3,s3,a1
 2012f00:	51801093 	sll	s8,s4,0x4
 2012f04:	61000893 	sll	s10,s2,0x2
 2012f08:	58c01093 	sll	s9,s1,0x4
 2012f0c:	cc6c0033 	add	a7,v1,a4
 2012f10:	10a40033 	add	s0,s0,a0
 2012f14:	18d60033 	add	s1,s1,s9
 2012f18:	328d0033 	sub	s4,s8,s4
 2012f1c:	21180033 	add	s2,s2,s10
 2012f20:	29401093 	sll	s3,s3,0x4
 2012f24:	67002893 	sll	s10,a10,0xa
 2012f28:	f7930033 	sub	a12,a12,s7
 2012f2c:	ef510033 	sub	a11,a11,s6
 2012f30:	4e401093 	sll	s7,a7,0x4
 2012f34:	46401c93 	sll	s6,a7,0x7
 2012f38:	39e30033 	sub	s5,s5,v1
 2012f3c:	50800893 	sll	s8,s0,0x2
 2012f40:	31ae0033 	add	s4,s4,a5
 2012f44:	29660033 	add	s3,s3,a1
 2012f48:	a8eb0033 	sub	a3,s1,a3
 2012f4c:	e7180033 	add	a10,a10,s10
 2012f50:	4a500033 	add	s7,s7,s6
 2012f54:	10940033 	add	s0,s0,s8
 2012f58:	29400893 	sll	s3,s3,0x2
 2012f5c:	a7290033 	sub	a2,a10,a2
 2012f60:	47c00c93 	sll	s6,a13,0x3
 2012f64:	39c00c93 	sll	s5,s5,0x3
 2012f68:	6f801893 	sll	s11,a12,0x6
 2012f6c:	5f401493 	sll	s9,a11,0x5
 2012f70:	31801493 	sll	s4,s4,0x5
 2012f74:	ad400493 	sll	a3,a3,0x1
 2012f78:	31ae0033 	add	s4,s4,a5
 2012f7c:	ca730033 	sub	a7,s7,a7
 2012f80:	39e20033 	add	s5,s5,v1
 2012f84:	26090033 	sub	s2,a6,s2
 2012f88:	99660033 	add	a1,s3,a1
 2012f8c:	ad760033 	add	a3,a3,a9
 2012f90:	fa3f0033 	sub	a13,s6,a13
 2012f94:	dd360033 	add	a9,a2,a9
 2012f98:	f79a0033 	add	a12,a12,s11
 2012f9c:	10800893 	sll	s0,s0,0x2
 2012fa0:	eafb0033 	sub	a11,s9,a11
 2012fa4:	2b802103 	lw	s3,8(sp)
 2012fa8:	a3800103 	lw	a2,0(sp)
 2012fac:	bb801103 	lw	a5,4(sp)
 2012fb0:	f03d0033 	neg	a12,a12
 2012fb4:	4e401493 	sll	s7,a7,0x5
 2012fb8:	b7ed0033 	sub	a4,a13,a4
 2012fbc:	39c01493 	sll	s5,s5,0x5
 2012fc0:	21000893 	sll	s2,s2,0x2
 2012fc4:	90a50033 	sub	a0,s0,a0
 2012fc8:	ef400893 	sll	a11,a11,0x2
 2012fcc:	99a70033 	sub	a1,s4,a1
 2012fd0:	ca730033 	sub	a7,s7,a7
 2012fd4:	310c0033 	add	s4,s2,s4
 2012fd8:	94bc0033 	add	a0,a0,a12
 2012fdc:	b5800493 	sll	a4,a4,0x1
 2012fe0:	89e20033 	add	v1,s5,v1
 2012fe4:	f77c0033 	add	a12,a11,a12
 2012fe8:	d68a0033 	add	a8,a8,s3
 2012fec:	552e0033 	add	s8,a2,a5
 2012ff0:	b5b20033 	add	a4,a4,a7
 2012ff4:	ad660033 	add	a3,a3,a1
 2012ff8:	948c0033 	add	a0,a0,s4
 2012ffc:	ce630033 	sub	a7,a7,v1
 2013000:	9fa60033 	add	a1,a12,a1
 2013004:	36cc0033 	add	s4,a9,s4
 2013008:	c6940033 	add	a6,a8,s8
 201300c:	b5900013 	add	a4,a4,1024
 2013010:	d6950033 	sub	a8,a8,s8
 2013014:	ce500013 	add	a7,a7,1024
 2013018:	ad500013 	add	a3,a3,1024
 201301c:	94900013 	add	a0,a0,1024
 2013020:	9cd00013 	add	a1,a1,1024
 2013024:	31900013 	add	s4,s4,1024
 2013028:	c6000893 	sll	a6,a6,0x2
 201302c:	d6800893 	sll	a8,a8,0x2
 2013030:	b5812e93 	sra	a4,a4,0xb
 2013034:	ce412e93 	sra	a7,a7,0xb
 2013038:	ad412e93 	sra	a3,a3,0xb
 201303c:	94812e93 	sra	a0,a0,0xb
 2013040:	9cc12e93 	sra	a1,a1,0xb
 2013044:	31812e93 	sra	s4,s4,0xb
 2013048:	18200c37 	lui	s1,0x4018
 201304c:	04300123 	sw	a6,0(v0)
 2013050:	04344123 	sw	a8,16(v0)
 2013054:	042c2123 	sw	a4,8(v0)
 2013058:	04326123 	sw	a7,24(v0)
 201305c:	042a7123 	sw	a3,28(v0)
 2013060:	04245123 	sw	a0,20(v0)
 2013064:	04263123 	sw	a1,12(v0)
 2013068:	040c1123 	sw	s4,4(v0)
 201306c:	18cf0013 	add	s1,s1,960
 2013070:	84008013 	add	v0,v0,32
 2013074:	ec0700e3 	bne	v0,s1,2012df4 <t6_taskD4_jpeg_fdct_islow+0x3c>
 2013078:	80200c37 	lui	v0,0x4018
 201307c:	840b0013 	add	v0,v0,704
 2013080:	a0000237 	lui	a2,0x4
 2013084:	e4000103 	lw	a10,0(v0)
 2013088:	d4018103 	lw	a8,96(v0)
 201308c:	dc038103 	lw	a9,224(v0)
 2013090:	bc020103 	lw	a5,128(v0)
 2013094:	27ffff37 	lui	s2,0xffffe
 2013098:	af370033 	sub	a3,a10,a9
 201309c:	b6af0033 	sub	a4,a8,a5
 20130a0:	8daa0033 	add	v1,a4,a3
 20130a4:	210ccc13 	add	s2,s2,819
 20130a8:	8c480433 	mul	v1,v1,s2
 20130ac:	fc008103 	lw	a13,32(v0)
 20130b0:	f4030103 	lw	a12,192(v0)
 20130b4:	ec010103 	lw	a11,64(v0)
 20130b8:	df360033 	add	a9,a10,a9
 20130bc:	47fd0033 	sub	s6,a13,a12
 20130c0:	f7fc0033 	add	a12,a13,a12
 20130c4:	03bc0123 	sw	a12,0(sp)
 20130c8:	2b800103 	lw	s3,0(sp)
 20130cc:	9d900033 	add	a1,a4,s6
 20130d0:	fa001093 	sll	a13,s6,0x4
 20130d4:	beae0033 	add	a5,a8,a5
 20130d8:	e4c00893 	sll	a10,a1,0x2
 20130dc:	03ae2123 	sw	a5,8(sp)
 20130e0:	beef0033 	sub	a5,a9,a5
 20130e4:	03a23123 	sw	v1,12(sp)
 20130e8:	8c028103 	lw	v1,160(v0)
 20130ec:	97630033 	sub	a0,a11,v1
 20130f0:	ccaa0033 	add	a7,a0,a3
 20130f4:	4c900033 	add	s7,a0,s6
 20130f8:	c4f20033 	add	a6,a1,a7
 20130fc:	1c801893 	sll	s1,a0,0x6
 2013100:	8f620033 	add	v1,a11,v1
 2013104:	14800c93 	sll	s0,a0,0x3
 2013108:	ea000893 	sll	a11,s6,0x2
 201310c:	10c50033 	sub	s0,s1,s0
 2013110:	effb0033 	sub	a11,a13,a11
 2013114:	1a400893 	sll	s1,s7,0x2
 2013118:	03a21123 	sw	v1,4(sp)
 201311c:	f2401493 	sll	a12,s7,0x5
 2013120:	89630033 	sub	v1,s3,v1
 2013124:	fe001093 	sll	a13,a6,0x4
 2013128:	2cc02093 	sll	s3,a1,0x8
 201312c:	36000893 	sll	s4,a6,0x2
 2013130:	f0fc0033 	add	a12,s1,a12
 2013134:	31be0033 	add	s4,s4,a13
 2013138:	66401493 	sll	s10,a7,0x5
 201313c:	fd801893 	sll	a13,a4,0x6
 2013140:	54401893 	sll	s8,v1,0x6
 2013144:	29790033 	sub	s3,s3,a10
 2013148:	26401c93 	sll	s2,a7,0x7
 201314c:	1d800c93 	sll	s1,a4,0x3
 2013150:	3c400893 	sll	s5,v1,0x2
 2013154:	23080033 	add	s2,s10,s2
 2013158:	18fe0033 	add	s1,s1,a13
 201315c:	65c02493 	sll	s10,a5,0x9
 2013160:	fdc01893 	sll	a13,a5,0x6
 2013164:	3a8f0033 	sub	s5,s8,s5
 2013168:	29670033 	sub	s3,s3,a1
 201316c:	51801093 	sll	s8,s4,0x4
 2013170:	fb3f0033 	sub	a13,s10,a13
 2013174:	d0801093 	sll	a8,s0,0x4
 2013178:	5f800c93 	sll	s9,a12,0x3
 201317c:	e7401093 	sll	a10,a11,0x4
 2013180:	328d0033 	sub	s4,s8,s4
 2013184:	61000893 	sll	s10,s2,0x2
 2013188:	29401093 	sll	s3,s3,0x4
 201318c:	16850033 	sub	s0,a8,s0
 2013190:	f7960033 	add	a12,a12,s9
 2013194:	d46e0033 	add	a8,v1,a5
 2013198:	5d401093 	sll	s9,a3,0x4
 201319c:	ef780033 	add	a11,a11,a10
 20131a0:	29660033 	add	s3,s3,a1
 20131a4:	e5400893 	sll	a10,a3,0x2
 20131a8:	21180033 	add	s2,s2,s10
 20131ac:	31b00033 	add	s4,s4,a6
 20131b0:	10a40033 	add	s0,s0,a0
 20131b4:	f7930033 	sub	a12,a12,s7
 20131b8:	ef510033 	sub	a11,a11,s6
 20131bc:	e2f90033 	sub	a10,s9,a10
 20131c0:	46801c93 	sll	s6,a8,0x7
 20131c4:	4e801093 	sll	s7,a8,0x4
 20131c8:	26490033 	sub	s2,a7,s2
 20131cc:	31801493 	sll	s4,s4,0x5
 20131d0:	29400893 	sll	s3,s3,0x2
 20131d4:	4a500033 	add	s7,s7,s6
 20131d8:	58c01093 	sll	s9,s1,0x4
 20131dc:	47c00c93 	sll	s6,a13,0x3
 20131e0:	31b00033 	add	s4,s4,a6
 20131e4:	29660033 	add	s3,s3,a1
 20131e8:	21000893 	sll	s2,s2,0x2
 20131ec:	50800893 	sll	s8,s0,0x2
 20131f0:	67002893 	sll	s10,a10,0xa
 20131f4:	298b0033 	sub	s3,s4,s3
 20131f8:	18d60033 	add	s1,s1,s9
 20131fc:	310c0033 	add	s4,s2,s4
 2013200:	fa3f0033 	sub	a13,s6,a13
 2013204:	23803103 	lw	s2,12(sp)
 2013208:	39e30033 	sub	s5,s5,v1
 201320c:	6f801893 	sll	s11,a12,0x6
 2013210:	10940033 	add	s0,s0,s8
 2013214:	5f401493 	sll	s9,a11,0x5
 2013218:	e7180033 	add	a10,a10,s10
 201321c:	18ed0033 	sub	s1,s1,a4
 2013220:	ffef0033 	sub	a13,a13,a5
 2013224:	e72b0033 	sub	a10,a10,a3
 2013228:	39c00c93 	sll	s5,s5,0x3
 201322c:	f79a0033 	add	a12,a12,s11
 2013230:	10800893 	sll	s0,s0,0x2
 2013234:	eafb0033 	sub	a11,s9,a11
 2013238:	9b802103 	lw	a1,8(sp)
 201323c:	ab800103 	lw	a3,0(sp)
 2013240:	bb801103 	lw	a5,4(sp)
 2013244:	d2750033 	sub	a8,s7,a8
 2013248:	f03d0033 	neg	a12,a12
 201324c:	39e20033 	add	s5,s5,v1
 2013250:	18c00493 	sll	s1,s1,0x1
 2013254:	90a50033 	sub	a0,s0,a0
 2013258:	ef400893 	sll	a11,a11,0x2
 201325c:	94bc0033 	add	a0,a0,a12
 2013260:	46801493 	sll	s6,a8,0x5
 2013264:	39c01493 	sll	s5,s5,0x5
 2013268:	b0c80033 	add	a4,s1,s2
 201326c:	f77c0033 	add	a12,a11,a12
 2013270:	dee60033 	add	a9,a9,a1
 2013274:	4d6e0033 	add	s7,a3,a5
 2013278:	d2350033 	sub	a8,s6,a8
 201327c:	b58a0033 	add	a4,a4,s3
 2013280:	ffc00493 	sll	a13,a13,0x1
 2013284:	39e20033 	add	s5,s5,v1
 2013288:	e7080033 	add	a10,a10,s2
 201328c:	2f8a0033 	add	s3,a12,s3
 2013290:	ced20033 	add	a7,a9,s7
 2013294:	fff40033 	add	a13,a13,a8
 2013298:	948c0033 	add	a0,a0,s4
 201329c:	ded30033 	sub	a9,a9,s7
 20132a0:	d68f0033 	sub	a8,a8,s5
 20132a4:	370c0033 	add	s4,a10,s4
 20132a8:	29680033 	add	s3,s3,a2
 20132ac:	29413e93 	sra	s3,s3,0xf
 20132b0:	ce400813 	add	a7,a7,2
 20132b4:	dec00813 	add	a9,a9,2
 20132b8:	ffe80033 	add	a13,a13,a2
 20132bc:	d6a80033 	add	a8,a8,a2
 20132c0:	b5a80033 	add	a4,a4,a2
 20132c4:	94a80033 	add	a0,a0,a2
 20132c8:	31a80033 	add	s4,s4,a2
 20132cc:	040b8123 	sw	s3,96(v0)
 20132d0:	ce410a93 	sra	a7,a7,0x2
 20132d4:	dec10a93 	sra	a9,a9,0x2
 20132d8:	ffc13e93 	sra	a13,a13,0xf
 20132dc:	d6813e93 	sra	a8,a8,0xf
 20132e0:	b5813e93 	sra	a4,a4,0xf
 20132e4:	94813e93 	sra	a0,a0,0xf
 20132e8:	31813e93 	sra	s4,s4,0xf
 20132ec:	28200c37 	lui	s3,0x4018
 20132f0:	04320123 	sw	a7,0(v0)
 20132f4:	0c360123 	sw	a9,128(v0)
 20132f8:	043f0123 	sw	a13,64(v0)
 20132fc:	0c350123 	sw	a8,192(v0)
 2013300:	0c2d8123 	sw	a4,224(v0)
 2013304:	0c248123 	sw	a0,160(v0)
 2013308:	040c8123 	sw	s4,32(v0)
 201330c:	294b8013 	add	s3,s3,736
 2013310:	84001013 	add	v0,v0,4
 2013314:	ec0ae0e3 	bne	v0,s3,2013084 <t6_taskD4_jpeg_fdct_islow+0x2cc>
 2013318:	1380f103 	lw	s0,60(sp)
 201331c:	1b80e103 	lw	s1,56(sp)
 2013320:	2380d103 	lw	s2,52(sp)
 2013324:	2b80c103 	lw	s3,48(sp)
 2013328:	3380b103 	lw	s4,44(sp)
 201332c:	3b80a103 	lw	s5,40(sp)
 2013330:	43809103 	lw	s6,36(sp)
 2013334:	4b808103 	lw	s7,32(sp)
 2013338:	53807103 	lw	s8,28(sp)
 201333c:	5b806103 	lw	s9,24(sp)
 2013340:	63805103 	lw	s10,20(sp)
 2013344:	6b804103 	lw	s11,16(sp)
 2013348:	73810013 	add	sp,sp,64
 201334c:	004000eb 	ret

02013350 <t6_taskD4_main>:
 2013350:	73bfa013 	add	sp,sp,-24
 2013354:	03844123 	sw	s0,16(sp)
 2013358:	03863123 	sw	s1,12(sp)
 201335c:	038a1123 	sw	s3,4(sp)
 2013360:	18200c37 	lui	s1,0x4018
 2013364:	28200c37 	lui	s3,0x4018
 2013368:	14000437 	lui	s0,0x80008
 201336c:	03882123 	sw	s2,8(sp)
 2013370:	03825123 	sw	ra,20(sp)
 2013374:	20009813 	li	s2,38
 2013378:	294b0013 	add	s3,s3,704
 201337c:	18cf0013 	add	s1,s1,960
 2013380:	10800413 	add	s0,s0,1
 2013384:	89400013 	move	v1,s3
 2013388:	80000413 	li	v0,1
 201338c:	9c000893 	sll	a1,v0,0x2
 2013390:	94001c93 	sll	a0,v0,0x7
 2013394:	94e40033 	add	a0,a1,a0
 2013398:	84a00033 	add	v0,a0,v0
 201339c:	94014413 	add	a0,v0,81
 20133a0:	a48405b3 	mulhu	a2,a0,s0
 20133a4:	9c817e93 	sra	a1,a0,0x1f
 20133a8:	84c403b3 	and	v0,a1,s0
 20133ac:	85210033 	sub	v0,a2,v0
 20133b0:	84013e93 	sra	v0,v0,0xf
 20133b4:	84270033 	sub	v0,v0,a1
 20133b8:	9c004093 	sll	a1,v0,0x10
 20133bc:	84e10033 	sub	v0,a1,v0
 20133c0:	84a10033 	sub	v0,a0,v0
 20133c4:	04600123 	sw	v0,0(v1)
 20133c8:	8c401013 	add	v1,v1,4
 20133cc:	fc4780e3 	bne	v1,s1,201338c <t6_taskD4_main+0x3c>
 20133d0:	213ffc13 	add	s2,s2,-1
 20133d4:	fffe796f 	jal	2012db8 <t6_taskD4_jpeg_fdct_islow>
 20133d8:	f90158e3 	bnez	s2,2013384 <t6_taskD4_main+0x34>
 20133dc:	0b805103 	lw	ra,20(sp)
 20133e0:	80000013 	li	v0,0
 20133e4:	13804103 	lw	s0,16(sp)
 20133e8:	1b803103 	lw	s1,12(sp)
 20133ec:	23802103 	lw	s2,8(sp)
 20133f0:	2b801103 	lw	s3,4(sp)
 20133f4:	73806013 	add	sp,sp,24
 20133f8:	004000eb 	ret

020133fc <t7_exception_proxy>:
 20133fc:	73bfe013 	add	sp,sp,-8
 2013400:	03821123 	sw	ra,4(sp)
 2013404:	7840017b 	mfpcr	tp,cr1
 2013408:	73bef013 	add	sp,sp,-68
 201340c:	039e1123 	sw	tp,4(sp)
 2013410:	03a02123 	sw	v0,8(sp)
 2013414:	03a23123 	sw	v1,12(sp)
 2013418:	03a44123 	sw	a0,16(sp)
 201341c:	03a65123 	sw	a1,20(sp)
 2013420:	03a86123 	sw	a2,24(sp)
 2013424:	03aa7123 	sw	a3,28(sp)
 2013428:	03ac8123 	sw	a4,32(sp)
 201342c:	03ae9123 	sw	a5,36(sp)
 2013430:	03b0a123 	sw	a6,40(sp)
 2013434:	03b2b123 	sw	a7,44(sp)
 2013438:	03b4c123 	sw	a8,48(sp)
 201343c:	03b6d123 	sw	a9,52(sp)
 2013440:	03b8e123 	sw	a10,56(sp)
 2013444:	03baf123 	sw	a11,60(sp)
 2013448:	03bd0123 	sw	a12,64(sp)
 201344c:	03bf1123 	sw	a13,68(sp)
 2013450:	80200e37 	lui	v0,0x401c
 2013454:	84018103 	lw	v0,96(v0)
 2013458:	0c00006b 	jalr	v0
 201345c:	7b801103 	lw	tp,4(sp)
 2013460:	83802103 	lw	v0,8(sp)
 2013464:	8b803103 	lw	v1,12(sp)
 2013468:	93804103 	lw	a0,16(sp)
 201346c:	9b805103 	lw	a1,20(sp)
 2013470:	a3806103 	lw	a2,24(sp)
 2013474:	ab807103 	lw	a3,28(sp)
 2013478:	b3808103 	lw	a4,32(sp)
 201347c:	bb809103 	lw	a5,36(sp)
 2013480:	c380a103 	lw	a6,40(sp)
 2013484:	cb80b103 	lw	a7,44(sp)
 2013488:	d380c103 	lw	a8,48(sp)
 201348c:	db80d103 	lw	a9,52(sp)
 2013490:	e380e103 	lw	a10,56(sp)
 2013494:	eb80f103 	lw	a11,60(sp)
 2013498:	f3810103 	lw	a12,64(sp)
 201349c:	fb811103 	lw	a13,68(sp)
 20134a0:	73811013 	add	sp,sp,68
 20134a4:	0b801103 	lw	ra,4(sp)
 20134a8:	73802013 	add	sp,sp,8
 20134ac:	03c0016b 	jr	tp
 20134b0:	0b801103 	lw	ra,4(sp)
 20134b4:	73802013 	add	sp,sp,8
 20134b8:	004000eb 	ret

020134bc <t7_ready_queue_init>:
 20134bc:	88200e37 	lui	v1,0x401c
 20134c0:	80200e37 	lui	v0,0x401c
 20134c4:	84002013 	add	v0,v0,8
 20134c8:	04401123 	sw	zero,4(v1)
 20134cc:	88200e37 	lui	v1,0x401c
 20134d0:	04600123 	sw	v0,0(v1)
 20134d4:	88200e37 	lui	v1,0x401c
 20134d8:	8c406013 	add	v1,v1,24
 20134dc:	04222123 	sw	v1,8(v0)
 20134e0:	88200e37 	lui	v1,0x401c
 20134e4:	8c40a013 	add	v1,v1,40
 20134e8:	04226123 	sw	v1,24(v0)
 20134ec:	88200e37 	lui	v1,0x401c
 20134f0:	8c40e013 	add	v1,v1,56
 20134f4:	0422a123 	sw	v1,40(v0)
 20134f8:	88200e37 	lui	v1,0x401c
 20134fc:	8c412013 	add	v1,v1,72
 2013500:	0422e123 	sw	v1,56(v0)
 2013504:	04012123 	sw	zero,72(v0)
 2013508:	004000eb 	ret

0201350c <t7_ready_queue_add>:
 201350c:	a8200e37 	lui	a3,0x401c
 2013510:	8d400103 	lw	v1,0(a3)
 2013514:	b0200e37 	lui	a4,0x401c
 2013518:	85801103 	lw	v0,4(a4)
 201351c:	bc402103 	lw	a5,8(v1)
 2013520:	04661123 	sw	a1,4(v1)
 2013524:	04683023 	sb	a2,12(v1)
 2013528:	056e0123 	sw	a5,0(a3)
 201352c:	04640123 	sw	a0,0(v1)
 2013530:	04006063 	beqz	v0,2013560 <t7_ready_queue_add+0x54>
 2013534:	94001103 	lw	a0,4(v0)
 2013538:	04e42be3 	bleu	a0,a1,201354c <t7_ready_queue_add+0x40>
 201353c:	00000967 	j	2013560 <t7_ready_queue_add+0x54>
 2013540:	a4801103 	lw	a2,4(a0)
 2013544:	04e82363 	bltu	a1,a2,2013554 <t7_ready_queue_add+0x48>
 2013548:	84800013 	move	v0,a0
 201354c:	94002103 	lw	a0,8(v0)
 2013550:	fc81e0e3 	bnez	a0,2013540 <t7_ready_queue_add+0x34>
 2013554:	04642123 	sw	a0,8(v1)
 2013558:	04222123 	sw	v1,8(v0)
 201355c:	004000eb 	ret
 2013560:	04602123 	sw	v0,8(v1)
 2013564:	05a21123 	sw	v1,4(a4)
 2013568:	004000eb 	ret

0201356c <t7_ready_queue_peek>:
 201356c:	80200e37 	lui	v0,0x401c
 2013570:	84001103 	lw	v0,4(v0)
 2013574:	004000eb 	ret

02013578 <t7_ready_queue_pop>:
 2013578:	73bfe013 	add	sp,sp,-8
 201357c:	03841123 	sw	s0,4(sp)
 2013580:	03860123 	sw	s1,0(sp)
 2013584:	0000025b 	0x25b
 2013588:	90200e37 	lui	a0,0x401c
 201358c:	84801103 	lw	v0,4(a0)
 2013590:	88200e37 	lui	v1,0x401c
 2013594:	a4400103 	lw	a2,0(v1)
 2013598:	9c003003 	lb	a1,12(v0)
 201359c:	ac002103 	lw	a3,8(v0)
 20135a0:	04600123 	sw	v0,0(v1)
 20135a4:	9cc02813 	add	a1,a1,10
 20135a8:	8bc00037 	lui	v1,0x78000
 20135ac:	04282123 	sw	a2,8(v0)
 20135b0:	04aa1123 	sw	a3,4(a0)
 20135b4:	84e20333 	or	v0,a1,v1
 20135b8:	87a001fb 	mtpcr	v0,v0,cr30
 20135bc:	1000005b 	0x1000005b
 20135c0:	80800013 	move	v0,s0
 20135c4:	8c000037 	lui	v1,0x80000
 20135c8:	84220333 	or	v0,v0,v1
 20135cc:	87a001fb 	mtpcr	v0,v0,cr30
 20135d0:	80200e37 	lui	v0,0x401c
 20135d4:	8c017103 	lw	v1,92(v0)
 20135d8:	80200e37 	lui	v0,0x401c
 20135dc:	94016103 	lw	a0,88(v0)
 20135e0:	801009b7 	lui	v0,0x2013
 20135e4:	840ff013 	add	v0,v0,1020
 20135e8:	00e001fb 	mtpcr	zero,v0,cr3
 20135ec:	1c400013 	move	s1,v1
 20135f0:	14800013 	move	s0,a0
 20135f4:	00c401db 	0xc401db
 20135f8:	13801103 	lw	s0,4(sp)
 20135fc:	1b800103 	lw	s1,0(sp)
 2013600:	73802013 	add	sp,sp,8
 2013604:	004000eb 	ret

02013608 <t7_handler>:
 2013608:	73bf8013 	add	sp,sp,-32
 201360c:	038c2123 	sw	s4,8(sp)
 2013610:	30200e37 	lui	s4,0x401c
 2013614:	81819103 	lw	v0,100(s4)
 2013618:	03884123 	sw	s2,16(sp)
 201361c:	20200e37 	lui	s2,0x401c
 2013620:	038a3123 	sw	s3,12(sp)
 2013624:	03827123 	sw	ra,28(sp)
 2013628:	03846123 	sw	s0,24(sp)
 201362c:	03865123 	sw	s1,20(sp)
 2013630:	038e1123 	sw	s5,4(sp)
 2013634:	29001103 	lw	s3,4(s2)
 2013638:	0c003863 	beqz	v0,2013754 <t7_handler+0x14c>
 201363c:	88000413 	li	v1,1
 2013640:	0c23c863 	beq	v0,v1,2013824 <t7_handler+0x21c>
 2013644:	88000813 	li	v1,2
 2013648:	14228863 	beq	v0,v1,201388c <t7_handler+0x284>
 201364c:	88000c13 	li	v1,3
 2013650:	0c235063 	beq	v0,v1,20137f8 <t7_handler+0x1f0>
 2013654:	88001013 	li	v1,4
 2013658:	14230063 	beq	v0,v1,20138d8 <t7_handler+0x2d0>
 201365c:	88001413 	li	v1,5
 2013660:	1423f863 	beq	v0,v1,201395c <t7_handler+0x354>
 2013664:	18200e37 	lui	s1,0x401c
 2013668:	90100a37 	lui	a0,0x2014
 201366c:	88001813 	li	v1,6
 2013670:	98c16103 	lw	a1,88(s1)
 2013674:	94a9d013 	add	a0,a0,-1420
 2013678:	0c23b063 	beq	v0,v1,2013850 <t7_handler+0x248>
 201367c:	800bec37 	lui	v0,0x17d8
 2013680:	84210013 	add	v0,v0,-1984
 2013684:	9ce00033 	add	a1,a1,v0
 2013688:	a0001413 	li	a2,5
 201368c:	ffffa06f 	jal	201350c <t7_ready_queue_add>
 2013690:	90000013 	li	a0,0
 2013694:	80c16103 	lw	v0,88(s1)
 2013698:	880bec37 	lui	v1,0x17d8
 201369c:	8c610013 	add	v1,v1,-1984
 20136a0:	84220033 	add	v0,v0,v1
 20136a4:	01a59123 	sw	a0,100(s4)
 20136a8:	00e16123 	sw	v0,88(s1)
 20136ac:	04232b63 	bltu	v0,v1,2013740 <t7_handler+0x138>
 20136b0:	88200e37 	lui	v1,0x401c
 20136b4:	8c417103 	lw	v1,92(v1)
 20136b8:	901009b7 	lui	a0,0x2013
 20136bc:	948ff013 	add	a0,a0,1020
 20136c0:	00e401fb 	mtpcr	zero,a0,cr3
 20136c4:	1c400013 	move	s1,v1
 20136c8:	14000013 	move	s0,v0
 20136cc:	00c401db 	0xc401db
 20136d0:	81001103 	lw	v0,4(s2)
 20136d4:	04009063 	beqz	v0,201371c <t7_handler+0x114>
 20136d8:	01608863 	beq	s3,v0,201371c <t7_handler+0x114>
 20136dc:	33c00037 	lui	s4,0x78000
 20136e0:	1c000037 	lui	s1,0x80000
 20136e4:	00000267 	j	20136ec <t7_handler+0xe4>
 20136e8:	01606863 	beq	s3,v0,201371c <t7_handler+0x114>
 20136ec:	8c003003 	lb	v1,12(v0)
 20136f0:	8c4c0333 	or	v1,v1,s4
 20136f4:	8fa201fb 	mtpcr	v1,v1,cr30
 20136f8:	1000005b 	0x1000005b
 20136fc:	88800013 	move	v1,s0
 2013700:	8c460333 	or	v1,v1,s1
 2013704:	8fa201fb 	mtpcr	v1,v1,cr30
 2013708:	84000103 	lw	v0,0(v0)
 201370c:	0c00006b 	jalr	v0
 2013710:	ffff9a6f 	jal	2013578 <t7_ready_queue_pop>
 2013714:	81001103 	lw	v0,4(s2)
 2013718:	fc01a0e3 	bnez	v0,20136e8 <t7_handler+0xe0>
 201371c:	0b807103 	lw	ra,28(sp)
 2013720:	13806103 	lw	s0,24(sp)
 2013724:	1b805103 	lw	s1,20(sp)
 2013728:	23804103 	lw	s2,16(sp)
 201372c:	2b803103 	lw	s3,12(sp)
 2013730:	33802103 	lw	s4,8(sp)
 2013734:	3b801103 	lw	s5,4(sp)
 2013738:	73808013 	add	sp,sp,32
 201373c:	004000eb 	ret
 2013740:	90200e37 	lui	a0,0x401c
 2013744:	8c817103 	lw	v1,92(a0)
 2013748:	8c400413 	add	v1,v1,1
 201374c:	04a37123 	sw	v1,92(a0)
 2013750:	ffffda67 	j	20136b8 <t7_handler+0xb0>
 2013754:	18200e37 	lui	s1,0x401c
 2013758:	98c16103 	lw	a1,88(s1)
 201375c:	800bec37 	lui	v0,0x17d8
 2013760:	84210013 	add	v0,v0,-1984
 2013764:	90100a37 	lui	a0,0x2014
 2013768:	9ce00033 	add	a1,a1,v0
 201376c:	94a9d013 	add	a0,a0,-1420
 2013770:	a0001413 	li	a2,5
 2013774:	ffff666f 	jal	201350c <t7_ready_queue_add>
 2013778:	98c16103 	lw	a1,88(s1)
 201377c:	8017d7b7 	lui	v0,0x2faf
 2013780:	84020013 	add	v0,v0,128
 2013784:	90100ab7 	lui	a0,0x2015
 2013788:	9ce00033 	add	a1,a1,v0
 201378c:	94ba5013 	add	a0,a0,-364
 2013790:	a0002413 	li	a2,9
 2013794:	ffff5e6f 	jal	201350c <t7_ready_queue_add>
 2013798:	98c16103 	lw	a1,88(s1)
 201379c:	382faf37 	lui	s5,0x5f5e
 20137a0:	39c40013 	add	s5,s5,256
 20137a4:	90100a37 	lui	a0,0x2014
 20137a8:	94add013 	add	a0,a0,-1164
 20137ac:	9cce0033 	add	a1,a1,s5
 20137b0:	a0001813 	li	a2,6
 20137b4:	ffff566f 	jal	201350c <t7_ready_queue_add>
 20137b8:	98c16103 	lw	a1,88(s1)
 20137bc:	90100ab7 	lui	a0,0x2015
 20137c0:	94a14013 	add	a0,a0,-1968
 20137c4:	9cce0033 	add	a1,a1,s5
 20137c8:	a0002013 	li	a2,8
 20137cc:	ffff506f 	jal	201350c <t7_ready_queue_add>
 20137d0:	98c16103 	lw	a1,88(s1)
 20137d4:	805f5e37 	lui	v0,0xbebc
 20137d8:	84080013 	add	v0,v0,512
 20137dc:	90100a37 	lui	a0,0x2014
 20137e0:	94883013 	add	a0,a0,524
 20137e4:	9ce00033 	add	a1,a1,v0
 20137e8:	a0001c13 	li	a2,7
 20137ec:	ffff486f 	jal	201350c <t7_ready_queue_add>
 20137f0:	90000413 	li	a0,1
 20137f4:	ffffa867 	j	2013694 <t7_handler+0x8c>
 20137f8:	18200e37 	lui	s1,0x401c
 20137fc:	98c16103 	lw	a1,88(s1)
 2013800:	800bec37 	lui	v0,0x17d8
 2013804:	84210013 	add	v0,v0,-1984
 2013808:	90100a37 	lui	a0,0x2014
 201380c:	94a9d013 	add	a0,a0,-1420
 2013810:	9ce00033 	add	a1,a1,v0
 2013814:	a0001413 	li	a2,5
 2013818:	ffff3d6f 	jal	201350c <t7_ready_queue_add>
 201381c:	90001013 	li	a0,4
 2013820:	ffff9d67 	j	2013694 <t7_handler+0x8c>
 2013824:	18200e37 	lui	s1,0x401c
 2013828:	98c16103 	lw	a1,88(s1)
 201382c:	800bec37 	lui	v0,0x17d8
 2013830:	84210013 	add	v0,v0,-1984
 2013834:	90100a37 	lui	a0,0x2014
 2013838:	94a9d013 	add	a0,a0,-1420
 201383c:	9ce00033 	add	a1,a1,v0
 2013840:	a0001413 	li	a2,5
 2013844:	ffff326f 	jal	201350c <t7_ready_queue_add>
 2013848:	90000813 	li	a0,2
 201384c:	ffff9267 	j	2013694 <t7_handler+0x8c>
 2013850:	800bec37 	lui	v0,0x17d8
 2013854:	84210013 	add	v0,v0,-1984
 2013858:	9ce00033 	add	a1,a1,v0
 201385c:	a0001413 	li	a2,5
 2013860:	ffff2b6f 	jal	201350c <t7_ready_queue_add>
 2013864:	98c16103 	lw	a1,88(s1)
 2013868:	8017d7b7 	lui	v0,0x2faf
 201386c:	84020013 	add	v0,v0,128
 2013870:	90100ab7 	lui	a0,0x2015
 2013874:	94ba5013 	add	a0,a0,-364
 2013878:	9ce00033 	add	a1,a1,v0
 201387c:	a0002413 	li	a2,9
 2013880:	ffff236f 	jal	201350c <t7_ready_queue_add>
 2013884:	90001c13 	li	a0,7
 2013888:	ffff8367 	j	2013694 <t7_handler+0x8c>
 201388c:	18200e37 	lui	s1,0x401c
 2013890:	98c16103 	lw	a1,88(s1)
 2013894:	800bec37 	lui	v0,0x17d8
 2013898:	84210013 	add	v0,v0,-1984
 201389c:	90100a37 	lui	a0,0x2014
 20138a0:	9ce00033 	add	a1,a1,v0
 20138a4:	94a9d013 	add	a0,a0,-1420
 20138a8:	a0001413 	li	a2,5
 20138ac:	ffff186f 	jal	201350c <t7_ready_queue_add>
 20138b0:	98c16103 	lw	a1,88(s1)
 20138b4:	8017d7b7 	lui	v0,0x2faf
 20138b8:	84020013 	add	v0,v0,128
 20138bc:	90100ab7 	lui	a0,0x2015
 20138c0:	94ba5013 	add	a0,a0,-364
 20138c4:	9ce00033 	add	a1,a1,v0
 20138c8:	a0002413 	li	a2,9
 20138cc:	ffff106f 	jal	201350c <t7_ready_queue_add>
 20138d0:	90000c13 	li	a0,3
 20138d4:	ffff7067 	j	2013694 <t7_handler+0x8c>
 20138d8:	18200e37 	lui	s1,0x401c
 20138dc:	98c16103 	lw	a1,88(s1)
 20138e0:	800bec37 	lui	v0,0x17d8
 20138e4:	84210013 	add	v0,v0,-1984
 20138e8:	90100a37 	lui	a0,0x2014
 20138ec:	9ce00033 	add	a1,a1,v0
 20138f0:	94a9d013 	add	a0,a0,-1420
 20138f4:	a0001413 	li	a2,5
 20138f8:	ffff056f 	jal	201350c <t7_ready_queue_add>
 20138fc:	98c16103 	lw	a1,88(s1)
 2013900:	8017d7b7 	lui	v0,0x2faf
 2013904:	84020013 	add	v0,v0,128
 2013908:	90100ab7 	lui	a0,0x2015
 201390c:	9ce00033 	add	a1,a1,v0
 2013910:	94ba5013 	add	a0,a0,-364
 2013914:	a0002413 	li	a2,9
 2013918:	fffefd6f 	jal	201350c <t7_ready_queue_add>
 201391c:	98c16103 	lw	a1,88(s1)
 2013920:	382faf37 	lui	s5,0x5f5e
 2013924:	39c40013 	add	s5,s5,256
 2013928:	90100a37 	lui	a0,0x2014
 201392c:	94add013 	add	a0,a0,-1164
 2013930:	9cce0033 	add	a1,a1,s5
 2013934:	a0001813 	li	a2,6
 2013938:	fffef56f 	jal	201350c <t7_ready_queue_add>
 201393c:	98c16103 	lw	a1,88(s1)
 2013940:	90100ab7 	lui	a0,0x2015
 2013944:	94a14013 	add	a0,a0,-1968
 2013948:	9cce0033 	add	a1,a1,s5
 201394c:	a0002013 	li	a2,8
 2013950:	fffeef6f 	jal	201350c <t7_ready_queue_add>
 2013954:	90001413 	li	a0,5
 2013958:	ffff4f67 	j	2013694 <t7_handler+0x8c>
 201395c:	18200e37 	lui	s1,0x401c
 2013960:	98c16103 	lw	a1,88(s1)
 2013964:	800bec37 	lui	v0,0x17d8
 2013968:	84210013 	add	v0,v0,-1984
 201396c:	90100a37 	lui	a0,0x2014
 2013970:	94a9d013 	add	a0,a0,-1420
 2013974:	9ce00033 	add	a1,a1,v0
 2013978:	a0001413 	li	a2,5
 201397c:	fffee46f 	jal	201350c <t7_ready_queue_add>
 2013980:	90001813 	li	a0,6
 2013984:	ffff4467 	j	2013694 <t7_handler+0x8c>

02013988 <t7_main>:
 2013988:	88200e37 	lui	v1,0x401c
 201398c:	8c402013 	add	v1,v1,8
 2013990:	90200e37 	lui	a0,0x401c
 2013994:	04a20123 	sw	v1,0(a0)
 2013998:	90200e37 	lui	a0,0x401c
 201399c:	73bfa013 	add	sp,sp,-24
 20139a0:	94806013 	add	a0,a0,24
 20139a4:	03882123 	sw	s2,8(sp)
 20139a8:	03825123 	sw	ra,20(sp)
 20139ac:	03844123 	sw	s0,16(sp)
 20139b0:	03863123 	sw	s1,12(sp)
 20139b4:	038a1123 	sw	s3,4(sp)
 20139b8:	04642123 	sw	a0,8(v1)
 20139bc:	90200e37 	lui	a0,0x401c
 20139c0:	9480a013 	add	a0,a0,40
 20139c4:	04646123 	sw	a0,24(v1)
 20139c8:	90200e37 	lui	a0,0x401c
 20139cc:	9480e013 	add	a0,a0,56
 20139d0:	0464a123 	sw	a0,40(v1)
 20139d4:	90200e37 	lui	a0,0x401c
 20139d8:	94812013 	add	a0,a0,72
 20139dc:	0464e123 	sw	a0,56(v1)
 20139e0:	901009b7 	lui	a0,0x2013
 20139e4:	94982013 	add	a0,a0,1544
 20139e8:	04412123 	sw	zero,72(v1)
 20139ec:	88200e37 	lui	v1,0x401c
 20139f0:	04658123 	sw	a0,96(v1)
 20139f4:	80000c37 	lui	v0,0x18
 20139f8:	88200e37 	lui	v1,0x401c
 20139fc:	841a8013 	add	v0,v0,1696
 2013a00:	04417123 	sw	zero,92(v1)
 2013a04:	88200e37 	lui	v1,0x401c
 2013a08:	20200e37 	lui	s2,0x401c
 2013a0c:	04616123 	sw	v0,88(v1)
 2013a10:	881009b7 	lui	v1,0x2013
 2013a14:	01001123 	sw	zero,4(s2)
 2013a18:	90000013 	li	a0,0
 2013a1c:	8c4ff013 	add	v1,v1,1020
 2013a20:	00e201fb 	mtpcr	zero,v1,cr3
 2013a24:	1c800013 	move	s1,a0
 2013a28:	14000013 	move	s0,v0
 2013a2c:	00c401db 	0xc401db
 2013a30:	2bc00037 	lui	s3,0x78000
 2013a34:	1c000037 	lui	s1,0x80000
 2013a38:	00000b67 	j	2013a64 <t7_main+0xdc>
 2013a3c:	8c003003 	lb	v1,12(v0)
 2013a40:	8c4a0333 	or	v1,v1,s3
 2013a44:	8fa201fb 	mtpcr	v1,v1,cr30
 2013a48:	1000005b 	0x1000005b
 2013a4c:	88800013 	move	v1,s0
 2013a50:	8c460333 	or	v1,v1,s1
 2013a54:	8fa201fb 	mtpcr	v1,v1,cr30
 2013a58:	84000103 	lw	v0,0(v0)
 2013a5c:	0c00006b 	jalr	v0
 2013a60:	fffec66f 	jal	2013578 <t7_ready_queue_pop>
 2013a64:	81001103 	lw	v0,4(s2)
 2013a68:	fc01a8e3 	bnez	v0,2013a3c <t7_main+0xb4>
 2013a6c:	000002db 	0x2db
 2013a70:	fffffd67 	j	2013a64 <t7_main+0xdc>

02013a74 <t7_taskD5_main>:
 2013a74:	73bfa013 	add	sp,sp,-24
 2013a78:	038c1123 	sw	s4,4(sp)
 2013a7c:	d0200e37 	lui	a8,0x401c
 2013a80:	30200e37 	lui	s4,0x401c
 2013a84:	03845123 	sw	s0,20(sp)
 2013a88:	03864123 	sw	s1,16(sp)
 2013a8c:	03883123 	sw	s2,12(sp)
 2013a90:	038a2123 	sw	s3,8(sp)
 2013a94:	c8059013 	li	a7,356
 2013a98:	ae81a013 	add	a3,a8,104
 2013a9c:	3181c013 	add	s4,s4,112
 2013aa0:	c0002c13 	li	a6,11
 2013aa4:	28002813 	li	s3,10
 2013aa8:	20002413 	li	s2,9
 2013aac:	18002013 	li	s1,8
 2013ab0:	10001c13 	li	s0,7
 2013ab4:	f8001813 	li	a13,6
 2013ab8:	f0001413 	li	a12,5
 2013abc:	e8001013 	li	a11,4
 2013ac0:	e0000c13 	li	a10,3
 2013ac4:	d8000813 	li	a9,2
 2013ac8:	0681a123 	sw	zero,104(a8)
 2013acc:	05701123 	sw	a6,4(a3)
 2013ad0:	054a2123 	sw	s3,8(a3)
 2013ad4:	05483123 	sw	s2,12(a3)
 2013ad8:	05464123 	sw	s1,16(a3)
 2013adc:	05445123 	sw	s0,20(a3)
 2013ae0:	057e6123 	sw	a13,24(a3)
 2013ae4:	057c7123 	sw	a12,28(a3)
 2013ae8:	057a8123 	sw	a11,32(a3)
 2013aec:	05789123 	sw	a10,36(a3)
 2013af0:	0576a123 	sw	a9,40(a3)
 2013af4:	b9800013 	move	a5,s4
 2013af8:	b0000813 	li	a4,2
 2013afc:	8dc00103 	lw	v1,0(a5)
 2013b00:	95fff103 	lw	a0,-4(a5)
 2013b04:	a5bffc13 	add	a2,a4,-1
 2013b08:	046473e3 	bleu	a0,v1,2013b40 <t7_taskD5_main+0xcc>
 2013b0c:	85800893 	sll	v0,a4,0x2
 2013b10:	9dbff813 	add	a1,a4,-2
 2013b14:	85600033 	add	v0,a3,v0
 2013b18:	a5000893 	sll	a2,a2,0x2
 2013b1c:	a5680033 	add	a2,a3,a2
 2013b20:	04240123 	sw	a0,0(v0)
 2013b24:	05220123 	sw	v1,0(a2)
 2013b28:	8c3ff103 	lw	v1,-4(v0)
 2013b2c:	943fe103 	lw	a0,-8(v0)
 2013b30:	a4c00013 	move	a2,a1
 2013b34:	843ff013 	add	v0,v0,-4
 2013b38:	9cfffc13 	add	a1,a1,-1
 2013b3c:	fc65bb63 	bltu	v1,a0,2013b18 <t7_taskD5_main+0xa4>
 2013b40:	b5800413 	add	a4,a4,1
 2013b44:	bdc01013 	add	a5,a5,4
 2013b48:	fdb168e3 	bne	a4,a6,2013afc <t7_taskD5_main+0x88>
 2013b4c:	ce7ffc13 	add	a7,a7,-1
 2013b50:	fe40f0e3 	bnez	a7,2013ac8 <t7_taskD5_main+0x54>
 2013b54:	80000413 	li	v0,1
 2013b58:	13805103 	lw	s0,20(sp)
 2013b5c:	1b804103 	lw	s1,16(sp)
 2013b60:	23803103 	lw	s2,12(sp)
 2013b64:	2b802103 	lw	s3,8(sp)
 2013b68:	33801103 	lw	s4,4(sp)
 2013b6c:	73806013 	add	sp,sp,24
 2013b70:	004000eb 	ret

02013b74 <t7_taskD6_main>:
 2013b74:	73bfa013 	add	sp,sp,-24
 2013b78:	038c1123 	sw	s4,4(sp)
 2013b7c:	d0200e37 	lui	a8,0x401c
 2013b80:	30200e37 	lui	s4,0x401c
 2013b84:	03845123 	sw	s0,20(sp)
 2013b88:	03864123 	sw	s1,16(sp)
 2013b8c:	03883123 	sw	s2,12(sp)
 2013b90:	038a2123 	sw	s3,8(sp)
 2013b94:	c80ba013 	li	a7,744
 2013b98:	ae825013 	add	a3,a8,148
 2013b9c:	31827013 	add	s4,s4,156
 2013ba0:	c0002c13 	li	a6,11
 2013ba4:	28002813 	li	s3,10
 2013ba8:	20002413 	li	s2,9
 2013bac:	18002013 	li	s1,8
 2013bb0:	10001c13 	li	s0,7
 2013bb4:	f8001813 	li	a13,6
 2013bb8:	f0001413 	li	a12,5
 2013bbc:	e8001013 	li	a11,4
 2013bc0:	e0000c13 	li	a10,3
 2013bc4:	d8000813 	li	a9,2
 2013bc8:	0e805123 	sw	zero,148(a8)
 2013bcc:	05701123 	sw	a6,4(a3)
 2013bd0:	054a2123 	sw	s3,8(a3)
 2013bd4:	05483123 	sw	s2,12(a3)
 2013bd8:	05464123 	sw	s1,16(a3)
 2013bdc:	05445123 	sw	s0,20(a3)
 2013be0:	057e6123 	sw	a13,24(a3)
 2013be4:	057c7123 	sw	a12,28(a3)
 2013be8:	057a8123 	sw	a11,32(a3)
 2013bec:	05789123 	sw	a10,36(a3)
 2013bf0:	0576a123 	sw	a9,40(a3)
 2013bf4:	b9800013 	move	a5,s4
 2013bf8:	b0000813 	li	a4,2
 2013bfc:	8dc00103 	lw	v1,0(a5)
 2013c00:	95fff103 	lw	a0,-4(a5)
 2013c04:	a5bffc13 	add	a2,a4,-1
 2013c08:	046473e3 	bleu	a0,v1,2013c40 <t7_taskD6_main+0xcc>
 2013c0c:	85800893 	sll	v0,a4,0x2
 2013c10:	9dbff813 	add	a1,a4,-2
 2013c14:	85600033 	add	v0,a3,v0
 2013c18:	a5000893 	sll	a2,a2,0x2
 2013c1c:	a5680033 	add	a2,a3,a2
 2013c20:	04240123 	sw	a0,0(v0)
 2013c24:	05220123 	sw	v1,0(a2)
 2013c28:	8c3ff103 	lw	v1,-4(v0)
 2013c2c:	943fe103 	lw	a0,-8(v0)
 2013c30:	a4c00013 	move	a2,a1
 2013c34:	843ff013 	add	v0,v0,-4
 2013c38:	9cfffc13 	add	a1,a1,-1
 2013c3c:	fc65bb63 	bltu	v1,a0,2013c18 <t7_taskD6_main+0xa4>
 2013c40:	b5800413 	add	a4,a4,1
 2013c44:	bdc01013 	add	a5,a5,4
 2013c48:	fdb168e3 	bne	a4,a6,2013bfc <t7_taskD6_main+0x88>
 2013c4c:	ce7ffc13 	add	a7,a7,-1
 2013c50:	fe40f0e3 	bnez	a7,2013bc8 <t7_taskD6_main+0x54>
 2013c54:	80000413 	li	v0,1
 2013c58:	13805103 	lw	s0,20(sp)
 2013c5c:	1b804103 	lw	s1,16(sp)
 2013c60:	23803103 	lw	s2,12(sp)
 2013c64:	2b802103 	lw	s3,8(sp)
 2013c68:	33801103 	lw	s4,4(sp)
 2013c6c:	73806013 	add	sp,sp,24
 2013c70:	004000eb 	ret

02013c74 <t7_taskD7_jpeg_fdct_islow>:
 2013c74:	73bf0013 	add	sp,sp,-64
 2013c78:	80200e37 	lui	v0,0x401c
 2013c7c:	0384f123 	sw	s0,60(sp)
 2013c80:	0386e123 	sw	s1,56(sp)
 2013c84:	0388d123 	sw	s2,52(sp)
 2013c88:	038ac123 	sw	s3,48(sp)
 2013c8c:	038cb123 	sw	s4,44(sp)
 2013c90:	038ea123 	sw	s5,40(sp)
 2013c94:	03909123 	sw	s6,36(sp)
 2013c98:	03928123 	sw	s7,32(sp)
 2013c9c:	03947123 	sw	s8,28(sp)
 2013ca0:	03966123 	sw	s9,24(sp)
 2013ca4:	03985123 	sw	s10,20(sp)
 2013ca8:	039a4123 	sw	s11,16(sp)
 2013cac:	84030013 	add	v0,v0,192
 2013cb0:	e4000103 	lw	a10,0(v0)
 2013cb4:	cc003103 	lw	a7,12(v0)
 2013cb8:	d4007103 	lw	a8,28(v0)
 2013cbc:	b4004103 	lw	a4,16(v0)
 2013cc0:	1fffff37 	lui	s1,0xffffe
 2013cc4:	a7350033 	sub	a2,a10,a8
 2013cc8:	ae6d0033 	sub	a3,a7,a4
 2013ccc:	dd680033 	add	a9,a3,a2
 2013cd0:	18cccc13 	add	s1,s1,819
 2013cd4:	dec60433 	mul	a9,a9,s1
 2013cd8:	fc001103 	lw	a13,4(v0)
 2013cdc:	f4006103 	lw	a12,24(v0)
 2013ce0:	ec002103 	lw	a11,8(v0)
 2013ce4:	8c005103 	lw	v1,20(v0)
 2013ce8:	47fd0033 	sub	s6,a13,a12
 2013cec:	f7fc0033 	add	a12,a13,a12
 2013cf0:	97630033 	sub	a0,a11,v1
 2013cf4:	03bc0123 	sw	a12,0(sp)
 2013cf8:	9d500033 	add	a1,a3,s6
 2013cfc:	c4a80033 	add	a6,a0,a2
 2013d00:	4c900033 	add	s7,a0,s6
 2013d04:	1c801893 	sll	s1,a0,0x6
 2013d08:	14800c93 	sll	s0,a0,0x3
 2013d0c:	23800103 	lw	s2,0(sp)
 2013d10:	bcf00033 	add	a5,a1,a6
 2013d14:	8f620033 	add	v1,a11,v1
 2013d18:	10c50033 	sub	s0,s1,s0
 2013d1c:	fa001093 	sll	a13,s6,0x4
 2013d20:	1a400893 	sll	s1,s7,0x2
 2013d24:	f2401493 	sll	a12,s7,0x5
 2013d28:	ea000893 	sll	a11,s6,0x2
 2013d2c:	d7340033 	add	a8,a10,a8
 2013d30:	b66c0033 	add	a4,a7,a4
 2013d34:	f0fc0033 	add	a12,s1,a12
 2013d38:	effb0033 	sub	a11,a13,a11
 2013d3c:	e4c00893 	sll	a10,a1,0x2
 2013d40:	fdc01093 	sll	a13,a5,0x4
 2013d44:	35c00893 	sll	s4,a5,0x2
 2013d48:	2cc02093 	sll	s3,a1,0x8
 2013d4c:	31be0033 	add	s4,s4,a13
 2013d50:	66001493 	sll	s10,a6,0x5
 2013d54:	fd401893 	sll	a13,a3,0x6
 2013d58:	03a21123 	sw	v1,4(sp)
 2013d5c:	03ac2123 	sw	a4,8(sp)
 2013d60:	89230033 	sub	v1,s2,v1
 2013d64:	b6ad0033 	sub	a4,a8,a4
 2013d68:	5f800c93 	sll	s9,a12,0x3
 2013d6c:	29790033 	sub	s3,s3,a10
 2013d70:	26001c93 	sll	s2,a6,0x7
 2013d74:	1d400c93 	sll	s1,a3,0x3
 2013d78:	e7401093 	sll	a10,a11,0x4
 2013d7c:	54401893 	sll	s8,v1,0x6
 2013d80:	23080033 	add	s2,s10,s2
 2013d84:	18fe0033 	add	s1,s1,a13
 2013d88:	65802493 	sll	s10,a4,0x9
 2013d8c:	c8801093 	sll	a7,s0,0x4
 2013d90:	3c400893 	sll	s5,v1,0x2
 2013d94:	fd801893 	sll	a13,a4,0x6
 2013d98:	f7960033 	add	a12,a12,s9
 2013d9c:	ef780033 	add	a11,a11,a10
 2013da0:	5d001093 	sll	s9,a2,0x4
 2013da4:	e5000893 	sll	a10,a2,0x2
 2013da8:	fb3f0033 	sub	a13,s10,a13
 2013dac:	e2f90033 	sub	a10,s9,a10
 2013db0:	16450033 	sub	s0,a7,s0
 2013db4:	3a8f0033 	sub	s5,s8,s5
 2013db8:	29670033 	sub	s3,s3,a1
 2013dbc:	51801093 	sll	s8,s4,0x4
 2013dc0:	61000893 	sll	s10,s2,0x2
 2013dc4:	58c01093 	sll	s9,s1,0x4
 2013dc8:	cc6c0033 	add	a7,v1,a4
 2013dcc:	10a40033 	add	s0,s0,a0
 2013dd0:	18d60033 	add	s1,s1,s9
 2013dd4:	328d0033 	sub	s4,s8,s4
 2013dd8:	21180033 	add	s2,s2,s10
 2013ddc:	29401093 	sll	s3,s3,0x4
 2013de0:	67002893 	sll	s10,a10,0xa
 2013de4:	f7930033 	sub	a12,a12,s7
 2013de8:	ef510033 	sub	a11,a11,s6
 2013dec:	4e401093 	sll	s7,a7,0x4
 2013df0:	46401c93 	sll	s6,a7,0x7
 2013df4:	39e30033 	sub	s5,s5,v1
 2013df8:	50800893 	sll	s8,s0,0x2
 2013dfc:	31ae0033 	add	s4,s4,a5
 2013e00:	29660033 	add	s3,s3,a1
 2013e04:	a8eb0033 	sub	a3,s1,a3
 2013e08:	e7180033 	add	a10,a10,s10
 2013e0c:	4a500033 	add	s7,s7,s6
 2013e10:	10940033 	add	s0,s0,s8
 2013e14:	29400893 	sll	s3,s3,0x2
 2013e18:	a7290033 	sub	a2,a10,a2
 2013e1c:	47c00c93 	sll	s6,a13,0x3
 2013e20:	39c00c93 	sll	s5,s5,0x3
 2013e24:	6f801893 	sll	s11,a12,0x6
 2013e28:	5f401493 	sll	s9,a11,0x5
 2013e2c:	31801493 	sll	s4,s4,0x5
 2013e30:	ad400493 	sll	a3,a3,0x1
 2013e34:	31ae0033 	add	s4,s4,a5
 2013e38:	ca730033 	sub	a7,s7,a7
 2013e3c:	39e20033 	add	s5,s5,v1
 2013e40:	26090033 	sub	s2,a6,s2
 2013e44:	99660033 	add	a1,s3,a1
 2013e48:	ad760033 	add	a3,a3,a9
 2013e4c:	fa3f0033 	sub	a13,s6,a13
 2013e50:	dd360033 	add	a9,a2,a9
 2013e54:	f79a0033 	add	a12,a12,s11
 2013e58:	10800893 	sll	s0,s0,0x2
 2013e5c:	eafb0033 	sub	a11,s9,a11
 2013e60:	2b802103 	lw	s3,8(sp)
 2013e64:	a3800103 	lw	a2,0(sp)
 2013e68:	bb801103 	lw	a5,4(sp)
 2013e6c:	f03d0033 	neg	a12,a12
 2013e70:	4e401493 	sll	s7,a7,0x5
 2013e74:	b7ed0033 	sub	a4,a13,a4
 2013e78:	39c01493 	sll	s5,s5,0x5
 2013e7c:	21000893 	sll	s2,s2,0x2
 2013e80:	90a50033 	sub	a0,s0,a0
 2013e84:	ef400893 	sll	a11,a11,0x2
 2013e88:	99a70033 	sub	a1,s4,a1
 2013e8c:	ca730033 	sub	a7,s7,a7
 2013e90:	310c0033 	add	s4,s2,s4
 2013e94:	94bc0033 	add	a0,a0,a12
 2013e98:	b5800493 	sll	a4,a4,0x1
 2013e9c:	89e20033 	add	v1,s5,v1
 2013ea0:	f77c0033 	add	a12,a11,a12
 2013ea4:	d68a0033 	add	a8,a8,s3
 2013ea8:	552e0033 	add	s8,a2,a5
 2013eac:	b5b20033 	add	a4,a4,a7
 2013eb0:	ad660033 	add	a3,a3,a1
 2013eb4:	948c0033 	add	a0,a0,s4
 2013eb8:	ce630033 	sub	a7,a7,v1
 2013ebc:	9fa60033 	add	a1,a12,a1
 2013ec0:	36cc0033 	add	s4,a9,s4
 2013ec4:	c6940033 	add	a6,a8,s8
 2013ec8:	b5900013 	add	a4,a4,1024
 2013ecc:	d6950033 	sub	a8,a8,s8
 2013ed0:	ce500013 	add	a7,a7,1024
 2013ed4:	ad500013 	add	a3,a3,1024
 2013ed8:	94900013 	add	a0,a0,1024
 2013edc:	9cd00013 	add	a1,a1,1024
 2013ee0:	31900013 	add	s4,s4,1024
 2013ee4:	c6000893 	sll	a6,a6,0x2
 2013ee8:	d6800893 	sll	a8,a8,0x2
 2013eec:	b5812e93 	sra	a4,a4,0xb
 2013ef0:	ce412e93 	sra	a7,a7,0xb
 2013ef4:	ad412e93 	sra	a3,a3,0xb
 2013ef8:	94812e93 	sra	a0,a0,0xb
 2013efc:	9cc12e93 	sra	a1,a1,0xb
 2013f00:	31812e93 	sra	s4,s4,0xb
 2013f04:	18200e37 	lui	s1,0x401c
 2013f08:	04300123 	sw	a6,0(v0)
 2013f0c:	04344123 	sw	a8,16(v0)
 2013f10:	042c2123 	sw	a4,8(v0)
 2013f14:	04326123 	sw	a7,24(v0)
 2013f18:	042a7123 	sw	a3,28(v0)
 2013f1c:	04245123 	sw	a0,20(v0)
 2013f20:	04263123 	sw	a1,12(v0)
 2013f24:	040c1123 	sw	s4,4(v0)
 2013f28:	18c70013 	add	s1,s1,448
 2013f2c:	84008013 	add	v0,v0,32
 2013f30:	ec0700e3 	bne	v0,s1,2013cb0 <t7_taskD7_jpeg_fdct_islow+0x3c>
 2013f34:	80200e37 	lui	v0,0x401c
 2013f38:	84030013 	add	v0,v0,192
 2013f3c:	a0000237 	lui	a2,0x4
 2013f40:	e4000103 	lw	a10,0(v0)
 2013f44:	d4018103 	lw	a8,96(v0)
 2013f48:	dc038103 	lw	a9,224(v0)
 2013f4c:	bc020103 	lw	a5,128(v0)
 2013f50:	27ffff37 	lui	s2,0xffffe
 2013f54:	af370033 	sub	a3,a10,a9
 2013f58:	b6af0033 	sub	a4,a8,a5
 2013f5c:	8daa0033 	add	v1,a4,a3
 2013f60:	210ccc13 	add	s2,s2,819
 2013f64:	8c480433 	mul	v1,v1,s2
 2013f68:	fc008103 	lw	a13,32(v0)
 2013f6c:	f4030103 	lw	a12,192(v0)
 2013f70:	ec010103 	lw	a11,64(v0)
 2013f74:	df360033 	add	a9,a10,a9
 2013f78:	47fd0033 	sub	s6,a13,a12
 2013f7c:	f7fc0033 	add	a12,a13,a12
 2013f80:	03bc0123 	sw	a12,0(sp)
 2013f84:	2b800103 	lw	s3,0(sp)
 2013f88:	9d900033 	add	a1,a4,s6
 2013f8c:	fa001093 	sll	a13,s6,0x4
 2013f90:	beae0033 	add	a5,a8,a5
 2013f94:	e4c00893 	sll	a10,a1,0x2
 2013f98:	03ae2123 	sw	a5,8(sp)
 2013f9c:	beef0033 	sub	a5,a9,a5
 2013fa0:	03a23123 	sw	v1,12(sp)
 2013fa4:	8c028103 	lw	v1,160(v0)
 2013fa8:	97630033 	sub	a0,a11,v1
 2013fac:	ccaa0033 	add	a7,a0,a3
 2013fb0:	4c900033 	add	s7,a0,s6
 2013fb4:	c4f20033 	add	a6,a1,a7
 2013fb8:	1c801893 	sll	s1,a0,0x6
 2013fbc:	8f620033 	add	v1,a11,v1
 2013fc0:	14800c93 	sll	s0,a0,0x3
 2013fc4:	ea000893 	sll	a11,s6,0x2
 2013fc8:	10c50033 	sub	s0,s1,s0
 2013fcc:	effb0033 	sub	a11,a13,a11
 2013fd0:	1a400893 	sll	s1,s7,0x2
 2013fd4:	03a21123 	sw	v1,4(sp)
 2013fd8:	f2401493 	sll	a12,s7,0x5
 2013fdc:	89630033 	sub	v1,s3,v1
 2013fe0:	fe001093 	sll	a13,a6,0x4
 2013fe4:	2cc02093 	sll	s3,a1,0x8
 2013fe8:	36000893 	sll	s4,a6,0x2
 2013fec:	f0fc0033 	add	a12,s1,a12
 2013ff0:	31be0033 	add	s4,s4,a13
 2013ff4:	66401493 	sll	s10,a7,0x5
 2013ff8:	fd801893 	sll	a13,a4,0x6
 2013ffc:	54401893 	sll	s8,v1,0x6
 2014000:	29790033 	sub	s3,s3,a10
 2014004:	26401c93 	sll	s2,a7,0x7
 2014008:	1d800c93 	sll	s1,a4,0x3
 201400c:	3c400893 	sll	s5,v1,0x2
 2014010:	23080033 	add	s2,s10,s2
 2014014:	18fe0033 	add	s1,s1,a13
 2014018:	65c02493 	sll	s10,a5,0x9
 201401c:	fdc01893 	sll	a13,a5,0x6
 2014020:	3a8f0033 	sub	s5,s8,s5
 2014024:	29670033 	sub	s3,s3,a1
 2014028:	51801093 	sll	s8,s4,0x4
 201402c:	fb3f0033 	sub	a13,s10,a13
 2014030:	d0801093 	sll	a8,s0,0x4
 2014034:	5f800c93 	sll	s9,a12,0x3
 2014038:	e7401093 	sll	a10,a11,0x4
 201403c:	328d0033 	sub	s4,s8,s4
 2014040:	61000893 	sll	s10,s2,0x2
 2014044:	29401093 	sll	s3,s3,0x4
 2014048:	16850033 	sub	s0,a8,s0
 201404c:	f7960033 	add	a12,a12,s9
 2014050:	d46e0033 	add	a8,v1,a5
 2014054:	5d401093 	sll	s9,a3,0x4
 2014058:	ef780033 	add	a11,a11,a10
 201405c:	29660033 	add	s3,s3,a1
 2014060:	e5400893 	sll	a10,a3,0x2
 2014064:	21180033 	add	s2,s2,s10
 2014068:	31b00033 	add	s4,s4,a6
 201406c:	10a40033 	add	s0,s0,a0
 2014070:	f7930033 	sub	a12,a12,s7
 2014074:	ef510033 	sub	a11,a11,s6
 2014078:	e2f90033 	sub	a10,s9,a10
 201407c:	46801c93 	sll	s6,a8,0x7
 2014080:	4e801093 	sll	s7,a8,0x4
 2014084:	26490033 	sub	s2,a7,s2
 2014088:	31801493 	sll	s4,s4,0x5
 201408c:	29400893 	sll	s3,s3,0x2
 2014090:	4a500033 	add	s7,s7,s6
 2014094:	58c01093 	sll	s9,s1,0x4
 2014098:	47c00c93 	sll	s6,a13,0x3
 201409c:	31b00033 	add	s4,s4,a6
 20140a0:	29660033 	add	s3,s3,a1
 20140a4:	21000893 	sll	s2,s2,0x2
 20140a8:	50800893 	sll	s8,s0,0x2
 20140ac:	67002893 	sll	s10,a10,0xa
 20140b0:	298b0033 	sub	s3,s4,s3
 20140b4:	18d60033 	add	s1,s1,s9
 20140b8:	310c0033 	add	s4,s2,s4
 20140bc:	fa3f0033 	sub	a13,s6,a13
 20140c0:	23803103 	lw	s2,12(sp)
 20140c4:	39e30033 	sub	s5,s5,v1
 20140c8:	6f801893 	sll	s11,a12,0x6
 20140cc:	10940033 	add	s0,s0,s8
 20140d0:	5f401493 	sll	s9,a11,0x5
 20140d4:	e7180033 	add	a10,a10,s10
 20140d8:	18ed0033 	sub	s1,s1,a4
 20140dc:	ffef0033 	sub	a13,a13,a5
 20140e0:	e72b0033 	sub	a10,a10,a3
 20140e4:	39c00c93 	sll	s5,s5,0x3
 20140e8:	f79a0033 	add	a12,a12,s11
 20140ec:	10800893 	sll	s0,s0,0x2
 20140f0:	eafb0033 	sub	a11,s9,a11
 20140f4:	9b802103 	lw	a1,8(sp)
 20140f8:	ab800103 	lw	a3,0(sp)
 20140fc:	bb801103 	lw	a5,4(sp)
 2014100:	d2750033 	sub	a8,s7,a8
 2014104:	f03d0033 	neg	a12,a12
 2014108:	39e20033 	add	s5,s5,v1
 201410c:	18c00493 	sll	s1,s1,0x1
 2014110:	90a50033 	sub	a0,s0,a0
 2014114:	ef400893 	sll	a11,a11,0x2
 2014118:	94bc0033 	add	a0,a0,a12
 201411c:	46801493 	sll	s6,a8,0x5
 2014120:	39c01493 	sll	s5,s5,0x5
 2014124:	b0c80033 	add	a4,s1,s2
 2014128:	f77c0033 	add	a12,a11,a12
 201412c:	dee60033 	add	a9,a9,a1
 2014130:	4d6e0033 	add	s7,a3,a5
 2014134:	d2350033 	sub	a8,s6,a8
 2014138:	b58a0033 	add	a4,a4,s3
 201413c:	ffc00493 	sll	a13,a13,0x1
 2014140:	39e20033 	add	s5,s5,v1
 2014144:	e7080033 	add	a10,a10,s2
 2014148:	2f8a0033 	add	s3,a12,s3
 201414c:	ced20033 	add	a7,a9,s7
 2014150:	fff40033 	add	a13,a13,a8
 2014154:	948c0033 	add	a0,a0,s4
 2014158:	ded30033 	sub	a9,a9,s7
 201415c:	d68f0033 	sub	a8,a8,s5
 2014160:	370c0033 	add	s4,a10,s4
 2014164:	29680033 	add	s3,s3,a2
 2014168:	29413e93 	sra	s3,s3,0xf
 201416c:	ce400813 	add	a7,a7,2
 2014170:	dec00813 	add	a9,a9,2
 2014174:	ffe80033 	add	a13,a13,a2
 2014178:	d6a80033 	add	a8,a8,a2
 201417c:	b5a80033 	add	a4,a4,a2
 2014180:	94a80033 	add	a0,a0,a2
 2014184:	31a80033 	add	s4,s4,a2
 2014188:	040b8123 	sw	s3,96(v0)
 201418c:	ce410a93 	sra	a7,a7,0x2
 2014190:	dec10a93 	sra	a9,a9,0x2
 2014194:	ffc13e93 	sra	a13,a13,0xf
 2014198:	d6813e93 	sra	a8,a8,0xf
 201419c:	b5813e93 	sra	a4,a4,0xf
 20141a0:	94813e93 	sra	a0,a0,0xf
 20141a4:	31813e93 	sra	s4,s4,0xf
 20141a8:	28200e37 	lui	s3,0x401c
 20141ac:	04320123 	sw	a7,0(v0)
 20141b0:	0c360123 	sw	a9,128(v0)
 20141b4:	043f0123 	sw	a13,64(v0)
 20141b8:	0c350123 	sw	a8,192(v0)
 20141bc:	0c2d8123 	sw	a4,224(v0)
 20141c0:	0c248123 	sw	a0,160(v0)
 20141c4:	040c8123 	sw	s4,32(v0)
 20141c8:	29438013 	add	s3,s3,224
 20141cc:	84001013 	add	v0,v0,4
 20141d0:	ec0ae0e3 	bne	v0,s3,2013f40 <t7_taskD7_jpeg_fdct_islow+0x2cc>
 20141d4:	1380f103 	lw	s0,60(sp)
 20141d8:	1b80e103 	lw	s1,56(sp)
 20141dc:	2380d103 	lw	s2,52(sp)
 20141e0:	2b80c103 	lw	s3,48(sp)
 20141e4:	3380b103 	lw	s4,44(sp)
 20141e8:	3b80a103 	lw	s5,40(sp)
 20141ec:	43809103 	lw	s6,36(sp)
 20141f0:	4b808103 	lw	s7,32(sp)
 20141f4:	53807103 	lw	s8,28(sp)
 20141f8:	5b806103 	lw	s9,24(sp)
 20141fc:	63805103 	lw	s10,20(sp)
 2014200:	6b804103 	lw	s11,16(sp)
 2014204:	73810013 	add	sp,sp,64
 2014208:	004000eb 	ret

0201420c <t7_taskD7_main>:
 201420c:	73bfa013 	add	sp,sp,-24
 2014210:	03844123 	sw	s0,16(sp)
 2014214:	03863123 	sw	s1,12(sp)
 2014218:	038a1123 	sw	s3,4(sp)
 201421c:	18200e37 	lui	s1,0x401c
 2014220:	28200e37 	lui	s3,0x401c
 2014224:	14000437 	lui	s0,0x80008
 2014228:	03882123 	sw	s2,8(sp)
 201422c:	03825123 	sw	ra,20(sp)
 2014230:	20053413 	li	s2,333
 2014234:	29430013 	add	s3,s3,192
 2014238:	18c70013 	add	s1,s1,448
 201423c:	10800413 	add	s0,s0,1
 2014240:	89400013 	move	v1,s3
 2014244:	80000413 	li	v0,1
 2014248:	9c000893 	sll	a1,v0,0x2
 201424c:	94001c93 	sll	a0,v0,0x7
 2014250:	94e40033 	add	a0,a1,a0
 2014254:	84a00033 	add	v0,a0,v0
 2014258:	94014413 	add	a0,v0,81
 201425c:	a48405b3 	mulhu	a2,a0,s0
 2014260:	9c817e93 	sra	a1,a0,0x1f
 2014264:	84c403b3 	and	v0,a1,s0
 2014268:	85210033 	sub	v0,a2,v0
 201426c:	84013e93 	sra	v0,v0,0xf
 2014270:	84270033 	sub	v0,v0,a1
 2014274:	9c004093 	sll	a1,v0,0x10
 2014278:	84e10033 	sub	v0,a1,v0
 201427c:	84a10033 	sub	v0,a0,v0
 2014280:	04600123 	sw	v0,0(v1)
 2014284:	8c401013 	add	v1,v1,4
 2014288:	fc4780e3 	bne	v1,s1,2014248 <t7_taskD7_main+0x3c>
 201428c:	213ffc13 	add	s2,s2,-1
 2014290:	fffe796f 	jal	2013c74 <t7_taskD7_jpeg_fdct_islow>
 2014294:	f90158e3 	bnez	s2,2014240 <t7_taskD7_main+0x34>
 2014298:	0b805103 	lw	ra,20(sp)
 201429c:	80000013 	li	v0,0
 20142a0:	13804103 	lw	s0,16(sp)
 20142a4:	1b803103 	lw	s1,12(sp)
 20142a8:	23802103 	lw	s2,8(sp)
 20142ac:	2b801103 	lw	s3,4(sp)
 20142b0:	73806013 	add	sp,sp,24
 20142b4:	004000eb 	ret

020142b8 <t7_taskD8_jpeg_fdct_islow>:
 20142b8:	73bf0013 	add	sp,sp,-64
 20142bc:	80200e37 	lui	v0,0x401c
 20142c0:	0384f123 	sw	s0,60(sp)
 20142c4:	0386e123 	sw	s1,56(sp)
 20142c8:	0388d123 	sw	s2,52(sp)
 20142cc:	038ac123 	sw	s3,48(sp)
 20142d0:	038cb123 	sw	s4,44(sp)
 20142d4:	038ea123 	sw	s5,40(sp)
 20142d8:	03909123 	sw	s6,36(sp)
 20142dc:	03928123 	sw	s7,32(sp)
 20142e0:	03947123 	sw	s8,28(sp)
 20142e4:	03966123 	sw	s9,24(sp)
 20142e8:	03985123 	sw	s10,20(sp)
 20142ec:	039a4123 	sw	s11,16(sp)
 20142f0:	84070013 	add	v0,v0,448
 20142f4:	e4000103 	lw	a10,0(v0)
 20142f8:	cc003103 	lw	a7,12(v0)
 20142fc:	d4007103 	lw	a8,28(v0)
 2014300:	b4004103 	lw	a4,16(v0)
 2014304:	1fffff37 	lui	s1,0xffffe
 2014308:	a7350033 	sub	a2,a10,a8
 201430c:	ae6d0033 	sub	a3,a7,a4
 2014310:	dd680033 	add	a9,a3,a2
 2014314:	18cccc13 	add	s1,s1,819
 2014318:	dec60433 	mul	a9,a9,s1
 201431c:	fc001103 	lw	a13,4(v0)
 2014320:	f4006103 	lw	a12,24(v0)
 2014324:	ec002103 	lw	a11,8(v0)
 2014328:	8c005103 	lw	v1,20(v0)
 201432c:	47fd0033 	sub	s6,a13,a12
 2014330:	f7fc0033 	add	a12,a13,a12
 2014334:	97630033 	sub	a0,a11,v1
 2014338:	03bc0123 	sw	a12,0(sp)
 201433c:	9d500033 	add	a1,a3,s6
 2014340:	c4a80033 	add	a6,a0,a2
 2014344:	4c900033 	add	s7,a0,s6
 2014348:	1c801893 	sll	s1,a0,0x6
 201434c:	14800c93 	sll	s0,a0,0x3
 2014350:	23800103 	lw	s2,0(sp)
 2014354:	bcf00033 	add	a5,a1,a6
 2014358:	8f620033 	add	v1,a11,v1
 201435c:	10c50033 	sub	s0,s1,s0
 2014360:	fa001093 	sll	a13,s6,0x4
 2014364:	1a400893 	sll	s1,s7,0x2
 2014368:	f2401493 	sll	a12,s7,0x5
 201436c:	ea000893 	sll	a11,s6,0x2
 2014370:	d7340033 	add	a8,a10,a8
 2014374:	b66c0033 	add	a4,a7,a4
 2014378:	f0fc0033 	add	a12,s1,a12
 201437c:	effb0033 	sub	a11,a13,a11
 2014380:	e4c00893 	sll	a10,a1,0x2
 2014384:	fdc01093 	sll	a13,a5,0x4
 2014388:	35c00893 	sll	s4,a5,0x2
 201438c:	2cc02093 	sll	s3,a1,0x8
 2014390:	31be0033 	add	s4,s4,a13
 2014394:	66001493 	sll	s10,a6,0x5
 2014398:	fd401893 	sll	a13,a3,0x6
 201439c:	03a21123 	sw	v1,4(sp)
 20143a0:	03ac2123 	sw	a4,8(sp)
 20143a4:	89230033 	sub	v1,s2,v1
 20143a8:	b6ad0033 	sub	a4,a8,a4
 20143ac:	5f800c93 	sll	s9,a12,0x3
 20143b0:	29790033 	sub	s3,s3,a10
 20143b4:	26001c93 	sll	s2,a6,0x7
 20143b8:	1d400c93 	sll	s1,a3,0x3
 20143bc:	e7401093 	sll	a10,a11,0x4
 20143c0:	54401893 	sll	s8,v1,0x6
 20143c4:	23080033 	add	s2,s10,s2
 20143c8:	18fe0033 	add	s1,s1,a13
 20143cc:	65802493 	sll	s10,a4,0x9
 20143d0:	c8801093 	sll	a7,s0,0x4
 20143d4:	3c400893 	sll	s5,v1,0x2
 20143d8:	fd801893 	sll	a13,a4,0x6
 20143dc:	f7960033 	add	a12,a12,s9
 20143e0:	ef780033 	add	a11,a11,a10
 20143e4:	5d001093 	sll	s9,a2,0x4
 20143e8:	e5000893 	sll	a10,a2,0x2
 20143ec:	fb3f0033 	sub	a13,s10,a13
 20143f0:	e2f90033 	sub	a10,s9,a10
 20143f4:	16450033 	sub	s0,a7,s0
 20143f8:	3a8f0033 	sub	s5,s8,s5
 20143fc:	29670033 	sub	s3,s3,a1
 2014400:	51801093 	sll	s8,s4,0x4
 2014404:	61000893 	sll	s10,s2,0x2
 2014408:	58c01093 	sll	s9,s1,0x4
 201440c:	cc6c0033 	add	a7,v1,a4
 2014410:	10a40033 	add	s0,s0,a0
 2014414:	18d60033 	add	s1,s1,s9
 2014418:	328d0033 	sub	s4,s8,s4
 201441c:	21180033 	add	s2,s2,s10
 2014420:	29401093 	sll	s3,s3,0x4
 2014424:	67002893 	sll	s10,a10,0xa
 2014428:	f7930033 	sub	a12,a12,s7
 201442c:	ef510033 	sub	a11,a11,s6
 2014430:	4e401093 	sll	s7,a7,0x4
 2014434:	46401c93 	sll	s6,a7,0x7
 2014438:	39e30033 	sub	s5,s5,v1
 201443c:	50800893 	sll	s8,s0,0x2
 2014440:	31ae0033 	add	s4,s4,a5
 2014444:	29660033 	add	s3,s3,a1
 2014448:	a8eb0033 	sub	a3,s1,a3
 201444c:	e7180033 	add	a10,a10,s10
 2014450:	4a500033 	add	s7,s7,s6
 2014454:	10940033 	add	s0,s0,s8
 2014458:	29400893 	sll	s3,s3,0x2
 201445c:	a7290033 	sub	a2,a10,a2
 2014460:	47c00c93 	sll	s6,a13,0x3
 2014464:	39c00c93 	sll	s5,s5,0x3
 2014468:	6f801893 	sll	s11,a12,0x6
 201446c:	5f401493 	sll	s9,a11,0x5
 2014470:	31801493 	sll	s4,s4,0x5
 2014474:	ad400493 	sll	a3,a3,0x1
 2014478:	31ae0033 	add	s4,s4,a5
 201447c:	ca730033 	sub	a7,s7,a7
 2014480:	39e20033 	add	s5,s5,v1
 2014484:	26090033 	sub	s2,a6,s2
 2014488:	99660033 	add	a1,s3,a1
 201448c:	ad760033 	add	a3,a3,a9
 2014490:	fa3f0033 	sub	a13,s6,a13
 2014494:	dd360033 	add	a9,a2,a9
 2014498:	f79a0033 	add	a12,a12,s11
 201449c:	10800893 	sll	s0,s0,0x2
 20144a0:	eafb0033 	sub	a11,s9,a11
 20144a4:	2b802103 	lw	s3,8(sp)
 20144a8:	a3800103 	lw	a2,0(sp)
 20144ac:	bb801103 	lw	a5,4(sp)
 20144b0:	f03d0033 	neg	a12,a12
 20144b4:	4e401493 	sll	s7,a7,0x5
 20144b8:	b7ed0033 	sub	a4,a13,a4
 20144bc:	39c01493 	sll	s5,s5,0x5
 20144c0:	21000893 	sll	s2,s2,0x2
 20144c4:	90a50033 	sub	a0,s0,a0
 20144c8:	ef400893 	sll	a11,a11,0x2
 20144cc:	99a70033 	sub	a1,s4,a1
 20144d0:	ca730033 	sub	a7,s7,a7
 20144d4:	310c0033 	add	s4,s2,s4
 20144d8:	94bc0033 	add	a0,a0,a12
 20144dc:	b5800493 	sll	a4,a4,0x1
 20144e0:	89e20033 	add	v1,s5,v1
 20144e4:	f77c0033 	add	a12,a11,a12
 20144e8:	d68a0033 	add	a8,a8,s3
 20144ec:	552e0033 	add	s8,a2,a5
 20144f0:	b5b20033 	add	a4,a4,a7
 20144f4:	ad660033 	add	a3,a3,a1
 20144f8:	948c0033 	add	a0,a0,s4
 20144fc:	ce630033 	sub	a7,a7,v1
 2014500:	9fa60033 	add	a1,a12,a1
 2014504:	36cc0033 	add	s4,a9,s4
 2014508:	c6940033 	add	a6,a8,s8
 201450c:	b5900013 	add	a4,a4,1024
 2014510:	d6950033 	sub	a8,a8,s8
 2014514:	ce500013 	add	a7,a7,1024
 2014518:	ad500013 	add	a3,a3,1024
 201451c:	94900013 	add	a0,a0,1024
 2014520:	9cd00013 	add	a1,a1,1024
 2014524:	31900013 	add	s4,s4,1024
 2014528:	c6000893 	sll	a6,a6,0x2
 201452c:	d6800893 	sll	a8,a8,0x2
 2014530:	b5812e93 	sra	a4,a4,0xb
 2014534:	ce412e93 	sra	a7,a7,0xb
 2014538:	ad412e93 	sra	a3,a3,0xb
 201453c:	94812e93 	sra	a0,a0,0xb
 2014540:	9cc12e93 	sra	a1,a1,0xb
 2014544:	31812e93 	sra	s4,s4,0xb
 2014548:	18200e37 	lui	s1,0x401c
 201454c:	04300123 	sw	a6,0(v0)
 2014550:	04344123 	sw	a8,16(v0)
 2014554:	042c2123 	sw	a4,8(v0)
 2014558:	04326123 	sw	a7,24(v0)
 201455c:	042a7123 	sw	a3,28(v0)
 2014560:	04245123 	sw	a0,20(v0)
 2014564:	04263123 	sw	a1,12(v0)
 2014568:	040c1123 	sw	s4,4(v0)
 201456c:	18cb0013 	add	s1,s1,704
 2014570:	84008013 	add	v0,v0,32
 2014574:	ec0700e3 	bne	v0,s1,20142f4 <t7_taskD8_jpeg_fdct_islow+0x3c>
 2014578:	80200e37 	lui	v0,0x401c
 201457c:	84070013 	add	v0,v0,448
 2014580:	a0000237 	lui	a2,0x4
 2014584:	e4000103 	lw	a10,0(v0)
 2014588:	d4018103 	lw	a8,96(v0)
 201458c:	dc038103 	lw	a9,224(v0)
 2014590:	bc020103 	lw	a5,128(v0)
 2014594:	27ffff37 	lui	s2,0xffffe
 2014598:	af370033 	sub	a3,a10,a9
 201459c:	b6af0033 	sub	a4,a8,a5
 20145a0:	8daa0033 	add	v1,a4,a3
 20145a4:	210ccc13 	add	s2,s2,819
 20145a8:	8c480433 	mul	v1,v1,s2
 20145ac:	fc008103 	lw	a13,32(v0)
 20145b0:	f4030103 	lw	a12,192(v0)
 20145b4:	ec010103 	lw	a11,64(v0)
 20145b8:	df360033 	add	a9,a10,a9
 20145bc:	47fd0033 	sub	s6,a13,a12
 20145c0:	f7fc0033 	add	a12,a13,a12
 20145c4:	03bc0123 	sw	a12,0(sp)
 20145c8:	2b800103 	lw	s3,0(sp)
 20145cc:	9d900033 	add	a1,a4,s6
 20145d0:	fa001093 	sll	a13,s6,0x4
 20145d4:	beae0033 	add	a5,a8,a5
 20145d8:	e4c00893 	sll	a10,a1,0x2
 20145dc:	03ae2123 	sw	a5,8(sp)
 20145e0:	beef0033 	sub	a5,a9,a5
 20145e4:	03a23123 	sw	v1,12(sp)
 20145e8:	8c028103 	lw	v1,160(v0)
 20145ec:	97630033 	sub	a0,a11,v1
 20145f0:	ccaa0033 	add	a7,a0,a3
 20145f4:	4c900033 	add	s7,a0,s6
 20145f8:	c4f20033 	add	a6,a1,a7
 20145fc:	1c801893 	sll	s1,a0,0x6
 2014600:	8f620033 	add	v1,a11,v1
 2014604:	14800c93 	sll	s0,a0,0x3
 2014608:	ea000893 	sll	a11,s6,0x2
 201460c:	10c50033 	sub	s0,s1,s0
 2014610:	effb0033 	sub	a11,a13,a11
 2014614:	1a400893 	sll	s1,s7,0x2
 2014618:	03a21123 	sw	v1,4(sp)
 201461c:	f2401493 	sll	a12,s7,0x5
 2014620:	89630033 	sub	v1,s3,v1
 2014624:	fe001093 	sll	a13,a6,0x4
 2014628:	2cc02093 	sll	s3,a1,0x8
 201462c:	36000893 	sll	s4,a6,0x2
 2014630:	f0fc0033 	add	a12,s1,a12
 2014634:	31be0033 	add	s4,s4,a13
 2014638:	66401493 	sll	s10,a7,0x5
 201463c:	fd801893 	sll	a13,a4,0x6
 2014640:	54401893 	sll	s8,v1,0x6
 2014644:	29790033 	sub	s3,s3,a10
 2014648:	26401c93 	sll	s2,a7,0x7
 201464c:	1d800c93 	sll	s1,a4,0x3
 2014650:	3c400893 	sll	s5,v1,0x2
 2014654:	23080033 	add	s2,s10,s2
 2014658:	18fe0033 	add	s1,s1,a13
 201465c:	65c02493 	sll	s10,a5,0x9
 2014660:	fdc01893 	sll	a13,a5,0x6
 2014664:	3a8f0033 	sub	s5,s8,s5
 2014668:	29670033 	sub	s3,s3,a1
 201466c:	51801093 	sll	s8,s4,0x4
 2014670:	fb3f0033 	sub	a13,s10,a13
 2014674:	d0801093 	sll	a8,s0,0x4
 2014678:	5f800c93 	sll	s9,a12,0x3
 201467c:	e7401093 	sll	a10,a11,0x4
 2014680:	328d0033 	sub	s4,s8,s4
 2014684:	61000893 	sll	s10,s2,0x2
 2014688:	29401093 	sll	s3,s3,0x4
 201468c:	16850033 	sub	s0,a8,s0
 2014690:	f7960033 	add	a12,a12,s9
 2014694:	d46e0033 	add	a8,v1,a5
 2014698:	5d401093 	sll	s9,a3,0x4
 201469c:	ef780033 	add	a11,a11,a10
 20146a0:	29660033 	add	s3,s3,a1
 20146a4:	e5400893 	sll	a10,a3,0x2
 20146a8:	21180033 	add	s2,s2,s10
 20146ac:	31b00033 	add	s4,s4,a6
 20146b0:	10a40033 	add	s0,s0,a0
 20146b4:	f7930033 	sub	a12,a12,s7
 20146b8:	ef510033 	sub	a11,a11,s6
 20146bc:	e2f90033 	sub	a10,s9,a10
 20146c0:	46801c93 	sll	s6,a8,0x7
 20146c4:	4e801093 	sll	s7,a8,0x4
 20146c8:	26490033 	sub	s2,a7,s2
 20146cc:	31801493 	sll	s4,s4,0x5
 20146d0:	29400893 	sll	s3,s3,0x2
 20146d4:	4a500033 	add	s7,s7,s6
 20146d8:	58c01093 	sll	s9,s1,0x4
 20146dc:	47c00c93 	sll	s6,a13,0x3
 20146e0:	31b00033 	add	s4,s4,a6
 20146e4:	29660033 	add	s3,s3,a1
 20146e8:	21000893 	sll	s2,s2,0x2
 20146ec:	50800893 	sll	s8,s0,0x2
 20146f0:	67002893 	sll	s10,a10,0xa
 20146f4:	298b0033 	sub	s3,s4,s3
 20146f8:	18d60033 	add	s1,s1,s9
 20146fc:	310c0033 	add	s4,s2,s4
 2014700:	fa3f0033 	sub	a13,s6,a13
 2014704:	23803103 	lw	s2,12(sp)
 2014708:	39e30033 	sub	s5,s5,v1
 201470c:	6f801893 	sll	s11,a12,0x6
 2014710:	10940033 	add	s0,s0,s8
 2014714:	5f401493 	sll	s9,a11,0x5
 2014718:	e7180033 	add	a10,a10,s10
 201471c:	18ed0033 	sub	s1,s1,a4
 2014720:	ffef0033 	sub	a13,a13,a5
 2014724:	e72b0033 	sub	a10,a10,a3
 2014728:	39c00c93 	sll	s5,s5,0x3
 201472c:	f79a0033 	add	a12,a12,s11
 2014730:	10800893 	sll	s0,s0,0x2
 2014734:	eafb0033 	sub	a11,s9,a11
 2014738:	9b802103 	lw	a1,8(sp)
 201473c:	ab800103 	lw	a3,0(sp)
 2014740:	bb801103 	lw	a5,4(sp)
 2014744:	d2750033 	sub	a8,s7,a8
 2014748:	f03d0033 	neg	a12,a12
 201474c:	39e20033 	add	s5,s5,v1
 2014750:	18c00493 	sll	s1,s1,0x1
 2014754:	90a50033 	sub	a0,s0,a0
 2014758:	ef400893 	sll	a11,a11,0x2
 201475c:	94bc0033 	add	a0,a0,a12
 2014760:	46801493 	sll	s6,a8,0x5
 2014764:	39c01493 	sll	s5,s5,0x5
 2014768:	b0c80033 	add	a4,s1,s2
 201476c:	f77c0033 	add	a12,a11,a12
 2014770:	dee60033 	add	a9,a9,a1
 2014774:	4d6e0033 	add	s7,a3,a5
 2014778:	d2350033 	sub	a8,s6,a8
 201477c:	b58a0033 	add	a4,a4,s3
 2014780:	ffc00493 	sll	a13,a13,0x1
 2014784:	39e20033 	add	s5,s5,v1
 2014788:	e7080033 	add	a10,a10,s2
 201478c:	2f8a0033 	add	s3,a12,s3
 2014790:	ced20033 	add	a7,a9,s7
 2014794:	fff40033 	add	a13,a13,a8
 2014798:	948c0033 	add	a0,a0,s4
 201479c:	ded30033 	sub	a9,a9,s7
 20147a0:	d68f0033 	sub	a8,a8,s5
 20147a4:	370c0033 	add	s4,a10,s4
 20147a8:	29680033 	add	s3,s3,a2
 20147ac:	29413e93 	sra	s3,s3,0xf
 20147b0:	ce400813 	add	a7,a7,2
 20147b4:	dec00813 	add	a9,a9,2
 20147b8:	ffe80033 	add	a13,a13,a2
 20147bc:	d6a80033 	add	a8,a8,a2
 20147c0:	b5a80033 	add	a4,a4,a2
 20147c4:	94a80033 	add	a0,a0,a2
 20147c8:	31a80033 	add	s4,s4,a2
 20147cc:	040b8123 	sw	s3,96(v0)
 20147d0:	ce410a93 	sra	a7,a7,0x2
 20147d4:	dec10a93 	sra	a9,a9,0x2
 20147d8:	ffc13e93 	sra	a13,a13,0xf
 20147dc:	d6813e93 	sra	a8,a8,0xf
 20147e0:	b5813e93 	sra	a4,a4,0xf
 20147e4:	94813e93 	sra	a0,a0,0xf
 20147e8:	31813e93 	sra	s4,s4,0xf
 20147ec:	28200e37 	lui	s3,0x401c
 20147f0:	04320123 	sw	a7,0(v0)
 20147f4:	0c360123 	sw	a9,128(v0)
 20147f8:	043f0123 	sw	a13,64(v0)
 20147fc:	0c350123 	sw	a8,192(v0)
 2014800:	0c2d8123 	sw	a4,224(v0)
 2014804:	0c248123 	sw	a0,160(v0)
 2014808:	040c8123 	sw	s4,32(v0)
 201480c:	29478013 	add	s3,s3,480
 2014810:	84001013 	add	v0,v0,4
 2014814:	ec0ae0e3 	bne	v0,s3,2014584 <t7_taskD8_jpeg_fdct_islow+0x2cc>
 2014818:	1380f103 	lw	s0,60(sp)
 201481c:	1b80e103 	lw	s1,56(sp)
 2014820:	2380d103 	lw	s2,52(sp)
 2014824:	2b80c103 	lw	s3,48(sp)
 2014828:	3380b103 	lw	s4,44(sp)
 201482c:	3b80a103 	lw	s5,40(sp)
 2014830:	43809103 	lw	s6,36(sp)
 2014834:	4b808103 	lw	s7,32(sp)
 2014838:	53807103 	lw	s8,28(sp)
 201483c:	5b806103 	lw	s9,24(sp)
 2014840:	63805103 	lw	s10,20(sp)
 2014844:	6b804103 	lw	s11,16(sp)
 2014848:	73810013 	add	sp,sp,64
 201484c:	004000eb 	ret

02014850 <t7_taskD8_main>:
 2014850:	73bfa013 	add	sp,sp,-24
 2014854:	03844123 	sw	s0,16(sp)
 2014858:	03863123 	sw	s1,12(sp)
 201485c:	038a1123 	sw	s3,4(sp)
 2014860:	18200e37 	lui	s1,0x401c
 2014864:	28200e37 	lui	s3,0x401c
 2014868:	14000437 	lui	s0,0x80008
 201486c:	03882123 	sw	s2,8(sp)
 2014870:	03825123 	sw	ra,20(sp)
 2014874:	20003c13 	li	s2,15
 2014878:	29470013 	add	s3,s3,448
 201487c:	18cb0013 	add	s1,s1,704
 2014880:	10800413 	add	s0,s0,1
 2014884:	89400013 	move	v1,s3
 2014888:	80000413 	li	v0,1
 201488c:	9c000893 	sll	a1,v0,0x2
 2014890:	94001c93 	sll	a0,v0,0x7
 2014894:	94e40033 	add	a0,a1,a0
 2014898:	84a00033 	add	v0,a0,v0
 201489c:	94014413 	add	a0,v0,81
 20148a0:	a48405b3 	mulhu	a2,a0,s0
 20148a4:	9c817e93 	sra	a1,a0,0x1f
 20148a8:	84c403b3 	and	v0,a1,s0
 20148ac:	85210033 	sub	v0,a2,v0
 20148b0:	84013e93 	sra	v0,v0,0xf
 20148b4:	84270033 	sub	v0,v0,a1
 20148b8:	9c004093 	sll	a1,v0,0x10
 20148bc:	84e10033 	sub	v0,a1,v0
 20148c0:	84a10033 	sub	v0,a0,v0
 20148c4:	04600123 	sw	v0,0(v1)
 20148c8:	8c401013 	add	v1,v1,4
 20148cc:	fc4780e3 	bne	v1,s1,201488c <t7_taskD8_main+0x3c>
 20148d0:	213ffc13 	add	s2,s2,-1
 20148d4:	fffe796f 	jal	20142b8 <t7_taskD8_jpeg_fdct_islow>
 20148d8:	f90158e3 	bnez	s2,2014884 <t7_taskD8_main+0x34>
 20148dc:	0b805103 	lw	ra,20(sp)
 20148e0:	80000013 	li	v0,0
 20148e4:	13804103 	lw	s0,16(sp)
 20148e8:	1b803103 	lw	s1,12(sp)
 20148ec:	23802103 	lw	s2,8(sp)
 20148f0:	2b801103 	lw	s3,4(sp)
 20148f4:	73806013 	add	sp,sp,24
 20148f8:	004000eb 	ret

020148fc <t7_taskD9_jpeg_fdct_islow>:
 20148fc:	73bf0013 	add	sp,sp,-64
 2014900:	80200e37 	lui	v0,0x401c
 2014904:	0384f123 	sw	s0,60(sp)
 2014908:	0386e123 	sw	s1,56(sp)
 201490c:	0388d123 	sw	s2,52(sp)
 2014910:	038ac123 	sw	s3,48(sp)
 2014914:	038cb123 	sw	s4,44(sp)
 2014918:	038ea123 	sw	s5,40(sp)
 201491c:	03909123 	sw	s6,36(sp)
 2014920:	03928123 	sw	s7,32(sp)
 2014924:	03947123 	sw	s8,28(sp)
 2014928:	03966123 	sw	s9,24(sp)
 201492c:	03985123 	sw	s10,20(sp)
 2014930:	039a4123 	sw	s11,16(sp)
 2014934:	840b0013 	add	v0,v0,704
 2014938:	e4000103 	lw	a10,0(v0)
 201493c:	cc003103 	lw	a7,12(v0)
 2014940:	d4007103 	lw	a8,28(v0)
 2014944:	b4004103 	lw	a4,16(v0)
 2014948:	1fffff37 	lui	s1,0xffffe
 201494c:	a7350033 	sub	a2,a10,a8
 2014950:	ae6d0033 	sub	a3,a7,a4
 2014954:	dd680033 	add	a9,a3,a2
 2014958:	18cccc13 	add	s1,s1,819
 201495c:	dec60433 	mul	a9,a9,s1
 2014960:	fc001103 	lw	a13,4(v0)
 2014964:	f4006103 	lw	a12,24(v0)
 2014968:	ec002103 	lw	a11,8(v0)
 201496c:	8c005103 	lw	v1,20(v0)
 2014970:	47fd0033 	sub	s6,a13,a12
 2014974:	f7fc0033 	add	a12,a13,a12
 2014978:	97630033 	sub	a0,a11,v1
 201497c:	03bc0123 	sw	a12,0(sp)
 2014980:	9d500033 	add	a1,a3,s6
 2014984:	c4a80033 	add	a6,a0,a2
 2014988:	4c900033 	add	s7,a0,s6
 201498c:	1c801893 	sll	s1,a0,0x6
 2014990:	14800c93 	sll	s0,a0,0x3
 2014994:	23800103 	lw	s2,0(sp)
 2014998:	bcf00033 	add	a5,a1,a6
 201499c:	8f620033 	add	v1,a11,v1
 20149a0:	10c50033 	sub	s0,s1,s0
 20149a4:	fa001093 	sll	a13,s6,0x4
 20149a8:	1a400893 	sll	s1,s7,0x2
 20149ac:	f2401493 	sll	a12,s7,0x5
 20149b0:	ea000893 	sll	a11,s6,0x2
 20149b4:	d7340033 	add	a8,a10,a8
 20149b8:	b66c0033 	add	a4,a7,a4
 20149bc:	f0fc0033 	add	a12,s1,a12
 20149c0:	effb0033 	sub	a11,a13,a11
 20149c4:	e4c00893 	sll	a10,a1,0x2
 20149c8:	fdc01093 	sll	a13,a5,0x4
 20149cc:	35c00893 	sll	s4,a5,0x2
 20149d0:	2cc02093 	sll	s3,a1,0x8
 20149d4:	31be0033 	add	s4,s4,a13
 20149d8:	66001493 	sll	s10,a6,0x5
 20149dc:	fd401893 	sll	a13,a3,0x6
 20149e0:	03a21123 	sw	v1,4(sp)
 20149e4:	03ac2123 	sw	a4,8(sp)
 20149e8:	89230033 	sub	v1,s2,v1
 20149ec:	b6ad0033 	sub	a4,a8,a4
 20149f0:	5f800c93 	sll	s9,a12,0x3
 20149f4:	29790033 	sub	s3,s3,a10
 20149f8:	26001c93 	sll	s2,a6,0x7
 20149fc:	1d400c93 	sll	s1,a3,0x3
 2014a00:	e7401093 	sll	a10,a11,0x4
 2014a04:	54401893 	sll	s8,v1,0x6
 2014a08:	23080033 	add	s2,s10,s2
 2014a0c:	18fe0033 	add	s1,s1,a13
 2014a10:	65802493 	sll	s10,a4,0x9
 2014a14:	c8801093 	sll	a7,s0,0x4
 2014a18:	3c400893 	sll	s5,v1,0x2
 2014a1c:	fd801893 	sll	a13,a4,0x6
 2014a20:	f7960033 	add	a12,a12,s9
 2014a24:	ef780033 	add	a11,a11,a10
 2014a28:	5d001093 	sll	s9,a2,0x4
 2014a2c:	e5000893 	sll	a10,a2,0x2
 2014a30:	fb3f0033 	sub	a13,s10,a13
 2014a34:	e2f90033 	sub	a10,s9,a10
 2014a38:	16450033 	sub	s0,a7,s0
 2014a3c:	3a8f0033 	sub	s5,s8,s5
 2014a40:	29670033 	sub	s3,s3,a1
 2014a44:	51801093 	sll	s8,s4,0x4
 2014a48:	61000893 	sll	s10,s2,0x2
 2014a4c:	58c01093 	sll	s9,s1,0x4
 2014a50:	cc6c0033 	add	a7,v1,a4
 2014a54:	10a40033 	add	s0,s0,a0
 2014a58:	18d60033 	add	s1,s1,s9
 2014a5c:	328d0033 	sub	s4,s8,s4
 2014a60:	21180033 	add	s2,s2,s10
 2014a64:	29401093 	sll	s3,s3,0x4
 2014a68:	67002893 	sll	s10,a10,0xa
 2014a6c:	f7930033 	sub	a12,a12,s7
 2014a70:	ef510033 	sub	a11,a11,s6
 2014a74:	4e401093 	sll	s7,a7,0x4
 2014a78:	46401c93 	sll	s6,a7,0x7
 2014a7c:	39e30033 	sub	s5,s5,v1
 2014a80:	50800893 	sll	s8,s0,0x2
 2014a84:	31ae0033 	add	s4,s4,a5
 2014a88:	29660033 	add	s3,s3,a1
 2014a8c:	a8eb0033 	sub	a3,s1,a3
 2014a90:	e7180033 	add	a10,a10,s10
 2014a94:	4a500033 	add	s7,s7,s6
 2014a98:	10940033 	add	s0,s0,s8
 2014a9c:	29400893 	sll	s3,s3,0x2
 2014aa0:	a7290033 	sub	a2,a10,a2
 2014aa4:	47c00c93 	sll	s6,a13,0x3
 2014aa8:	39c00c93 	sll	s5,s5,0x3
 2014aac:	6f801893 	sll	s11,a12,0x6
 2014ab0:	5f401493 	sll	s9,a11,0x5
 2014ab4:	31801493 	sll	s4,s4,0x5
 2014ab8:	ad400493 	sll	a3,a3,0x1
 2014abc:	31ae0033 	add	s4,s4,a5
 2014ac0:	ca730033 	sub	a7,s7,a7
 2014ac4:	39e20033 	add	s5,s5,v1
 2014ac8:	26090033 	sub	s2,a6,s2
 2014acc:	99660033 	add	a1,s3,a1
 2014ad0:	ad760033 	add	a3,a3,a9
 2014ad4:	fa3f0033 	sub	a13,s6,a13
 2014ad8:	dd360033 	add	a9,a2,a9
 2014adc:	f79a0033 	add	a12,a12,s11
 2014ae0:	10800893 	sll	s0,s0,0x2
 2014ae4:	eafb0033 	sub	a11,s9,a11
 2014ae8:	2b802103 	lw	s3,8(sp)
 2014aec:	a3800103 	lw	a2,0(sp)
 2014af0:	bb801103 	lw	a5,4(sp)
 2014af4:	f03d0033 	neg	a12,a12
 2014af8:	4e401493 	sll	s7,a7,0x5
 2014afc:	b7ed0033 	sub	a4,a13,a4
 2014b00:	39c01493 	sll	s5,s5,0x5
 2014b04:	21000893 	sll	s2,s2,0x2
 2014b08:	90a50033 	sub	a0,s0,a0
 2014b0c:	ef400893 	sll	a11,a11,0x2
 2014b10:	99a70033 	sub	a1,s4,a1
 2014b14:	ca730033 	sub	a7,s7,a7
 2014b18:	310c0033 	add	s4,s2,s4
 2014b1c:	94bc0033 	add	a0,a0,a12
 2014b20:	b5800493 	sll	a4,a4,0x1
 2014b24:	89e20033 	add	v1,s5,v1
 2014b28:	f77c0033 	add	a12,a11,a12
 2014b2c:	d68a0033 	add	a8,a8,s3
 2014b30:	552e0033 	add	s8,a2,a5
 2014b34:	b5b20033 	add	a4,a4,a7
 2014b38:	ad660033 	add	a3,a3,a1
 2014b3c:	948c0033 	add	a0,a0,s4
 2014b40:	ce630033 	sub	a7,a7,v1
 2014b44:	9fa60033 	add	a1,a12,a1
 2014b48:	36cc0033 	add	s4,a9,s4
 2014b4c:	c6940033 	add	a6,a8,s8
 2014b50:	b5900013 	add	a4,a4,1024
 2014b54:	d6950033 	sub	a8,a8,s8
 2014b58:	ce500013 	add	a7,a7,1024
 2014b5c:	ad500013 	add	a3,a3,1024
 2014b60:	94900013 	add	a0,a0,1024
 2014b64:	9cd00013 	add	a1,a1,1024
 2014b68:	31900013 	add	s4,s4,1024
 2014b6c:	c6000893 	sll	a6,a6,0x2
 2014b70:	d6800893 	sll	a8,a8,0x2
 2014b74:	b5812e93 	sra	a4,a4,0xb
 2014b78:	ce412e93 	sra	a7,a7,0xb
 2014b7c:	ad412e93 	sra	a3,a3,0xb
 2014b80:	94812e93 	sra	a0,a0,0xb
 2014b84:	9cc12e93 	sra	a1,a1,0xb
 2014b88:	31812e93 	sra	s4,s4,0xb
 2014b8c:	18200e37 	lui	s1,0x401c
 2014b90:	04300123 	sw	a6,0(v0)
 2014b94:	04344123 	sw	a8,16(v0)
 2014b98:	042c2123 	sw	a4,8(v0)
 2014b9c:	04326123 	sw	a7,24(v0)
 2014ba0:	042a7123 	sw	a3,28(v0)
 2014ba4:	04245123 	sw	a0,20(v0)
 2014ba8:	04263123 	sw	a1,12(v0)
 2014bac:	040c1123 	sw	s4,4(v0)
 2014bb0:	18cf0013 	add	s1,s1,960
 2014bb4:	84008013 	add	v0,v0,32
 2014bb8:	ec0700e3 	bne	v0,s1,2014938 <t7_taskD9_jpeg_fdct_islow+0x3c>
 2014bbc:	80200e37 	lui	v0,0x401c
 2014bc0:	840b0013 	add	v0,v0,704
 2014bc4:	a0000237 	lui	a2,0x4
 2014bc8:	e4000103 	lw	a10,0(v0)
 2014bcc:	d4018103 	lw	a8,96(v0)
 2014bd0:	dc038103 	lw	a9,224(v0)
 2014bd4:	bc020103 	lw	a5,128(v0)
 2014bd8:	27ffff37 	lui	s2,0xffffe
 2014bdc:	af370033 	sub	a3,a10,a9
 2014be0:	b6af0033 	sub	a4,a8,a5
 2014be4:	8daa0033 	add	v1,a4,a3
 2014be8:	210ccc13 	add	s2,s2,819
 2014bec:	8c480433 	mul	v1,v1,s2
 2014bf0:	fc008103 	lw	a13,32(v0)
 2014bf4:	f4030103 	lw	a12,192(v0)
 2014bf8:	ec010103 	lw	a11,64(v0)
 2014bfc:	df360033 	add	a9,a10,a9
 2014c00:	47fd0033 	sub	s6,a13,a12
 2014c04:	f7fc0033 	add	a12,a13,a12
 2014c08:	03bc0123 	sw	a12,0(sp)
 2014c0c:	2b800103 	lw	s3,0(sp)
 2014c10:	9d900033 	add	a1,a4,s6
 2014c14:	fa001093 	sll	a13,s6,0x4
 2014c18:	beae0033 	add	a5,a8,a5
 2014c1c:	e4c00893 	sll	a10,a1,0x2
 2014c20:	03ae2123 	sw	a5,8(sp)
 2014c24:	beef0033 	sub	a5,a9,a5
 2014c28:	03a23123 	sw	v1,12(sp)
 2014c2c:	8c028103 	lw	v1,160(v0)
 2014c30:	97630033 	sub	a0,a11,v1
 2014c34:	ccaa0033 	add	a7,a0,a3
 2014c38:	4c900033 	add	s7,a0,s6
 2014c3c:	c4f20033 	add	a6,a1,a7
 2014c40:	1c801893 	sll	s1,a0,0x6
 2014c44:	8f620033 	add	v1,a11,v1
 2014c48:	14800c93 	sll	s0,a0,0x3
 2014c4c:	ea000893 	sll	a11,s6,0x2
 2014c50:	10c50033 	sub	s0,s1,s0
 2014c54:	effb0033 	sub	a11,a13,a11
 2014c58:	1a400893 	sll	s1,s7,0x2
 2014c5c:	03a21123 	sw	v1,4(sp)
 2014c60:	f2401493 	sll	a12,s7,0x5
 2014c64:	89630033 	sub	v1,s3,v1
 2014c68:	fe001093 	sll	a13,a6,0x4
 2014c6c:	2cc02093 	sll	s3,a1,0x8
 2014c70:	36000893 	sll	s4,a6,0x2
 2014c74:	f0fc0033 	add	a12,s1,a12
 2014c78:	31be0033 	add	s4,s4,a13
 2014c7c:	66401493 	sll	s10,a7,0x5
 2014c80:	fd801893 	sll	a13,a4,0x6
 2014c84:	54401893 	sll	s8,v1,0x6
 2014c88:	29790033 	sub	s3,s3,a10
 2014c8c:	26401c93 	sll	s2,a7,0x7
 2014c90:	1d800c93 	sll	s1,a4,0x3
 2014c94:	3c400893 	sll	s5,v1,0x2
 2014c98:	23080033 	add	s2,s10,s2
 2014c9c:	18fe0033 	add	s1,s1,a13
 2014ca0:	65c02493 	sll	s10,a5,0x9
 2014ca4:	fdc01893 	sll	a13,a5,0x6
 2014ca8:	3a8f0033 	sub	s5,s8,s5
 2014cac:	29670033 	sub	s3,s3,a1
 2014cb0:	51801093 	sll	s8,s4,0x4
 2014cb4:	fb3f0033 	sub	a13,s10,a13
 2014cb8:	d0801093 	sll	a8,s0,0x4
 2014cbc:	5f800c93 	sll	s9,a12,0x3
 2014cc0:	e7401093 	sll	a10,a11,0x4
 2014cc4:	328d0033 	sub	s4,s8,s4
 2014cc8:	61000893 	sll	s10,s2,0x2
 2014ccc:	29401093 	sll	s3,s3,0x4
 2014cd0:	16850033 	sub	s0,a8,s0
 2014cd4:	f7960033 	add	a12,a12,s9
 2014cd8:	d46e0033 	add	a8,v1,a5
 2014cdc:	5d401093 	sll	s9,a3,0x4
 2014ce0:	ef780033 	add	a11,a11,a10
 2014ce4:	29660033 	add	s3,s3,a1
 2014ce8:	e5400893 	sll	a10,a3,0x2
 2014cec:	21180033 	add	s2,s2,s10
 2014cf0:	31b00033 	add	s4,s4,a6
 2014cf4:	10a40033 	add	s0,s0,a0
 2014cf8:	f7930033 	sub	a12,a12,s7
 2014cfc:	ef510033 	sub	a11,a11,s6
 2014d00:	e2f90033 	sub	a10,s9,a10
 2014d04:	46801c93 	sll	s6,a8,0x7
 2014d08:	4e801093 	sll	s7,a8,0x4
 2014d0c:	26490033 	sub	s2,a7,s2
 2014d10:	31801493 	sll	s4,s4,0x5
 2014d14:	29400893 	sll	s3,s3,0x2
 2014d18:	4a500033 	add	s7,s7,s6
 2014d1c:	58c01093 	sll	s9,s1,0x4
 2014d20:	47c00c93 	sll	s6,a13,0x3
 2014d24:	31b00033 	add	s4,s4,a6
 2014d28:	29660033 	add	s3,s3,a1
 2014d2c:	21000893 	sll	s2,s2,0x2
 2014d30:	50800893 	sll	s8,s0,0x2
 2014d34:	67002893 	sll	s10,a10,0xa
 2014d38:	298b0033 	sub	s3,s4,s3
 2014d3c:	18d60033 	add	s1,s1,s9
 2014d40:	310c0033 	add	s4,s2,s4
 2014d44:	fa3f0033 	sub	a13,s6,a13
 2014d48:	23803103 	lw	s2,12(sp)
 2014d4c:	39e30033 	sub	s5,s5,v1
 2014d50:	6f801893 	sll	s11,a12,0x6
 2014d54:	10940033 	add	s0,s0,s8
 2014d58:	5f401493 	sll	s9,a11,0x5
 2014d5c:	e7180033 	add	a10,a10,s10
 2014d60:	18ed0033 	sub	s1,s1,a4
 2014d64:	ffef0033 	sub	a13,a13,a5
 2014d68:	e72b0033 	sub	a10,a10,a3
 2014d6c:	39c00c93 	sll	s5,s5,0x3
 2014d70:	f79a0033 	add	a12,a12,s11
 2014d74:	10800893 	sll	s0,s0,0x2
 2014d78:	eafb0033 	sub	a11,s9,a11
 2014d7c:	9b802103 	lw	a1,8(sp)
 2014d80:	ab800103 	lw	a3,0(sp)
 2014d84:	bb801103 	lw	a5,4(sp)
 2014d88:	d2750033 	sub	a8,s7,a8
 2014d8c:	f03d0033 	neg	a12,a12
 2014d90:	39e20033 	add	s5,s5,v1
 2014d94:	18c00493 	sll	s1,s1,0x1
 2014d98:	90a50033 	sub	a0,s0,a0
 2014d9c:	ef400893 	sll	a11,a11,0x2
 2014da0:	94bc0033 	add	a0,a0,a12
 2014da4:	46801493 	sll	s6,a8,0x5
 2014da8:	39c01493 	sll	s5,s5,0x5
 2014dac:	b0c80033 	add	a4,s1,s2
 2014db0:	f77c0033 	add	a12,a11,a12
 2014db4:	dee60033 	add	a9,a9,a1
 2014db8:	4d6e0033 	add	s7,a3,a5
 2014dbc:	d2350033 	sub	a8,s6,a8
 2014dc0:	b58a0033 	add	a4,a4,s3
 2014dc4:	ffc00493 	sll	a13,a13,0x1
 2014dc8:	39e20033 	add	s5,s5,v1
 2014dcc:	e7080033 	add	a10,a10,s2
 2014dd0:	2f8a0033 	add	s3,a12,s3
 2014dd4:	ced20033 	add	a7,a9,s7
 2014dd8:	fff40033 	add	a13,a13,a8
 2014ddc:	948c0033 	add	a0,a0,s4
 2014de0:	ded30033 	sub	a9,a9,s7
 2014de4:	d68f0033 	sub	a8,a8,s5
 2014de8:	370c0033 	add	s4,a10,s4
 2014dec:	29680033 	add	s3,s3,a2
 2014df0:	29413e93 	sra	s3,s3,0xf
 2014df4:	ce400813 	add	a7,a7,2
 2014df8:	dec00813 	add	a9,a9,2
 2014dfc:	ffe80033 	add	a13,a13,a2
 2014e00:	d6a80033 	add	a8,a8,a2
 2014e04:	b5a80033 	add	a4,a4,a2
 2014e08:	94a80033 	add	a0,a0,a2
 2014e0c:	31a80033 	add	s4,s4,a2
 2014e10:	040b8123 	sw	s3,96(v0)
 2014e14:	ce410a93 	sra	a7,a7,0x2
 2014e18:	dec10a93 	sra	a9,a9,0x2
 2014e1c:	ffc13e93 	sra	a13,a13,0xf
 2014e20:	d6813e93 	sra	a8,a8,0xf
 2014e24:	b5813e93 	sra	a4,a4,0xf
 2014e28:	94813e93 	sra	a0,a0,0xf
 2014e2c:	31813e93 	sra	s4,s4,0xf
 2014e30:	28200e37 	lui	s3,0x401c
 2014e34:	04320123 	sw	a7,0(v0)
 2014e38:	0c360123 	sw	a9,128(v0)
 2014e3c:	043f0123 	sw	a13,64(v0)
 2014e40:	0c350123 	sw	a8,192(v0)
 2014e44:	0c2d8123 	sw	a4,224(v0)
 2014e48:	0c248123 	sw	a0,160(v0)
 2014e4c:	040c8123 	sw	s4,32(v0)
 2014e50:	294b8013 	add	s3,s3,736
 2014e54:	84001013 	add	v0,v0,4
 2014e58:	ec0ae0e3 	bne	v0,s3,2014bc8 <t7_taskD9_jpeg_fdct_islow+0x2cc>
 2014e5c:	1380f103 	lw	s0,60(sp)
 2014e60:	1b80e103 	lw	s1,56(sp)
 2014e64:	2380d103 	lw	s2,52(sp)
 2014e68:	2b80c103 	lw	s3,48(sp)
 2014e6c:	3380b103 	lw	s4,44(sp)
 2014e70:	3b80a103 	lw	s5,40(sp)
 2014e74:	43809103 	lw	s6,36(sp)
 2014e78:	4b808103 	lw	s7,32(sp)
 2014e7c:	53807103 	lw	s8,28(sp)
 2014e80:	5b806103 	lw	s9,24(sp)
 2014e84:	63805103 	lw	s10,20(sp)
 2014e88:	6b804103 	lw	s11,16(sp)
 2014e8c:	73810013 	add	sp,sp,64
 2014e90:	004000eb 	ret

02014e94 <t7_taskD9_main>:
 2014e94:	73bfa013 	add	sp,sp,-24
 2014e98:	03844123 	sw	s0,16(sp)
 2014e9c:	03863123 	sw	s1,12(sp)
 2014ea0:	038a1123 	sw	s3,4(sp)
 2014ea4:	18200e37 	lui	s1,0x401c
 2014ea8:	28200e37 	lui	s3,0x401c
 2014eac:	14000437 	lui	s0,0x80008
 2014eb0:	03882123 	sw	s2,8(sp)
 2014eb4:	03825123 	sw	ra,20(sp)
 2014eb8:	2000f413 	li	s2,61
 2014ebc:	294b0013 	add	s3,s3,704
 2014ec0:	18cf0013 	add	s1,s1,960
 2014ec4:	10800413 	add	s0,s0,1
 2014ec8:	89400013 	move	v1,s3
 2014ecc:	80000413 	li	v0,1
 2014ed0:	9c000893 	sll	a1,v0,0x2
 2014ed4:	94001c93 	sll	a0,v0,0x7
 2014ed8:	94e40033 	add	a0,a1,a0
 2014edc:	84a00033 	add	v0,a0,v0
 2014ee0:	94014413 	add	a0,v0,81
 2014ee4:	a48405b3 	mulhu	a2,a0,s0
 2014ee8:	9c817e93 	sra	a1,a0,0x1f
 2014eec:	84c403b3 	and	v0,a1,s0
 2014ef0:	85210033 	sub	v0,a2,v0
 2014ef4:	84013e93 	sra	v0,v0,0xf
 2014ef8:	84270033 	sub	v0,v0,a1
 2014efc:	9c004093 	sll	a1,v0,0x10
 2014f00:	84e10033 	sub	v0,a1,v0
 2014f04:	84a10033 	sub	v0,a0,v0
 2014f08:	04600123 	sw	v0,0(v1)
 2014f0c:	8c401013 	add	v1,v1,4
 2014f10:	fc4780e3 	bne	v1,s1,2014ed0 <t7_taskD9_main+0x3c>
 2014f14:	213ffc13 	add	s2,s2,-1
 2014f18:	fffe796f 	jal	20148fc <t7_taskD9_jpeg_fdct_islow>
 2014f1c:	f90158e3 	bnez	s2,2014ec8 <t7_taskD9_main+0x34>
 2014f20:	0b805103 	lw	ra,20(sp)
 2014f24:	80000013 	li	v0,0
 2014f28:	13804103 	lw	s0,16(sp)
 2014f2c:	1b803103 	lw	s1,12(sp)
 2014f30:	23802103 	lw	s2,8(sp)
 2014f34:	2b801103 	lw	s3,4(sp)
 2014f38:	73806013 	add	sp,sp,24
 2014f3c:	004000eb 	ret

Disassembly of section .data:

04000000 <t0_exception_ns_l-0x10>:
 4000000:	0000      	nop
 4000002:	0000      	nop
 4000004:	0000      	nop
 4000006:	3fe0      	li	a13,15
 4000008:	a9fc      	sub	s3,s0,s5
 400000a:	d2f1      	bne	s2,s4,3fffff8 <t7_taskD9_main+0x1feb164>
 400000c:	624d      	sw	s1,-56(a2)
 400000e:	3f60      	li	a9,15

04000010 <t0_exception_ns_l>:
 4000010:	0000      	nop
	...

04000014 <t0_exception_ns_h>:
 4000014:	0000      	nop
	...

04000018 <t0_exception_handler>:
 4000018:	0000      	nop
	...

0400001c <t0_taskA1_BLOCK_ERKENNUNG_CTRL_BLOCK_ERKENNUNG_CTRL_next_state>:
	...

0400001d <t0_taskA1_BEWEGUNG_BLOCK_ERKENNUNG_CTRL_next_state>:
	...

0400001e <t0_taskA1_EINKLEMMSCHUTZ_CTRL_EINKLEMMSCHUTZ_CTRL_next_state>:
	...

0400001f <t0_taskA1_FH_STEUERUNG_DUMMY_FH_STEUERUNG_DUMMY_next_state>:
	...

04000020 <t0_taskA1_SCHLIESSEN_FH_TUERMODUL_CTRL_next_state>:
	...

04000021 <t0_taskA1_OEFFNEN_FH_TUERMODUL_CTRL_next_state>:
	...

04000022 <t0_taskA1_MANUELL_SCHLIESSEN_FH_TUERMODUL_CTRL_next_state>:
	...

04000023 <t0_taskA1_TIPP_SCHLIESSEN_FH_TUERMODUL_CTRL_next_state>:
	...

04000024 <t0_taskA1_INITIALISIERT_FH_TUERMODUL_CTRL_next_state>:
	...

04000025 <t0_taskA1_WIEDERHOLSPERRE_FH_TUERMODUL_CTRL_next_state>:
	...

04000026 <t0_taskA1_A_FH_TUERMODUL_CTRL_next_state>:
	...

04000027 <t0_taskA1_B_FH_TUERMODUL_CTRL_next_state>:
	...

04000028 <t0_taskA1_KINDERSICHERUNG_CTRL_KINDERSICHERUNG_CTRL_next_state>:
	...

04000029 <t0_taskA1_MEC_KINDERSICHERUNG_CTRL_next_state>:
	...

0400002a <t0_taskA1_ZENTRAL_KINDERSICHERUNG_CTRL_next_state>:
	...

0400002b <t0_taskA1_NICHT_INITIALISIERT_NICHT_INITIALISIERT_next_state>:
	...

0400002c <t0_taskA1_step>:
	...

0400002d <t0_taskA1_stable>:
 400002d:	0000      	nop
	...

04000030 <t0_taskA1_time>:
 4000030:	0000      	nop
	...

04000034 <t0_taskA1_FH_DU__MFHA_old>:
	...

04000035 <t0_taskA1_FH_DU__MFHA_copy>:
	...

04000036 <t0_taskA1_FH_DU__MFHA>:
	...

04000037 <t0_taskA1_FH_DU__MFHZ_old>:
	...

04000038 <t0_taskA1_FH_DU__MFHZ_copy>:
	...

04000039 <t0_taskA1_FH_DU__MFHZ>:
	...

0400003a <t0_taskA1_FH_DU__BLOCK_old>:
	...

0400003b <t0_taskA1_FH_DU__BLOCK_copy>:
	...

0400003c <t0_taskA1_FH_DU__BLOCK>:
	...

0400003d <t0_taskA1_FH_DU__DOOR_ID>:
	...

0400003e <t0_taskA1_FH_DU__S_FH_AUFDISC>:
	...

0400003f <t0_taskA1_FH_DU__S_FH_ZUDISC>:
	...

04000040 <t0_taskA1_FH_DU__S_FH_TMBFAUFDISC_old>:
	...

04000041 <t0_taskA1_FH_DU__S_FH_TMBFAUFDISC>:
	...

04000042 <t0_taskA1_FH_DU__S_FH_TMBFZUDISC_old>:
	...

04000043 <t0_taskA1_FH_DU__S_FH_TMBFZUDISC>:
	...

04000044 <t0_taskA1_FH_DU__S_FH_TMBFZUCAN_old>:
	...

04000045 <t0_taskA1_FH_DU__S_FH_TMBFZUCAN_copy>:
	...

04000046 <t0_taskA1_FH_DU__S_FH_TMBFZUCAN>:
	...

04000047 <t0_taskA1_FH_DU__S_FH_TMBFAUFCAN_old>:
	...

04000048 <t0_taskA1_FH_DU__S_FH_TMBFAUFCAN_copy>:
	...

04000049 <t0_taskA1_FH_DU__S_FH_TMBFAUFCAN>:
	...

0400004a <t0_taskA1_FH_DU__EKS_LEISTE_AKTIV_old>:
	...

0400004b <t0_taskA1_FH_DU__EKS_LEISTE_AKTIV>:
	...

0400004c <t0_taskA1_FH_DU__FT>:
	...

0400004d <t0_taskA1_FH_DU__S_FH_FTAUF>:
	...

0400004e <t0_taskA1_FH_DU__S_FH_FTZU>:
	...

0400004f <t0_taskA1_FH_DU__KL_50>:
	...

04000050 <t0_taskA1_FH_TUERMODUL__COM_CLOSE>:
	...

04000051 <t0_taskA1_FH_TUERMODUL__COM_OPEN>:
	...

04000052 <t0_taskA1_FH_TUERMODUL__EKS_LEISTE_AKTIV_old>:
	...

04000053 <t0_taskA1_FH_TUERMODUL__EKS_LEISTE_AKTIV>:
	...

04000054 <t0_taskA1_FH_TUERMODUL__MFHA_old>:
	...

04000055 <t0_taskA1_FH_TUERMODUL__MFHA_copy>:
	...

04000056 <t0_taskA1_FH_TUERMODUL__MFHA>:
	...

04000057 <t0_taskA1_FH_TUERMODUL__MFHZ_old>:
	...

04000058 <t0_taskA1_FH_TUERMODUL__MFHZ_copy>:
	...

04000059 <t0_taskA1_FH_TUERMODUL__MFHZ>:
	...

0400005a <t0_taskA1_FH_TUERMODUL__SFHA_old>:
	...

0400005b <t0_taskA1_FH_TUERMODUL__SFHA_copy>:
	...

0400005c <t0_taskA1_FH_TUERMODUL__SFHA>:
	...

0400005d <t0_taskA1_FH_TUERMODUL__SFHZ_old>:
	...

0400005e <t0_taskA1_FH_TUERMODUL__SFHZ_copy>:
	...

0400005f <t0_taskA1_FH_TUERMODUL__SFHZ>:
	...

04000060 <t0_taskA1_FH_TUERMODUL__FT>:
	...

04000061 <t0_taskA1_FH_TUERMODUL__BLOCK_old>:
	...

04000062 <t0_taskA1_FH_TUERMODUL__BLOCK_copy>:
	...

04000063 <t0_taskA1_FH_TUERMODUL__BLOCK>:
	...

04000064 <t0_taskA1_FH_TUERMODUL__KL_50>:
	...

04000065 <t0_taskA1_FH_TUERMODUL__SFHA_MEC_old>:
	...

04000066 <t0_taskA1_FH_TUERMODUL__SFHA_MEC>:
	...

04000067 <t0_taskA1_FH_TUERMODUL__SFHA_ZENTRAL_old>:
	...

04000068 <t0_taskA1_FH_TUERMODUL__SFHA_ZENTRAL>:
	...

04000069 <t0_taskA1_FH_TUERMODUL__SFHZ_MEC_old>:
	...

0400006a <t0_taskA1_FH_TUERMODUL__SFHZ_MEC>:
	...

0400006b <t0_taskA1_FH_TUERMODUL__SFHZ_ZENTRAL_old>:
	...

0400006c <t0_taskA1_FH_TUERMODUL__SFHZ_ZENTRAL>:
	...

0400006d <t0_taskA1_FH_TUERMODUL_CTRL__FT>:
	...

0400006e <t0_taskA1_FH_TUERMODUL_CTRL__INREVERS1_copy>:
	...

0400006f <t0_taskA1_FH_TUERMODUL_CTRL__INREVERS1>:
	...

04000070 <t0_taskA1_FH_TUERMODUL_CTRL__INREVERS2_copy>:
	...

04000071 <t0_taskA1_FH_TUERMODUL_CTRL__INREVERS2>:
 4000071:	0000      	nop
	...

04000074 <t0_taskA1_BLOCK_ERKENNUNG_CTRL__N_old>:
 4000074:	0000      	nop
	...

04000078 <t0_taskA1_BLOCK_ERKENNUNG_CTRL__N_copy>:
 4000078:	0000      	nop
	...

0400007c <t0_taskA1_BLOCK_ERKENNUNG_CTRL__N>:
 400007c:	0000      	nop
	...

04000080 <t0_taskA1_BLOCK_ERKENNUNG_CTRL__I_EIN_MAX_copy>:
 4000080:	0000      	nop
	...

04000084 <t0_taskA1_BLOCK_ERKENNUNG_CTRL__I_EIN_MAX>:
 4000084:	0000      	nop
	...

04000088 <t0_taskA1_FH_DU__I_EIN_old>:
 4000088:	0000      	nop
	...

0400008c <t0_taskA1_FH_DU__I_EIN>:
 400008c:	0000      	nop
	...

04000090 <t0_taskA1_FH_DU__POSITION>:
 4000090:	0000      	nop
	...

04000094 <t0_taskA1_FH_DU__MFH_copy>:
 4000094:	0000      	nop
	...

04000098 <t0_taskA1_FH_DU__MFH>:
 4000098:	0000      	nop
	...

0400009c <t0_taskA1_FH_TUERMODUL__I_EIN_old>:
 400009c:	0000      	nop
	...

040000a0 <t0_taskA1_FH_TUERMODUL__I_EIN>:
 40000a0:	0000      	nop
	...

040000a4 <t0_taskA1_FH_TUERMODUL__POSITION>:
 40000a4:	0000      	nop
	...

040000a8 <t0_taskA1_sc_FH_TUERMODUL_CTRL_1739_10>:
 40000a8:	0000      	nop
	...

040000ac <t0_taskA1_sc_FH_TUERMODUL_CTRL_1781_10>:
 40000ac:	0000      	nop
	...

040000b0 <t0_taskA1_FH_TUERMODUL_CTRL__N_old>:
 40000b0:	0000      	nop
	...

040000b4 <t0_taskA1_FH_TUERMODUL_CTRL__N_copy>:
 40000b4:	0000      	nop
	...

040000b8 <t0_taskA1_FH_TUERMODUL_CTRL__N>:
 40000b8:	0000      	nop
	...

040000bc <t0_taskA1_sc_FH_TUERMODUL_CTRL_2329_1>:
 40000bc:	0000      	nop
	...

040000c0 <t0_taskA1_sc_FH_TUERMODUL_CTRL_2352_1>:
 40000c0:	0000      	nop
	...

040000c4 <t0_taskA1_sc_FH_TUERMODUL_CTRL_2375_2>:
 40000c4:	0000      	nop
	...

040000c8 <t0_taskA1_tm_entered_WIEDERHOLSPERRE_FH_TUERMODUL_CTRL>:
 40000c8:	0000      	nop
	...

040000cc <t0_taskA1_tm_entered_WIEDERHOLSPERRE_FH_TUERMODUL_CTRLexited_BEREIT_FH_TUERMODUL_CTRL>:
 40000cc:	0000      	nop
	...

040000d0 <t0_taskA1_tm_entered_EINSCHALTSTROM_MESSEN_BLOCK_ERKENNUNG_CTRLch_BLOCK_ERKENNUNG_CTRL__N_copy>:
 40000d0:	0000      	nop
	...

040000d4 <t0_taskA1_Bitlist>:
	...

04004000 <t1_exception_ns_l>:
 4004000:	0000      	nop
	...

04004004 <t1_exception_ns_h>:
 4004004:	0000      	nop
	...

04004008 <t1_exception_handler>:
 4004008:	0000      	nop
	...

0400400c <t1_taskA2_BLOCK_ERKENNUNG_CTRL_BLOCK_ERKENNUNG_CTRL_next_state>:
	...

0400400d <t1_taskA2_BEWEGUNG_BLOCK_ERKENNUNG_CTRL_next_state>:
	...

0400400e <t1_taskA2_EINKLEMMSCHUTZ_CTRL_EINKLEMMSCHUTZ_CTRL_next_state>:
	...

0400400f <t1_taskA2_FH_STEUERUNG_DUMMY_FH_STEUERUNG_DUMMY_next_state>:
	...

04004010 <t1_taskA2_SCHLIESSEN_FH_TUERMODUL_CTRL_next_state>:
	...

04004011 <t1_taskA2_OEFFNEN_FH_TUERMODUL_CTRL_next_state>:
	...

04004012 <t1_taskA2_MANUELL_SCHLIESSEN_FH_TUERMODUL_CTRL_next_state>:
	...

04004013 <t1_taskA2_TIPP_SCHLIESSEN_FH_TUERMODUL_CTRL_next_state>:
	...

04004014 <t1_taskA2_INITIALISIERT_FH_TUERMODUL_CTRL_next_state>:
	...

04004015 <t1_taskA2_WIEDERHOLSPERRE_FH_TUERMODUL_CTRL_next_state>:
	...

04004016 <t1_taskA2_A_FH_TUERMODUL_CTRL_next_state>:
	...

04004017 <t1_taskA2_B_FH_TUERMODUL_CTRL_next_state>:
	...

04004018 <t1_taskA2_KINDERSICHERUNG_CTRL_KINDERSICHERUNG_CTRL_next_state>:
	...

04004019 <t1_taskA2_MEC_KINDERSICHERUNG_CTRL_next_state>:
	...

0400401a <t1_taskA2_ZENTRAL_KINDERSICHERUNG_CTRL_next_state>:
	...

0400401b <t1_taskA2_NICHT_INITIALISIERT_NICHT_INITIALISIERT_next_state>:
	...

0400401c <t1_taskA2_step>:
	...

0400401d <t1_taskA2_stable>:
 400401d:	0000      	nop
	...

04004020 <t1_taskA2_time>:
 4004020:	0000      	nop
	...

04004024 <t1_taskA2_FH_DU__MFHA_old>:
	...

04004025 <t1_taskA2_FH_DU__MFHA_copy>:
	...

04004026 <t1_taskA2_FH_DU__MFHA>:
	...

04004027 <t1_taskA2_FH_DU__MFHZ_old>:
	...

04004028 <t1_taskA2_FH_DU__MFHZ_copy>:
	...

04004029 <t1_taskA2_FH_DU__MFHZ>:
	...

0400402a <t1_taskA2_FH_DU__BLOCK_old>:
	...

0400402b <t1_taskA2_FH_DU__BLOCK_copy>:
	...

0400402c <t1_taskA2_FH_DU__BLOCK>:
	...

0400402d <t1_taskA2_FH_DU__DOOR_ID>:
	...

0400402e <t1_taskA2_FH_DU__S_FH_AUFDISC>:
	...

0400402f <t1_taskA2_FH_DU__S_FH_ZUDISC>:
	...

04004030 <t1_taskA2_FH_DU__S_FH_TMBFAUFDISC_old>:
	...

04004031 <t1_taskA2_FH_DU__S_FH_TMBFAUFDISC>:
	...

04004032 <t1_taskA2_FH_DU__S_FH_TMBFZUDISC_old>:
	...

04004033 <t1_taskA2_FH_DU__S_FH_TMBFZUDISC>:
	...

04004034 <t1_taskA2_FH_DU__S_FH_TMBFZUCAN_old>:
	...

04004035 <t1_taskA2_FH_DU__S_FH_TMBFZUCAN_copy>:
	...

04004036 <t1_taskA2_FH_DU__S_FH_TMBFZUCAN>:
	...

04004037 <t1_taskA2_FH_DU__S_FH_TMBFAUFCAN_old>:
	...

04004038 <t1_taskA2_FH_DU__S_FH_TMBFAUFCAN_copy>:
	...

04004039 <t1_taskA2_FH_DU__S_FH_TMBFAUFCAN>:
	...

0400403a <t1_taskA2_FH_DU__EKS_LEISTE_AKTIV_old>:
	...

0400403b <t1_taskA2_FH_DU__EKS_LEISTE_AKTIV>:
	...

0400403c <t1_taskA2_FH_DU__FT>:
	...

0400403d <t1_taskA2_FH_DU__S_FH_FTAUF>:
	...

0400403e <t1_taskA2_FH_DU__S_FH_FTZU>:
	...

0400403f <t1_taskA2_FH_DU__KL_50>:
	...

04004040 <t1_taskA2_FH_TUERMODUL__COM_CLOSE>:
	...

04004041 <t1_taskA2_FH_TUERMODUL__COM_OPEN>:
	...

04004042 <t1_taskA2_FH_TUERMODUL__EKS_LEISTE_AKTIV_old>:
	...

04004043 <t1_taskA2_FH_TUERMODUL__EKS_LEISTE_AKTIV>:
	...

04004044 <t1_taskA2_FH_TUERMODUL__MFHA_old>:
	...

04004045 <t1_taskA2_FH_TUERMODUL__MFHA_copy>:
	...

04004046 <t1_taskA2_FH_TUERMODUL__MFHA>:
	...

04004047 <t1_taskA2_FH_TUERMODUL__MFHZ_old>:
	...

04004048 <t1_taskA2_FH_TUERMODUL__MFHZ_copy>:
	...

04004049 <t1_taskA2_FH_TUERMODUL__MFHZ>:
	...

0400404a <t1_taskA2_FH_TUERMODUL__SFHA_old>:
	...

0400404b <t1_taskA2_FH_TUERMODUL__SFHA_copy>:
	...

0400404c <t1_taskA2_FH_TUERMODUL__SFHA>:
	...

0400404d <t1_taskA2_FH_TUERMODUL__SFHZ_old>:
	...

0400404e <t1_taskA2_FH_TUERMODUL__SFHZ_copy>:
	...

0400404f <t1_taskA2_FH_TUERMODUL__SFHZ>:
	...

04004050 <t1_taskA2_FH_TUERMODUL__FT>:
	...

04004051 <t1_taskA2_FH_TUERMODUL__BLOCK_old>:
	...

04004052 <t1_taskA2_FH_TUERMODUL__BLOCK_copy>:
	...

04004053 <t1_taskA2_FH_TUERMODUL__BLOCK>:
	...

04004054 <t1_taskA2_FH_TUERMODUL__KL_50>:
	...

04004055 <t1_taskA2_FH_TUERMODUL__SFHA_MEC_old>:
	...

04004056 <t1_taskA2_FH_TUERMODUL__SFHA_MEC>:
	...

04004057 <t1_taskA2_FH_TUERMODUL__SFHA_ZENTRAL_old>:
	...

04004058 <t1_taskA2_FH_TUERMODUL__SFHA_ZENTRAL>:
	...

04004059 <t1_taskA2_FH_TUERMODUL__SFHZ_MEC_old>:
	...

0400405a <t1_taskA2_FH_TUERMODUL__SFHZ_MEC>:
	...

0400405b <t1_taskA2_FH_TUERMODUL__SFHZ_ZENTRAL_old>:
	...

0400405c <t1_taskA2_FH_TUERMODUL__SFHZ_ZENTRAL>:
	...

0400405d <t1_taskA2_FH_TUERMODUL_CTRL__FT>:
	...

0400405e <t1_taskA2_FH_TUERMODUL_CTRL__INREVERS1_copy>:
	...

0400405f <t1_taskA2_FH_TUERMODUL_CTRL__INREVERS1>:
	...

04004060 <t1_taskA2_FH_TUERMODUL_CTRL__INREVERS2_copy>:
	...

04004061 <t1_taskA2_FH_TUERMODUL_CTRL__INREVERS2>:
 4004061:	0000      	nop
	...

04004064 <t1_taskA2_BLOCK_ERKENNUNG_CTRL__N_old>:
 4004064:	0000      	nop
	...

04004068 <t1_taskA2_BLOCK_ERKENNUNG_CTRL__N_copy>:
 4004068:	0000      	nop
	...

0400406c <t1_taskA2_BLOCK_ERKENNUNG_CTRL__N>:
 400406c:	0000      	nop
	...

04004070 <t1_taskA2_BLOCK_ERKENNUNG_CTRL__I_EIN_MAX_copy>:
 4004070:	0000      	nop
	...

04004074 <t1_taskA2_BLOCK_ERKENNUNG_CTRL__I_EIN_MAX>:
 4004074:	0000      	nop
	...

04004078 <t1_taskA2_FH_DU__I_EIN_old>:
 4004078:	0000      	nop
	...

0400407c <t1_taskA2_FH_DU__I_EIN>:
 400407c:	0000      	nop
	...

04004080 <t1_taskA2_FH_DU__POSITION>:
 4004080:	0000      	nop
	...

04004084 <t1_taskA2_FH_DU__MFH_copy>:
 4004084:	0000      	nop
	...

04004088 <t1_taskA2_FH_DU__MFH>:
 4004088:	0000      	nop
	...

0400408c <t1_taskA2_FH_TUERMODUL__I_EIN_old>:
 400408c:	0000      	nop
	...

04004090 <t1_taskA2_FH_TUERMODUL__I_EIN>:
 4004090:	0000      	nop
	...

04004094 <t1_taskA2_FH_TUERMODUL__POSITION>:
 4004094:	0000      	nop
	...

04004098 <t1_taskA2_sc_FH_TUERMODUL_CTRL_1739_10>:
 4004098:	0000      	nop
	...

0400409c <t1_taskA2_sc_FH_TUERMODUL_CTRL_1781_10>:
 400409c:	0000      	nop
	...

040040a0 <t1_taskA2_FH_TUERMODUL_CTRL__N_old>:
 40040a0:	0000      	nop
	...

040040a4 <t1_taskA2_FH_TUERMODUL_CTRL__N_copy>:
 40040a4:	0000      	nop
	...

040040a8 <t1_taskA2_FH_TUERMODUL_CTRL__N>:
 40040a8:	0000      	nop
	...

040040ac <t1_taskA2_sc_FH_TUERMODUL_CTRL_2329_1>:
 40040ac:	0000      	nop
	...

040040b0 <t1_taskA2_sc_FH_TUERMODUL_CTRL_2352_1>:
 40040b0:	0000      	nop
	...

040040b4 <t1_taskA2_sc_FH_TUERMODUL_CTRL_2375_2>:
 40040b4:	0000      	nop
	...

040040b8 <t1_taskA2_tm_entered_WIEDERHOLSPERRE_FH_TUERMODUL_CTRL>:
 40040b8:	0000      	nop
	...

040040bc <t1_taskA2_tm_entered_WIEDERHOLSPERRE_FH_TUERMODUL_CTRLexited_BEREIT_FH_TUERMODUL_CTRL>:
 40040bc:	0000      	nop
	...

040040c0 <t1_taskA2_tm_entered_EINSCHALTSTROM_MESSEN_BLOCK_ERKENNUNG_CTRLch_BLOCK_ERKENNUNG_CTRL__N_copy>:
 40040c0:	0000      	nop
	...

040040c4 <t1_taskA2_Bitlist>:
	...

04008000 <t2_exception_ns_l>:
 4008000:	0000      	nop
	...

04008004 <t2_exception_ns_h>:
 4008004:	0000      	nop
	...

04008008 <t2_exception_handler>:
 4008008:	0000      	nop
	...

0400800c <t2_taskA3_BLOCK_ERKENNUNG_CTRL_BLOCK_ERKENNUNG_CTRL_next_state>:
	...

0400800d <t2_taskA3_BEWEGUNG_BLOCK_ERKENNUNG_CTRL_next_state>:
	...

0400800e <t2_taskA3_EINKLEMMSCHUTZ_CTRL_EINKLEMMSCHUTZ_CTRL_next_state>:
	...

0400800f <t2_taskA3_FH_STEUERUNG_DUMMY_FH_STEUERUNG_DUMMY_next_state>:
	...

04008010 <t2_taskA3_SCHLIESSEN_FH_TUERMODUL_CTRL_next_state>:
	...

04008011 <t2_taskA3_OEFFNEN_FH_TUERMODUL_CTRL_next_state>:
	...

04008012 <t2_taskA3_MANUELL_SCHLIESSEN_FH_TUERMODUL_CTRL_next_state>:
	...

04008013 <t2_taskA3_TIPP_SCHLIESSEN_FH_TUERMODUL_CTRL_next_state>:
	...

04008014 <t2_taskA3_INITIALISIERT_FH_TUERMODUL_CTRL_next_state>:
	...

04008015 <t2_taskA3_WIEDERHOLSPERRE_FH_TUERMODUL_CTRL_next_state>:
	...

04008016 <t2_taskA3_A_FH_TUERMODUL_CTRL_next_state>:
	...

04008017 <t2_taskA3_B_FH_TUERMODUL_CTRL_next_state>:
	...

04008018 <t2_taskA3_KINDERSICHERUNG_CTRL_KINDERSICHERUNG_CTRL_next_state>:
	...

04008019 <t2_taskA3_MEC_KINDERSICHERUNG_CTRL_next_state>:
	...

0400801a <t2_taskA3_ZENTRAL_KINDERSICHERUNG_CTRL_next_state>:
	...

0400801b <t2_taskA3_NICHT_INITIALISIERT_NICHT_INITIALISIERT_next_state>:
	...

0400801c <t2_taskA3_step>:
	...

0400801d <t2_taskA3_stable>:
 400801d:	0000      	nop
	...

04008020 <t2_taskA3_time>:
 4008020:	0000      	nop
	...

04008024 <t2_taskA3_FH_DU__MFHA_old>:
	...

04008025 <t2_taskA3_FH_DU__MFHA_copy>:
	...

04008026 <t2_taskA3_FH_DU__MFHA>:
	...

04008027 <t2_taskA3_FH_DU__MFHZ_old>:
	...

04008028 <t2_taskA3_FH_DU__MFHZ_copy>:
	...

04008029 <t2_taskA3_FH_DU__MFHZ>:
	...

0400802a <t2_taskA3_FH_DU__BLOCK_old>:
	...

0400802b <t2_taskA3_FH_DU__BLOCK_copy>:
	...

0400802c <t2_taskA3_FH_DU__BLOCK>:
	...

0400802d <t2_taskA3_FH_DU__DOOR_ID>:
	...

0400802e <t2_taskA3_FH_DU__S_FH_AUFDISC>:
	...

0400802f <t2_taskA3_FH_DU__S_FH_ZUDISC>:
	...

04008030 <t2_taskA3_FH_DU__S_FH_TMBFAUFDISC_old>:
	...

04008031 <t2_taskA3_FH_DU__S_FH_TMBFAUFDISC>:
	...

04008032 <t2_taskA3_FH_DU__S_FH_TMBFZUDISC_old>:
	...

04008033 <t2_taskA3_FH_DU__S_FH_TMBFZUDISC>:
	...

04008034 <t2_taskA3_FH_DU__S_FH_TMBFZUCAN_old>:
	...

04008035 <t2_taskA3_FH_DU__S_FH_TMBFZUCAN_copy>:
	...

04008036 <t2_taskA3_FH_DU__S_FH_TMBFZUCAN>:
	...

04008037 <t2_taskA3_FH_DU__S_FH_TMBFAUFCAN_old>:
	...

04008038 <t2_taskA3_FH_DU__S_FH_TMBFAUFCAN_copy>:
	...

04008039 <t2_taskA3_FH_DU__S_FH_TMBFAUFCAN>:
	...

0400803a <t2_taskA3_FH_DU__EKS_LEISTE_AKTIV_old>:
	...

0400803b <t2_taskA3_FH_DU__EKS_LEISTE_AKTIV>:
	...

0400803c <t2_taskA3_FH_DU__FT>:
	...

0400803d <t2_taskA3_FH_DU__S_FH_FTAUF>:
	...

0400803e <t2_taskA3_FH_DU__S_FH_FTZU>:
	...

0400803f <t2_taskA3_FH_DU__KL_50>:
	...

04008040 <t2_taskA3_FH_TUERMODUL__COM_CLOSE>:
	...

04008041 <t2_taskA3_FH_TUERMODUL__COM_OPEN>:
	...

04008042 <t2_taskA3_FH_TUERMODUL__EKS_LEISTE_AKTIV_old>:
	...

04008043 <t2_taskA3_FH_TUERMODUL__EKS_LEISTE_AKTIV>:
	...

04008044 <t2_taskA3_FH_TUERMODUL__MFHA_old>:
	...

04008045 <t2_taskA3_FH_TUERMODUL__MFHA_copy>:
	...

04008046 <t2_taskA3_FH_TUERMODUL__MFHA>:
	...

04008047 <t2_taskA3_FH_TUERMODUL__MFHZ_old>:
	...

04008048 <t2_taskA3_FH_TUERMODUL__MFHZ_copy>:
	...

04008049 <t2_taskA3_FH_TUERMODUL__MFHZ>:
	...

0400804a <t2_taskA3_FH_TUERMODUL__SFHA_old>:
	...

0400804b <t2_taskA3_FH_TUERMODUL__SFHA_copy>:
	...

0400804c <t2_taskA3_FH_TUERMODUL__SFHA>:
	...

0400804d <t2_taskA3_FH_TUERMODUL__SFHZ_old>:
	...

0400804e <t2_taskA3_FH_TUERMODUL__SFHZ_copy>:
	...

0400804f <t2_taskA3_FH_TUERMODUL__SFHZ>:
	...

04008050 <t2_taskA3_FH_TUERMODUL__FT>:
	...

04008051 <t2_taskA3_FH_TUERMODUL__BLOCK_old>:
	...

04008052 <t2_taskA3_FH_TUERMODUL__BLOCK_copy>:
	...

04008053 <t2_taskA3_FH_TUERMODUL__BLOCK>:
	...

04008054 <t2_taskA3_FH_TUERMODUL__KL_50>:
	...

04008055 <t2_taskA3_FH_TUERMODUL__SFHA_MEC_old>:
	...

04008056 <t2_taskA3_FH_TUERMODUL__SFHA_MEC>:
	...

04008057 <t2_taskA3_FH_TUERMODUL__SFHA_ZENTRAL_old>:
	...

04008058 <t2_taskA3_FH_TUERMODUL__SFHA_ZENTRAL>:
	...

04008059 <t2_taskA3_FH_TUERMODUL__SFHZ_MEC_old>:
	...

0400805a <t2_taskA3_FH_TUERMODUL__SFHZ_MEC>:
	...

0400805b <t2_taskA3_FH_TUERMODUL__SFHZ_ZENTRAL_old>:
	...

0400805c <t2_taskA3_FH_TUERMODUL__SFHZ_ZENTRAL>:
	...

0400805d <t2_taskA3_FH_TUERMODUL_CTRL__FT>:
	...

0400805e <t2_taskA3_FH_TUERMODUL_CTRL__INREVERS1_copy>:
	...

0400805f <t2_taskA3_FH_TUERMODUL_CTRL__INREVERS1>:
	...

04008060 <t2_taskA3_FH_TUERMODUL_CTRL__INREVERS2_copy>:
	...

04008061 <t2_taskA3_FH_TUERMODUL_CTRL__INREVERS2>:
 4008061:	0000      	nop
	...

04008064 <t2_taskA3_BLOCK_ERKENNUNG_CTRL__N_old>:
 4008064:	0000      	nop
	...

04008068 <t2_taskA3_BLOCK_ERKENNUNG_CTRL__N_copy>:
 4008068:	0000      	nop
	...

0400806c <t2_taskA3_BLOCK_ERKENNUNG_CTRL__N>:
 400806c:	0000      	nop
	...

04008070 <t2_taskA3_BLOCK_ERKENNUNG_CTRL__I_EIN_MAX_copy>:
 4008070:	0000      	nop
	...

04008074 <t2_taskA3_BLOCK_ERKENNUNG_CTRL__I_EIN_MAX>:
 4008074:	0000      	nop
	...

04008078 <t2_taskA3_FH_DU__I_EIN_old>:
 4008078:	0000      	nop
	...

0400807c <t2_taskA3_FH_DU__I_EIN>:
 400807c:	0000      	nop
	...

04008080 <t2_taskA3_FH_DU__POSITION>:
 4008080:	0000      	nop
	...

04008084 <t2_taskA3_FH_DU__MFH_copy>:
 4008084:	0000      	nop
	...

04008088 <t2_taskA3_FH_DU__MFH>:
 4008088:	0000      	nop
	...

0400808c <t2_taskA3_FH_TUERMODUL__I_EIN_old>:
 400808c:	0000      	nop
	...

04008090 <t2_taskA3_FH_TUERMODUL__I_EIN>:
 4008090:	0000      	nop
	...

04008094 <t2_taskA3_FH_TUERMODUL__POSITION>:
 4008094:	0000      	nop
	...

04008098 <t2_taskA3_sc_FH_TUERMODUL_CTRL_1739_10>:
 4008098:	0000      	nop
	...

0400809c <t2_taskA3_sc_FH_TUERMODUL_CTRL_1781_10>:
 400809c:	0000      	nop
	...

040080a0 <t2_taskA3_FH_TUERMODUL_CTRL__N_old>:
 40080a0:	0000      	nop
	...

040080a4 <t2_taskA3_FH_TUERMODUL_CTRL__N_copy>:
 40080a4:	0000      	nop
	...

040080a8 <t2_taskA3_FH_TUERMODUL_CTRL__N>:
 40080a8:	0000      	nop
	...

040080ac <t2_taskA3_sc_FH_TUERMODUL_CTRL_2329_1>:
 40080ac:	0000      	nop
	...

040080b0 <t2_taskA3_sc_FH_TUERMODUL_CTRL_2352_1>:
 40080b0:	0000      	nop
	...

040080b4 <t2_taskA3_sc_FH_TUERMODUL_CTRL_2375_2>:
 40080b4:	0000      	nop
	...

040080b8 <t2_taskA3_tm_entered_WIEDERHOLSPERRE_FH_TUERMODUL_CTRL>:
 40080b8:	0000      	nop
	...

040080bc <t2_taskA3_tm_entered_WIEDERHOLSPERRE_FH_TUERMODUL_CTRLexited_BEREIT_FH_TUERMODUL_CTRL>:
 40080bc:	0000      	nop
	...

040080c0 <t2_taskA3_tm_entered_EINSCHALTSTROM_MESSEN_BLOCK_ERKENNUNG_CTRLch_BLOCK_ERKENNUNG_CTRL__N_copy>:
 40080c0:	0000      	nop
	...

040080c4 <t2_taskA3_Bitlist>:
	...

0400c000 <t3_exception_ns_l>:
 400c000:	0000      	nop
	...

0400c004 <t3_exception_ns_h>:
 400c004:	0000      	nop
	...

0400c008 <t3_exception_handler>:
 400c008:	0000      	nop
	...

0400c00c <t3_taskA4_BLOCK_ERKENNUNG_CTRL_BLOCK_ERKENNUNG_CTRL_next_state>:
	...

0400c00d <t3_taskA4_BEWEGUNG_BLOCK_ERKENNUNG_CTRL_next_state>:
	...

0400c00e <t3_taskA4_EINKLEMMSCHUTZ_CTRL_EINKLEMMSCHUTZ_CTRL_next_state>:
	...

0400c00f <t3_taskA4_FH_STEUERUNG_DUMMY_FH_STEUERUNG_DUMMY_next_state>:
	...

0400c010 <t3_taskA4_SCHLIESSEN_FH_TUERMODUL_CTRL_next_state>:
	...

0400c011 <t3_taskA4_OEFFNEN_FH_TUERMODUL_CTRL_next_state>:
	...

0400c012 <t3_taskA4_MANUELL_SCHLIESSEN_FH_TUERMODUL_CTRL_next_state>:
	...

0400c013 <t3_taskA4_TIPP_SCHLIESSEN_FH_TUERMODUL_CTRL_next_state>:
	...

0400c014 <t3_taskA4_INITIALISIERT_FH_TUERMODUL_CTRL_next_state>:
	...

0400c015 <t3_taskA4_WIEDERHOLSPERRE_FH_TUERMODUL_CTRL_next_state>:
	...

0400c016 <t3_taskA4_A_FH_TUERMODUL_CTRL_next_state>:
	...

0400c017 <t3_taskA4_B_FH_TUERMODUL_CTRL_next_state>:
	...

0400c018 <t3_taskA4_KINDERSICHERUNG_CTRL_KINDERSICHERUNG_CTRL_next_state>:
	...

0400c019 <t3_taskA4_MEC_KINDERSICHERUNG_CTRL_next_state>:
	...

0400c01a <t3_taskA4_ZENTRAL_KINDERSICHERUNG_CTRL_next_state>:
	...

0400c01b <t3_taskA4_NICHT_INITIALISIERT_NICHT_INITIALISIERT_next_state>:
	...

0400c01c <t3_taskA4_step>:
	...

0400c01d <t3_taskA4_stable>:
 400c01d:	0000      	nop
	...

0400c020 <t3_taskA4_time>:
 400c020:	0000      	nop
	...

0400c024 <t3_taskA4_FH_DU__MFHA_old>:
	...

0400c025 <t3_taskA4_FH_DU__MFHA_copy>:
	...

0400c026 <t3_taskA4_FH_DU__MFHA>:
	...

0400c027 <t3_taskA4_FH_DU__MFHZ_old>:
	...

0400c028 <t3_taskA4_FH_DU__MFHZ_copy>:
	...

0400c029 <t3_taskA4_FH_DU__MFHZ>:
	...

0400c02a <t3_taskA4_FH_DU__BLOCK_old>:
	...

0400c02b <t3_taskA4_FH_DU__BLOCK_copy>:
	...

0400c02c <t3_taskA4_FH_DU__BLOCK>:
	...

0400c02d <t3_taskA4_FH_DU__DOOR_ID>:
	...

0400c02e <t3_taskA4_FH_DU__S_FH_AUFDISC>:
	...

0400c02f <t3_taskA4_FH_DU__S_FH_ZUDISC>:
	...

0400c030 <t3_taskA4_FH_DU__S_FH_TMBFAUFDISC_old>:
	...

0400c031 <t3_taskA4_FH_DU__S_FH_TMBFAUFDISC>:
	...

0400c032 <t3_taskA4_FH_DU__S_FH_TMBFZUDISC_old>:
	...

0400c033 <t3_taskA4_FH_DU__S_FH_TMBFZUDISC>:
	...

0400c034 <t3_taskA4_FH_DU__S_FH_TMBFZUCAN_old>:
	...

0400c035 <t3_taskA4_FH_DU__S_FH_TMBFZUCAN_copy>:
	...

0400c036 <t3_taskA4_FH_DU__S_FH_TMBFZUCAN>:
	...

0400c037 <t3_taskA4_FH_DU__S_FH_TMBFAUFCAN_old>:
	...

0400c038 <t3_taskA4_FH_DU__S_FH_TMBFAUFCAN_copy>:
	...

0400c039 <t3_taskA4_FH_DU__S_FH_TMBFAUFCAN>:
	...

0400c03a <t3_taskA4_FH_DU__EKS_LEISTE_AKTIV_old>:
	...

0400c03b <t3_taskA4_FH_DU__EKS_LEISTE_AKTIV>:
	...

0400c03c <t3_taskA4_FH_DU__FT>:
	...

0400c03d <t3_taskA4_FH_DU__S_FH_FTAUF>:
	...

0400c03e <t3_taskA4_FH_DU__S_FH_FTZU>:
	...

0400c03f <t3_taskA4_FH_DU__KL_50>:
	...

0400c040 <t3_taskA4_FH_TUERMODUL__COM_CLOSE>:
	...

0400c041 <t3_taskA4_FH_TUERMODUL__COM_OPEN>:
	...

0400c042 <t3_taskA4_FH_TUERMODUL__EKS_LEISTE_AKTIV_old>:
	...

0400c043 <t3_taskA4_FH_TUERMODUL__EKS_LEISTE_AKTIV>:
	...

0400c044 <t3_taskA4_FH_TUERMODUL__MFHA_old>:
	...

0400c045 <t3_taskA4_FH_TUERMODUL__MFHA_copy>:
	...

0400c046 <t3_taskA4_FH_TUERMODUL__MFHA>:
	...

0400c047 <t3_taskA4_FH_TUERMODUL__MFHZ_old>:
	...

0400c048 <t3_taskA4_FH_TUERMODUL__MFHZ_copy>:
	...

0400c049 <t3_taskA4_FH_TUERMODUL__MFHZ>:
	...

0400c04a <t3_taskA4_FH_TUERMODUL__SFHA_old>:
	...

0400c04b <t3_taskA4_FH_TUERMODUL__SFHA_copy>:
	...

0400c04c <t3_taskA4_FH_TUERMODUL__SFHA>:
	...

0400c04d <t3_taskA4_FH_TUERMODUL__SFHZ_old>:
	...

0400c04e <t3_taskA4_FH_TUERMODUL__SFHZ_copy>:
	...

0400c04f <t3_taskA4_FH_TUERMODUL__SFHZ>:
	...

0400c050 <t3_taskA4_FH_TUERMODUL__FT>:
	...

0400c051 <t3_taskA4_FH_TUERMODUL__BLOCK_old>:
	...

0400c052 <t3_taskA4_FH_TUERMODUL__BLOCK_copy>:
	...

0400c053 <t3_taskA4_FH_TUERMODUL__BLOCK>:
	...

0400c054 <t3_taskA4_FH_TUERMODUL__KL_50>:
	...

0400c055 <t3_taskA4_FH_TUERMODUL__SFHA_MEC_old>:
	...

0400c056 <t3_taskA4_FH_TUERMODUL__SFHA_MEC>:
	...

0400c057 <t3_taskA4_FH_TUERMODUL__SFHA_ZENTRAL_old>:
	...

0400c058 <t3_taskA4_FH_TUERMODUL__SFHA_ZENTRAL>:
	...

0400c059 <t3_taskA4_FH_TUERMODUL__SFHZ_MEC_old>:
	...

0400c05a <t3_taskA4_FH_TUERMODUL__SFHZ_MEC>:
	...

0400c05b <t3_taskA4_FH_TUERMODUL__SFHZ_ZENTRAL_old>:
	...

0400c05c <t3_taskA4_FH_TUERMODUL__SFHZ_ZENTRAL>:
	...

0400c05d <t3_taskA4_FH_TUERMODUL_CTRL__FT>:
	...

0400c05e <t3_taskA4_FH_TUERMODUL_CTRL__INREVERS1_copy>:
	...

0400c05f <t3_taskA4_FH_TUERMODUL_CTRL__INREVERS1>:
	...

0400c060 <t3_taskA4_FH_TUERMODUL_CTRL__INREVERS2_copy>:
	...

0400c061 <t3_taskA4_FH_TUERMODUL_CTRL__INREVERS2>:
 400c061:	0000      	nop
	...

0400c064 <t3_taskA4_BLOCK_ERKENNUNG_CTRL__N_old>:
 400c064:	0000      	nop
	...

0400c068 <t3_taskA4_BLOCK_ERKENNUNG_CTRL__N_copy>:
 400c068:	0000      	nop
	...

0400c06c <t3_taskA4_BLOCK_ERKENNUNG_CTRL__N>:
 400c06c:	0000      	nop
	...

0400c070 <t3_taskA4_BLOCK_ERKENNUNG_CTRL__I_EIN_MAX_copy>:
 400c070:	0000      	nop
	...

0400c074 <t3_taskA4_BLOCK_ERKENNUNG_CTRL__I_EIN_MAX>:
 400c074:	0000      	nop
	...

0400c078 <t3_taskA4_FH_DU__I_EIN_old>:
 400c078:	0000      	nop
	...

0400c07c <t3_taskA4_FH_DU__I_EIN>:
 400c07c:	0000      	nop
	...

0400c080 <t3_taskA4_FH_DU__POSITION>:
 400c080:	0000      	nop
	...

0400c084 <t3_taskA4_FH_DU__MFH_copy>:
 400c084:	0000      	nop
	...

0400c088 <t3_taskA4_FH_DU__MFH>:
 400c088:	0000      	nop
	...

0400c08c <t3_taskA4_FH_TUERMODUL__I_EIN_old>:
 400c08c:	0000      	nop
	...

0400c090 <t3_taskA4_FH_TUERMODUL__I_EIN>:
 400c090:	0000      	nop
	...

0400c094 <t3_taskA4_FH_TUERMODUL__POSITION>:
 400c094:	0000      	nop
	...

0400c098 <t3_taskA4_sc_FH_TUERMODUL_CTRL_1739_10>:
 400c098:	0000      	nop
	...

0400c09c <t3_taskA4_sc_FH_TUERMODUL_CTRL_1781_10>:
 400c09c:	0000      	nop
	...

0400c0a0 <t3_taskA4_FH_TUERMODUL_CTRL__N_old>:
 400c0a0:	0000      	nop
	...

0400c0a4 <t3_taskA4_FH_TUERMODUL_CTRL__N_copy>:
 400c0a4:	0000      	nop
	...

0400c0a8 <t3_taskA4_FH_TUERMODUL_CTRL__N>:
 400c0a8:	0000      	nop
	...

0400c0ac <t3_taskA4_sc_FH_TUERMODUL_CTRL_2329_1>:
 400c0ac:	0000      	nop
	...

0400c0b0 <t3_taskA4_sc_FH_TUERMODUL_CTRL_2352_1>:
 400c0b0:	0000      	nop
	...

0400c0b4 <t3_taskA4_sc_FH_TUERMODUL_CTRL_2375_2>:
 400c0b4:	0000      	nop
	...

0400c0b8 <t3_taskA4_tm_entered_WIEDERHOLSPERRE_FH_TUERMODUL_CTRL>:
 400c0b8:	0000      	nop
	...

0400c0bc <t3_taskA4_tm_entered_WIEDERHOLSPERRE_FH_TUERMODUL_CTRLexited_BEREIT_FH_TUERMODUL_CTRL>:
 400c0bc:	0000      	nop
	...

0400c0c0 <t3_taskA4_tm_entered_EINSCHALTSTROM_MESSEN_BLOCK_ERKENNUNG_CTRLch_BLOCK_ERKENNUNG_CTRL__N_copy>:
 400c0c0:	0000      	nop
	...

0400c0c4 <t3_taskA4_Bitlist>:
	...

04010000 <t4_exception_ns_l>:
 4010000:	0000      	nop
	...

04010004 <t4_exception_ns_h>:
 4010004:	0000      	nop
	...

04010008 <t4_exception_handler>:
 4010008:	0000      	nop
	...

0401000c <t4_taskB1_BLOCK_ERKENNUNG_CTRL_BLOCK_ERKENNUNG_CTRL_next_state>:
	...

0401000d <t4_taskB1_BEWEGUNG_BLOCK_ERKENNUNG_CTRL_next_state>:
	...

0401000e <t4_taskB1_EINKLEMMSCHUTZ_CTRL_EINKLEMMSCHUTZ_CTRL_next_state>:
	...

0401000f <t4_taskB1_FH_STEUERUNG_DUMMY_FH_STEUERUNG_DUMMY_next_state>:
	...

04010010 <t4_taskB1_SCHLIESSEN_FH_TUERMODUL_CTRL_next_state>:
	...

04010011 <t4_taskB1_OEFFNEN_FH_TUERMODUL_CTRL_next_state>:
	...

04010012 <t4_taskB1_MANUELL_SCHLIESSEN_FH_TUERMODUL_CTRL_next_state>:
	...

04010013 <t4_taskB1_TIPP_SCHLIESSEN_FH_TUERMODUL_CTRL_next_state>:
	...

04010014 <t4_taskB1_INITIALISIERT_FH_TUERMODUL_CTRL_next_state>:
	...

04010015 <t4_taskB1_WIEDERHOLSPERRE_FH_TUERMODUL_CTRL_next_state>:
	...

04010016 <t4_taskB1_A_FH_TUERMODUL_CTRL_next_state>:
	...

04010017 <t4_taskB1_B_FH_TUERMODUL_CTRL_next_state>:
	...

04010018 <t4_taskB1_KINDERSICHERUNG_CTRL_KINDERSICHERUNG_CTRL_next_state>:
	...

04010019 <t4_taskB1_MEC_KINDERSICHERUNG_CTRL_next_state>:
	...

0401001a <t4_taskB1_ZENTRAL_KINDERSICHERUNG_CTRL_next_state>:
	...

0401001b <t4_taskB1_NICHT_INITIALISIERT_NICHT_INITIALISIERT_next_state>:
	...

0401001c <t4_taskB1_step>:
	...

0401001d <t4_taskB1_stable>:
 401001d:	0000      	nop
	...

04010020 <t4_taskB1_time>:
 4010020:	0000      	nop
	...

04010024 <t4_taskB1_FH_DU__MFHA_old>:
	...

04010025 <t4_taskB1_FH_DU__MFHA_copy>:
	...

04010026 <t4_taskB1_FH_DU__MFHA>:
	...

04010027 <t4_taskB1_FH_DU__MFHZ_old>:
	...

04010028 <t4_taskB1_FH_DU__MFHZ_copy>:
	...

04010029 <t4_taskB1_FH_DU__MFHZ>:
	...

0401002a <t4_taskB1_FH_DU__BLOCK_old>:
	...

0401002b <t4_taskB1_FH_DU__BLOCK_copy>:
	...

0401002c <t4_taskB1_FH_DU__BLOCK>:
	...

0401002d <t4_taskB1_FH_DU__DOOR_ID>:
	...

0401002e <t4_taskB1_FH_DU__S_FH_AUFDISC>:
	...

0401002f <t4_taskB1_FH_DU__S_FH_ZUDISC>:
	...

04010030 <t4_taskB1_FH_DU__S_FH_TMBFAUFDISC_old>:
	...

04010031 <t4_taskB1_FH_DU__S_FH_TMBFAUFDISC>:
	...

04010032 <t4_taskB1_FH_DU__S_FH_TMBFZUDISC_old>:
	...

04010033 <t4_taskB1_FH_DU__S_FH_TMBFZUDISC>:
	...

04010034 <t4_taskB1_FH_DU__S_FH_TMBFZUCAN_old>:
	...

04010035 <t4_taskB1_FH_DU__S_FH_TMBFZUCAN_copy>:
	...

04010036 <t4_taskB1_FH_DU__S_FH_TMBFZUCAN>:
	...

04010037 <t4_taskB1_FH_DU__S_FH_TMBFAUFCAN_old>:
	...

04010038 <t4_taskB1_FH_DU__S_FH_TMBFAUFCAN_copy>:
	...

04010039 <t4_taskB1_FH_DU__S_FH_TMBFAUFCAN>:
	...

0401003a <t4_taskB1_FH_DU__EKS_LEISTE_AKTIV_old>:
	...

0401003b <t4_taskB1_FH_DU__EKS_LEISTE_AKTIV>:
	...

0401003c <t4_taskB1_FH_DU__FT>:
	...

0401003d <t4_taskB1_FH_DU__S_FH_FTAUF>:
	...

0401003e <t4_taskB1_FH_DU__S_FH_FTZU>:
	...

0401003f <t4_taskB1_FH_DU__KL_50>:
	...

04010040 <t4_taskB1_FH_TUERMODUL__COM_CLOSE>:
	...

04010041 <t4_taskB1_FH_TUERMODUL__COM_OPEN>:
	...

04010042 <t4_taskB1_FH_TUERMODUL__EKS_LEISTE_AKTIV_old>:
	...

04010043 <t4_taskB1_FH_TUERMODUL__EKS_LEISTE_AKTIV>:
	...

04010044 <t4_taskB1_FH_TUERMODUL__MFHA_old>:
	...

04010045 <t4_taskB1_FH_TUERMODUL__MFHA_copy>:
	...

04010046 <t4_taskB1_FH_TUERMODUL__MFHA>:
	...

04010047 <t4_taskB1_FH_TUERMODUL__MFHZ_old>:
	...

04010048 <t4_taskB1_FH_TUERMODUL__MFHZ_copy>:
	...

04010049 <t4_taskB1_FH_TUERMODUL__MFHZ>:
	...

0401004a <t4_taskB1_FH_TUERMODUL__SFHA_old>:
	...

0401004b <t4_taskB1_FH_TUERMODUL__SFHA_copy>:
	...

0401004c <t4_taskB1_FH_TUERMODUL__SFHA>:
	...

0401004d <t4_taskB1_FH_TUERMODUL__SFHZ_old>:
	...

0401004e <t4_taskB1_FH_TUERMODUL__SFHZ_copy>:
	...

0401004f <t4_taskB1_FH_TUERMODUL__SFHZ>:
	...

04010050 <t4_taskB1_FH_TUERMODUL__FT>:
	...

04010051 <t4_taskB1_FH_TUERMODUL__BLOCK_old>:
	...

04010052 <t4_taskB1_FH_TUERMODUL__BLOCK_copy>:
	...

04010053 <t4_taskB1_FH_TUERMODUL__BLOCK>:
	...

04010054 <t4_taskB1_FH_TUERMODUL__KL_50>:
	...

04010055 <t4_taskB1_FH_TUERMODUL__SFHA_MEC_old>:
	...

04010056 <t4_taskB1_FH_TUERMODUL__SFHA_MEC>:
	...

04010057 <t4_taskB1_FH_TUERMODUL__SFHA_ZENTRAL_old>:
	...

04010058 <t4_taskB1_FH_TUERMODUL__SFHA_ZENTRAL>:
	...

04010059 <t4_taskB1_FH_TUERMODUL__SFHZ_MEC_old>:
	...

0401005a <t4_taskB1_FH_TUERMODUL__SFHZ_MEC>:
	...

0401005b <t4_taskB1_FH_TUERMODUL__SFHZ_ZENTRAL_old>:
	...

0401005c <t4_taskB1_FH_TUERMODUL__SFHZ_ZENTRAL>:
	...

0401005d <t4_taskB1_FH_TUERMODUL_CTRL__FT>:
	...

0401005e <t4_taskB1_FH_TUERMODUL_CTRL__INREVERS1_copy>:
	...

0401005f <t4_taskB1_FH_TUERMODUL_CTRL__INREVERS1>:
	...

04010060 <t4_taskB1_FH_TUERMODUL_CTRL__INREVERS2_copy>:
	...

04010061 <t4_taskB1_FH_TUERMODUL_CTRL__INREVERS2>:
 4010061:	0000      	nop
	...

04010064 <t4_taskB1_BLOCK_ERKENNUNG_CTRL__N_old>:
 4010064:	0000      	nop
	...

04010068 <t4_taskB1_BLOCK_ERKENNUNG_CTRL__N_copy>:
 4010068:	0000      	nop
	...

0401006c <t4_taskB1_BLOCK_ERKENNUNG_CTRL__N>:
 401006c:	0000      	nop
	...

04010070 <t4_taskB1_BLOCK_ERKENNUNG_CTRL__I_EIN_MAX_copy>:
 4010070:	0000      	nop
	...

04010074 <t4_taskB1_BLOCK_ERKENNUNG_CTRL__I_EIN_MAX>:
 4010074:	0000      	nop
	...

04010078 <t4_taskB1_FH_DU__I_EIN_old>:
 4010078:	0000      	nop
	...

0401007c <t4_taskB1_FH_DU__I_EIN>:
 401007c:	0000      	nop
	...

04010080 <t4_taskB1_FH_DU__POSITION>:
 4010080:	0000      	nop
	...

04010084 <t4_taskB1_FH_DU__MFH_copy>:
 4010084:	0000      	nop
	...

04010088 <t4_taskB1_FH_DU__MFH>:
 4010088:	0000      	nop
	...

0401008c <t4_taskB1_FH_TUERMODUL__I_EIN_old>:
 401008c:	0000      	nop
	...

04010090 <t4_taskB1_FH_TUERMODUL__I_EIN>:
 4010090:	0000      	nop
	...

04010094 <t4_taskB1_FH_TUERMODUL__POSITION>:
 4010094:	0000      	nop
	...

04010098 <t4_taskB1_sc_FH_TUERMODUL_CTRL_1739_10>:
 4010098:	0000      	nop
	...

0401009c <t4_taskB1_sc_FH_TUERMODUL_CTRL_1781_10>:
 401009c:	0000      	nop
	...

040100a0 <t4_taskB1_FH_TUERMODUL_CTRL__N_old>:
 40100a0:	0000      	nop
	...

040100a4 <t4_taskB1_FH_TUERMODUL_CTRL__N_copy>:
 40100a4:	0000      	nop
	...

040100a8 <t4_taskB1_FH_TUERMODUL_CTRL__N>:
 40100a8:	0000      	nop
	...

040100ac <t4_taskB1_sc_FH_TUERMODUL_CTRL_2329_1>:
 40100ac:	0000      	nop
	...

040100b0 <t4_taskB1_sc_FH_TUERMODUL_CTRL_2352_1>:
 40100b0:	0000      	nop
	...

040100b4 <t4_taskB1_sc_FH_TUERMODUL_CTRL_2375_2>:
 40100b4:	0000      	nop
	...

040100b8 <t4_taskB1_tm_entered_WIEDERHOLSPERRE_FH_TUERMODUL_CTRL>:
 40100b8:	0000      	nop
	...

040100bc <t4_taskB1_tm_entered_WIEDERHOLSPERRE_FH_TUERMODUL_CTRLexited_BEREIT_FH_TUERMODUL_CTRL>:
 40100bc:	0000      	nop
	...

040100c0 <t4_taskB1_tm_entered_EINSCHALTSTROM_MESSEN_BLOCK_ERKENNUNG_CTRLch_BLOCK_ERKENNUNG_CTRL__N_copy>:
 40100c0:	0000      	nop
	...

040100c4 <t4_taskB1_Bitlist>:
	...

04010104 <t4_taskB2_BLOCK_ERKENNUNG_CTRL_BLOCK_ERKENNUNG_CTRL_next_state>:
	...

04010105 <t4_taskB2_BEWEGUNG_BLOCK_ERKENNUNG_CTRL_next_state>:
	...

04010106 <t4_taskB2_EINKLEMMSCHUTZ_CTRL_EINKLEMMSCHUTZ_CTRL_next_state>:
	...

04010107 <t4_taskB2_FH_STEUERUNG_DUMMY_FH_STEUERUNG_DUMMY_next_state>:
	...

04010108 <t4_taskB2_SCHLIESSEN_FH_TUERMODUL_CTRL_next_state>:
	...

04010109 <t4_taskB2_OEFFNEN_FH_TUERMODUL_CTRL_next_state>:
	...

0401010a <t4_taskB2_MANUELL_SCHLIESSEN_FH_TUERMODUL_CTRL_next_state>:
	...

0401010b <t4_taskB2_TIPP_SCHLIESSEN_FH_TUERMODUL_CTRL_next_state>:
	...

0401010c <t4_taskB2_INITIALISIERT_FH_TUERMODUL_CTRL_next_state>:
	...

0401010d <t4_taskB2_WIEDERHOLSPERRE_FH_TUERMODUL_CTRL_next_state>:
	...

0401010e <t4_taskB2_A_FH_TUERMODUL_CTRL_next_state>:
	...

0401010f <t4_taskB2_B_FH_TUERMODUL_CTRL_next_state>:
	...

04010110 <t4_taskB2_KINDERSICHERUNG_CTRL_KINDERSICHERUNG_CTRL_next_state>:
	...

04010111 <t4_taskB2_MEC_KINDERSICHERUNG_CTRL_next_state>:
	...

04010112 <t4_taskB2_ZENTRAL_KINDERSICHERUNG_CTRL_next_state>:
	...

04010113 <t4_taskB2_NICHT_INITIALISIERT_NICHT_INITIALISIERT_next_state>:
	...

04010114 <t4_taskB2_step>:
	...

04010115 <t4_taskB2_stable>:
 4010115:	0000      	nop
	...

04010118 <t4_taskB2_time>:
 4010118:	0000      	nop
	...

0401011c <t4_taskB2_FH_DU__MFHA_old>:
	...

0401011d <t4_taskB2_FH_DU__MFHA_copy>:
	...

0401011e <t4_taskB2_FH_DU__MFHA>:
	...

0401011f <t4_taskB2_FH_DU__MFHZ_old>:
	...

04010120 <t4_taskB2_FH_DU__MFHZ_copy>:
	...

04010121 <t4_taskB2_FH_DU__MFHZ>:
	...

04010122 <t4_taskB2_FH_DU__BLOCK_old>:
	...

04010123 <t4_taskB2_FH_DU__BLOCK_copy>:
	...

04010124 <t4_taskB2_FH_DU__BLOCK>:
	...

04010125 <t4_taskB2_FH_DU__DOOR_ID>:
	...

04010126 <t4_taskB2_FH_DU__S_FH_AUFDISC>:
	...

04010127 <t4_taskB2_FH_DU__S_FH_ZUDISC>:
	...

04010128 <t4_taskB2_FH_DU__S_FH_TMBFAUFDISC_old>:
	...

04010129 <t4_taskB2_FH_DU__S_FH_TMBFAUFDISC>:
	...

0401012a <t4_taskB2_FH_DU__S_FH_TMBFZUDISC_old>:
	...

0401012b <t4_taskB2_FH_DU__S_FH_TMBFZUDISC>:
	...

0401012c <t4_taskB2_FH_DU__S_FH_TMBFZUCAN_old>:
	...

0401012d <t4_taskB2_FH_DU__S_FH_TMBFZUCAN_copy>:
	...

0401012e <t4_taskB2_FH_DU__S_FH_TMBFZUCAN>:
	...

0401012f <t4_taskB2_FH_DU__S_FH_TMBFAUFCAN_old>:
	...

04010130 <t4_taskB2_FH_DU__S_FH_TMBFAUFCAN_copy>:
	...

04010131 <t4_taskB2_FH_DU__S_FH_TMBFAUFCAN>:
	...

04010132 <t4_taskB2_FH_DU__EKS_LEISTE_AKTIV_old>:
	...

04010133 <t4_taskB2_FH_DU__EKS_LEISTE_AKTIV>:
	...

04010134 <t4_taskB2_FH_DU__FT>:
	...

04010135 <t4_taskB2_FH_DU__S_FH_FTAUF>:
	...

04010136 <t4_taskB2_FH_DU__S_FH_FTZU>:
	...

04010137 <t4_taskB2_FH_DU__KL_50>:
	...

04010138 <t4_taskB2_FH_TUERMODUL__COM_CLOSE>:
	...

04010139 <t4_taskB2_FH_TUERMODUL__COM_OPEN>:
	...

0401013a <t4_taskB2_FH_TUERMODUL__EKS_LEISTE_AKTIV_old>:
	...

0401013b <t4_taskB2_FH_TUERMODUL__EKS_LEISTE_AKTIV>:
	...

0401013c <t4_taskB2_FH_TUERMODUL__MFHA_old>:
	...

0401013d <t4_taskB2_FH_TUERMODUL__MFHA_copy>:
	...

0401013e <t4_taskB2_FH_TUERMODUL__MFHA>:
	...

0401013f <t4_taskB2_FH_TUERMODUL__MFHZ_old>:
	...

04010140 <t4_taskB2_FH_TUERMODUL__MFHZ_copy>:
	...

04010141 <t4_taskB2_FH_TUERMODUL__MFHZ>:
	...

04010142 <t4_taskB2_FH_TUERMODUL__SFHA_old>:
	...

04010143 <t4_taskB2_FH_TUERMODUL__SFHA_copy>:
	...

04010144 <t4_taskB2_FH_TUERMODUL__SFHA>:
	...

04010145 <t4_taskB2_FH_TUERMODUL__SFHZ_old>:
	...

04010146 <t4_taskB2_FH_TUERMODUL__SFHZ_copy>:
	...

04010147 <t4_taskB2_FH_TUERMODUL__SFHZ>:
	...

04010148 <t4_taskB2_FH_TUERMODUL__FT>:
	...

04010149 <t4_taskB2_FH_TUERMODUL__BLOCK_old>:
	...

0401014a <t4_taskB2_FH_TUERMODUL__BLOCK_copy>:
	...

0401014b <t4_taskB2_FH_TUERMODUL__BLOCK>:
	...

0401014c <t4_taskB2_FH_TUERMODUL__KL_50>:
	...

0401014d <t4_taskB2_FH_TUERMODUL__SFHA_MEC_old>:
	...

0401014e <t4_taskB2_FH_TUERMODUL__SFHA_MEC>:
	...

0401014f <t4_taskB2_FH_TUERMODUL__SFHA_ZENTRAL_old>:
	...

04010150 <t4_taskB2_FH_TUERMODUL__SFHA_ZENTRAL>:
	...

04010151 <t4_taskB2_FH_TUERMODUL__SFHZ_MEC_old>:
	...

04010152 <t4_taskB2_FH_TUERMODUL__SFHZ_MEC>:
	...

04010153 <t4_taskB2_FH_TUERMODUL__SFHZ_ZENTRAL_old>:
	...

04010154 <t4_taskB2_FH_TUERMODUL__SFHZ_ZENTRAL>:
	...

04010155 <t4_taskB2_FH_TUERMODUL_CTRL__FT>:
	...

04010156 <t4_taskB2_FH_TUERMODUL_CTRL__INREVERS1_copy>:
	...

04010157 <t4_taskB2_FH_TUERMODUL_CTRL__INREVERS1>:
	...

04010158 <t4_taskB2_FH_TUERMODUL_CTRL__INREVERS2_copy>:
	...

04010159 <t4_taskB2_FH_TUERMODUL_CTRL__INREVERS2>:
 4010159:	0000      	nop
	...

0401015c <t4_taskB2_BLOCK_ERKENNUNG_CTRL__N_old>:
 401015c:	0000      	nop
	...

04010160 <t4_taskB2_BLOCK_ERKENNUNG_CTRL__N_copy>:
 4010160:	0000      	nop
	...

04010164 <t4_taskB2_BLOCK_ERKENNUNG_CTRL__N>:
 4010164:	0000      	nop
	...

04010168 <t4_taskB2_BLOCK_ERKENNUNG_CTRL__I_EIN_MAX_copy>:
 4010168:	0000      	nop
	...

0401016c <t4_taskB2_BLOCK_ERKENNUNG_CTRL__I_EIN_MAX>:
 401016c:	0000      	nop
	...

04010170 <t4_taskB2_FH_DU__I_EIN_old>:
 4010170:	0000      	nop
	...

04010174 <t4_taskB2_FH_DU__I_EIN>:
 4010174:	0000      	nop
	...

04010178 <t4_taskB2_FH_DU__POSITION>:
 4010178:	0000      	nop
	...

0401017c <t4_taskB2_FH_DU__MFH_copy>:
 401017c:	0000      	nop
	...

04010180 <t4_taskB2_FH_DU__MFH>:
 4010180:	0000      	nop
	...

04010184 <t4_taskB2_FH_TUERMODUL__I_EIN_old>:
 4010184:	0000      	nop
	...

04010188 <t4_taskB2_FH_TUERMODUL__I_EIN>:
 4010188:	0000      	nop
	...

0401018c <t4_taskB2_FH_TUERMODUL__POSITION>:
 401018c:	0000      	nop
	...

04010190 <t4_taskB2_sc_FH_TUERMODUL_CTRL_1739_10>:
 4010190:	0000      	nop
	...

04010194 <t4_taskB2_sc_FH_TUERMODUL_CTRL_1781_10>:
 4010194:	0000      	nop
	...

04010198 <t4_taskB2_FH_TUERMODUL_CTRL__N_old>:
 4010198:	0000      	nop
	...

0401019c <t4_taskB2_FH_TUERMODUL_CTRL__N_copy>:
 401019c:	0000      	nop
	...

040101a0 <t4_taskB2_FH_TUERMODUL_CTRL__N>:
 40101a0:	0000      	nop
	...

040101a4 <t4_taskB2_sc_FH_TUERMODUL_CTRL_2329_1>:
 40101a4:	0000      	nop
	...

040101a8 <t4_taskB2_sc_FH_TUERMODUL_CTRL_2352_1>:
 40101a8:	0000      	nop
	...

040101ac <t4_taskB2_sc_FH_TUERMODUL_CTRL_2375_2>:
 40101ac:	0000      	nop
	...

040101b0 <t4_taskB2_tm_entered_WIEDERHOLSPERRE_FH_TUERMODUL_CTRL>:
 40101b0:	0000      	nop
	...

040101b4 <t4_taskB2_tm_entered_WIEDERHOLSPERRE_FH_TUERMODUL_CTRLexited_BEREIT_FH_TUERMODUL_CTRL>:
 40101b4:	0000      	nop
	...

040101b8 <t4_taskB2_tm_entered_EINSCHALTSTROM_MESSEN_BLOCK_ERKENNUNG_CTRLch_BLOCK_ERKENNUNG_CTRL__N_copy>:
 40101b8:	0000      	nop
	...

040101bc <t4_taskB2_Bitlist>:
	...

040101fc <t4_taskB3_BLOCK_ERKENNUNG_CTRL_BLOCK_ERKENNUNG_CTRL_next_state>:
	...

040101fd <t4_taskB3_BEWEGUNG_BLOCK_ERKENNUNG_CTRL_next_state>:
	...

040101fe <t4_taskB3_EINKLEMMSCHUTZ_CTRL_EINKLEMMSCHUTZ_CTRL_next_state>:
	...

040101ff <t4_taskB3_FH_STEUERUNG_DUMMY_FH_STEUERUNG_DUMMY_next_state>:
	...

04010200 <t4_taskB3_SCHLIESSEN_FH_TUERMODUL_CTRL_next_state>:
	...

04010201 <t4_taskB3_OEFFNEN_FH_TUERMODUL_CTRL_next_state>:
	...

04010202 <t4_taskB3_MANUELL_SCHLIESSEN_FH_TUERMODUL_CTRL_next_state>:
	...

04010203 <t4_taskB3_TIPP_SCHLIESSEN_FH_TUERMODUL_CTRL_next_state>:
	...

04010204 <t4_taskB3_INITIALISIERT_FH_TUERMODUL_CTRL_next_state>:
	...

04010205 <t4_taskB3_WIEDERHOLSPERRE_FH_TUERMODUL_CTRL_next_state>:
	...

04010206 <t4_taskB3_A_FH_TUERMODUL_CTRL_next_state>:
	...

04010207 <t4_taskB3_B_FH_TUERMODUL_CTRL_next_state>:
	...

04010208 <t4_taskB3_KINDERSICHERUNG_CTRL_KINDERSICHERUNG_CTRL_next_state>:
	...

04010209 <t4_taskB3_MEC_KINDERSICHERUNG_CTRL_next_state>:
	...

0401020a <t4_taskB3_ZENTRAL_KINDERSICHERUNG_CTRL_next_state>:
	...

0401020b <t4_taskB3_NICHT_INITIALISIERT_NICHT_INITIALISIERT_next_state>:
	...

0401020c <t4_taskB3_step>:
	...

0401020d <t4_taskB3_stable>:
 401020d:	0000      	nop
	...

04010210 <t4_taskB3_time>:
 4010210:	0000      	nop
	...

04010214 <t4_taskB3_FH_DU__MFHA_old>:
	...

04010215 <t4_taskB3_FH_DU__MFHA_copy>:
	...

04010216 <t4_taskB3_FH_DU__MFHA>:
	...

04010217 <t4_taskB3_FH_DU__MFHZ_old>:
	...

04010218 <t4_taskB3_FH_DU__MFHZ_copy>:
	...

04010219 <t4_taskB3_FH_DU__MFHZ>:
	...

0401021a <t4_taskB3_FH_DU__BLOCK_old>:
	...

0401021b <t4_taskB3_FH_DU__BLOCK_copy>:
	...

0401021c <t4_taskB3_FH_DU__BLOCK>:
	...

0401021d <t4_taskB3_FH_DU__DOOR_ID>:
	...

0401021e <t4_taskB3_FH_DU__S_FH_AUFDISC>:
	...

0401021f <t4_taskB3_FH_DU__S_FH_ZUDISC>:
	...

04010220 <t4_taskB3_FH_DU__S_FH_TMBFAUFDISC_old>:
	...

04010221 <t4_taskB3_FH_DU__S_FH_TMBFAUFDISC>:
	...

04010222 <t4_taskB3_FH_DU__S_FH_TMBFZUDISC_old>:
	...

04010223 <t4_taskB3_FH_DU__S_FH_TMBFZUDISC>:
	...

04010224 <t4_taskB3_FH_DU__S_FH_TMBFZUCAN_old>:
	...

04010225 <t4_taskB3_FH_DU__S_FH_TMBFZUCAN_copy>:
	...

04010226 <t4_taskB3_FH_DU__S_FH_TMBFZUCAN>:
	...

04010227 <t4_taskB3_FH_DU__S_FH_TMBFAUFCAN_old>:
	...

04010228 <t4_taskB3_FH_DU__S_FH_TMBFAUFCAN_copy>:
	...

04010229 <t4_taskB3_FH_DU__S_FH_TMBFAUFCAN>:
	...

0401022a <t4_taskB3_FH_DU__EKS_LEISTE_AKTIV_old>:
	...

0401022b <t4_taskB3_FH_DU__EKS_LEISTE_AKTIV>:
	...

0401022c <t4_taskB3_FH_DU__FT>:
	...

0401022d <t4_taskB3_FH_DU__S_FH_FTAUF>:
	...

0401022e <t4_taskB3_FH_DU__S_FH_FTZU>:
	...

0401022f <t4_taskB3_FH_DU__KL_50>:
	...

04010230 <t4_taskB3_FH_TUERMODUL__COM_CLOSE>:
	...

04010231 <t4_taskB3_FH_TUERMODUL__COM_OPEN>:
	...

04010232 <t4_taskB3_FH_TUERMODUL__EKS_LEISTE_AKTIV_old>:
	...

04010233 <t4_taskB3_FH_TUERMODUL__EKS_LEISTE_AKTIV>:
	...

04010234 <t4_taskB3_FH_TUERMODUL__MFHA_old>:
	...

04010235 <t4_taskB3_FH_TUERMODUL__MFHA_copy>:
	...

04010236 <t4_taskB3_FH_TUERMODUL__MFHA>:
	...

04010237 <t4_taskB3_FH_TUERMODUL__MFHZ_old>:
	...

04010238 <t4_taskB3_FH_TUERMODUL__MFHZ_copy>:
	...

04010239 <t4_taskB3_FH_TUERMODUL__MFHZ>:
	...

0401023a <t4_taskB3_FH_TUERMODUL__SFHA_old>:
	...

0401023b <t4_taskB3_FH_TUERMODUL__SFHA_copy>:
	...

0401023c <t4_taskB3_FH_TUERMODUL__SFHA>:
	...

0401023d <t4_taskB3_FH_TUERMODUL__SFHZ_old>:
	...

0401023e <t4_taskB3_FH_TUERMODUL__SFHZ_copy>:
	...

0401023f <t4_taskB3_FH_TUERMODUL__SFHZ>:
	...

04010240 <t4_taskB3_FH_TUERMODUL__FT>:
	...

04010241 <t4_taskB3_FH_TUERMODUL__BLOCK_old>:
	...

04010242 <t4_taskB3_FH_TUERMODUL__BLOCK_copy>:
	...

04010243 <t4_taskB3_FH_TUERMODUL__BLOCK>:
	...

04010244 <t4_taskB3_FH_TUERMODUL__KL_50>:
	...

04010245 <t4_taskB3_FH_TUERMODUL__SFHA_MEC_old>:
	...

04010246 <t4_taskB3_FH_TUERMODUL__SFHA_MEC>:
	...

04010247 <t4_taskB3_FH_TUERMODUL__SFHA_ZENTRAL_old>:
	...

04010248 <t4_taskB3_FH_TUERMODUL__SFHA_ZENTRAL>:
	...

04010249 <t4_taskB3_FH_TUERMODUL__SFHZ_MEC_old>:
	...

0401024a <t4_taskB3_FH_TUERMODUL__SFHZ_MEC>:
	...

0401024b <t4_taskB3_FH_TUERMODUL__SFHZ_ZENTRAL_old>:
	...

0401024c <t4_taskB3_FH_TUERMODUL__SFHZ_ZENTRAL>:
	...

0401024d <t4_taskB3_FH_TUERMODUL_CTRL__FT>:
	...

0401024e <t4_taskB3_FH_TUERMODUL_CTRL__INREVERS1_copy>:
	...

0401024f <t4_taskB3_FH_TUERMODUL_CTRL__INREVERS1>:
	...

04010250 <t4_taskB3_FH_TUERMODUL_CTRL__INREVERS2_copy>:
	...

04010251 <t4_taskB3_FH_TUERMODUL_CTRL__INREVERS2>:
 4010251:	0000      	nop
	...

04010254 <t4_taskB3_BLOCK_ERKENNUNG_CTRL__N_old>:
 4010254:	0000      	nop
	...

04010258 <t4_taskB3_BLOCK_ERKENNUNG_CTRL__N_copy>:
 4010258:	0000      	nop
	...

0401025c <t4_taskB3_BLOCK_ERKENNUNG_CTRL__N>:
 401025c:	0000      	nop
	...

04010260 <t4_taskB3_BLOCK_ERKENNUNG_CTRL__I_EIN_MAX_copy>:
 4010260:	0000      	nop
	...

04010264 <t4_taskB3_BLOCK_ERKENNUNG_CTRL__I_EIN_MAX>:
 4010264:	0000      	nop
	...

04010268 <t4_taskB3_FH_DU__I_EIN_old>:
 4010268:	0000      	nop
	...

0401026c <t4_taskB3_FH_DU__I_EIN>:
 401026c:	0000      	nop
	...

04010270 <t4_taskB3_FH_DU__POSITION>:
 4010270:	0000      	nop
	...

04010274 <t4_taskB3_FH_DU__MFH_copy>:
 4010274:	0000      	nop
	...

04010278 <t4_taskB3_FH_DU__MFH>:
 4010278:	0000      	nop
	...

0401027c <t4_taskB3_FH_TUERMODUL__I_EIN_old>:
 401027c:	0000      	nop
	...

04010280 <t4_taskB3_FH_TUERMODUL__I_EIN>:
 4010280:	0000      	nop
	...

04010284 <t4_taskB3_FH_TUERMODUL__POSITION>:
 4010284:	0000      	nop
	...

04010288 <t4_taskB3_sc_FH_TUERMODUL_CTRL_1739_10>:
 4010288:	0000      	nop
	...

0401028c <t4_taskB3_sc_FH_TUERMODUL_CTRL_1781_10>:
 401028c:	0000      	nop
	...

04010290 <t4_taskB3_FH_TUERMODUL_CTRL__N_old>:
 4010290:	0000      	nop
	...

04010294 <t4_taskB3_FH_TUERMODUL_CTRL__N_copy>:
 4010294:	0000      	nop
	...

04010298 <t4_taskB3_FH_TUERMODUL_CTRL__N>:
 4010298:	0000      	nop
	...

0401029c <t4_taskB3_sc_FH_TUERMODUL_CTRL_2329_1>:
 401029c:	0000      	nop
	...

040102a0 <t4_taskB3_sc_FH_TUERMODUL_CTRL_2352_1>:
 40102a0:	0000      	nop
	...

040102a4 <t4_taskB3_sc_FH_TUERMODUL_CTRL_2375_2>:
 40102a4:	0000      	nop
	...

040102a8 <t4_taskB3_tm_entered_WIEDERHOLSPERRE_FH_TUERMODUL_CTRL>:
 40102a8:	0000      	nop
	...

040102ac <t4_taskB3_tm_entered_WIEDERHOLSPERRE_FH_TUERMODUL_CTRLexited_BEREIT_FH_TUERMODUL_CTRL>:
 40102ac:	0000      	nop
	...

040102b0 <t4_taskB3_tm_entered_EINSCHALTSTROM_MESSEN_BLOCK_ERKENNUNG_CTRLch_BLOCK_ERKENNUNG_CTRL__N_copy>:
 40102b0:	0000      	nop
	...

040102b4 <t4_taskB3_Bitlist>:
	...

04014000 <t5_avail>:
 4014000:	0000      	nop
	...

04014004 <t5_head>:
 4014004:	0000      	nop
	...

04014008 <t5_jobs>:
	...

04014058 <t5_exception_ns_l>:
 4014058:	0000      	nop
	...

0401405c <t5_exception_ns_h>:
 401405c:	0000      	nop
	...

04014060 <t5_exception_handler>:
 4014060:	0000      	nop
	...

04014064 <t5_tick.1302>:
 4014064:	0000      	nop
	...

04014068 <t5_taskB4_BLOCK_ERKENNUNG_CTRL_BLOCK_ERKENNUNG_CTRL_next_state>:
	...

04014069 <t5_taskB4_BEWEGUNG_BLOCK_ERKENNUNG_CTRL_next_state>:
	...

0401406a <t5_taskB4_EINKLEMMSCHUTZ_CTRL_EINKLEMMSCHUTZ_CTRL_next_state>:
	...

0401406b <t5_taskB4_FH_STEUERUNG_DUMMY_FH_STEUERUNG_DUMMY_next_state>:
	...

0401406c <t5_taskB4_SCHLIESSEN_FH_TUERMODUL_CTRL_next_state>:
	...

0401406d <t5_taskB4_OEFFNEN_FH_TUERMODUL_CTRL_next_state>:
	...

0401406e <t5_taskB4_MANUELL_SCHLIESSEN_FH_TUERMODUL_CTRL_next_state>:
	...

0401406f <t5_taskB4_TIPP_SCHLIESSEN_FH_TUERMODUL_CTRL_next_state>:
	...

04014070 <t5_taskB4_INITIALISIERT_FH_TUERMODUL_CTRL_next_state>:
	...

04014071 <t5_taskB4_WIEDERHOLSPERRE_FH_TUERMODUL_CTRL_next_state>:
	...

04014072 <t5_taskB4_A_FH_TUERMODUL_CTRL_next_state>:
	...

04014073 <t5_taskB4_B_FH_TUERMODUL_CTRL_next_state>:
	...

04014074 <t5_taskB4_KINDERSICHERUNG_CTRL_KINDERSICHERUNG_CTRL_next_state>:
	...

04014075 <t5_taskB4_MEC_KINDERSICHERUNG_CTRL_next_state>:
	...

04014076 <t5_taskB4_ZENTRAL_KINDERSICHERUNG_CTRL_next_state>:
	...

04014077 <t5_taskB4_NICHT_INITIALISIERT_NICHT_INITIALISIERT_next_state>:
	...

04014078 <t5_taskB4_step>:
	...

04014079 <t5_taskB4_stable>:
 4014079:	0000      	nop
	...

0401407c <t5_taskB4_time>:
 401407c:	0000      	nop
	...

04014080 <t5_taskB4_FH_DU__MFHA_old>:
	...

04014081 <t5_taskB4_FH_DU__MFHA_copy>:
	...

04014082 <t5_taskB4_FH_DU__MFHA>:
	...

04014083 <t5_taskB4_FH_DU__MFHZ_old>:
	...

04014084 <t5_taskB4_FH_DU__MFHZ_copy>:
	...

04014085 <t5_taskB4_FH_DU__MFHZ>:
	...

04014086 <t5_taskB4_FH_DU__BLOCK_old>:
	...

04014087 <t5_taskB4_FH_DU__BLOCK_copy>:
	...

04014088 <t5_taskB4_FH_DU__BLOCK>:
	...

04014089 <t5_taskB4_FH_DU__DOOR_ID>:
	...

0401408a <t5_taskB4_FH_DU__S_FH_AUFDISC>:
	...

0401408b <t5_taskB4_FH_DU__S_FH_ZUDISC>:
	...

0401408c <t5_taskB4_FH_DU__S_FH_TMBFAUFDISC_old>:
	...

0401408d <t5_taskB4_FH_DU__S_FH_TMBFAUFDISC>:
	...

0401408e <t5_taskB4_FH_DU__S_FH_TMBFZUDISC_old>:
	...

0401408f <t5_taskB4_FH_DU__S_FH_TMBFZUDISC>:
	...

04014090 <t5_taskB4_FH_DU__S_FH_TMBFZUCAN_old>:
	...

04014091 <t5_taskB4_FH_DU__S_FH_TMBFZUCAN_copy>:
	...

04014092 <t5_taskB4_FH_DU__S_FH_TMBFZUCAN>:
	...

04014093 <t5_taskB4_FH_DU__S_FH_TMBFAUFCAN_old>:
	...

04014094 <t5_taskB4_FH_DU__S_FH_TMBFAUFCAN_copy>:
	...

04014095 <t5_taskB4_FH_DU__S_FH_TMBFAUFCAN>:
	...

04014096 <t5_taskB4_FH_DU__EKS_LEISTE_AKTIV_old>:
	...

04014097 <t5_taskB4_FH_DU__EKS_LEISTE_AKTIV>:
	...

04014098 <t5_taskB4_FH_DU__FT>:
	...

04014099 <t5_taskB4_FH_DU__S_FH_FTAUF>:
	...

0401409a <t5_taskB4_FH_DU__S_FH_FTZU>:
	...

0401409b <t5_taskB4_FH_DU__KL_50>:
	...

0401409c <t5_taskB4_FH_TUERMODUL__COM_CLOSE>:
	...

0401409d <t5_taskB4_FH_TUERMODUL__COM_OPEN>:
	...

0401409e <t5_taskB4_FH_TUERMODUL__EKS_LEISTE_AKTIV_old>:
	...

0401409f <t5_taskB4_FH_TUERMODUL__EKS_LEISTE_AKTIV>:
	...

040140a0 <t5_taskB4_FH_TUERMODUL__MFHA_old>:
	...

040140a1 <t5_taskB4_FH_TUERMODUL__MFHA_copy>:
	...

040140a2 <t5_taskB4_FH_TUERMODUL__MFHA>:
	...

040140a3 <t5_taskB4_FH_TUERMODUL__MFHZ_old>:
	...

040140a4 <t5_taskB4_FH_TUERMODUL__MFHZ_copy>:
	...

040140a5 <t5_taskB4_FH_TUERMODUL__MFHZ>:
	...

040140a6 <t5_taskB4_FH_TUERMODUL__SFHA_old>:
	...

040140a7 <t5_taskB4_FH_TUERMODUL__SFHA_copy>:
	...

040140a8 <t5_taskB4_FH_TUERMODUL__SFHA>:
	...

040140a9 <t5_taskB4_FH_TUERMODUL__SFHZ_old>:
	...

040140aa <t5_taskB4_FH_TUERMODUL__SFHZ_copy>:
	...

040140ab <t5_taskB4_FH_TUERMODUL__SFHZ>:
	...

040140ac <t5_taskB4_FH_TUERMODUL__FT>:
	...

040140ad <t5_taskB4_FH_TUERMODUL__BLOCK_old>:
	...

040140ae <t5_taskB4_FH_TUERMODUL__BLOCK_copy>:
	...

040140af <t5_taskB4_FH_TUERMODUL__BLOCK>:
	...

040140b0 <t5_taskB4_FH_TUERMODUL__KL_50>:
	...

040140b1 <t5_taskB4_FH_TUERMODUL__SFHA_MEC_old>:
	...

040140b2 <t5_taskB4_FH_TUERMODUL__SFHA_MEC>:
	...

040140b3 <t5_taskB4_FH_TUERMODUL__SFHA_ZENTRAL_old>:
	...

040140b4 <t5_taskB4_FH_TUERMODUL__SFHA_ZENTRAL>:
	...

040140b5 <t5_taskB4_FH_TUERMODUL__SFHZ_MEC_old>:
	...

040140b6 <t5_taskB4_FH_TUERMODUL__SFHZ_MEC>:
	...

040140b7 <t5_taskB4_FH_TUERMODUL__SFHZ_ZENTRAL_old>:
	...

040140b8 <t5_taskB4_FH_TUERMODUL__SFHZ_ZENTRAL>:
	...

040140b9 <t5_taskB4_FH_TUERMODUL_CTRL__FT>:
	...

040140ba <t5_taskB4_FH_TUERMODUL_CTRL__INREVERS1_copy>:
	...

040140bb <t5_taskB4_FH_TUERMODUL_CTRL__INREVERS1>:
	...

040140bc <t5_taskB4_FH_TUERMODUL_CTRL__INREVERS2_copy>:
	...

040140bd <t5_taskB4_FH_TUERMODUL_CTRL__INREVERS2>:
 40140bd:	0000      	nop
	...

040140c0 <t5_taskB4_BLOCK_ERKENNUNG_CTRL__N_old>:
 40140c0:	0000      	nop
	...

040140c4 <t5_taskB4_BLOCK_ERKENNUNG_CTRL__N_copy>:
 40140c4:	0000      	nop
	...

040140c8 <t5_taskB4_BLOCK_ERKENNUNG_CTRL__N>:
 40140c8:	0000      	nop
	...

040140cc <t5_taskB4_BLOCK_ERKENNUNG_CTRL__I_EIN_MAX_copy>:
 40140cc:	0000      	nop
	...

040140d0 <t5_taskB4_BLOCK_ERKENNUNG_CTRL__I_EIN_MAX>:
 40140d0:	0000      	nop
	...

040140d4 <t5_taskB4_FH_DU__I_EIN_old>:
 40140d4:	0000      	nop
	...

040140d8 <t5_taskB4_FH_DU__I_EIN>:
 40140d8:	0000      	nop
	...

040140dc <t5_taskB4_FH_DU__POSITION>:
 40140dc:	0000      	nop
	...

040140e0 <t5_taskB4_FH_DU__MFH_copy>:
 40140e0:	0000      	nop
	...

040140e4 <t5_taskB4_FH_DU__MFH>:
 40140e4:	0000      	nop
	...

040140e8 <t5_taskB4_FH_TUERMODUL__I_EIN_old>:
 40140e8:	0000      	nop
	...

040140ec <t5_taskB4_FH_TUERMODUL__I_EIN>:
 40140ec:	0000      	nop
	...

040140f0 <t5_taskB4_FH_TUERMODUL__POSITION>:
 40140f0:	0000      	nop
	...

040140f4 <t5_taskB4_sc_FH_TUERMODUL_CTRL_1739_10>:
 40140f4:	0000      	nop
	...

040140f8 <t5_taskB4_sc_FH_TUERMODUL_CTRL_1781_10>:
 40140f8:	0000      	nop
	...

040140fc <t5_taskB4_FH_TUERMODUL_CTRL__N_old>:
 40140fc:	0000      	nop
	...

04014100 <t5_taskB4_FH_TUERMODUL_CTRL__N_copy>:
 4014100:	0000      	nop
	...

04014104 <t5_taskB4_FH_TUERMODUL_CTRL__N>:
 4014104:	0000      	nop
	...

04014108 <t5_taskB4_sc_FH_TUERMODUL_CTRL_2329_1>:
 4014108:	0000      	nop
	...

0401410c <t5_taskB4_sc_FH_TUERMODUL_CTRL_2352_1>:
 401410c:	0000      	nop
	...

04014110 <t5_taskB4_sc_FH_TUERMODUL_CTRL_2375_2>:
 4014110:	0000      	nop
	...

04014114 <t5_taskB4_tm_entered_WIEDERHOLSPERRE_FH_TUERMODUL_CTRL>:
 4014114:	0000      	nop
	...

04014118 <t5_taskB4_tm_entered_WIEDERHOLSPERRE_FH_TUERMODUL_CTRLexited_BEREIT_FH_TUERMODUL_CTRL>:
 4014118:	0000      	nop
	...

0401411c <t5_taskB4_tm_entered_EINSCHALTSTROM_MESSEN_BLOCK_ERKENNUNG_CTRLch_BLOCK_ERKENNUNG_CTRL__N_copy>:
 401411c:	0000      	nop
	...

04014120 <t5_taskB4_Bitlist>:
	...

04014160 <t5_taskB5_BLOCK_ERKENNUNG_CTRL_BLOCK_ERKENNUNG_CTRL_next_state>:
	...

04014161 <t5_taskB5_BEWEGUNG_BLOCK_ERKENNUNG_CTRL_next_state>:
	...

04014162 <t5_taskB5_EINKLEMMSCHUTZ_CTRL_EINKLEMMSCHUTZ_CTRL_next_state>:
	...

04014163 <t5_taskB5_FH_STEUERUNG_DUMMY_FH_STEUERUNG_DUMMY_next_state>:
	...

04014164 <t5_taskB5_SCHLIESSEN_FH_TUERMODUL_CTRL_next_state>:
	...

04014165 <t5_taskB5_OEFFNEN_FH_TUERMODUL_CTRL_next_state>:
	...

04014166 <t5_taskB5_MANUELL_SCHLIESSEN_FH_TUERMODUL_CTRL_next_state>:
	...

04014167 <t5_taskB5_TIPP_SCHLIESSEN_FH_TUERMODUL_CTRL_next_state>:
	...

04014168 <t5_taskB5_INITIALISIERT_FH_TUERMODUL_CTRL_next_state>:
	...

04014169 <t5_taskB5_WIEDERHOLSPERRE_FH_TUERMODUL_CTRL_next_state>:
	...

0401416a <t5_taskB5_A_FH_TUERMODUL_CTRL_next_state>:
	...

0401416b <t5_taskB5_B_FH_TUERMODUL_CTRL_next_state>:
	...

0401416c <t5_taskB5_KINDERSICHERUNG_CTRL_KINDERSICHERUNG_CTRL_next_state>:
	...

0401416d <t5_taskB5_MEC_KINDERSICHERUNG_CTRL_next_state>:
	...

0401416e <t5_taskB5_ZENTRAL_KINDERSICHERUNG_CTRL_next_state>:
	...

0401416f <t5_taskB5_NICHT_INITIALISIERT_NICHT_INITIALISIERT_next_state>:
	...

04014170 <t5_taskB5_step>:
	...

04014171 <t5_taskB5_stable>:
 4014171:	0000      	nop
	...

04014174 <t5_taskB5_time>:
 4014174:	0000      	nop
	...

04014178 <t5_taskB5_FH_DU__MFHA_old>:
	...

04014179 <t5_taskB5_FH_DU__MFHA_copy>:
	...

0401417a <t5_taskB5_FH_DU__MFHA>:
	...

0401417b <t5_taskB5_FH_DU__MFHZ_old>:
	...

0401417c <t5_taskB5_FH_DU__MFHZ_copy>:
	...

0401417d <t5_taskB5_FH_DU__MFHZ>:
	...

0401417e <t5_taskB5_FH_DU__BLOCK_old>:
	...

0401417f <t5_taskB5_FH_DU__BLOCK_copy>:
	...

04014180 <t5_taskB5_FH_DU__BLOCK>:
	...

04014181 <t5_taskB5_FH_DU__DOOR_ID>:
	...

04014182 <t5_taskB5_FH_DU__S_FH_AUFDISC>:
	...

04014183 <t5_taskB5_FH_DU__S_FH_ZUDISC>:
	...

04014184 <t5_taskB5_FH_DU__S_FH_TMBFAUFDISC_old>:
	...

04014185 <t5_taskB5_FH_DU__S_FH_TMBFAUFDISC>:
	...

04014186 <t5_taskB5_FH_DU__S_FH_TMBFZUDISC_old>:
	...

04014187 <t5_taskB5_FH_DU__S_FH_TMBFZUDISC>:
	...

04014188 <t5_taskB5_FH_DU__S_FH_TMBFZUCAN_old>:
	...

04014189 <t5_taskB5_FH_DU__S_FH_TMBFZUCAN_copy>:
	...

0401418a <t5_taskB5_FH_DU__S_FH_TMBFZUCAN>:
	...

0401418b <t5_taskB5_FH_DU__S_FH_TMBFAUFCAN_old>:
	...

0401418c <t5_taskB5_FH_DU__S_FH_TMBFAUFCAN_copy>:
	...

0401418d <t5_taskB5_FH_DU__S_FH_TMBFAUFCAN>:
	...

0401418e <t5_taskB5_FH_DU__EKS_LEISTE_AKTIV_old>:
	...

0401418f <t5_taskB5_FH_DU__EKS_LEISTE_AKTIV>:
	...

04014190 <t5_taskB5_FH_DU__FT>:
	...

04014191 <t5_taskB5_FH_DU__S_FH_FTAUF>:
	...

04014192 <t5_taskB5_FH_DU__S_FH_FTZU>:
	...

04014193 <t5_taskB5_FH_DU__KL_50>:
	...

04014194 <t5_taskB5_FH_TUERMODUL__COM_CLOSE>:
	...

04014195 <t5_taskB5_FH_TUERMODUL__COM_OPEN>:
	...

04014196 <t5_taskB5_FH_TUERMODUL__EKS_LEISTE_AKTIV_old>:
	...

04014197 <t5_taskB5_FH_TUERMODUL__EKS_LEISTE_AKTIV>:
	...

04014198 <t5_taskB5_FH_TUERMODUL__MFHA_old>:
	...

04014199 <t5_taskB5_FH_TUERMODUL__MFHA_copy>:
	...

0401419a <t5_taskB5_FH_TUERMODUL__MFHA>:
	...

0401419b <t5_taskB5_FH_TUERMODUL__MFHZ_old>:
	...

0401419c <t5_taskB5_FH_TUERMODUL__MFHZ_copy>:
	...

0401419d <t5_taskB5_FH_TUERMODUL__MFHZ>:
	...

0401419e <t5_taskB5_FH_TUERMODUL__SFHA_old>:
	...

0401419f <t5_taskB5_FH_TUERMODUL__SFHA_copy>:
	...

040141a0 <t5_taskB5_FH_TUERMODUL__SFHA>:
	...

040141a1 <t5_taskB5_FH_TUERMODUL__SFHZ_old>:
	...

040141a2 <t5_taskB5_FH_TUERMODUL__SFHZ_copy>:
	...

040141a3 <t5_taskB5_FH_TUERMODUL__SFHZ>:
	...

040141a4 <t5_taskB5_FH_TUERMODUL__FT>:
	...

040141a5 <t5_taskB5_FH_TUERMODUL__BLOCK_old>:
	...

040141a6 <t5_taskB5_FH_TUERMODUL__BLOCK_copy>:
	...

040141a7 <t5_taskB5_FH_TUERMODUL__BLOCK>:
	...

040141a8 <t5_taskB5_FH_TUERMODUL__KL_50>:
	...

040141a9 <t5_taskB5_FH_TUERMODUL__SFHA_MEC_old>:
	...

040141aa <t5_taskB5_FH_TUERMODUL__SFHA_MEC>:
	...

040141ab <t5_taskB5_FH_TUERMODUL__SFHA_ZENTRAL_old>:
	...

040141ac <t5_taskB5_FH_TUERMODUL__SFHA_ZENTRAL>:
	...

040141ad <t5_taskB5_FH_TUERMODUL__SFHZ_MEC_old>:
	...

040141ae <t5_taskB5_FH_TUERMODUL__SFHZ_MEC>:
	...

040141af <t5_taskB5_FH_TUERMODUL__SFHZ_ZENTRAL_old>:
	...

040141b0 <t5_taskB5_FH_TUERMODUL__SFHZ_ZENTRAL>:
	...

040141b1 <t5_taskB5_FH_TUERMODUL_CTRL__FT>:
	...

040141b2 <t5_taskB5_FH_TUERMODUL_CTRL__INREVERS1_copy>:
	...

040141b3 <t5_taskB5_FH_TUERMODUL_CTRL__INREVERS1>:
	...

040141b4 <t5_taskB5_FH_TUERMODUL_CTRL__INREVERS2_copy>:
	...

040141b5 <t5_taskB5_FH_TUERMODUL_CTRL__INREVERS2>:
 40141b5:	0000      	nop
	...

040141b8 <t5_taskB5_BLOCK_ERKENNUNG_CTRL__N_old>:
 40141b8:	0000      	nop
	...

040141bc <t5_taskB5_BLOCK_ERKENNUNG_CTRL__N_copy>:
 40141bc:	0000      	nop
	...

040141c0 <t5_taskB5_BLOCK_ERKENNUNG_CTRL__N>:
 40141c0:	0000      	nop
	...

040141c4 <t5_taskB5_BLOCK_ERKENNUNG_CTRL__I_EIN_MAX_copy>:
 40141c4:	0000      	nop
	...

040141c8 <t5_taskB5_BLOCK_ERKENNUNG_CTRL__I_EIN_MAX>:
 40141c8:	0000      	nop
	...

040141cc <t5_taskB5_FH_DU__I_EIN_old>:
 40141cc:	0000      	nop
	...

040141d0 <t5_taskB5_FH_DU__I_EIN>:
 40141d0:	0000      	nop
	...

040141d4 <t5_taskB5_FH_DU__POSITION>:
 40141d4:	0000      	nop
	...

040141d8 <t5_taskB5_FH_DU__MFH_copy>:
 40141d8:	0000      	nop
	...

040141dc <t5_taskB5_FH_DU__MFH>:
 40141dc:	0000      	nop
	...

040141e0 <t5_taskB5_FH_TUERMODUL__I_EIN_old>:
 40141e0:	0000      	nop
	...

040141e4 <t5_taskB5_FH_TUERMODUL__I_EIN>:
 40141e4:	0000      	nop
	...

040141e8 <t5_taskB5_FH_TUERMODUL__POSITION>:
 40141e8:	0000      	nop
	...

040141ec <t5_taskB5_sc_FH_TUERMODUL_CTRL_1739_10>:
 40141ec:	0000      	nop
	...

040141f0 <t5_taskB5_sc_FH_TUERMODUL_CTRL_1781_10>:
 40141f0:	0000      	nop
	...

040141f4 <t5_taskB5_FH_TUERMODUL_CTRL__N_old>:
 40141f4:	0000      	nop
	...

040141f8 <t5_taskB5_FH_TUERMODUL_CTRL__N_copy>:
 40141f8:	0000      	nop
	...

040141fc <t5_taskB5_FH_TUERMODUL_CTRL__N>:
 40141fc:	0000      	nop
	...

04014200 <t5_taskB5_sc_FH_TUERMODUL_CTRL_2329_1>:
 4014200:	0000      	nop
	...

04014204 <t5_taskB5_sc_FH_TUERMODUL_CTRL_2352_1>:
 4014204:	0000      	nop
	...

04014208 <t5_taskB5_sc_FH_TUERMODUL_CTRL_2375_2>:
 4014208:	0000      	nop
	...

0401420c <t5_taskB5_tm_entered_WIEDERHOLSPERRE_FH_TUERMODUL_CTRL>:
 401420c:	0000      	nop
	...

04014210 <t5_taskB5_tm_entered_WIEDERHOLSPERRE_FH_TUERMODUL_CTRLexited_BEREIT_FH_TUERMODUL_CTRL>:
 4014210:	0000      	nop
	...

04014214 <t5_taskB5_tm_entered_EINSCHALTSTROM_MESSEN_BLOCK_ERKENNUNG_CTRLch_BLOCK_ERKENNUNG_CTRL__N_copy>:
 4014214:	0000      	nop
	...

04014218 <t5_taskB5_Bitlist>:
	...

04014258 <t5_taskB6_BLOCK_ERKENNUNG_CTRL_BLOCK_ERKENNUNG_CTRL_next_state>:
	...

04014259 <t5_taskB6_BEWEGUNG_BLOCK_ERKENNUNG_CTRL_next_state>:
	...

0401425a <t5_taskB6_EINKLEMMSCHUTZ_CTRL_EINKLEMMSCHUTZ_CTRL_next_state>:
	...

0401425b <t5_taskB6_FH_STEUERUNG_DUMMY_FH_STEUERUNG_DUMMY_next_state>:
	...

0401425c <t5_taskB6_SCHLIESSEN_FH_TUERMODUL_CTRL_next_state>:
	...

0401425d <t5_taskB6_OEFFNEN_FH_TUERMODUL_CTRL_next_state>:
	...

0401425e <t5_taskB6_MANUELL_SCHLIESSEN_FH_TUERMODUL_CTRL_next_state>:
	...

0401425f <t5_taskB6_TIPP_SCHLIESSEN_FH_TUERMODUL_CTRL_next_state>:
	...

04014260 <t5_taskB6_INITIALISIERT_FH_TUERMODUL_CTRL_next_state>:
	...

04014261 <t5_taskB6_WIEDERHOLSPERRE_FH_TUERMODUL_CTRL_next_state>:
	...

04014262 <t5_taskB6_A_FH_TUERMODUL_CTRL_next_state>:
	...

04014263 <t5_taskB6_B_FH_TUERMODUL_CTRL_next_state>:
	...

04014264 <t5_taskB6_KINDERSICHERUNG_CTRL_KINDERSICHERUNG_CTRL_next_state>:
	...

04014265 <t5_taskB6_MEC_KINDERSICHERUNG_CTRL_next_state>:
	...

04014266 <t5_taskB6_ZENTRAL_KINDERSICHERUNG_CTRL_next_state>:
	...

04014267 <t5_taskB6_NICHT_INITIALISIERT_NICHT_INITIALISIERT_next_state>:
	...

04014268 <t5_taskB6_step>:
	...

04014269 <t5_taskB6_stable>:
 4014269:	0000      	nop
	...

0401426c <t5_taskB6_time>:
 401426c:	0000      	nop
	...

04014270 <t5_taskB6_FH_DU__MFHA_old>:
	...

04014271 <t5_taskB6_FH_DU__MFHA_copy>:
	...

04014272 <t5_taskB6_FH_DU__MFHA>:
	...

04014273 <t5_taskB6_FH_DU__MFHZ_old>:
	...

04014274 <t5_taskB6_FH_DU__MFHZ_copy>:
	...

04014275 <t5_taskB6_FH_DU__MFHZ>:
	...

04014276 <t5_taskB6_FH_DU__BLOCK_old>:
	...

04014277 <t5_taskB6_FH_DU__BLOCK_copy>:
	...

04014278 <t5_taskB6_FH_DU__BLOCK>:
	...

04014279 <t5_taskB6_FH_DU__DOOR_ID>:
	...

0401427a <t5_taskB6_FH_DU__S_FH_AUFDISC>:
	...

0401427b <t5_taskB6_FH_DU__S_FH_ZUDISC>:
	...

0401427c <t5_taskB6_FH_DU__S_FH_TMBFAUFDISC_old>:
	...

0401427d <t5_taskB6_FH_DU__S_FH_TMBFAUFDISC>:
	...

0401427e <t5_taskB6_FH_DU__S_FH_TMBFZUDISC_old>:
	...

0401427f <t5_taskB6_FH_DU__S_FH_TMBFZUDISC>:
	...

04014280 <t5_taskB6_FH_DU__S_FH_TMBFZUCAN_old>:
	...

04014281 <t5_taskB6_FH_DU__S_FH_TMBFZUCAN_copy>:
	...

04014282 <t5_taskB6_FH_DU__S_FH_TMBFZUCAN>:
	...

04014283 <t5_taskB6_FH_DU__S_FH_TMBFAUFCAN_old>:
	...

04014284 <t5_taskB6_FH_DU__S_FH_TMBFAUFCAN_copy>:
	...

04014285 <t5_taskB6_FH_DU__S_FH_TMBFAUFCAN>:
	...

04014286 <t5_taskB6_FH_DU__EKS_LEISTE_AKTIV_old>:
	...

04014287 <t5_taskB6_FH_DU__EKS_LEISTE_AKTIV>:
	...

04014288 <t5_taskB6_FH_DU__FT>:
	...

04014289 <t5_taskB6_FH_DU__S_FH_FTAUF>:
	...

0401428a <t5_taskB6_FH_DU__S_FH_FTZU>:
	...

0401428b <t5_taskB6_FH_DU__KL_50>:
	...

0401428c <t5_taskB6_FH_TUERMODUL__COM_CLOSE>:
	...

0401428d <t5_taskB6_FH_TUERMODUL__COM_OPEN>:
	...

0401428e <t5_taskB6_FH_TUERMODUL__EKS_LEISTE_AKTIV_old>:
	...

0401428f <t5_taskB6_FH_TUERMODUL__EKS_LEISTE_AKTIV>:
	...

04014290 <t5_taskB6_FH_TUERMODUL__MFHA_old>:
	...

04014291 <t5_taskB6_FH_TUERMODUL__MFHA_copy>:
	...

04014292 <t5_taskB6_FH_TUERMODUL__MFHA>:
	...

04014293 <t5_taskB6_FH_TUERMODUL__MFHZ_old>:
	...

04014294 <t5_taskB6_FH_TUERMODUL__MFHZ_copy>:
	...

04014295 <t5_taskB6_FH_TUERMODUL__MFHZ>:
	...

04014296 <t5_taskB6_FH_TUERMODUL__SFHA_old>:
	...

04014297 <t5_taskB6_FH_TUERMODUL__SFHA_copy>:
	...

04014298 <t5_taskB6_FH_TUERMODUL__SFHA>:
	...

04014299 <t5_taskB6_FH_TUERMODUL__SFHZ_old>:
	...

0401429a <t5_taskB6_FH_TUERMODUL__SFHZ_copy>:
	...

0401429b <t5_taskB6_FH_TUERMODUL__SFHZ>:
	...

0401429c <t5_taskB6_FH_TUERMODUL__FT>:
	...

0401429d <t5_taskB6_FH_TUERMODUL__BLOCK_old>:
	...

0401429e <t5_taskB6_FH_TUERMODUL__BLOCK_copy>:
	...

0401429f <t5_taskB6_FH_TUERMODUL__BLOCK>:
	...

040142a0 <t5_taskB6_FH_TUERMODUL__KL_50>:
	...

040142a1 <t5_taskB6_FH_TUERMODUL__SFHA_MEC_old>:
	...

040142a2 <t5_taskB6_FH_TUERMODUL__SFHA_MEC>:
	...

040142a3 <t5_taskB6_FH_TUERMODUL__SFHA_ZENTRAL_old>:
	...

040142a4 <t5_taskB6_FH_TUERMODUL__SFHA_ZENTRAL>:
	...

040142a5 <t5_taskB6_FH_TUERMODUL__SFHZ_MEC_old>:
	...

040142a6 <t5_taskB6_FH_TUERMODUL__SFHZ_MEC>:
	...

040142a7 <t5_taskB6_FH_TUERMODUL__SFHZ_ZENTRAL_old>:
	...

040142a8 <t5_taskB6_FH_TUERMODUL__SFHZ_ZENTRAL>:
	...

040142a9 <t5_taskB6_FH_TUERMODUL_CTRL__FT>:
	...

040142aa <t5_taskB6_FH_TUERMODUL_CTRL__INREVERS1_copy>:
	...

040142ab <t5_taskB6_FH_TUERMODUL_CTRL__INREVERS1>:
	...

040142ac <t5_taskB6_FH_TUERMODUL_CTRL__INREVERS2_copy>:
	...

040142ad <t5_taskB6_FH_TUERMODUL_CTRL__INREVERS2>:
 40142ad:	0000      	nop
	...

040142b0 <t5_taskB6_BLOCK_ERKENNUNG_CTRL__N_old>:
 40142b0:	0000      	nop
	...

040142b4 <t5_taskB6_BLOCK_ERKENNUNG_CTRL__N_copy>:
 40142b4:	0000      	nop
	...

040142b8 <t5_taskB6_BLOCK_ERKENNUNG_CTRL__N>:
 40142b8:	0000      	nop
	...

040142bc <t5_taskB6_BLOCK_ERKENNUNG_CTRL__I_EIN_MAX_copy>:
 40142bc:	0000      	nop
	...

040142c0 <t5_taskB6_BLOCK_ERKENNUNG_CTRL__I_EIN_MAX>:
 40142c0:	0000      	nop
	...

040142c4 <t5_taskB6_FH_DU__I_EIN_old>:
 40142c4:	0000      	nop
	...

040142c8 <t5_taskB6_FH_DU__I_EIN>:
 40142c8:	0000      	nop
	...

040142cc <t5_taskB6_FH_DU__POSITION>:
 40142cc:	0000      	nop
	...

040142d0 <t5_taskB6_FH_DU__MFH_copy>:
 40142d0:	0000      	nop
	...

040142d4 <t5_taskB6_FH_DU__MFH>:
 40142d4:	0000      	nop
	...

040142d8 <t5_taskB6_FH_TUERMODUL__I_EIN_old>:
 40142d8:	0000      	nop
	...

040142dc <t5_taskB6_FH_TUERMODUL__I_EIN>:
 40142dc:	0000      	nop
	...

040142e0 <t5_taskB6_FH_TUERMODUL__POSITION>:
 40142e0:	0000      	nop
	...

040142e4 <t5_taskB6_sc_FH_TUERMODUL_CTRL_1739_10>:
 40142e4:	0000      	nop
	...

040142e8 <t5_taskB6_sc_FH_TUERMODUL_CTRL_1781_10>:
 40142e8:	0000      	nop
	...

040142ec <t5_taskB6_FH_TUERMODUL_CTRL__N_old>:
 40142ec:	0000      	nop
	...

040142f0 <t5_taskB6_FH_TUERMODUL_CTRL__N_copy>:
 40142f0:	0000      	nop
	...

040142f4 <t5_taskB6_FH_TUERMODUL_CTRL__N>:
 40142f4:	0000      	nop
	...

040142f8 <t5_taskB6_sc_FH_TUERMODUL_CTRL_2329_1>:
 40142f8:	0000      	nop
	...

040142fc <t5_taskB6_sc_FH_TUERMODUL_CTRL_2352_1>:
 40142fc:	0000      	nop
	...

04014300 <t5_taskB6_sc_FH_TUERMODUL_CTRL_2375_2>:
 4014300:	0000      	nop
	...

04014304 <t5_taskB6_tm_entered_WIEDERHOLSPERRE_FH_TUERMODUL_CTRL>:
 4014304:	0000      	nop
	...

04014308 <t5_taskB6_tm_entered_WIEDERHOLSPERRE_FH_TUERMODUL_CTRLexited_BEREIT_FH_TUERMODUL_CTRL>:
 4014308:	0000      	nop
	...

0401430c <t5_taskB6_tm_entered_EINSCHALTSTROM_MESSEN_BLOCK_ERKENNUNG_CTRLch_BLOCK_ERKENNUNG_CTRL__N_copy>:
 401430c:	0000      	nop
	...

04014310 <t5_taskB6_Bitlist>:
	...

04014350 <t5_taskB7_BLOCK_ERKENNUNG_CTRL_BLOCK_ERKENNUNG_CTRL_next_state>:
	...

04014351 <t5_taskB7_BEWEGUNG_BLOCK_ERKENNUNG_CTRL_next_state>:
	...

04014352 <t5_taskB7_EINKLEMMSCHUTZ_CTRL_EINKLEMMSCHUTZ_CTRL_next_state>:
	...

04014353 <t5_taskB7_FH_STEUERUNG_DUMMY_FH_STEUERUNG_DUMMY_next_state>:
	...

04014354 <t5_taskB7_SCHLIESSEN_FH_TUERMODUL_CTRL_next_state>:
	...

04014355 <t5_taskB7_OEFFNEN_FH_TUERMODUL_CTRL_next_state>:
	...

04014356 <t5_taskB7_MANUELL_SCHLIESSEN_FH_TUERMODUL_CTRL_next_state>:
	...

04014357 <t5_taskB7_TIPP_SCHLIESSEN_FH_TUERMODUL_CTRL_next_state>:
	...

04014358 <t5_taskB7_INITIALISIERT_FH_TUERMODUL_CTRL_next_state>:
	...

04014359 <t5_taskB7_WIEDERHOLSPERRE_FH_TUERMODUL_CTRL_next_state>:
	...

0401435a <t5_taskB7_A_FH_TUERMODUL_CTRL_next_state>:
	...

0401435b <t5_taskB7_B_FH_TUERMODUL_CTRL_next_state>:
	...

0401435c <t5_taskB7_KINDERSICHERUNG_CTRL_KINDERSICHERUNG_CTRL_next_state>:
	...

0401435d <t5_taskB7_MEC_KINDERSICHERUNG_CTRL_next_state>:
	...

0401435e <t5_taskB7_ZENTRAL_KINDERSICHERUNG_CTRL_next_state>:
	...

0401435f <t5_taskB7_NICHT_INITIALISIERT_NICHT_INITIALISIERT_next_state>:
	...

04014360 <t5_taskB7_step>:
	...

04014361 <t5_taskB7_stable>:
 4014361:	0000      	nop
	...

04014364 <t5_taskB7_time>:
 4014364:	0000      	nop
	...

04014368 <t5_taskB7_FH_DU__MFHA_old>:
	...

04014369 <t5_taskB7_FH_DU__MFHA_copy>:
	...

0401436a <t5_taskB7_FH_DU__MFHA>:
	...

0401436b <t5_taskB7_FH_DU__MFHZ_old>:
	...

0401436c <t5_taskB7_FH_DU__MFHZ_copy>:
	...

0401436d <t5_taskB7_FH_DU__MFHZ>:
	...

0401436e <t5_taskB7_FH_DU__BLOCK_old>:
	...

0401436f <t5_taskB7_FH_DU__BLOCK_copy>:
	...

04014370 <t5_taskB7_FH_DU__BLOCK>:
	...

04014371 <t5_taskB7_FH_DU__DOOR_ID>:
	...

04014372 <t5_taskB7_FH_DU__S_FH_AUFDISC>:
	...

04014373 <t5_taskB7_FH_DU__S_FH_ZUDISC>:
	...

04014374 <t5_taskB7_FH_DU__S_FH_TMBFAUFDISC_old>:
	...

04014375 <t5_taskB7_FH_DU__S_FH_TMBFAUFDISC>:
	...

04014376 <t5_taskB7_FH_DU__S_FH_TMBFZUDISC_old>:
	...

04014377 <t5_taskB7_FH_DU__S_FH_TMBFZUDISC>:
	...

04014378 <t5_taskB7_FH_DU__S_FH_TMBFZUCAN_old>:
	...

04014379 <t5_taskB7_FH_DU__S_FH_TMBFZUCAN_copy>:
	...

0401437a <t5_taskB7_FH_DU__S_FH_TMBFZUCAN>:
	...

0401437b <t5_taskB7_FH_DU__S_FH_TMBFAUFCAN_old>:
	...

0401437c <t5_taskB7_FH_DU__S_FH_TMBFAUFCAN_copy>:
	...

0401437d <t5_taskB7_FH_DU__S_FH_TMBFAUFCAN>:
	...

0401437e <t5_taskB7_FH_DU__EKS_LEISTE_AKTIV_old>:
	...

0401437f <t5_taskB7_FH_DU__EKS_LEISTE_AKTIV>:
	...

04014380 <t5_taskB7_FH_DU__FT>:
	...

04014381 <t5_taskB7_FH_DU__S_FH_FTAUF>:
	...

04014382 <t5_taskB7_FH_DU__S_FH_FTZU>:
	...

04014383 <t5_taskB7_FH_DU__KL_50>:
	...

04014384 <t5_taskB7_FH_TUERMODUL__COM_CLOSE>:
	...

04014385 <t5_taskB7_FH_TUERMODUL__COM_OPEN>:
	...

04014386 <t5_taskB7_FH_TUERMODUL__EKS_LEISTE_AKTIV_old>:
	...

04014387 <t5_taskB7_FH_TUERMODUL__EKS_LEISTE_AKTIV>:
	...

04014388 <t5_taskB7_FH_TUERMODUL__MFHA_old>:
	...

04014389 <t5_taskB7_FH_TUERMODUL__MFHA_copy>:
	...

0401438a <t5_taskB7_FH_TUERMODUL__MFHA>:
	...

0401438b <t5_taskB7_FH_TUERMODUL__MFHZ_old>:
	...

0401438c <t5_taskB7_FH_TUERMODUL__MFHZ_copy>:
	...

0401438d <t5_taskB7_FH_TUERMODUL__MFHZ>:
	...

0401438e <t5_taskB7_FH_TUERMODUL__SFHA_old>:
	...

0401438f <t5_taskB7_FH_TUERMODUL__SFHA_copy>:
	...

04014390 <t5_taskB7_FH_TUERMODUL__SFHA>:
	...

04014391 <t5_taskB7_FH_TUERMODUL__SFHZ_old>:
	...

04014392 <t5_taskB7_FH_TUERMODUL__SFHZ_copy>:
	...

04014393 <t5_taskB7_FH_TUERMODUL__SFHZ>:
	...

04014394 <t5_taskB7_FH_TUERMODUL__FT>:
	...

04014395 <t5_taskB7_FH_TUERMODUL__BLOCK_old>:
	...

04014396 <t5_taskB7_FH_TUERMODUL__BLOCK_copy>:
	...

04014397 <t5_taskB7_FH_TUERMODUL__BLOCK>:
	...

04014398 <t5_taskB7_FH_TUERMODUL__KL_50>:
	...

04014399 <t5_taskB7_FH_TUERMODUL__SFHA_MEC_old>:
	...

0401439a <t5_taskB7_FH_TUERMODUL__SFHA_MEC>:
	...

0401439b <t5_taskB7_FH_TUERMODUL__SFHA_ZENTRAL_old>:
	...

0401439c <t5_taskB7_FH_TUERMODUL__SFHA_ZENTRAL>:
	...

0401439d <t5_taskB7_FH_TUERMODUL__SFHZ_MEC_old>:
	...

0401439e <t5_taskB7_FH_TUERMODUL__SFHZ_MEC>:
	...

0401439f <t5_taskB7_FH_TUERMODUL__SFHZ_ZENTRAL_old>:
	...

040143a0 <t5_taskB7_FH_TUERMODUL__SFHZ_ZENTRAL>:
	...

040143a1 <t5_taskB7_FH_TUERMODUL_CTRL__FT>:
	...

040143a2 <t5_taskB7_FH_TUERMODUL_CTRL__INREVERS1_copy>:
	...

040143a3 <t5_taskB7_FH_TUERMODUL_CTRL__INREVERS1>:
	...

040143a4 <t5_taskB7_FH_TUERMODUL_CTRL__INREVERS2_copy>:
	...

040143a5 <t5_taskB7_FH_TUERMODUL_CTRL__INREVERS2>:
 40143a5:	0000      	nop
	...

040143a8 <t5_taskB7_BLOCK_ERKENNUNG_CTRL__N_old>:
 40143a8:	0000      	nop
	...

040143ac <t5_taskB7_BLOCK_ERKENNUNG_CTRL__N_copy>:
 40143ac:	0000      	nop
	...

040143b0 <t5_taskB7_BLOCK_ERKENNUNG_CTRL__N>:
 40143b0:	0000      	nop
	...

040143b4 <t5_taskB7_BLOCK_ERKENNUNG_CTRL__I_EIN_MAX_copy>:
 40143b4:	0000      	nop
	...

040143b8 <t5_taskB7_BLOCK_ERKENNUNG_CTRL__I_EIN_MAX>:
 40143b8:	0000      	nop
	...

040143bc <t5_taskB7_FH_DU__I_EIN_old>:
 40143bc:	0000      	nop
	...

040143c0 <t5_taskB7_FH_DU__I_EIN>:
 40143c0:	0000      	nop
	...

040143c4 <t5_taskB7_FH_DU__POSITION>:
 40143c4:	0000      	nop
	...

040143c8 <t5_taskB7_FH_DU__MFH_copy>:
 40143c8:	0000      	nop
	...

040143cc <t5_taskB7_FH_DU__MFH>:
 40143cc:	0000      	nop
	...

040143d0 <t5_taskB7_FH_TUERMODUL__I_EIN_old>:
 40143d0:	0000      	nop
	...

040143d4 <t5_taskB7_FH_TUERMODUL__I_EIN>:
 40143d4:	0000      	nop
	...

040143d8 <t5_taskB7_FH_TUERMODUL__POSITION>:
 40143d8:	0000      	nop
	...

040143dc <t5_taskB7_sc_FH_TUERMODUL_CTRL_1739_10>:
 40143dc:	0000      	nop
	...

040143e0 <t5_taskB7_sc_FH_TUERMODUL_CTRL_1781_10>:
 40143e0:	0000      	nop
	...

040143e4 <t5_taskB7_FH_TUERMODUL_CTRL__N_old>:
 40143e4:	0000      	nop
	...

040143e8 <t5_taskB7_FH_TUERMODUL_CTRL__N_copy>:
 40143e8:	0000      	nop
	...

040143ec <t5_taskB7_FH_TUERMODUL_CTRL__N>:
 40143ec:	0000      	nop
	...

040143f0 <t5_taskB7_sc_FH_TUERMODUL_CTRL_2329_1>:
 40143f0:	0000      	nop
	...

040143f4 <t5_taskB7_sc_FH_TUERMODUL_CTRL_2352_1>:
 40143f4:	0000      	nop
	...

040143f8 <t5_taskB7_sc_FH_TUERMODUL_CTRL_2375_2>:
 40143f8:	0000      	nop
	...

040143fc <t5_taskB7_tm_entered_WIEDERHOLSPERRE_FH_TUERMODUL_CTRL>:
 40143fc:	0000      	nop
	...

04014400 <t5_taskB7_tm_entered_WIEDERHOLSPERRE_FH_TUERMODUL_CTRLexited_BEREIT_FH_TUERMODUL_CTRL>:
 4014400:	0000      	nop
	...

04014404 <t5_taskB7_tm_entered_EINSCHALTSTROM_MESSEN_BLOCK_ERKENNUNG_CTRLch_BLOCK_ERKENNUNG_CTRL__N_copy>:
 4014404:	0000      	nop
	...

04014408 <t5_taskB7_Bitlist>:
	...

04018000 <t6_avail>:
 4018000:	0000      	nop
	...

04018004 <t6_head>:
 4018004:	0000      	nop
	...

04018008 <t6_jobs>:
	...

04018058 <t6_exception_ns_l>:
 4018058:	0000      	nop
	...

0401805c <t6_exception_ns_h>:
 401805c:	0000      	nop
	...

04018060 <t6_exception_handler>:
 4018060:	0000      	nop
	...

04018064 <t6_tick.1304>:
 4018064:	0000      	nop
	...

04018068 <t6_taskC1_a>:
	...

04018094 <t6_taskD1_a>:
	...

040180c0 <t6_taskD2_data>:
	...

040181c0 <t6_taskD3_data>:
	...

040182c0 <t6_taskD4_data>:
	...

0401c000 <t7_avail>:
 401c000:	0000      	nop
	...

0401c004 <t7_head>:
 401c004:	0000      	nop
	...

0401c008 <t7_jobs>:
	...

0401c058 <t7_exception_ns_l>:
 401c058:	0000      	nop
	...

0401c05c <t7_exception_ns_h>:
 401c05c:	0000      	nop
	...

0401c060 <t7_exception_handler>:
 401c060:	0000      	nop
	...

0401c064 <t7_tick.1304>:
 401c064:	0000      	nop
	...

0401c068 <t7_taskD5_a>:
	...

0401c094 <t7_taskD6_a>:
	...

0401c0c0 <t7_taskD7_data>:
	...

0401c1c0 <t7_taskD8_data>:
	...

0401c2c0 <t7_taskD9_data>:
	...
