
tests/complex-mc/build/emulator/complex-mc.bin:     file format elf32-littleriscv


Disassembly of section .text:

02000000 <init-0x40>:
 2000000:	16c0017b 	mfpcr	s0,cr27
 2000004:	00807863 	beqz	s0,2000040 <init>
 2000008:	10bffc13 	add	s0,s0,-1
 200000c:	0881b863 	beqz	s0,20001e8 <t1_startup>
 2000010:	10bffc13 	add	s0,s0,-1
 2000014:	10800863 	beqz	s0,2000218 <t2_startup>
 2000018:	10bffc13 	add	s0,s0,-1
 200001c:	10805863 	beqz	s0,2000248 <t3_startup>
 2000020:	10bffc13 	add	s0,s0,-1
 2000024:	1080a863 	beqz	s0,2000278 <t4_startup>
 2000028:	10bffc13 	add	s0,s0,-1
 200002c:	1080f863 	beqz	s0,20002a8 <t5_startup>
 2000030:	10bffc13 	add	s0,s0,-1
 2000034:	10814863 	beqz	s0,20002d8 <t6_startup>
 2000038:	10bffc13 	add	s0,s0,-1
 200003c:	10819863 	beqz	s0,2000308 <t7_startup>

02000040 <init>:
 2000040:	10000037 	lui	s0,0x0
 2000044:	18200037 	lui	s1,0x4000
 2000048:	18c00013 	move	s1,s1
 200004c:	18c02a93 	srl	s1,s1,0xa
 2000050:	18860333 	or	s1,s0,s1
 2000054:	04c601fb 	mtpcr	zero,s1,cr19
 2000058:	18200237 	lui	s1,0x4004
 200005c:	18fff013 	add	s1,s1,-4
 2000060:	18c02a93 	srl	s1,s1,0xa
 2000064:	18860333 	or	s1,s0,s1
 2000068:	050601fb 	mtpcr	zero,s1,cr20
 200006c:	11000037 	lui	s0,0x20000
 2000070:	18200237 	lui	s1,0x4004
 2000074:	18c00013 	move	s1,s1
 2000078:	18c02a93 	srl	s1,s1,0xa
 200007c:	18860333 	or	s1,s0,s1
 2000080:	04c601fb 	mtpcr	zero,s1,cr19
 2000084:	18200437 	lui	s1,0x4008
 2000088:	18fff013 	add	s1,s1,-4
 200008c:	18c02a93 	srl	s1,s1,0xa
 2000090:	18860333 	or	s1,s0,s1
 2000094:	050601fb 	mtpcr	zero,s1,cr20
 2000098:	12000037 	lui	s0,0x40000
 200009c:	18200437 	lui	s1,0x4008
 20000a0:	18c00013 	move	s1,s1
 20000a4:	18c02a93 	srl	s1,s1,0xa
 20000a8:	18860333 	or	s1,s0,s1
 20000ac:	04c601fb 	mtpcr	zero,s1,cr19
 20000b0:	18200637 	lui	s1,0x400c
 20000b4:	18fff013 	add	s1,s1,-4
 20000b8:	18c02a93 	srl	s1,s1,0xa
 20000bc:	18860333 	or	s1,s0,s1
 20000c0:	050601fb 	mtpcr	zero,s1,cr20
 20000c4:	13000037 	lui	s0,0x60000
 20000c8:	18200637 	lui	s1,0x400c
 20000cc:	18c00013 	move	s1,s1
 20000d0:	18c02a93 	srl	s1,s1,0xa
 20000d4:	18860333 	or	s1,s0,s1
 20000d8:	04c601fb 	mtpcr	zero,s1,cr19
 20000dc:	18200837 	lui	s1,0x4010
 20000e0:	18fff013 	add	s1,s1,-4
 20000e4:	18c02a93 	srl	s1,s1,0xa
 20000e8:	18860333 	or	s1,s0,s1
 20000ec:	050601fb 	mtpcr	zero,s1,cr20
 20000f0:	14000037 	lui	s0,0x80000
 20000f4:	18200837 	lui	s1,0x4010
 20000f8:	18c00013 	move	s1,s1
 20000fc:	18c02a93 	srl	s1,s1,0xa
 2000100:	18860333 	or	s1,s0,s1
 2000104:	04c601fb 	mtpcr	zero,s1,cr19
 2000108:	18200a37 	lui	s1,0x4014
 200010c:	18fff013 	add	s1,s1,-4
 2000110:	18c02a93 	srl	s1,s1,0xa
 2000114:	18860333 	or	s1,s0,s1
 2000118:	050601fb 	mtpcr	zero,s1,cr20
 200011c:	15000037 	lui	s0,0xa0000
 2000120:	18200a37 	lui	s1,0x4014
 2000124:	18c00013 	move	s1,s1
 2000128:	18c02a93 	srl	s1,s1,0xa
 200012c:	18860333 	or	s1,s0,s1
 2000130:	04c601fb 	mtpcr	zero,s1,cr19
 2000134:	18200c37 	lui	s1,0x4018
 2000138:	18fff013 	add	s1,s1,-4
 200013c:	18c02a93 	srl	s1,s1,0xa
 2000140:	18860333 	or	s1,s0,s1
 2000144:	050601fb 	mtpcr	zero,s1,cr20
 2000148:	16000037 	lui	s0,0xc0000
 200014c:	18200c37 	lui	s1,0x4018
 2000150:	18c00013 	move	s1,s1
 2000154:	18c02a93 	srl	s1,s1,0xa
 2000158:	18860333 	or	s1,s0,s1
 200015c:	04c601fb 	mtpcr	zero,s1,cr19
 2000160:	18200e37 	lui	s1,0x401c
 2000164:	18fff013 	add	s1,s1,-4
 2000168:	18c02a93 	srl	s1,s1,0xa
 200016c:	18860333 	or	s1,s0,s1
 2000170:	050601fb 	mtpcr	zero,s1,cr20
 2000174:	17000037 	lui	s0,0xe0000
 2000178:	18200e37 	lui	s1,0x401c
 200017c:	18c00013 	move	s1,s1
 2000180:	18c02a93 	srl	s1,s1,0xa
 2000184:	18860333 	or	s1,s0,s1
 2000188:	04c601fb 	mtpcr	zero,s1,cr19
 200018c:	18201037 	lui	s1,0x4020
 2000190:	18fff013 	add	s1,s1,-4
 2000194:	18c02a93 	srl	s1,s1,0xa
 2000198:	18860333 	or	s1,s0,s1
 200019c:	050601fb 	mtpcr	zero,s1,cr20
 20001a0:	048001fb 	mtpcr	zero,zero,cr18
 20001a4:	129a12b7 	lui	s0,0x53425
 20001a8:	10850013 	add	s0,s0,320
 20001ac:	18000537 	lui	s1,0xa
 20001b0:	058401fb 	mtpcr	zero,s0,cr22
 20001b4:	05c601fb 	mtpcr	zero,s1,cr23

020001b8 <t0_startup>:
 20001b8:	10200037 	lui	s0,0x4000
 20001bc:	10804013 	add	s0,s0,16
 20001c0:	18200037 	lui	s1,0x4000
 20001c4:	18c45013 	add	s1,s1,276
 20001c8:	008622e3 	ble	s1,s0,20001d8 <t0_startup+0x20>
 20001cc:	00800123 	sw	zero,0(s0)
 20001d0:	10801013 	add	s0,s0,4
 20001d4:	fffffd67 	j	20001c8 <t0_startup+0x10>
 20001d8:	70200237 	lui	sp,0x4004
 20001dc:	73bff013 	add	sp,sp,-4
 20001e0:	0000866f 	jal	20003f8 <t0_main>
 20001e4:	00000067 	j	20001e4 <t0_startup+0x2c>

020001e8 <t1_startup>:
 20001e8:	10200237 	lui	s0,0x4004
 20001ec:	10800013 	move	s0,s0
 20001f0:	18200237 	lui	s1,0x4004
 20001f4:	18c41013 	add	s1,s1,260
 20001f8:	008622e3 	ble	s1,s0,2000208 <t1_startup+0x20>
 20001fc:	00800123 	sw	zero,0(s0)
 2000200:	10801013 	add	s0,s0,4
 2000204:	fffffd67 	j	20001f8 <t1_startup+0x10>
 2000208:	70200437 	lui	sp,0x4008
 200020c:	73bff013 	add	sp,sp,-4
 2000210:	0006db6f 	jal	2001d7c <t1_main>
 2000214:	00000067 	j	2000214 <t1_startup+0x2c>

02000218 <t2_startup>:
 2000218:	10200437 	lui	s0,0x4008
 200021c:	10800013 	move	s0,s0
 2000220:	18200437 	lui	s1,0x4008
 2000224:	18c41013 	add	s1,s1,260
 2000228:	008622e3 	ble	s1,s0,2000238 <t2_startup+0x20>
 200022c:	00800123 	sw	zero,0(s0)
 2000230:	10801013 	add	s0,s0,4
 2000234:	fffffd67 	j	2000228 <t2_startup+0x10>
 2000238:	70200637 	lui	sp,0x400c
 200023c:	73bff013 	add	sp,sp,-4
 2000240:	000d306f 	jal	2003700 <t2_main>
 2000244:	00000067 	j	2000244 <t2_startup+0x2c>

02000248 <t3_startup>:
 2000248:	10200637 	lui	s0,0x400c
 200024c:	10800013 	move	s0,s0
 2000250:	18200637 	lui	s1,0x400c
 2000254:	18c41013 	add	s1,s1,260
 2000258:	008622e3 	ble	s1,s0,2000268 <t3_startup+0x20>
 200025c:	00800123 	sw	zero,0(s0)
 2000260:	10801013 	add	s0,s0,4
 2000264:	fffffd67 	j	2000258 <t3_startup+0x10>
 2000268:	70200837 	lui	sp,0x4010
 200026c:	73bff013 	add	sp,sp,-4
 2000270:	0013856f 	jal	2005084 <t3_main>
 2000274:	00000067 	j	2000274 <t3_startup+0x2c>

02000278 <t4_startup>:
 2000278:	10200837 	lui	s0,0x4010
 200027c:	10800013 	move	s0,s0
 2000280:	18200837 	lui	s1,0x4010
 2000284:	18cbd013 	add	s1,s1,756
 2000288:	008622e3 	ble	s1,s0,2000298 <t4_startup+0x20>
 200028c:	00800123 	sw	zero,0(s0)
 2000290:	10801013 	add	s0,s0,4
 2000294:	fffffd67 	j	2000288 <t4_startup+0x10>
 2000298:	70200a37 	lui	sp,0x4014
 200029c:	73bff013 	add	sp,sp,-4
 20002a0:	0019da6f 	jal	2006a08 <t4_main>
 20002a4:	00000067 	j	20002a4 <t4_startup+0x2c>

020002a8 <t5_startup>:
 20002a8:	10200a37 	lui	s0,0x4014
 20002ac:	10800013 	move	s0,s0
 20002b0:	18200a37 	lui	s1,0x4014
 20002b4:	18d12013 	add	s1,s1,1096
 20002b8:	008622e3 	ble	s1,s0,20002c8 <t5_startup+0x20>
 20002bc:	00800123 	sw	zero,0(s0)
 20002c0:	10801013 	add	s0,s0,4
 20002c4:	fffffd67 	j	20002b8 <t5_startup+0x10>
 20002c8:	70200c37 	lui	sp,0x4018
 20002cc:	73bff013 	add	sp,sp,-4
 20002d0:	002d446f 	jal	200b7e0 <t5_main>
 20002d4:	00000067 	j	20002d4 <t5_startup+0x2c>

020002d8 <t6_startup>:
 20002d8:	10200c37 	lui	s0,0x4018
 20002dc:	10800013 	move	s0,s0
 20002e0:	18200c37 	lui	s1,0x4018
 20002e4:	18cf0013 	add	s1,s1,960
 20002e8:	008622e3 	ble	s1,s0,20002f8 <t6_startup+0x20>
 20002ec:	00800123 	sw	zero,0(s0)
 20002f0:	10801013 	add	s0,s0,4
 20002f4:	fffffd67 	j	20002e8 <t6_startup+0x10>
 20002f8:	70200e37 	lui	sp,0x401c
 20002fc:	73bff013 	add	sp,sp,-4
 2000300:	0046d16f 	jal	2011e44 <t6_main>
 2000304:	00000067 	j	2000304 <t6_startup+0x2c>

02000308 <t7_startup>:
 2000308:	10200e37 	lui	s0,0x401c
 200030c:	10800013 	move	s0,s0
 2000310:	18200e37 	lui	s1,0x401c
 2000314:	18cf0013 	add	s1,s1,960
 2000318:	008622e3 	ble	s1,s0,2000328 <t7_startup+0x20>
 200031c:	00800123 	sw	zero,0(s0)
 2000320:	10801013 	add	s0,s0,4
 2000324:	fffffd67 	j	2000318 <t7_startup+0x10>
 2000328:	70201037 	lui	sp,0x4020
 200032c:	73bff013 	add	sp,sp,-4
 2000330:	004d966f 	jal	2013988 <t7_main>
 2000334:	00000067 	j	2000334 <t7_startup+0x2c>

02000338 <t0_exception_proxy>:
 2000338:	73bfe013 	add	sp,sp,-8
 200033c:	03821123 	sw	ra,4(sp)
 2000340:	7840017b 	mfpcr	tp,cr1
 2000344:	73bef013 	add	sp,sp,-68
 2000348:	039e1123 	sw	tp,4(sp)
 200034c:	03a02123 	sw	v0,8(sp)
 2000350:	03a23123 	sw	v1,12(sp)
 2000354:	03a44123 	sw	a0,16(sp)
 2000358:	03a65123 	sw	a1,20(sp)
 200035c:	03a86123 	sw	a2,24(sp)
 2000360:	03aa7123 	sw	a3,28(sp)
 2000364:	03ac8123 	sw	a4,32(sp)
 2000368:	03ae9123 	sw	a5,36(sp)
 200036c:	03b0a123 	sw	a6,40(sp)
 2000370:	03b2b123 	sw	a7,44(sp)
 2000374:	03b4c123 	sw	a8,48(sp)
 2000378:	03b6d123 	sw	a9,52(sp)
 200037c:	03b8e123 	sw	a10,56(sp)
 2000380:	03baf123 	sw	a11,60(sp)
 2000384:	03bd0123 	sw	a12,64(sp)
 2000388:	03bf1123 	sw	a13,68(sp)
 200038c:	80200037 	lui	v0,0x4000
 2000390:	84006103 	lw	v0,24(v0)
 2000394:	0c00006b 	jalr	v0
 2000398:	7b801103 	lw	tp,4(sp)
 200039c:	83802103 	lw	v0,8(sp)
 20003a0:	8b803103 	lw	v1,12(sp)
 20003a4:	93804103 	lw	a0,16(sp)
 20003a8:	9b805103 	lw	a1,20(sp)
 20003ac:	a3806103 	lw	a2,24(sp)
 20003b0:	ab807103 	lw	a3,28(sp)
 20003b4:	b3808103 	lw	a4,32(sp)
 20003b8:	bb809103 	lw	a5,36(sp)
 20003bc:	c380a103 	lw	a6,40(sp)
 20003c0:	cb80b103 	lw	a7,44(sp)
 20003c4:	d380c103 	lw	a8,48(sp)
 20003c8:	db80d103 	lw	a9,52(sp)
 20003cc:	e380e103 	lw	a10,56(sp)
 20003d0:	eb80f103 	lw	a11,60(sp)
 20003d4:	f3810103 	lw	a12,64(sp)
 20003d8:	fb811103 	lw	a13,68(sp)
 20003dc:	73811013 	add	sp,sp,68
 20003e0:	0b801103 	lw	ra,4(sp)
 20003e4:	73802013 	add	sp,sp,8
 20003e8:	03c0016b 	jr	tp
 20003ec:	0b801103 	lw	ra,4(sp)
 20003f0:	73802013 	add	sp,sp,8
 20003f4:	004000eb 	ret

020003f8 <t0_main>:
 20003f8:	73bf6013 	add	sp,sp,-40
 20003fc:	03886123 	sw	s2,24(sp)
 2000400:	20000c37 	lui	s2,0x18
 2000404:	03829123 	sw	ra,36(sp)
 2000408:	03848123 	sw	s0,32(sp)
 200040c:	03867123 	sw	s1,28(sp)
 2000410:	038a5123 	sw	s3,20(sp)
 2000414:	038c4123 	sw	s4,16(sp)
 2000418:	038e3123 	sw	s5,12(sp)
 200041c:	03902123 	sw	s6,8(sp)
 2000420:	03921123 	sw	s7,4(sp)
 2000424:	211a8013 	add	s2,s2,1696
 2000428:	80000013 	li	v0,0
 200042c:	1c000013 	move	s1,v0
 2000430:	11000013 	move	s0,s2
 2000434:	00c4015b 	0xc4015b
 2000438:	42000037 	lui	s6,0x40000
 200043c:	300bec37 	lui	s4,0x17d8
 2000440:	4a000413 	add	s7,s6,1
 2000444:	28000013 	li	s3,0
 2000448:	3c000037 	lui	s5,0x80000
 200044c:	42002c13 	add	s6,s6,11
 2000450:	31a10013 	add	s4,s4,-1984
 2000454:	879201fb 	mtpcr	v0,s7,cr30
 2000458:	1000005b 	0x1000005b
 200045c:	80800013 	move	v0,s0
 2000460:	840e0333 	or	v0,v0,s5
 2000464:	87a001fb 	mtpcr	v0,v0,cr30
 2000468:	0006076f 	jal	2001c84 <t0_taskA1_main>
 200046c:	879001fb 	mtpcr	v0,s6,cr30
 2000470:	1000005b 	0x1000005b
 2000474:	80800013 	move	v0,s0
 2000478:	840e0333 	or	v0,v0,s5
 200047c:	87a001fb 	mtpcr	v0,v0,cr30
 2000480:	210c0033 	add	s2,s2,s4
 2000484:	810c01b3 	sltu	v0,s2,s4
 2000488:	29600033 	add	s3,s3,v0
 200048c:	19400013 	move	s1,s3
 2000490:	11000013 	move	s0,s2
 2000494:	00c4015b 	0xc4015b
 2000498:	ffffef67 	j	2000454 <t0_main+0x5c>

0200049c <t0_taskA1_interface>:
 200049c:	80200037 	lui	v0,0x4000
 20004a0:	8c035013 	add	v1,v0,212
 20004a4:	94401003 	lb	a0,4(v1)
 20004a8:	0c805063 	beqz	a0,20005d0 <t0_taskA1_interface+0x134>
 20004ac:	88200037 	lui	v1,0x4000
 20004b0:	8c40c103 	lw	v1,48(v1)
 20004b4:	90200037 	lui	a0,0x4000
 20004b8:	0ca32123 	sw	v1,200(a0)
 20004bc:	90200037 	lui	a0,0x4000
 20004c0:	0ca33123 	sw	v1,204(a0)
 20004c4:	90200037 	lui	a0,0x4000
 20004c8:	8c831103 	lw	v1,196(a0)
 20004cc:	04404863 	beqz	v1,20004f0 <t0_taskA1_interface+0x54>
 20004d0:	98200037 	lui	a1,0x4000
 20004d4:	9cc0c103 	lw	a1,48(a1)
 20004d8:	8ce30033 	sub	v1,a1,v1
 20004dc:	8c40f0d3 	fcvt.d.wu	fv1,v1
 20004e0:	88200037 	lui	v1,0x4000
 20004e4:	84400187 	fld	fv0,0(v1)
 20004e8:	8c2370d3 	fle.d	v1,fv0,fv1
 20004ec:	0c4050e3 	bnez	v1,2000614 <t0_taskA1_interface+0x178>
 20004f0:	90200037 	lui	a0,0x4000
 20004f4:	8c830103 	lw	v1,192(a0)
 20004f8:	04404863 	beqz	v1,200051c <t0_taskA1_interface+0x80>
 20004fc:	98200037 	lui	a1,0x4000
 2000500:	9cc0c103 	lw	a1,48(a1)
 2000504:	8ce30033 	sub	v1,a1,v1
 2000508:	8c40f0d3 	fcvt.d.wu	fv1,v1
 200050c:	88200037 	lui	v1,0x4000
 2000510:	84400187 	fld	fv0,0(v1)
 2000514:	8c2370d3 	fle.d	v1,fv0,fv1
 2000518:	0441d8e3 	bnez	v1,2000604 <t0_taskA1_interface+0x168>
 200051c:	90200037 	lui	a0,0x4000
 2000520:	8c82f103 	lw	v1,188(a0)
 2000524:	04404863 	beqz	v1,2000548 <t0_taskA1_interface+0xac>
 2000528:	98200037 	lui	a1,0x4000
 200052c:	9cc0c103 	lw	a1,48(a1)
 2000530:	8ce30033 	sub	v1,a1,v1
 2000534:	8c40f0d3 	fcvt.d.wu	fv1,v1
 2000538:	88200037 	lui	v1,0x4000
 200053c:	84400187 	fld	fv0,0(v1)
 2000540:	8c2370d3 	fle.d	v1,fv0,fv1
 2000544:	044160e3 	bnez	v1,20005f4 <t0_taskA1_interface+0x158>
 2000548:	90200037 	lui	a0,0x4000
 200054c:	8c82b103 	lw	v1,172(a0)
 2000550:	04404863 	beqz	v1,2000574 <t0_taskA1_interface+0xd8>
 2000554:	98200037 	lui	a1,0x4000
 2000558:	9cc0c103 	lw	a1,48(a1)
 200055c:	8ce30033 	sub	v1,a1,v1
 2000560:	8c40f0d3 	fcvt.d.wu	fv1,v1
 2000564:	88200037 	lui	v1,0x4000
 2000568:	84400187 	fld	fv0,0(v1)
 200056c:	8c2370d3 	fle.d	v1,fv0,fv1
 2000570:	0440f8e3 	bnez	v1,20005ec <t0_taskA1_interface+0x150>
 2000574:	90200037 	lui	a0,0x4000
 2000578:	8c82a103 	lw	v1,168(a0)
 200057c:	04404863 	beqz	v1,20005a0 <t0_taskA1_interface+0x104>
 2000580:	98200037 	lui	a1,0x4000
 2000584:	9cc0c103 	lw	a1,48(a1)
 2000588:	8ce30033 	sub	v1,a1,v1
 200058c:	8c40f0d3 	fcvt.d.wu	fv1,v1
 2000590:	88200037 	lui	v1,0x4000
 2000594:	84400187 	fld	fv0,0(v1)
 2000598:	8c2370d3 	fle.d	v1,fv0,fv1
 200059c:	044090e3 	bnez	v1,20005e4 <t0_taskA1_interface+0x148>
 20005a0:	84035003 	lb	v0,212(v0)
 20005a4:	040030e3 	bnez	v0,20005bc <t0_taskA1_interface+0x120>
 20005a8:	80200037 	lui	v0,0x4000
 20005ac:	8c01f103 	lw	v1,124(v0)
 20005b0:	80200037 	lui	v0,0x4000
 20005b4:	8401d103 	lw	v0,116(v0)
 20005b8:	04602863 	beq	v1,v0,20005cc <t0_taskA1_interface+0x130>
 20005bc:	80200037 	lui	v0,0x4000
 20005c0:	8c00c103 	lw	v1,48(v0)
 20005c4:	80200037 	lui	v0,0x4000
 20005c8:	0c234123 	sw	v1,208(v0)
 20005cc:	004000eb 	ret
 20005d0:	8c401803 	lb	v1,6(v1)
 20005d4:	f441e063 	beqz	v1,20004c4 <t0_taskA1_interface+0x28>
 20005d8:	88200037 	lui	v1,0x4000
 20005dc:	8c40c103 	lw	v1,48(v1)
 20005e0:	ffffb767 	j	20004bc <t0_taskA1_interface+0x20>
 20005e4:	0c80a123 	sw	zero,168(a0)
 20005e8:	ffffee67 	j	20005a0 <t0_taskA1_interface+0x104>
 20005ec:	0c80b123 	sw	zero,172(a0)
 20005f0:	ffffe167 	j	2000574 <t0_taskA1_interface+0xd8>
 20005f4:	88200037 	lui	v1,0x4000
 20005f8:	04416023 	sb	zero,88(v1)
 20005fc:	0c80f123 	sw	zero,188(a0)
 2000600:	ffffd267 	j	2000548 <t0_taskA1_interface+0xac>
 2000604:	88200037 	lui	v1,0x4000
 2000608:	04416023 	sb	zero,88(v1)
 200060c:	0c810123 	sw	zero,192(a0)
 2000610:	ffffc367 	j	200051c <t0_taskA1_interface+0x80>
 2000614:	88200037 	lui	v1,0x4000
 2000618:	04415423 	sb	zero,85(v1)
 200061c:	0c811123 	sw	zero,196(a0)
 2000620:	ffffb467 	j	20004f0 <t0_taskA1_interface+0x54>

02000624 <t0_taskA1_init>:
 2000624:	80200037 	lui	v0,0x4000
 2000628:	0c014123 	sw	zero,208(v0)
 200062c:	80200037 	lui	v0,0x4000
 2000630:	0c013123 	sw	zero,204(v0)
 2000634:	80200037 	lui	v0,0x4000
 2000638:	0c012123 	sw	zero,200(v0)
 200063c:	80200037 	lui	v0,0x4000
 2000640:	0400ac23 	sb	zero,43(v0)
 2000644:	80200037 	lui	v0,0x4000
 2000648:	0400a823 	sb	zero,42(v0)
 200064c:	80200037 	lui	v0,0x4000
 2000650:	0400a423 	sb	zero,41(v0)
 2000654:	80200037 	lui	v0,0x4000
 2000658:	0400a023 	sb	zero,40(v0)
 200065c:	80200037 	lui	v0,0x4000
 2000660:	04009c23 	sb	zero,39(v0)
 2000664:	80200037 	lui	v0,0x4000
 2000668:	04009823 	sb	zero,38(v0)
 200066c:	80200037 	lui	v0,0x4000
 2000670:	04009423 	sb	zero,37(v0)
 2000674:	80200037 	lui	v0,0x4000
 2000678:	04009023 	sb	zero,36(v0)
 200067c:	80200037 	lui	v0,0x4000
 2000680:	04008c23 	sb	zero,35(v0)
 2000684:	80200037 	lui	v0,0x4000
 2000688:	04008823 	sb	zero,34(v0)
 200068c:	80200037 	lui	v0,0x4000
 2000690:	04008423 	sb	zero,33(v0)
 2000694:	80200037 	lui	v0,0x4000
 2000698:	04008023 	sb	zero,32(v0)
 200069c:	80200037 	lui	v0,0x4000
 20006a0:	04007c23 	sb	zero,31(v0)
 20006a4:	80200037 	lui	v0,0x4000
 20006a8:	04007823 	sb	zero,30(v0)
 20006ac:	80200037 	lui	v0,0x4000
 20006b0:	04007423 	sb	zero,29(v0)
 20006b4:	80200037 	lui	v0,0x4000
 20006b8:	04007023 	sb	zero,28(v0)
 20006bc:	004000eb 	ret

020006c0 <t0_taskA1_generic_KINDERSICHERUNG_CTRL>:
 20006c0:	80200037 	lui	v0,0x4000
 20006c4:	84037803 	lb	v0,222(v0)
 20006c8:	04006063 	beqz	v0,20006f8 <t0_taskA1_generic_KINDERSICHERUNG_CTRL+0x38>
 20006cc:	88200037 	lui	v1,0x4000
 20006d0:	8440a003 	lb	v0,40(v1)
 20006d4:	90000813 	li	a0,2
 20006d8:	04244863 	beq	v0,a0,20006fc <t0_taskA1_generic_KINDERSICHERUNG_CTRL+0x3c>
 20006dc:	98000c13 	li	a1,3
 20006e0:	0427a863 	beq	v0,a1,20007b4 <t0_taskA1_generic_KINDERSICHERUNG_CTRL+0xf4>
 20006e4:	90000413 	li	a0,1
 20006e8:	04249063 	beq	v0,a0,2000730 <t0_taskA1_generic_KINDERSICHERUNG_CTRL+0x70>
 20006ec:	80200037 	lui	v0,0x4000
 20006f0:	0400b423 	sb	zero,45(v0)
 20006f4:	0466a023 	sb	a1,40(v1)
 20006f8:	004000eb 	ret
 20006fc:	80200037 	lui	v0,0x4000
 2000700:	84019803 	lb	v0,102(v0)
 2000704:	040020e3 	bnez	v0,2000714 <t0_taskA1_generic_KINDERSICHERUNG_CTRL+0x54>
 2000708:	90200037 	lui	a0,0x4000
 200070c:	9481a803 	lb	a0,106(a0)
 2000710:	1480d863 	beqz	a0,200097c <t0_taskA1_generic_KINDERSICHERUNG_CTRL+0x2bc>
 2000714:	88200037 	lui	v1,0x4000
 2000718:	9440a403 	lb	a0,41(v1)
 200071c:	98000413 	li	a1,1
 2000720:	0ca61863 	beq	a0,a1,200082c <t0_taskA1_generic_KINDERSICHERUNG_CTRL+0x16c>
 2000724:	80200037 	lui	v0,0x4000
 2000728:	0400b423 	sb	zero,45(v0)
 200072c:	004000eb 	ret
 2000730:	80200037 	lui	v0,0x4000
 2000734:	8401a003 	lb	v0,104(v0)
 2000738:	040020e3 	bnez	v0,2000748 <t0_taskA1_generic_KINDERSICHERUNG_CTRL+0x88>
 200073c:	90200037 	lui	a0,0x4000
 2000740:	9481b003 	lb	a0,108(a0)
 2000744:	14802063 	beqz	a0,2000954 <t0_taskA1_generic_KINDERSICHERUNG_CTRL+0x294>
 2000748:	88200037 	lui	v1,0x4000
 200074c:	9440a803 	lb	a0,42(v1)
 2000750:	98000413 	li	a1,1
 2000754:	fca7a0e3 	bne	a0,a1,2000724 <t0_taskA1_generic_KINDERSICHERUNG_CTRL+0x64>
 2000758:	04005063 	beqz	v0,2000780 <t0_taskA1_generic_KINDERSICHERUNG_CTRL+0xc0>
 200075c:	98200037 	lui	a1,0x4000
 2000760:	9cc19c03 	lb	a1,103(a1)
 2000764:	04c038e3 	bnez	a1,2000780 <t0_taskA1_generic_KINDERSICHERUNG_CTRL+0xc0>
 2000768:	80200037 	lui	v0,0x4000
 200076c:	0400b423 	sb	zero,45(v0)
 2000770:	80200037 	lui	v0,0x4000
 2000774:	04256c23 	sb	a0,91(v0)
 2000778:	0464a823 	sb	a0,42(v1)
 200077c:	004000eb 	ret
 2000780:	90200037 	lui	a0,0x4000
 2000784:	9481b003 	lb	a0,108(a0)
 2000788:	0c80a863 	beqz	a0,20008dc <t0_taskA1_generic_KINDERSICHERUNG_CTRL+0x21c>
 200078c:	98200037 	lui	a1,0x4000
 2000790:	9cc1ac03 	lb	a1,107(a1)
 2000794:	0cc090e3 	bnez	a1,20008dc <t0_taskA1_generic_KINDERSICHERUNG_CTRL+0x21c>
 2000798:	90200037 	lui	a0,0x4000
 200079c:	80000413 	li	v0,1
 20007a0:	0480b423 	sb	zero,45(a0)
 20007a4:	90200037 	lui	a0,0x4000
 20007a8:	04a17823 	sb	v0,94(a0)
 20007ac:	0460a823 	sb	v0,42(v1)
 20007b0:	004000eb 	ret
 20007b4:	80200037 	lui	v0,0x4000
 20007b8:	84019003 	lb	v0,100(v0)
 20007bc:	040070e3 	bnez	v0,20007f4 <t0_taskA1_generic_KINDERSICHERUNG_CTRL+0x134>
 20007c0:	98200037 	lui	a1,0x4000
 20007c4:	9cc1a803 	lb	a1,106(a1)
 20007c8:	04c1d863 	beqz	a1,20008b4 <t0_taskA1_generic_KINDERSICHERUNG_CTRL+0x1f4>
 20007cc:	80200037 	lui	v0,0x4000
 20007d0:	84019803 	lb	v0,102(v0)
 20007d4:	140060e3 	bnez	v0,2000a04 <t0_taskA1_generic_KINDERSICHERUNG_CTRL+0x344>
 20007d8:	80200037 	lui	v0,0x4000
 20007dc:	0400b423 	sb	zero,45(v0)
 20007e0:	98000413 	li	a1,1
 20007e4:	80200037 	lui	v0,0x4000
 20007e8:	04277823 	sb	a1,94(v0)
 20007ec:	0464a023 	sb	a0,40(v1)
 20007f0:	004000eb 	ret
 20007f4:	90200037 	lui	a0,0x4000
 20007f8:	9481b003 	lb	a0,108(a0)
 20007fc:	048118e3 	bnez	a0,2000888 <t0_taskA1_generic_KINDERSICHERUNG_CTRL+0x1c8>
 2000800:	90200037 	lui	a0,0x4000
 2000804:	9481a003 	lb	a0,104(a0)
 2000808:	f481e063 	beqz	a0,20006f8 <t0_taskA1_generic_KINDERSICHERUNG_CTRL+0x38>
 200080c:	f401d8e3 	bnez	v0,20006f8 <t0_taskA1_generic_KINDERSICHERUNG_CTRL+0x38>
 2000810:	90200037 	lui	a0,0x4000
 2000814:	80000413 	li	v0,1
 2000818:	0480b423 	sb	zero,45(a0)
 200081c:	90200037 	lui	a0,0x4000
 2000820:	04a16c23 	sb	v0,91(a0)
 2000824:	0460a023 	sb	v0,40(v1)
 2000828:	004000eb 	ret
 200082c:	04005063 	beqz	v0,2000854 <t0_taskA1_generic_KINDERSICHERUNG_CTRL+0x194>
 2000830:	98200037 	lui	a1,0x4000
 2000834:	9cc19403 	lb	a1,101(a1)
 2000838:	04c038e3 	bnez	a1,2000854 <t0_taskA1_generic_KINDERSICHERUNG_CTRL+0x194>
 200083c:	80200037 	lui	v0,0x4000
 2000840:	0400b423 	sb	zero,45(v0)
 2000844:	80200037 	lui	v0,0x4000
 2000848:	04256c23 	sb	a0,91(v0)
 200084c:	0464a423 	sb	a0,41(v1)
 2000850:	004000eb 	ret
 2000854:	90200037 	lui	a0,0x4000
 2000858:	9481a803 	lb	a0,106(a0)
 200085c:	04817863 	beqz	a0,2000918 <t0_taskA1_generic_KINDERSICHERUNG_CTRL+0x258>
 2000860:	98200037 	lui	a1,0x4000
 2000864:	9cc1a403 	lb	a1,105(a1)
 2000868:	04c160e3 	bnez	a1,2000918 <t0_taskA1_generic_KINDERSICHERUNG_CTRL+0x258>
 200086c:	90200037 	lui	a0,0x4000
 2000870:	80000413 	li	v0,1
 2000874:	0480b423 	sb	zero,45(a0)
 2000878:	90200037 	lui	a0,0x4000
 200087c:	04a17823 	sb	v0,94(a0)
 2000880:	0460a423 	sb	v0,41(v1)
 2000884:	004000eb 	ret
 2000888:	90200037 	lui	a0,0x4000
 200088c:	9481a003 	lb	a0,104(a0)
 2000890:	0c8030e3 	bnez	a0,20009a8 <t0_taskA1_generic_KINDERSICHERUNG_CTRL+0x2e8>
 2000894:	f400c8e3 	bnez	v0,20006f8 <t0_taskA1_generic_KINDERSICHERUNG_CTRL+0x38>
 2000898:	90200037 	lui	a0,0x4000
 200089c:	80000413 	li	v0,1
 20008a0:	0480b423 	sb	zero,45(a0)
 20008a4:	90200037 	lui	a0,0x4000
 20008a8:	04a17823 	sb	v0,94(a0)
 20008ac:	0460a023 	sb	v0,40(v1)
 20008b0:	004000eb 	ret
 20008b4:	98200037 	lui	a1,0x4000
 20008b8:	9cc19803 	lb	a1,102(a1)
 20008bc:	fcc07063 	beqz	a1,20007f4 <t0_taskA1_generic_KINDERSICHERUNG_CTRL+0x134>
 20008c0:	80200037 	lui	v0,0x4000
 20008c4:	0400b423 	sb	zero,45(v0)
 20008c8:	98000413 	li	a1,1
 20008cc:	80200037 	lui	v0,0x4000
 20008d0:	04276c23 	sb	a1,91(v0)
 20008d4:	0464a023 	sb	a0,40(v1)
 20008d8:	004000eb 	ret
 20008dc:	040020e3 	bnez	v0,20008ec <t0_taskA1_generic_KINDERSICHERUNG_CTRL+0x22c>
 20008e0:	80200037 	lui	v0,0x4000
 20008e4:	84019c03 	lb	v0,103(v0)
 20008e8:	0401c8e3 	bnez	v0,20009cc <t0_taskA1_generic_KINDERSICHERUNG_CTRL+0x30c>
 20008ec:	f48018e3 	bnez	a0,20006f8 <t0_taskA1_generic_KINDERSICHERUNG_CTRL+0x38>
 20008f0:	80200037 	lui	v0,0x4000
 20008f4:	8401ac03 	lb	v0,107(v0)
 20008f8:	f4000063 	beqz	v0,20006f8 <t0_taskA1_generic_KINDERSICHERUNG_CTRL+0x38>
 20008fc:	80200037 	lui	v0,0x4000
 2000900:	0400b423 	sb	zero,45(v0)
 2000904:	80200037 	lui	v0,0x4000
 2000908:	04017823 	sb	zero,94(v0)
 200090c:	80000413 	li	v0,1
 2000910:	0460a823 	sb	v0,42(v1)
 2000914:	004000eb 	ret
 2000918:	040020e3 	bnez	v0,2000928 <t0_taskA1_generic_KINDERSICHERUNG_CTRL+0x268>
 200091c:	80200037 	lui	v0,0x4000
 2000920:	84019403 	lb	v0,101(v0)
 2000924:	040188e3 	bnez	v0,20009e8 <t0_taskA1_generic_KINDERSICHERUNG_CTRL+0x328>
 2000928:	ec81a0e3 	bnez	a0,20006f8 <t0_taskA1_generic_KINDERSICHERUNG_CTRL+0x38>
 200092c:	80200037 	lui	v0,0x4000
 2000930:	8401a403 	lb	v0,105(v0)
 2000934:	ec018863 	beqz	v0,20006f8 <t0_taskA1_generic_KINDERSICHERUNG_CTRL+0x38>
 2000938:	80200037 	lui	v0,0x4000
 200093c:	0400b423 	sb	zero,45(v0)
 2000940:	80200037 	lui	v0,0x4000
 2000944:	04017823 	sb	zero,94(v0)
 2000948:	80000413 	li	v0,1
 200094c:	0460a423 	sb	v0,41(v1)
 2000950:	004000eb 	ret
 2000954:	80200037 	lui	v0,0x4000
 2000958:	0400b423 	sb	zero,45(v0)
 200095c:	80200037 	lui	v0,0x4000
 2000960:	04017823 	sb	zero,94(v0)
 2000964:	80200037 	lui	v0,0x4000
 2000968:	04016c23 	sb	zero,91(v0)
 200096c:	80200037 	lui	v0,0x4000
 2000970:	0466a023 	sb	a1,40(v1)
 2000974:	0400a823 	sb	zero,42(v0)
 2000978:	004000eb 	ret
 200097c:	80200037 	lui	v0,0x4000
 2000980:	0400b423 	sb	zero,45(v0)
 2000984:	80200037 	lui	v0,0x4000
 2000988:	04017823 	sb	zero,94(v0)
 200098c:	80200037 	lui	v0,0x4000
 2000990:	04016c23 	sb	zero,91(v0)
 2000994:	80000c13 	li	v0,3
 2000998:	0460a023 	sb	v0,40(v1)
 200099c:	80200037 	lui	v0,0x4000
 20009a0:	0400a423 	sb	zero,41(v0)
 20009a4:	004000eb 	ret
 20009a8:	90200037 	lui	a0,0x4000
 20009ac:	80000413 	li	v0,1
 20009b0:	0480b423 	sb	zero,45(a0)
 20009b4:	90200037 	lui	a0,0x4000
 20009b8:	04a16c23 	sb	v0,91(a0)
 20009bc:	90200037 	lui	a0,0x4000
 20009c0:	04a17823 	sb	v0,94(a0)
 20009c4:	0460a023 	sb	v0,40(v1)
 20009c8:	004000eb 	ret
 20009cc:	80200037 	lui	v0,0x4000
 20009d0:	0400b423 	sb	zero,45(v0)
 20009d4:	80200037 	lui	v0,0x4000
 20009d8:	04016c23 	sb	zero,91(v0)
 20009dc:	80000413 	li	v0,1
 20009e0:	0460a823 	sb	v0,42(v1)
 20009e4:	004000eb 	ret
 20009e8:	80200037 	lui	v0,0x4000
 20009ec:	0400b423 	sb	zero,45(v0)
 20009f0:	80200037 	lui	v0,0x4000
 20009f4:	04016c23 	sb	zero,91(v0)
 20009f8:	80000413 	li	v0,1
 20009fc:	0460a423 	sb	v0,41(v1)
 2000a00:	004000eb 	ret
 2000a04:	98200037 	lui	a1,0x4000
 2000a08:	80000413 	li	v0,1
 2000a0c:	04c0b423 	sb	zero,45(a1)
 2000a10:	98200037 	lui	a1,0x4000
 2000a14:	04e17823 	sb	v0,94(a1)
 2000a18:	98200037 	lui	a1,0x4000
 2000a1c:	04e16c23 	sb	v0,91(a1)
 2000a20:	0464a023 	sb	a0,40(v1)
 2000a24:	004000eb 	ret

02000a28 <t0_taskA1_generic_FH_TUERMODUL_CTRL>:
 2000a28:	80200037 	lui	v0,0x4000
 2000a2c:	84035013 	add	v0,v0,212
 2000a30:	8c003403 	lb	v1,13(v0)
 2000a34:	044048e3 	bnez	v1,2000a58 <t0_taskA1_generic_FH_TUERMODUL_CTRL+0x30>
 2000a38:	8c003c03 	lb	v1,15(v0)
 2000a3c:	04403063 	beqz	v1,2000a54 <t0_taskA1_generic_FH_TUERMODUL_CTRL+0x2c>
 2000a40:	8c003803 	lb	v1,14(v0)
 2000a44:	044020e3 	bnez	v1,2000a54 <t0_taskA1_generic_FH_TUERMODUL_CTRL+0x2c>
 2000a48:	04001023 	sb	zero,4(v0)
 2000a4c:	04001823 	sb	zero,6(v0)
 2000a50:	004000eb 	ret
 2000a54:	004000eb 	ret
 2000a58:	8c002803 	lb	v1,10(v0)
 2000a5c:	044020e3 	bnez	v1,2000a6c <t0_taskA1_generic_FH_TUERMODUL_CTRL+0x44>
 2000a60:	90000c13 	li	a0,3
 2000a64:	88200037 	lui	v1,0x4000
 2000a68:	0464a023 	sb	a0,40(v1)
 2000a6c:	8c004c03 	lb	v1,19(v0)
 2000a70:	044030e3 	bnez	v1,2000a88 <t0_taskA1_generic_FH_TUERMODUL_CTRL+0x60>
 2000a74:	88200037 	lui	v1,0x4000
 2000a78:	0c415023 	sb	zero,212(v1)
 2000a7c:	90000413 	li	a0,1
 2000a80:	88200037 	lui	v1,0x4000
 2000a84:	04647023 	sb	a0,28(v1)
 2000a88:	98200037 	lui	a1,0x4000
 2000a8c:	8cc09c03 	lb	v1,39(a1)
 2000a90:	90000413 	li	a0,1
 2000a94:	a0000813 	li	a2,2
 2000a98:	04242c23 	sb	a0,11(v0)
 2000a9c:	04245023 	sb	a0,20(v0)
 2000aa0:	04693863 	beq	v1,a2,2000b3c <t0_taskA1_generic_FH_TUERMODUL_CTRL+0x114>
 2000aa4:	a8000c13 	li	a3,3
 2000aa8:	0c6a2063 	beq	v1,a3,2000bb8 <t0_taskA1_generic_FH_TUERMODUL_CTRL+0x190>
 2000aac:	90000413 	li	a0,1
 2000ab0:	0465a863 	beq	v1,a0,2000b84 <t0_taskA1_generic_FH_TUERMODUL_CTRL+0x15c>
 2000ab4:	88200037 	lui	v1,0x4000
 2000ab8:	0440b423 	sb	zero,45(v1)
 2000abc:	04e89c23 	sb	a2,39(a1)
 2000ac0:	90200037 	lui	a0,0x4000
 2000ac4:	9c809803 	lb	a1,38(a0)
 2000ac8:	88000413 	li	v1,1
 2000acc:	04e26863 	beq	a1,v1,2000b00 <t0_taskA1_generic_FH_TUERMODUL_CTRL+0xd8>
 2000ad0:	98200037 	lui	a1,0x4000
 2000ad4:	04c0b423 	sb	zero,45(a1)
 2000ad8:	04a29823 	sb	v1,38(a0)
 2000adc:	98200037 	lui	a1,0x4000
 2000ae0:	90200037 	lui	a0,0x4000
 2000ae4:	0cc0e123 	sw	zero,184(a1)
 2000ae8:	04a29423 	sb	v1,37(a0)
 2000aec:	94001203 	lbu	a0,4(v0)
 2000af0:	8c001a03 	lbu	v1,6(v0)
 2000af4:	04241423 	sb	a0,5(v0)
 2000af8:	04221c23 	sb	v1,7(v0)
 2000afc:	004000eb 	ret
 2000b00:	88200037 	lui	v1,0x4000
 2000b04:	8c40b003 	lb	v1,44(v1)
 2000b08:	0c67e063 	beq	v1,a1,2000cf8 <t0_taskA1_generic_FH_TUERMODUL_CTRL+0x2d0>
 2000b0c:	90200037 	lui	a0,0x4000
 2000b10:	a4809403 	lb	a2,37(a0)
 2000b14:	98000413 	li	a1,1
 2000b18:	0d270863 	beq	a2,a1,2000c9c <t0_taskA1_generic_FH_TUERMODUL_CTRL+0x274>
 2000b1c:	88200037 	lui	v1,0x4000
 2000b20:	0440b423 	sb	zero,45(v1)
 2000b24:	04a69423 	sb	a1,37(a0)
 2000b28:	8c001a03 	lbu	v1,6(v0)
 2000b2c:	94001203 	lbu	a0,4(v0)
 2000b30:	04221c23 	sb	v1,7(v0)
 2000b34:	04241423 	sb	a0,5(v0)
 2000b38:	004000eb 	ret
 2000b3c:	88200037 	lui	v1,0x4000
 2000b40:	8c418c03 	lb	v1,99(v1)
 2000b44:	04402063 	beqz	v1,2000b54 <t0_taskA1_generic_FH_TUERMODUL_CTRL+0x12c>
 2000b48:	88200037 	lui	v1,0x4000
 2000b4c:	8c418403 	lb	v1,97(v1)
 2000b50:	14401063 	beqz	v1,2000d58 <t0_taskA1_generic_FH_TUERMODUL_CTRL+0x330>
 2000b54:	90200037 	lui	a0,0x4000
 2000b58:	8c80ac03 	lb	v1,43(a0)
 2000b5c:	98000813 	li	a1,2
 2000b60:	14675863 	beq	v1,a1,2000e0c <t0_taskA1_generic_FH_TUERMODUL_CTRL+0x3e4>
 2000b64:	a0000c13 	li	a2,3
 2000b68:	1468f863 	beq	v1,a2,2000de4 <t0_taskA1_generic_FH_TUERMODUL_CTRL+0x3bc>
 2000b6c:	98000413 	li	a1,1
 2000b70:	14665063 	beq	v1,a1,2000d98 <t0_taskA1_generic_FH_TUERMODUL_CTRL+0x370>
 2000b74:	88200037 	lui	v1,0x4000
 2000b78:	0440b423 	sb	zero,45(v1)
 2000b7c:	04a8ac23 	sb	a2,43(a0)
 2000b80:	ffffd067 	j	2000ac0 <t0_taskA1_generic_FH_TUERMODUL_CTRL+0x98>
 2000b84:	88200037 	lui	v1,0x4000
 2000b88:	8c42e103 	lw	v1,184(v1)
 2000b8c:	9000ec13 	li	a0,59
 2000b90:	fc6460e3 	bne	v1,a0,2000ac0 <t0_taskA1_generic_FH_TUERMODUL_CTRL+0x98>
 2000b94:	90200037 	lui	a0,0x4000
 2000b98:	9482c103 	lw	a0,176(a0)
 2000b9c:	fca24863 	beq	a0,v1,2000ac0 <t0_taskA1_generic_FH_TUERMODUL_CTRL+0x98>
 2000ba0:	88200037 	lui	v1,0x4000
 2000ba4:	0440b423 	sb	zero,45(v1)
 2000ba8:	88200037 	lui	v1,0x4000
 2000bac:	04ea9c23 	sb	a3,39(a1)
 2000bb0:	046a9023 	sb	a3,36(v1)
 2000bb4:	ffffc367 	j	2000ac0 <t0_taskA1_generic_FH_TUERMODUL_CTRL+0x98>
 2000bb8:	88200037 	lui	v1,0x4000
 2000bbc:	8c42e103 	lw	v1,184(v1)
 2000bc0:	8c40f513 	slt	v1,v1,61
 2000bc4:	044098e3 	bnez	v1,2000c10 <t0_taskA1_generic_FH_TUERMODUL_CTRL+0x1e8>
 2000bc8:	88200037 	lui	v1,0x4000
 2000bcc:	8c42c103 	lw	v1,176(v1)
 2000bd0:	8c40f513 	slt	v1,v1,61
 2000bd4:	04407863 	beqz	v1,2000c10 <t0_taskA1_generic_FH_TUERMODUL_CTRL+0x1e8>
 2000bd8:	88200037 	lui	v1,0x4000
 2000bdc:	8c41bc03 	lb	v1,111(v1)
 2000be0:	044060e3 	bnez	v1,2000c10 <t0_taskA1_generic_FH_TUERMODUL_CTRL+0x1e8>
 2000be4:	88200037 	lui	v1,0x4000
 2000be8:	8c41c403 	lb	v1,113(v1)
 2000bec:	044048e3 	bnez	v1,2000c10 <t0_taskA1_generic_FH_TUERMODUL_CTRL+0x1e8>
 2000bf0:	88200037 	lui	v1,0x4000
 2000bf4:	0440b423 	sb	zero,45(v1)
 2000bf8:	88200037 	lui	v1,0x4000
 2000bfc:	04416023 	sb	zero,88(v1)
 2000c00:	88200037 	lui	v1,0x4000
 2000c04:	04415423 	sb	zero,85(v1)
 2000c08:	04e49c23 	sb	a0,39(a1)
 2000c0c:	ffffad67 	j	2000ac0 <t0_taskA1_generic_FH_TUERMODUL_CTRL+0x98>
 2000c10:	88200037 	lui	v1,0x4000
 2000c14:	8c418c03 	lb	v1,99(v1)
 2000c18:	0440a863 	beqz	v1,2000c6c <t0_taskA1_generic_FH_TUERMODUL_CTRL+0x244>
 2000c1c:	88200037 	lui	v1,0x4000
 2000c20:	8c418403 	lb	v1,97(v1)
 2000c24:	044090e3 	bnez	v1,2000c6c <t0_taskA1_generic_FH_TUERMODUL_CTRL+0x244>
 2000c28:	88200037 	lui	v1,0x4000
 2000c2c:	8c415803 	lb	v1,86(v1)
 2000c30:	1441d863 	beqz	v1,2000f1c <t0_taskA1_generic_FH_TUERMODUL_CTRL+0x4f4>
 2000c34:	88200037 	lui	v1,0x4000
 2000c38:	9440c103 	lw	a0,48(v1)
 2000c3c:	88200037 	lui	v1,0x4000
 2000c40:	0440b423 	sb	zero,45(v1)
 2000c44:	88200037 	lui	v1,0x4000
 2000c48:	04415423 	sb	zero,85(v1)
 2000c4c:	88200037 	lui	v1,0x4000
 2000c50:	0c651123 	sw	a0,196(v1)
 2000c54:	88000813 	li	v1,2
 2000c58:	04e29c23 	sb	v1,39(a1)
 2000c5c:	90000c13 	li	a0,3
 2000c60:	88200037 	lui	v1,0x4000
 2000c64:	0464ac23 	sb	a0,43(v1)
 2000c68:	ffff9667 	j	2000ac0 <t0_taskA1_generic_FH_TUERMODUL_CTRL+0x98>
 2000c6c:	90200037 	lui	a0,0x4000
 2000c70:	8c809003 	lb	v1,36(a0)
 2000c74:	98000813 	li	a1,2
 2000c78:	14662063 	beq	v1,a1,2000e88 <t0_taskA1_generic_FH_TUERMODUL_CTRL+0x460>
 2000c7c:	a0000c13 	li	a2,3
 2000c80:	0c696863 	beq	v1,a2,2000e34 <t0_taskA1_generic_FH_TUERMODUL_CTRL+0x40c>
 2000c84:	a8000413 	li	a3,1
 2000c88:	0c6a6863 	beq	v1,a3,2000dbc <t0_taskA1_generic_FH_TUERMODUL_CTRL+0x394>
 2000c8c:	88200037 	lui	v1,0x4000
 2000c90:	0440b423 	sb	zero,45(v1)
 2000c94:	04a89023 	sb	a2,36(a0)
 2000c98:	ffff8a67 	j	2000ac0 <t0_taskA1_generic_FH_TUERMODUL_CTRL+0x98>
 2000c9c:	f468a0e3 	bne	v1,a2,2000aec <t0_taskA1_generic_FH_TUERMODUL_CTRL+0xc4>
 2000ca0:	98200037 	lui	a1,0x4000
 2000ca4:	9cc32103 	lw	a1,200(a1)
 2000ca8:	f4c08863 	beqz	a1,2000aec <t0_taskA1_generic_FH_TUERMODUL_CTRL+0xc4>
 2000cac:	a0200037 	lui	a2,0x4000
 2000cb0:	a500c103 	lw	a2,48(a2)
 2000cb4:	a53ff413 	add	a2,a2,-3
 2000cb8:	f4e868e3 	bne	a1,a2,2000aec <t0_taskA1_generic_FH_TUERMODUL_CTRL+0xc4>
 2000cbc:	98200037 	lui	a1,0x4000
 2000cc0:	9cc16403 	lb	a1,89(a1)
 2000cc4:	f4c050e3 	bnez	a1,2000aec <t0_taskA1_generic_FH_TUERMODUL_CTRL+0xc4>
 2000cc8:	98200037 	lui	a1,0x4000
 2000ccc:	9cc15803 	lb	a1,86(a1)
 2000cd0:	f4c038e3 	bnez	a1,2000aec <t0_taskA1_generic_FH_TUERMODUL_CTRL+0xc4>
 2000cd4:	98200037 	lui	a1,0x4000
 2000cd8:	a4c2e103 	lw	a2,184(a1)
 2000cdc:	f02822e3 	blez	a2,2000aec <t0_taskA1_generic_FH_TUERMODUL_CTRL+0xc4>
 2000ce0:	a53ffc13 	add	a2,a2,-1
 2000ce4:	a8200037 	lui	a3,0x4000
 2000ce8:	0540b423 	sb	zero,45(a3)
 2000cec:	0ce8e123 	sw	a2,184(a1)
 2000cf0:	04a29423 	sb	v1,37(a0)
 2000cf4:	ffff7e67 	j	2000aec <t0_taskA1_generic_FH_TUERMODUL_CTRL+0xc4>
 2000cf8:	98200037 	lui	a1,0x4000
 2000cfc:	9cc33103 	lw	a1,204(a1)
 2000d00:	f4c01863 	beqz	a1,2000b0c <t0_taskA1_generic_FH_TUERMODUL_CTRL+0xe4>
 2000d04:	a0200037 	lui	a2,0x4000
 2000d08:	a500c103 	lw	a2,48(a2)
 2000d0c:	9d270033 	sub	a1,a2,a1
 2000d10:	ece3f8e3 	bne	a1,v1,2000b0c <t0_taskA1_generic_FH_TUERMODUL_CTRL+0xe4>
 2000d14:	98200037 	lui	a1,0x4000
 2000d18:	9cc16403 	lb	a1,89(a1)
 2000d1c:	04c020e3 	bnez	a1,2000d2c <t0_taskA1_generic_FH_TUERMODUL_CTRL+0x304>
 2000d20:	98200037 	lui	a1,0x4000
 2000d24:	9cc15803 	lb	a1,86(a1)
 2000d28:	ecc1c863 	beqz	a1,2000b0c <t0_taskA1_generic_FH_TUERMODUL_CTRL+0xe4>
 2000d2c:	98200037 	lui	a1,0x4000
 2000d30:	a4c2e103 	lw	a2,184(a1)
 2000d34:	88000413 	li	v1,1
 2000d38:	a8200037 	lui	a3,0x4000
 2000d3c:	a5000413 	add	a2,a2,1
 2000d40:	04a29823 	sb	v1,38(a0)
 2000d44:	90200037 	lui	a0,0x4000
 2000d48:	0540b423 	sb	zero,45(a3)
 2000d4c:	0ce8e123 	sw	a2,184(a1)
 2000d50:	04a29423 	sb	v1,37(a0)
 2000d54:	ffff6667 	j	2000aec <t0_taskA1_generic_FH_TUERMODUL_CTRL+0xc4>
 2000d58:	88200037 	lui	v1,0x4000
 2000d5c:	8c416403 	lb	v1,89(v1)
 2000d60:	ec41e863 	beqz	v1,2000b54 <t0_taskA1_generic_FH_TUERMODUL_CTRL+0x12c>
 2000d64:	88200037 	lui	v1,0x4000
 2000d68:	a440c103 	lw	a2,48(v1)
 2000d6c:	90200037 	lui	a0,0x4000
 2000d70:	0480b423 	sb	zero,45(a0)
 2000d74:	90200037 	lui	a0,0x4000
 2000d78:	04816023 	sb	zero,88(a0)
 2000d7c:	90200037 	lui	a0,0x4000
 2000d80:	88000c13 	li	v1,3
 2000d84:	0ca8f123 	sw	a2,188(a0)
 2000d88:	90200037 	lui	a0,0x4000
 2000d8c:	04e29c23 	sb	v1,39(a1)
 2000d90:	04a29023 	sb	v1,36(a0)
 2000d94:	ffff4b67 	j	2000ac0 <t0_taskA1_generic_FH_TUERMODUL_CTRL+0x98>
 2000d98:	88200037 	lui	v1,0x4000
 2000d9c:	8c417c03 	lb	v1,95(v1)
 2000da0:	ec4040e3 	bnez	v1,2000ac0 <t0_taskA1_generic_FH_TUERMODUL_CTRL+0x98>
 2000da4:	88200037 	lui	v1,0x4000
 2000da8:	0440b423 	sb	zero,45(v1)
 2000dac:	88200037 	lui	v1,0x4000
 2000db0:	04416023 	sb	zero,88(v1)
 2000db4:	04a8ac23 	sb	a2,43(a0)
 2000db8:	ffff4267 	j	2000ac0 <t0_taskA1_generic_FH_TUERMODUL_CTRL+0x98>
 2000dbc:	a8200037 	lui	a3,0x4000
 2000dc0:	ad429103 	lw	a3,164(a3)
 2000dc4:	ad465513 	slt	a3,a3,405
 2000dc8:	0d4158e3 	bnez	a3,2000f74 <t0_taskA1_generic_FH_TUERMODUL_CTRL+0x54c>
 2000dcc:	88200037 	lui	v1,0x4000
 2000dd0:	0440b423 	sb	zero,45(v1)
 2000dd4:	88200037 	lui	v1,0x4000
 2000dd8:	04415423 	sb	zero,85(v1)
 2000ddc:	04a89023 	sb	a2,36(a0)
 2000de0:	ffff3867 	j	2000ac0 <t0_taskA1_generic_FH_TUERMODUL_CTRL+0x98>
 2000de4:	88200037 	lui	v1,0x4000
 2000de8:	8c417003 	lb	v1,92(v1)
 2000dec:	0c40c063 	beqz	v1,2000f4c <t0_taskA1_generic_FH_TUERMODUL_CTRL+0x524>
 2000df0:	88200037 	lui	v1,0x4000
 2000df4:	0440b423 	sb	zero,45(v1)
 2000df8:	a0000413 	li	a2,1
 2000dfc:	88200037 	lui	v1,0x4000
 2000e00:	04695423 	sb	a2,85(v1)
 2000e04:	04a6ac23 	sb	a1,43(a0)
 2000e08:	ffff2e67 	j	2000ac0 <t0_taskA1_generic_FH_TUERMODUL_CTRL+0x98>
 2000e0c:	88200037 	lui	v1,0x4000
 2000e10:	8c417003 	lb	v1,92(v1)
 2000e14:	e44158e3 	bnez	v1,2000ac0 <t0_taskA1_generic_FH_TUERMODUL_CTRL+0x98>
 2000e18:	88200037 	lui	v1,0x4000
 2000e1c:	0440b423 	sb	zero,45(v1)
 2000e20:	88200037 	lui	v1,0x4000
 2000e24:	04415423 	sb	zero,85(v1)
 2000e28:	88000c13 	li	v1,3
 2000e2c:	04a2ac23 	sb	v1,43(a0)
 2000e30:	ffff2467 	j	2000ac0 <t0_taskA1_generic_FH_TUERMODUL_CTRL+0x98>
 2000e34:	88200037 	lui	v1,0x4000
 2000e38:	8c417c03 	lb	v1,95(v1)
 2000e3c:	04412063 	beqz	v1,2000ecc <t0_taskA1_generic_FH_TUERMODUL_CTRL+0x4a4>
 2000e40:	88200037 	lui	v1,0x4000
 2000e44:	8c417403 	lb	v1,93(v1)
 2000e48:	044108e3 	bnez	v1,2000ecc <t0_taskA1_generic_FH_TUERMODUL_CTRL+0x4a4>
 2000e4c:	88200037 	lui	v1,0x4000
 2000e50:	8c429103 	lw	v1,164(v1)
 2000e54:	0022f2e3 	blez	v1,2000ecc <t0_taskA1_generic_FH_TUERMODUL_CTRL+0x4a4>
 2000e58:	04a69023 	sb	a1,36(a0)
 2000e5c:	90200037 	lui	a0,0x4000
 2000e60:	04a68023 	sb	a1,32(a0)
 2000e64:	90200037 	lui	a0,0x4000
 2000e68:	88000413 	li	v1,1
 2000e6c:	a0200037 	lui	a2,0x4000
 2000e70:	04a68823 	sb	a1,34(a0)
 2000e74:	90200037 	lui	a0,0x4000
 2000e78:	0500b423 	sb	zero,45(a2)
 2000e7c:	04224423 	sb	v1,17(v0)
 2000e80:	04a36023 	sb	v1,88(a0)
 2000e84:	ffff0f67 	j	2000ac0 <t0_taskA1_generic_FH_TUERMODUL_CTRL+0x98>
 2000e88:	98200037 	lui	a1,0x4000
 2000e8c:	9cc29103 	lw	a1,164(a1)
 2000e90:	08260ae3 	blez	a1,2000f94 <t0_taskA1_generic_FH_TUERMODUL_CTRL+0x56c>
 2000e94:	a8200037 	lui	a3,0x4000
 2000e98:	9d408003 	lb	a1,32(a3)
 2000e9c:	a0000413 	li	a2,1
 2000ea0:	0ce8b863 	beq	a1,a2,2000ffc <t0_taskA1_generic_FH_TUERMODUL_CTRL+0x5d4>
 2000ea4:	0ce21863 	beq	a1,v1,2000fb0 <t0_taskA1_generic_FH_TUERMODUL_CTRL+0x588>
 2000ea8:	90200037 	lui	a0,0x4000
 2000eac:	0480b423 	sb	zero,45(a0)
 2000eb0:	90200037 	lui	a0,0x4000
 2000eb4:	05628023 	sb	v1,32(a3)
 2000eb8:	04a28823 	sb	v1,34(a0)
 2000ebc:	88200037 	lui	v1,0x4000
 2000ec0:	04284423 	sb	a2,17(v0)
 2000ec4:	04696023 	sb	a2,88(v1)
 2000ec8:	fffefe67 	j	2000ac0 <t0_taskA1_generic_FH_TUERMODUL_CTRL+0x98>
 2000ecc:	88200037 	lui	v1,0x4000
 2000ed0:	8c417003 	lb	v1,92(v1)
 2000ed4:	dc41d863 	beqz	v1,2000ac0 <t0_taskA1_generic_FH_TUERMODUL_CTRL+0x98>
 2000ed8:	88200037 	lui	v1,0x4000
 2000edc:	8c416803 	lb	v1,90(v1)
 2000ee0:	dc41c0e3 	bnez	v1,2000ac0 <t0_taskA1_generic_FH_TUERMODUL_CTRL+0x98>
 2000ee4:	88200037 	lui	v1,0x4000
 2000ee8:	8c429103 	lw	v1,164(v1)
 2000eec:	8c465513 	slt	v1,v1,405
 2000ef0:	dc41a063 	beqz	v1,2000ac0 <t0_taskA1_generic_FH_TUERMODUL_CTRL+0x98>
 2000ef4:	98200037 	lui	a1,0x4000
 2000ef8:	88000413 	li	v1,1
 2000efc:	04c0b423 	sb	zero,45(a1)
 2000f00:	98200037 	lui	a1,0x4000
 2000f04:	04a29023 	sb	v1,36(a0)
 2000f08:	04e35423 	sb	v1,85(a1)
 2000f0c:	90000813 	li	a0,2
 2000f10:	88200037 	lui	v1,0x4000
 2000f14:	04648423 	sb	a0,33(v1)
 2000f18:	fffeea67 	j	2000ac0 <t0_taskA1_generic_FH_TUERMODUL_CTRL+0x98>
 2000f1c:	88200037 	lui	v1,0x4000
 2000f20:	8c416403 	lb	v1,89(v1)
 2000f24:	ec409063 	beqz	v1,2000c6c <t0_taskA1_generic_FH_TUERMODUL_CTRL+0x244>
 2000f28:	88200037 	lui	v1,0x4000
 2000f2c:	9440c103 	lw	a0,48(v1)
 2000f30:	88200037 	lui	v1,0x4000
 2000f34:	0440b423 	sb	zero,45(v1)
 2000f38:	88200037 	lui	v1,0x4000
 2000f3c:	04416023 	sb	zero,88(v1)
 2000f40:	88200037 	lui	v1,0x4000
 2000f44:	0c650123 	sw	a0,192(v1)
 2000f48:	ffff4367 	j	2000c54 <t0_taskA1_generic_FH_TUERMODUL_CTRL+0x22c>
 2000f4c:	88200037 	lui	v1,0x4000
 2000f50:	8c417c03 	lb	v1,95(v1)
 2000f54:	dc40d863 	beqz	v1,2000ac0 <t0_taskA1_generic_FH_TUERMODUL_CTRL+0x98>
 2000f58:	98200037 	lui	a1,0x4000
 2000f5c:	88000413 	li	v1,1
 2000f60:	04c0b423 	sb	zero,45(a1)
 2000f64:	98200037 	lui	a1,0x4000
 2000f68:	04e36023 	sb	v1,88(a1)
 2000f6c:	04a2ac23 	sb	v1,43(a0)
 2000f70:	fffed467 	j	2000ac0 <t0_taskA1_generic_FH_TUERMODUL_CTRL+0x98>
 2000f74:	a8200037 	lui	a3,0x4000
 2000f78:	a5408403 	lb	a2,33(a3)
 2000f7c:	0d220863 	beq	a2,v1,2001080 <t0_taskA1_generic_FH_TUERMODUL_CTRL+0x658>
 2000f80:	0527b063 	beq	a2,a1,2001058 <t0_taskA1_generic_FH_TUERMODUL_CTRL+0x630>
 2000f84:	88200037 	lui	v1,0x4000
 2000f88:	0440b423 	sb	zero,45(v1)
 2000f8c:	05668423 	sb	a1,33(a3)
 2000f90:	fffecc67 	j	2000ac0 <t0_taskA1_generic_FH_TUERMODUL_CTRL+0x98>
 2000f94:	88200037 	lui	v1,0x4000
 2000f98:	0440b423 	sb	zero,45(v1)
 2000f9c:	88200037 	lui	v1,0x4000
 2000fa0:	04416023 	sb	zero,88(v1)
 2000fa4:	88000c13 	li	v1,3
 2000fa8:	04a29023 	sb	v1,36(a0)
 2000fac:	fffec567 	j	2000ac0 <t0_taskA1_generic_FH_TUERMODUL_CTRL+0x98>
 2000fb0:	88200037 	lui	v1,0x4000
 2000fb4:	8c417c03 	lb	v1,95(v1)
 2000fb8:	044020e3 	bnez	v1,2000fc8 <t0_taskA1_generic_FH_TUERMODUL_CTRL+0x5a0>
 2000fbc:	88200037 	lui	v1,0x4000
 2000fc0:	8c417403 	lb	v1,93(v1)
 2000fc4:	fc41a0e3 	bnez	v1,2000f94 <t0_taskA1_generic_FH_TUERMODUL_CTRL+0x56c>
 2000fc8:	98200037 	lui	a1,0x4000
 2000fcc:	94c08803 	lb	a0,34(a1)
 2000fd0:	88000413 	li	v1,1
 2000fd4:	0ca2c863 	beq	a0,v1,2001138 <t0_taskA1_generic_FH_TUERMODUL_CTRL+0x710>
 2000fd8:	a0000813 	li	a2,2
 2000fdc:	0ca82863 	beq	a0,a2,20010f0 <t0_taskA1_generic_FH_TUERMODUL_CTRL+0x6c8>
 2000fe0:	90200037 	lui	a0,0x4000
 2000fe4:	0480b423 	sb	zero,45(a0)
 2000fe8:	90200037 	lui	a0,0x4000
 2000fec:	04e88823 	sb	a2,34(a1)
 2000ff0:	04224423 	sb	v1,17(v0)
 2000ff4:	04a36023 	sb	v1,88(a0)
 2000ff8:	fffeb267 	j	2000ac0 <t0_taskA1_generic_FH_TUERMODUL_CTRL+0x98>
 2000ffc:	88200037 	lui	v1,0x4000
 2001000:	8c417003 	lb	v1,92(v1)
 2001004:	04402063 	beqz	v1,2001014 <t0_taskA1_generic_FH_TUERMODUL_CTRL+0x5ec>
 2001008:	88200037 	lui	v1,0x4000
 200100c:	8c416803 	lb	v1,90(v1)
 2001010:	fc410863 	beqz	v1,2000f94 <t0_taskA1_generic_FH_TUERMODUL_CTRL+0x56c>
 2001014:	88200037 	lui	v1,0x4000
 2001018:	8c417c03 	lb	v1,95(v1)
 200101c:	04402063 	beqz	v1,200102c <t0_taskA1_generic_FH_TUERMODUL_CTRL+0x604>
 2001020:	88200037 	lui	v1,0x4000
 2001024:	8c417403 	lb	v1,93(v1)
 2001028:	fc40d863 	beqz	v1,2000f94 <t0_taskA1_generic_FH_TUERMODUL_CTRL+0x56c>
 200102c:	98200037 	lui	a1,0x4000
 2001030:	94c08c03 	lb	a0,35(a1)
 2001034:	88000413 	li	v1,1
 2001038:	0ca30863 	beq	a0,v1,20011bc <t0_taskA1_generic_FH_TUERMODUL_CTRL+0x794>
 200103c:	a0000813 	li	a2,2
 2001040:	0ca86863 	beq	a0,a2,2001174 <t0_taskA1_generic_FH_TUERMODUL_CTRL+0x74c>
 2001044:	90200037 	lui	a0,0x4000
 2001048:	0480b423 	sb	zero,45(a0)
 200104c:	04e88c23 	sb	a2,35(a1)
 2001050:	04224423 	sb	v1,17(v0)
 2001054:	fffe9b67 	j	2000ac0 <t0_taskA1_generic_FH_TUERMODUL_CTRL+0x98>
 2001058:	98200037 	lui	a1,0x4000
 200105c:	9cc17c03 	lb	a1,95(a1)
 2001060:	04c0b063 	beqz	a1,20010b8 <t0_taskA1_generic_FH_TUERMODUL_CTRL+0x690>
 2001064:	98200037 	lui	a1,0x4000
 2001068:	9cc17403 	lb	a1,93(a1)
 200106c:	04c098e3 	bnez	a1,20010b8 <t0_taskA1_generic_FH_TUERMODUL_CTRL+0x690>
 2001070:	90200037 	lui	a0,0x4000
 2001074:	0480b423 	sb	zero,45(a0)
 2001078:	05628423 	sb	v1,33(a3)
 200107c:	fffe9167 	j	2000ac0 <t0_taskA1_generic_FH_TUERMODUL_CTRL+0x98>
 2001080:	88200037 	lui	v1,0x4000
 2001084:	8c417c03 	lb	v1,95(v1)
 2001088:	04409863 	beqz	v1,20010d4 <t0_taskA1_generic_FH_TUERMODUL_CTRL+0x6ac>
 200108c:	88200037 	lui	v1,0x4000
 2001090:	8c417403 	lb	v1,93(v1)
 2001094:	044080e3 	bnez	v1,20010d4 <t0_taskA1_generic_FH_TUERMODUL_CTRL+0x6ac>
 2001098:	88200037 	lui	v1,0x4000
 200109c:	0440b423 	sb	zero,45(v1)
 20010a0:	88200037 	lui	v1,0x4000
 20010a4:	04415423 	sb	zero,85(v1)
 20010a8:	88000c13 	li	v1,3
 20010ac:	04a29023 	sb	v1,36(a0)
 20010b0:	05408423 	sb	zero,33(a3)
 20010b4:	fffe8367 	j	2000ac0 <t0_taskA1_generic_FH_TUERMODUL_CTRL+0x98>
 20010b8:	88200037 	lui	v1,0x4000
 20010bc:	8c417003 	lb	v1,92(v1)
 20010c0:	d44000e3 	bnez	v1,2000ac0 <t0_taskA1_generic_FH_TUERMODUL_CTRL+0x98>
 20010c4:	88200037 	lui	v1,0x4000
 20010c8:	8c416803 	lb	v1,90(v1)
 20010cc:	cc41e863 	beqz	v1,2000ac0 <t0_taskA1_generic_FH_TUERMODUL_CTRL+0x98>
 20010d0:	fffff267 	j	2001098 <t0_taskA1_generic_FH_TUERMODUL_CTRL+0x670>
 20010d4:	88200037 	lui	v1,0x4000
 20010d8:	8c417003 	lb	v1,92(v1)
 20010dc:	cc41c863 	beqz	v1,2000ac0 <t0_taskA1_generic_FH_TUERMODUL_CTRL+0x98>
 20010e0:	88200037 	lui	v1,0x4000
 20010e4:	8c416803 	lb	v1,90(v1)
 20010e8:	cc41b0e3 	bnez	v1,2000ac0 <t0_taskA1_generic_FH_TUERMODUL_CTRL+0x98>
 20010ec:	ffffeb67 	j	2001098 <t0_taskA1_generic_FH_TUERMODUL_CTRL+0x670>
 20010f0:	94006003 	lb	a0,24(v0)
 20010f4:	0c800863 	beqz	a0,20011f8 <t0_taskA1_generic_FH_TUERMODUL_CTRL+0x7d0>
 20010f8:	90200037 	lui	a0,0x4000
 20010fc:	a480c103 	lw	a2,48(a0)
 2001100:	90200037 	lui	a0,0x4000
 2001104:	0480b423 	sb	zero,45(a0)
 2001108:	90200037 	lui	a0,0x4000
 200110c:	04816023 	sb	zero,88(a0)
 2001110:	90200037 	lui	a0,0x4000
 2001114:	04a3b823 	sb	v1,110(a0)
 2001118:	90200037 	lui	a0,0x4000
 200111c:	0ca8a123 	sw	a2,168(a0)
 2001120:	90200037 	lui	a0,0x4000
 2001124:	04225c23 	sb	v1,23(v0)
 2001128:	04e28823 	sb	v1,34(a1)
 200112c:	04004423 	sb	zero,17(v0)
 2001130:	04a35423 	sb	v1,85(a0)
 2001134:	fffe6367 	j	2000ac0 <t0_taskA1_generic_FH_TUERMODUL_CTRL+0x98>
 2001138:	8c005803 	lb	v1,22(v0)
 200113c:	04005c23 	sb	zero,23(v0)
 2001140:	cc410063 	beqz	v1,2000ac0 <t0_taskA1_generic_FH_TUERMODUL_CTRL+0x98>
 2001144:	88200037 	lui	v1,0x4000
 2001148:	0440b423 	sb	zero,45(v1)
 200114c:	88200037 	lui	v1,0x4000
 2001150:	0441b823 	sb	zero,110(v1)
 2001154:	88000813 	li	v1,2
 2001158:	04e28823 	sb	v1,34(a1)
 200115c:	88200037 	lui	v1,0x4000
 2001160:	04415423 	sb	zero,85(v1)
 2001164:	88200037 	lui	v1,0x4000
 2001168:	04244423 	sb	a0,17(v0)
 200116c:	04656023 	sb	a0,88(v1)
 2001170:	fffe5467 	j	2000ac0 <t0_taskA1_generic_FH_TUERMODUL_CTRL+0x98>
 2001174:	94006003 	lb	a0,24(v0)
 2001178:	cc809063 	beqz	a0,2000ac0 <t0_taskA1_generic_FH_TUERMODUL_CTRL+0x98>
 200117c:	90200037 	lui	a0,0x4000
 2001180:	a480c103 	lw	a2,48(a0)
 2001184:	90200037 	lui	a0,0x4000
 2001188:	0480b423 	sb	zero,45(a0)
 200118c:	90200037 	lui	a0,0x4000
 2001190:	04a3c023 	sb	v1,112(a0)
 2001194:	90200037 	lui	a0,0x4000
 2001198:	04816023 	sb	zero,88(a0)
 200119c:	90200037 	lui	a0,0x4000
 20011a0:	0ca8b123 	sw	a2,172(a0)
 20011a4:	90200037 	lui	a0,0x4000
 20011a8:	04225c23 	sb	v1,23(v0)
 20011ac:	04e28c23 	sb	v1,35(a1)
 20011b0:	04004423 	sb	zero,17(v0)
 20011b4:	04a35423 	sb	v1,85(a0)
 20011b8:	fffe4267 	j	2000ac0 <t0_taskA1_generic_FH_TUERMODUL_CTRL+0x98>
 20011bc:	8c005803 	lb	v1,22(v0)
 20011c0:	04005c23 	sb	zero,23(v0)
 20011c4:	c441f863 	beqz	v1,2000ac0 <t0_taskA1_generic_FH_TUERMODUL_CTRL+0x98>
 20011c8:	88200037 	lui	v1,0x4000
 20011cc:	0440b423 	sb	zero,45(v1)
 20011d0:	88200037 	lui	v1,0x4000
 20011d4:	04656023 	sb	a0,88(v1)
 20011d8:	88200037 	lui	v1,0x4000
 20011dc:	0441c023 	sb	zero,112(v1)
 20011e0:	88000813 	li	v1,2
 20011e4:	04e28c23 	sb	v1,35(a1)
 20011e8:	88200037 	lui	v1,0x4000
 20011ec:	04415423 	sb	zero,85(v1)
 20011f0:	04244423 	sb	a0,17(v0)
 20011f4:	fffe3367 	j	2000ac0 <t0_taskA1_generic_FH_TUERMODUL_CTRL+0x98>
 20011f8:	90200037 	lui	a0,0x4000
 20011fc:	94817003 	lb	a0,92(a0)
 2001200:	c4818063 	beqz	a0,2000ac0 <t0_taskA1_generic_FH_TUERMODUL_CTRL+0x98>
 2001204:	90200037 	lui	a0,0x4000
 2001208:	94816803 	lb	a0,90(a0)
 200120c:	c48168e3 	bnez	a0,2000ac0 <t0_taskA1_generic_FH_TUERMODUL_CTRL+0x98>
 2001210:	90200037 	lui	a0,0x4000
 2001214:	0480b423 	sb	zero,45(a0)
 2001218:	05628023 	sb	v1,32(a3)
 200121c:	04c08823 	sb	zero,34(a1)
 2001220:	fffe2867 	j	2000ac0 <t0_taskA1_generic_FH_TUERMODUL_CTRL+0x98>

02001224 <t0_taskA1_generic_EINKLEMMSCHUTZ_CTRL>:
 2001224:	80200037 	lui	v0,0x4000
 2001228:	84035013 	add	v0,v0,212
 200122c:	8c004003 	lb	v1,16(v0)
 2001230:	04405063 	beqz	v1,2001258 <t0_taskA1_generic_EINKLEMMSCHUTZ_CTRL+0x34>
 2001234:	90200037 	lui	a0,0x4000
 2001238:	8c807803 	lb	v1,30(a0)
 200123c:	98000413 	li	a1,1
 2001240:	04663863 	beq	v1,a1,200125c <t0_taskA1_generic_EINKLEMMSCHUTZ_CTRL+0x38>
 2001244:	a0000813 	li	a2,2
 2001248:	0468c063 	beq	v1,a2,20012a8 <t0_taskA1_generic_EINKLEMMSCHUTZ_CTRL+0x84>
 200124c:	80200037 	lui	v0,0x4000
 2001250:	0400b423 	sb	zero,45(v0)
 2001254:	04a67823 	sb	a1,30(a0)
 2001258:	004000eb 	ret
 200125c:	88200037 	lui	v1,0x4000
 2001260:	8c414c03 	lb	v1,83(v1)
 2001264:	fc41e863 	beqz	v1,2001258 <t0_taskA1_generic_EINKLEMMSCHUTZ_CTRL+0x34>
 2001268:	88200037 	lui	v1,0x4000
 200126c:	8c414803 	lb	v1,82(v1)
 2001270:	fc41d0e3 	bnez	v1,2001258 <t0_taskA1_generic_EINKLEMMSCHUTZ_CTRL+0x34>
 2001274:	88200037 	lui	v1,0x4000
 2001278:	8c417c03 	lb	v1,95(v1)
 200127c:	04402063 	beqz	v1,200128c <t0_taskA1_generic_EINKLEMMSCHUTZ_CTRL+0x68>
 2001280:	88200037 	lui	v1,0x4000
 2001284:	8c417003 	lb	v1,92(v1)
 2001288:	fc41a0e3 	bnez	v1,2001258 <t0_taskA1_generic_EINKLEMMSCHUTZ_CTRL+0x34>
 200128c:	88200037 	lui	v1,0x4000
 2001290:	0440b423 	sb	zero,45(v1)
 2001294:	88000413 	li	v1,1
 2001298:	04226023 	sb	v1,24(v0)
 200129c:	80000813 	li	v0,2
 20012a0:	04a07823 	sb	v0,30(a0)
 20012a4:	004000eb 	ret
 20012a8:	88200037 	lui	v1,0x4000
 20012ac:	8c414c03 	lb	v1,83(v1)
 20012b0:	04006023 	sb	zero,24(v0)
 20012b4:	fc4148e3 	bnez	v1,2001258 <t0_taskA1_generic_EINKLEMMSCHUTZ_CTRL+0x34>
 20012b8:	80200037 	lui	v0,0x4000
 20012bc:	84014803 	lb	v0,82(v0)
 20012c0:	fc013063 	beqz	v0,2001258 <t0_taskA1_generic_EINKLEMMSCHUTZ_CTRL+0x34>
 20012c4:	80200037 	lui	v0,0x4000
 20012c8:	0400b423 	sb	zero,45(v0)
 20012cc:	04a67823 	sb	a1,30(a0)
 20012d0:	004000eb 	ret

020012d4 <t0_taskA1_generic_BLOCK_ERKENNUNG_CTRL>:
 20012d4:	88200037 	lui	v1,0x4000
 20012d8:	84435013 	add	v0,v1,212
 20012dc:	94004c03 	lb	a0,19(v0)
 20012e0:	048038e3 	bnez	a0,20012fc <t0_taskA1_generic_BLOCK_ERKENNUNG_CTRL+0x28>
 20012e4:	94005403 	lb	a0,21(v0)
 20012e8:	04807063 	beqz	a0,2001320 <t0_taskA1_generic_BLOCK_ERKENNUNG_CTRL+0x4c>
 20012ec:	84005003 	lb	v0,20(v0)
 20012f0:	040060e3 	bnez	v0,2001320 <t0_taskA1_generic_BLOCK_ERKENNUNG_CTRL+0x4c>
 20012f4:	0c415023 	sb	zero,212(v1)
 20012f8:	004000eb 	ret
 20012fc:	90200037 	lui	a0,0x4000
 2001300:	84807003 	lb	v0,28(a0)
 2001304:	98000413 	li	a1,1
 2001308:	04263863 	beq	v0,a1,2001324 <t0_taskA1_generic_BLOCK_ERKENNUNG_CTRL+0x50>
 200130c:	a0000813 	li	a2,2
 2001310:	0428d863 	beq	v0,a2,200137c <t0_taskA1_generic_BLOCK_ERKENNUNG_CTRL+0xa8>
 2001314:	80200037 	lui	v0,0x4000
 2001318:	0400b423 	sb	zero,45(v0)
 200131c:	04a67023 	sb	a1,28(a0)
 2001320:	004000eb 	ret
 2001324:	98200037 	lui	a1,0x4000
 2001328:	a0200037 	lui	a2,0x4000
 200132c:	9cc28103 	lw	a1,160(a1)
 2001330:	a5027103 	lw	a2,156(a2)
 2001334:	fce9d863 	beq	a1,a2,2001320 <t0_taskA1_generic_BLOCK_ERKENNUNG_CTRL+0x4c>
 2001338:	f827d2e3 	blez	a1,2001320 <t0_taskA1_generic_BLOCK_ERKENNUNG_CTRL+0x4c>
 200133c:	98200037 	lui	a1,0x4000
 2001340:	04c0b423 	sb	zero,45(a1)
 2001344:	98200037 	lui	a1,0x4000
 2001348:	04c18823 	sb	zero,98(a1)
 200134c:	98000813 	li	a1,2
 2001350:	04a67023 	sb	a1,28(a0)
 2001354:	90200037 	lui	a0,0x4000
 2001358:	98000813 	li	a1,2
 200135c:	0481f123 	sw	zero,124(a0)
 2001360:	90200037 	lui	a0,0x4000
 2001364:	0ca61123 	sw	a1,132(a0)
 2001368:	98000c13 	li	a1,3
 200136c:	90200037 	lui	a0,0x4000
 2001370:	04a67423 	sb	a1,29(a0)
 2001374:	0c615023 	sb	v0,212(v1)
 2001378:	004000eb 	ret
 200137c:	80200037 	lui	v0,0x4000
 2001380:	84015803 	lb	v0,86(v0)
 2001384:	0400c063 	beqz	v0,20013e4 <t0_taskA1_generic_BLOCK_ERKENNUNG_CTRL+0x110>
 2001388:	80200037 	lui	v0,0x4000
 200138c:	84016403 	lb	v0,89(v0)
 2001390:	040020e3 	bnez	v0,20013a0 <t0_taskA1_generic_BLOCK_ERKENNUNG_CTRL+0xcc>
 2001394:	80200037 	lui	v0,0x4000
 2001398:	84015c03 	lb	v0,87(v0)
 200139c:	0400a8e3 	bnez	v0,20013f0 <t0_taskA1_generic_BLOCK_ERKENNUNG_CTRL+0x11c>
 20013a0:	90200037 	lui	a0,0x4000
 20013a4:	84807403 	lb	v0,29(a0)
 20013a8:	98000813 	li	a1,2
 20013ac:	0427b063 	beq	v0,a1,2001484 <t0_taskA1_generic_BLOCK_ERKENNUNG_CTRL+0x1b0>
 20013b0:	a0000c13 	li	a2,3
 20013b4:	0428b863 	beq	v0,a2,2001410 <t0_taskA1_generic_BLOCK_ERKENNUNG_CTRL+0x13c>
 20013b8:	a8000413 	li	a3,1
 20013bc:	042aa063 	beq	v0,a3,200140c <t0_taskA1_generic_BLOCK_ERKENNUNG_CTRL+0x138>
 20013c0:	80200037 	lui	v0,0x4000
 20013c4:	0400b423 	sb	zero,45(v0)
 20013c8:	80200037 	lui	v0,0x4000
 20013cc:	0401f123 	sw	zero,124(v0)
 20013d0:	80200037 	lui	v0,0x4000
 20013d4:	0c261123 	sw	a1,132(v0)
 20013d8:	04a87423 	sb	a2,29(a0)
 20013dc:	0c6b5023 	sb	a3,212(v1)
 20013e0:	004000eb 	ret
 20013e4:	80200037 	lui	v0,0x4000
 20013e8:	84015003 	lb	v0,84(v0)
 20013ec:	fc013863 	beqz	v0,2001388 <t0_taskA1_generic_BLOCK_ERKENNUNG_CTRL+0xb4>
 20013f0:	80200037 	lui	v0,0x4000
 20013f4:	0400b423 	sb	zero,45(v0)
 20013f8:	80000413 	li	v0,1
 20013fc:	04a07023 	sb	v0,28(a0)
 2001400:	80200037 	lui	v0,0x4000
 2001404:	04007423 	sb	zero,29(v0)
 2001408:	004000eb 	ret
 200140c:	004000eb 	ret
 2001410:	a0200037 	lui	a2,0x4000
 2001414:	8501f103 	lw	v0,124(a2)
 2001418:	0c415023 	sb	zero,212(v1)
 200141c:	88002c13 	li	v1,11
 2001420:	04233063 	beq	v0,v1,20014b8 <t0_taskA1_generic_BLOCK_ERKENNUNG_CTRL+0x1e4>
 2001424:	88200037 	lui	v1,0x4000
 2001428:	9440b003 	lb	a0,44(v1)
 200142c:	88000413 	li	v1,1
 2001430:	f4a3e0e3 	bne	a0,v1,2001320 <t0_taskA1_generic_BLOCK_ERKENNUNG_CTRL+0x4c>
 2001434:	88200037 	lui	v1,0x4000
 2001438:	8c434103 	lw	v1,208(v1)
 200143c:	f441c863 	beqz	v1,2001320 <t0_taskA1_generic_BLOCK_ERKENNUNG_CTRL+0x4c>
 2001440:	90200037 	lui	a0,0x4000
 2001444:	9480c103 	lw	a0,48(a0)
 2001448:	8ca30033 	sub	v1,a0,v1
 200144c:	8c40f0d3 	fcvt.d.wu	fv1,v1
 2001450:	88200037 	lui	v1,0x4000
 2001454:	84402187 	fld	fv0,8(v1)
 2001458:	8c6150d3 	feq.d	v1,fv1,fv0
 200145c:	f4418863 	beqz	v1,2001320 <t0_taskA1_generic_BLOCK_ERKENNUNG_CTRL+0x4c>
 2001460:	88200037 	lui	v1,0x4000
 2001464:	90200037 	lui	a0,0x4000
 2001468:	94828103 	lw	a0,160(a0)
 200146c:	9c421103 	lw	a1,132(v1)
 2001470:	84000413 	add	v0,v0,1
 2001474:	0521f123 	sw	v0,124(a2)
 2001478:	f4e552e3 	ble	a0,a1,2001320 <t0_taskA1_generic_BLOCK_ERKENNUNG_CTRL+0x4c>
 200147c:	0c641123 	sw	a0,132(v1)
 2001480:	004000eb 	ret
 2001484:	80200037 	lui	v0,0x4000
 2001488:	8c021103 	lw	v1,132(v0)
 200148c:	80200037 	lui	v0,0x4000
 2001490:	84028103 	lw	v0,160(v0)
 2001494:	8c7ffc13 	add	v1,v1,-1
 2001498:	f4231263 	blt	v0,v1,2001320 <t0_taskA1_generic_BLOCK_ERKENNUNG_CTRL+0x4c>
 200149c:	88200037 	lui	v1,0x4000
 20014a0:	80000413 	li	v0,1
 20014a4:	0440b423 	sb	zero,45(v1)
 20014a8:	88200037 	lui	v1,0x4000
 20014ac:	04618823 	sb	v0,98(v1)
 20014b0:	04a07423 	sb	v0,29(a0)
 20014b4:	004000eb 	ret
 20014b8:	88200037 	lui	v1,0x4000
 20014bc:	8c41d103 	lw	v1,116(v1)
 20014c0:	fc60c863 	beq	v1,v0,2001424 <t0_taskA1_generic_BLOCK_ERKENNUNG_CTRL+0x150>
 20014c4:	80200037 	lui	v0,0x4000
 20014c8:	0400b423 	sb	zero,45(v0)
 20014cc:	04a67423 	sb	a1,29(a0)
 20014d0:	004000eb 	ret

020014d4 <t0_taskA1_FH_DU>:
 20014d4:	73be2013 	add	sp,sp,-120
 20014d8:	0385c123 	sw	s0,112(sp)
 20014dc:	10200037 	lui	s0,0x4000
 20014e0:	0387b123 	sw	s1,108(sp)
 20014e4:	0389a123 	sw	s2,104(sp)
 20014e8:	038b9123 	sw	s3,100(sp)
 20014ec:	038d8123 	sw	s4,96(sp)
 20014f0:	038f7123 	sw	s5,92(sp)
 20014f4:	03916123 	sw	s6,88(sp)
 20014f8:	03935123 	sw	s7,84(sp)
 20014fc:	03954123 	sw	s8,80(sp)
 2001500:	03973123 	sw	s9,76(sp)
 2001504:	03992123 	sw	s10,72(sp)
 2001508:	039b1123 	sw	s11,68(sp)
 200150c:	0383d123 	sw	ra,116(sp)
 2001510:	10835013 	add	s0,s0,212
 2001514:	88000413 	li	v1,1
 2001518:	80200037 	lui	v0,0x4000
 200151c:	0422c123 	sw	v1,48(v0)
 2001520:	a8804003 	lb	a3,16(s0)
 2001524:	88802803 	lb	v1,10(s0)
 2001528:	b0804c03 	lb	a4,19(s0)
 200152c:	b8803403 	lb	a5,13(s0)
 2001530:	80200037 	lui	v0,0x4000
 2001534:	c0200037 	lui	a6,0x4000
 2001538:	c8200037 	lui	a7,0x4000
 200153c:	0400b023 	sb	zero,44(v0)
 2001540:	03a2a123 	sw	v1,40(sp)
 2001544:	86011803 	lb	v0,70(a6)
 2001548:	03aac123 	sw	a3,48(sp)
 200154c:	03acd123 	sw	a4,52(sp)
 2001550:	03aeb123 	sw	a5,44(sp)
 2001554:	c6411003 	lb	a6,68(a7)
 2001558:	58200037 	lui	s9,0x4000
 200155c:	60200037 	lui	s10,0x4000
 2001560:	20200037 	lui	s2,0x4000
 2001564:	e0200037 	lui	a10,0x4000
 2001568:	18200037 	lui	s1,0x4000
 200156c:	50200037 	lui	s8,0x4000
 2001570:	48200037 	lui	s7,0x4000
 2001574:	40200037 	lui	s6,0x4000
 2001578:	38200037 	lui	s5,0x4000
 200157c:	30200037 	lui	s4,0x4000
 2001580:	28200037 	lui	s3,0x4000
 2001584:	a0200037 	lui	a2,0x4000
 2001588:	98200037 	lui	a1,0x4000
 200158c:	90200037 	lui	a0,0x4000
 2001590:	88200037 	lui	v1,0x4000
 2001594:	68200037 	lui	s11,0x4000
 2001598:	00016e67 	j	2001b50 <t0_taskA1_FH_DU+0x67c>
 200159c:	b0000c13 	li	a4,3
 20015a0:	356c2063 	beq	a3,a4,2001bb0 <t0_taskA1_FH_DU+0x6dc>
 20015a4:	b0000413 	li	a4,1
 20015a8:	356c7863 	beq	a3,a4,2001be4 <t0_taskA1_FH_DU+0x710>
 20015ac:	f8200037 	lui	a13,0x4000
 20015b0:	a8200037 	lui	a3,0x4000
 20015b4:	b8000813 	li	a5,2
 20015b8:	b0200037 	lui	a4,0x4000
 20015bc:	07c0b423 	sb	zero,45(a13)
 20015c0:	0d406123 	sw	zero,152(a3)
 20015c4:	05ae7c23 	sb	a5,31(a4)
 20015c8:	cb80a103 	lw	a7,40(sp)
 20015cc:	064020e3 	bnez	a7,20015dc <t0_taskA1_FH_DU+0x108>
 20015d0:	a8000c13 	li	a3,3
 20015d4:	d0200037 	lui	a8,0x4000
 20015d8:	06aaa023 	sb	a3,40(a8)
 20015dc:	db80c103 	lw	a9,48(sp)
 20015e0:	06c020e3 	bnez	a9,20015f0 <t0_taskA1_FH_DU+0x11c>
 20015e4:	b0000413 	li	a4,1
 20015e8:	a8200037 	lui	a3,0x4000
 20015ec:	056c7823 	sb	a4,30(a3)
 20015f0:	eb80d103 	lw	a11,52(sp)
 20015f4:	074030e3 	bnez	a11,200160c <t0_taskA1_FH_DU+0x138>
 20015f8:	a8200037 	lui	a3,0x4000
 20015fc:	0d415023 	sb	zero,212(a3)
 2001600:	b0000413 	li	a4,1
 2001604:	a8200037 	lui	a3,0x4000
 2001608:	056c7023 	sb	a4,28(a3)
 200160c:	f380b103 	lw	a12,44(sp)
 2001610:	078070e3 	bnez	a12,2001648 <t0_taskA1_FH_DU+0x174>
 2001614:	b0000813 	li	a4,2
 2001618:	f8200037 	lui	a13,0x4000
 200161c:	a8000413 	li	a3,1
 2001620:	07ec9c23 	sb	a4,39(a13)
 2001624:	b0200037 	lui	a4,0x4000
 2001628:	b8200037 	lui	a5,0x4000
 200162c:	05aa9823 	sb	a3,38(a4)
 2001630:	b0200037 	lui	a4,0x4000
 2001634:	00801023 	sb	zero,4(s0)
 2001638:	00801823 	sb	zero,6(s0)
 200163c:	0dc0e123 	sw	zero,184(a5)
 2001640:	00aa1423 	sb	a3,5(s0)
 2001644:	05aa9423 	sb	a3,37(a4)
 2001648:	a8000413 	li	a3,1
 200164c:	00aa2c23 	sb	a3,11(s0)
 2001650:	00aa4423 	sb	a3,17(s0)
 2001654:	00aa5023 	sb	a3,20(s0)
 2001658:	00aa3823 	sb	a3,14(s0)
 200165c:	04302863 	beq	v0,a6,2001670 <t0_taskA1_FH_DU+0x19c>
 2001660:	a8200037 	lui	a3,0x4000
 2001664:	ad40f403 	lb	a3,61(a3)
 2001668:	054010e3 	bnez	a3,2001670 <t0_taskA1_FH_DU+0x19c>
 200166c:	01213823 	sb	v0,78(s2)
 2001670:	c0200037 	lui	a6,0x4000
 2001674:	c8200037 	lui	a7,0x4000
 2001678:	86010c03 	lb	v0,67(a6)
 200167c:	ae410803 	lb	a3,66(a7)
 2001680:	05603063 	beq	a3,v0,2001698 <t0_taskA1_FH_DU+0x1c4>
 2001684:	a8200037 	lui	a3,0x4000
 2001688:	ad40f403 	lb	a3,61(a3)
 200168c:	05401863 	beqz	a3,2001698 <t0_taskA1_FH_DU+0x1c4>
 2001690:	d0200037 	lui	a8,0x4000
 2001694:	06a11823 	sb	v0,70(a8)
 2001698:	d8200037 	lui	a9,0x4000
 200169c:	87012403 	lb	v0,73(a10)
 20016a0:	aec11c03 	lb	a3,71(a9)
 20016a4:	05602863 	beq	a3,v0,20016b8 <t0_taskA1_FH_DU+0x1e4>
 20016a8:	a8200037 	lui	a3,0x4000
 20016ac:	ad40f403 	lb	a3,61(a3)
 20016b0:	054010e3 	bnez	a3,20016b8 <t0_taskA1_FH_DU+0x1e4>
 20016b4:	00e13423 	sb	v0,77(s1)
 20016b8:	e8200037 	lui	a11,0x4000
 20016bc:	f0200037 	lui	a12,0x4000
 20016c0:	87410403 	lb	v0,65(a11)
 20016c4:	af810003 	lb	a3,64(a12)
 20016c8:	05602863 	beq	a3,v0,20016dc <t0_taskA1_FH_DU+0x208>
 20016cc:	a8200037 	lui	a3,0x4000
 20016d0:	ad40f403 	lb	a3,61(a3)
 20016d4:	05401063 	beqz	a3,20016dc <t0_taskA1_FH_DU+0x208>
 20016d8:	07212423 	sb	v0,73(a10)
 20016dc:	d8803203 	lbu	a9,12(s0)
 20016e0:	d0803e03 	lbu	a8,15(s0)
 20016e4:	c8804a03 	lbu	a7,18(s0)
 20016e8:	c0805603 	lbu	a6,21(s0)
 20016ec:	ba40fa03 	lbu	a5,62(s7)
 20016f0:	b0c13603 	lbu	a4,77(s1)
 20016f4:	a980fe03 	lbu	a3,63(s4)
 20016f8:	81013a03 	lbu	v0,78(s2)
 20016fc:	00b62823 	sb	a9,10(s0)
 2001700:	00b43423 	sb	a8,13(s0)
 2001704:	00b24023 	sb	a7,16(s0)
 2001708:	00b04c23 	sb	a6,19(s0)
 200170c:	02af9823 	sb	a5,102(s8)
 2001710:	03b86123 	sw	a10,24(sp)
 2001714:	022da023 	sb	a4,104(s6)
 2001718:	01eba823 	sb	a3,106(s5)
 200171c:	0161b023 	sb	v0,108(s3)
 2001720:	03a25123 	sw	v1,20(sp)
 2001724:	03a48123 	sw	a0,32(sp)
 2001728:	03a64123 	sw	a1,16(sp)
 200172c:	03a87123 	sw	a2,28(sp)
 2001730:	fffbe46f 	jal	20006c0 <t0_taskA1_generic_KINDERSICHERUNG_CTRL>
 2001734:	a3807103 	lw	a2,28(sp)
 2001738:	9b804103 	lw	a1,16(sp)
 200173c:	f8200037 	lui	a13,0x4000
 2001740:	80200037 	lui	v0,0x4000
 2001744:	0fc15a03 	lbu	ra,86(a13)
 2001748:	93808103 	lw	a0,32(sp)
 200174c:	fc016603 	lbu	a13,89(v0)
 2001750:	8b805103 	lw	v1,20(sp)
 2001754:	f5028103 	lw	a12,160(a2)
 2001758:	a8200037 	lui	a3,0x4000
 200175c:	ed414e03 	lbu	a11,83(a3)
 2001760:	dcc29103 	lw	a9,164(a1)
 2001764:	d4818203 	lbu	a8,96(a0)
 2001768:	ac419203 	lbu	a3,100(v1)
 200176c:	ca819a03 	lbu	a7,102(s8)
 2001770:	c201a203 	lbu	a6,104(s6)
 2001774:	b9c1aa03 	lbu	a5,106(s5)
 2001778:	b141b203 	lbu	a4,108(s3)
 200177c:	83418e03 	lbu	v0,99(s11)
 2001780:	02fee423 	sb	a13,57(s9)
 2001784:	f8200037 	lui	a13,0x4000
 2001788:	0ffc3123 	sw	a12,140(a13)
 200178c:	f8200037 	lui	a13,0x4000
 2001790:	f0200037 	lui	a12,0x4000
 2001794:	07bb2c23 	sb	a11,75(a12)
 2001798:	0ff64123 	sw	a9,144(a13)
 200179c:	e8200037 	lui	a11,0x4000
 20017a0:	d8200037 	lui	a9,0x4000
 20017a4:	f0200037 	lui	a12,0x4000
 20017a8:	06f53023 	sb	a8,76(a9)
 20017ac:	076b3c23 	sb	a3,79(a11)
 20017b0:	07a0f023 	sb	v0,60(a12)
 20017b4:	0302d823 	sb	ra,54(s10)
 20017b8:	0272f823 	sb	a7,62(s7)
 20017bc:	00f13423 	sb	a6,77(s1)
 20017c0:	01aefc23 	sb	a5,63(s4)
 20017c4:	012d3823 	sb	a4,78(s2)
 20017c8:	fffc986f 	jal	2000a28 <t0_taskA1_generic_FH_TUERMODUL_CTRL>
 20017cc:	a3807103 	lw	a2,28(sp)
 20017d0:	9b804103 	lw	a1,16(sp)
 20017d4:	f8200037 	lui	a13,0x4000
 20017d8:	80200037 	lui	v0,0x4000
 20017dc:	0fc15a03 	lbu	ra,86(a13)
 20017e0:	93808103 	lw	a0,32(sp)
 20017e4:	fc016603 	lbu	a13,89(v0)
 20017e8:	8b805103 	lw	v1,20(sp)
 20017ec:	f5028103 	lw	a12,160(a2)
 20017f0:	a8200037 	lui	a3,0x4000
 20017f4:	ed414e03 	lbu	a11,83(a3)
 20017f8:	dcc29103 	lw	a9,164(a1)
 20017fc:	d4818203 	lbu	a8,96(a0)
 2001800:	ac419203 	lbu	a3,100(v1)
 2001804:	ca819a03 	lbu	a7,102(s8)
 2001808:	c201a203 	lbu	a6,104(s6)
 200180c:	b9c1aa03 	lbu	a5,106(s5)
 2001810:	b141b203 	lbu	a4,108(s3)
 2001814:	83418e03 	lbu	v0,99(s11)
 2001818:	02fee423 	sb	a13,57(s9)
 200181c:	f8200037 	lui	a13,0x4000
 2001820:	0ffc3123 	sw	a12,140(a13)
 2001824:	f8200037 	lui	a13,0x4000
 2001828:	f0200037 	lui	a12,0x4000
 200182c:	07bb2c23 	sb	a11,75(a12)
 2001830:	0ff64123 	sw	a9,144(a13)
 2001834:	e8200037 	lui	a11,0x4000
 2001838:	d8200037 	lui	a9,0x4000
 200183c:	f0200037 	lui	a12,0x4000
 2001840:	06f53023 	sb	a8,76(a9)
 2001844:	076b3c23 	sb	a3,79(a11)
 2001848:	07a0f023 	sb	v0,60(a12)
 200184c:	0302d823 	sb	ra,54(s10)
 2001850:	0272f823 	sb	a7,62(s7)
 2001854:	00f13423 	sb	a6,77(s1)
 2001858:	01aefc23 	sb	a5,63(s4)
 200185c:	012d3823 	sb	a4,78(s2)
 2001860:	fffe716f 	jal	2001224 <t0_taskA1_generic_EINKLEMMSCHUTZ_CTRL>
 2001864:	a3807103 	lw	a2,28(sp)
 2001868:	9b804103 	lw	a1,16(sp)
 200186c:	f8200037 	lui	a13,0x4000
 2001870:	80200037 	lui	v0,0x4000
 2001874:	0fc15a03 	lbu	ra,86(a13)
 2001878:	93808103 	lw	a0,32(sp)
 200187c:	fc016603 	lbu	a13,89(v0)
 2001880:	8b805103 	lw	v1,20(sp)
 2001884:	f5028103 	lw	a12,160(a2)
 2001888:	a8200037 	lui	a3,0x4000
 200188c:	ed414e03 	lbu	a11,83(a3)
 2001890:	dcc29103 	lw	a9,164(a1)
 2001894:	d4818203 	lbu	a8,96(a0)
 2001898:	ac419203 	lbu	a3,100(v1)
 200189c:	ca819a03 	lbu	a7,102(s8)
 20018a0:	c201a203 	lbu	a6,104(s6)
 20018a4:	b9c1aa03 	lbu	a5,106(s5)
 20018a8:	b141b203 	lbu	a4,108(s3)
 20018ac:	83418e03 	lbu	v0,99(s11)
 20018b0:	02fee423 	sb	a13,57(s9)
 20018b4:	f8200037 	lui	a13,0x4000
 20018b8:	0ffc3123 	sw	a12,140(a13)
 20018bc:	f8200037 	lui	a13,0x4000
 20018c0:	f0200037 	lui	a12,0x4000
 20018c4:	07bb2c23 	sb	a11,75(a12)
 20018c8:	0ff64123 	sw	a9,144(a13)
 20018cc:	e8200037 	lui	a11,0x4000
 20018d0:	d8200037 	lui	a9,0x4000
 20018d4:	f0200037 	lui	a12,0x4000
 20018d8:	06f53023 	sb	a8,76(a9)
 20018dc:	076b3c23 	sb	a3,79(a11)
 20018e0:	07a0f023 	sb	v0,60(a12)
 20018e4:	0272f823 	sb	a7,62(s7)
 20018e8:	00f13423 	sb	a6,77(s1)
 20018ec:	01aefc23 	sb	a5,63(s4)
 20018f0:	012d3823 	sb	a4,78(s2)
 20018f4:	0302d823 	sb	ra,54(s10)
 20018f8:	fffe776f 	jal	20012d4 <t0_taskA1_generic_BLOCK_ERKENNUNG_CTRL>
 20018fc:	d0803403 	lb	a8,13(s0)
 2001900:	d8804003 	lb	a9,16(s0)
 2001904:	a3807103 	lw	a2,28(sp)
 2001908:	c8802803 	lb	a7,10(s0)
 200190c:	f8200037 	lui	a13,0x4000
 2001910:	afc14c03 	lb	a3,83(a13)
 2001914:	b2819803 	lb	a4,102(s8)
 2001918:	f8804c03 	lb	a13,19(s0)
 200191c:	9b804103 	lw	a1,16(sp)
 2001920:	85028103 	lw	v0,160(a2)
 2001924:	ba01a003 	lb	a5,104(s6)
 2001928:	93808103 	lw	a0,32(sp)
 200192c:	03b4b123 	sw	a8,44(sp)
 2001930:	03b6c123 	sw	a9,48(sp)
 2001934:	d0200037 	lui	a8,0x4000
 2001938:	d8200037 	lui	a9,0x4000
 200193c:	03b2a123 	sw	a7,40(sp)
 2001940:	ce82e103 	lw	a7,184(a8)
 2001944:	d6c25103 	lw	a8,148(a9)
 2001948:	d8200037 	lui	a9,0x4000
 200194c:	03ace123 	sw	a4,56(sp)
 2001950:	03bed123 	sw	a13,52(sp)
 2001954:	b4c29103 	lw	a4,164(a1)
 2001958:	fec1f103 	lw	a13,124(a9)
 200195c:	d8200037 	lui	a9,0x4000
 2001960:	03ae3123 	sw	a5,12(sp)
 2001964:	0ee03123 	sw	v0,140(a9)
 2001968:	bc818203 	lbu	a5,96(a0)
 200196c:	d8200037 	lui	a9,0x4000
 2001970:	06eb2c23 	sb	a3,75(a9)
 2001974:	d8200037 	lui	a9,0x4000
 2001978:	0eec4123 	sw	a4,144(a9)
 200197c:	8b805103 	lw	v1,20(sp)
 2001980:	b0200037 	lui	a4,0x4000
 2001984:	05af3023 	sb	a5,76(a4)
 2001988:	db803103 	lw	a9,12(sp)
 200198c:	bb80e103 	lw	a5,56(sp)
 2001990:	c4419203 	lbu	a6,100(v1)
 2001994:	e9c1a803 	lb	a11,106(s5)
 2001998:	f141b003 	lb	a12,108(s3)
 200199c:	026ef823 	sb	a5,62(s7)
 20019a0:	00f73423 	sb	a9,77(s1)
 20019a4:	bb80a103 	lw	a5,40(sp)
 20019a8:	db80c103 	lw	a9,48(sp)
 20019ac:	b0200037 	lui	a4,0x4000
 20019b0:	05b13c23 	sb	a6,79(a4)
 20019b4:	c380b103 	lw	a6,44(sp)
 20019b8:	00ae2c23 	sb	a5,11(s0)
 20019bc:	b8200037 	lui	a5,0x4000
 20019c0:	00b64423 	sb	a9,17(s0)
 20019c4:	b380d103 	lw	a4,52(sp)
 20019c8:	0df2c123 	sw	a7,176(a5)
 20019cc:	d8200037 	lui	a9,0x4000
 20019d0:	c8200037 	lui	a7,0x4000
 20019d4:	00b03823 	sb	a6,14(s0)
 20019d8:	0e746123 	sw	a8,152(a7)
 20019dc:	06ffd123 	sw	a13,116(a9)
 20019e0:	c0200037 	lui	a6,0x4000
 20019e4:	d0200037 	lui	a8,0x4000
 20019e8:	f8200037 	lui	a13,0x4000
 20019ec:	dfc18803 	lb	a9,98(a13)
 20019f0:	0e207123 	sw	v0,156(a6)
 20019f4:	0ea02123 	sw	v0,136(a8)
 20019f8:	b8200037 	lui	a5,0x4000
 20019fc:	80200037 	lui	v0,0x4000
 2001a00:	f8200037 	lui	a13,0x4000
 2001a04:	d4017803 	lb	a8,94(v0)
 2001a08:	c5c16003 	lb	a6,88(a5)
 2001a0c:	00ac5023 	sb	a4,20(s0)
 2001a10:	bfc15403 	lb	a5,85(a13)
 2001a14:	b0200037 	lui	a4,0x4000
 2001a18:	80200037 	lui	v0,0x4000
 2001a1c:	f8200037 	lui	a13,0x4000
 2001a20:	cd816c03 	lb	a7,91(a4)
 2001a24:	b400ec03 	lb	a4,59(v0)
 2001a28:	87c11803 	lb	v0,70(a13)
 2001a2c:	f8200037 	lui	a13,0x4000
 2001a30:	ffc10e03 	lbu	a13,67(a13)
 2001a34:	013d3823 	sb	a12,78(s2)
 2001a38:	01bafc23 	sb	a11,63(s4)
 2001a3c:	03be9c23 	sb	a13,39(sp)
 2001a40:	f8200037 	lui	a13,0x4000
 2001a44:	ffc10603 	lbu	a13,65(a13)
 2001a48:	e3806103 	lw	a10,24(sp)
 2001a4c:	03be9823 	sb	a13,38(sp)
 2001a50:	f8200037 	lui	a13,0x4000
 2001a54:	ffc0e003 	lb	a13,56(a13)
 2001a58:	03bef123 	sw	a13,60(sp)
 2001a5c:	f8200037 	lui	a13,0x4000
 2001a60:	07fdac23 	sb	a12,107(a13)
 2001a64:	f0200037 	lui	a12,0x4000
 2001a68:	07bba423 	sb	a11,105(a12)
 2001a6c:	eb803103 	lw	a11,12(sp)
 2001a70:	f8200037 	lui	a13,0x4000
 2001a74:	f0200037 	lui	a12,0x4000
 2001a78:	07fb9c23 	sb	a11,103(a13)
 2001a7c:	fb80e103 	lw	a13,56(sp)
 2001a80:	e8200037 	lui	a11,0x4000
 2001a84:	07778423 	sb	a9,97(a11)
 2001a88:	07bf9423 	sb	a13,101(a12)
 2001a8c:	f0200037 	lui	a12,0x4000
 2001a90:	f8200037 	lui	a13,0x4000
 2001a94:	07b57c23 	sb	a8,95(a12)
 2001a98:	07f57423 	sb	a8,93(a13)
 2001a9c:	e8200037 	lui	a11,0x4000
 2001aa0:	d0200037 	lui	a8,0x4000
 2001aa4:	03778c23 	sb	a9,99(s11)
 2001aa8:	d8200037 	lui	a9,0x4000
 2001aac:	06b37023 	sb	a7,92(a8)
 2001ab0:	06f36823 	sb	a7,90(a9)
 2001ab4:	07716423 	sb	a6,89(a11)
 2001ab8:	c8200037 	lui	a7,0x4000
 2001abc:	d0200037 	lui	a8,0x4000
 2001ac0:	ef012603 	lbu	a11,73(a10)
 2001ac4:	f0200037 	lui	a12,0x4000
 2001ac8:	066b4823 	sb	a3,82(a7)
 2001acc:	06ab2823 	sb	a3,74(a8)
 2001ad0:	ab809e03 	lbu	a3,39(sp)
 2001ad4:	07b15c23 	sb	a6,87(a12)
 2001ad8:	f8200037 	lui	a13,0x4000
 2001adc:	c0200037 	lui	a6,0x4000
 2001ae0:	d8200037 	lui	a9,0x4000
 2001ae4:	f0200037 	lui	a12,0x4000
 2001ae8:	07ef5823 	sb	a5,86(a13)
 2001aec:	062f5023 	sb	a5,84(a6)
 2001af0:	06fb1c23 	sb	a11,71(a9)
 2001af4:	f8200037 	lui	a13,0x4000
 2001af8:	07a11023 	sb	v0,68(a12)
 2001afc:	c3809a03 	lbu	a6,38(sp)
 2001b00:	c8200037 	lui	a7,0x4000
 2001b04:	d0200037 	lui	a8,0x4000
 2001b08:	e8200037 	lui	a11,0x4000
 2001b0c:	f0200037 	lui	a12,0x4000
 2001b10:	07eb0823 	sb	a3,66(a13)
 2001b14:	db80f103 	lw	a9,60(sp)
 2001b18:	af40d403 	lb	a3,53(a11)
 2001b1c:	066cf023 	sb	a4,60(a7)
 2001b20:	06ace823 	sb	a4,58(a8)
 2001b24:	b780b403 	lb	a4,45(a12)
 2001b28:	b8200037 	lui	a5,0x4000
 2001b2c:	05f10023 	sb	a6,64(a5)
 2001b30:	f8200037 	lui	a13,0x4000
 2001b34:	b8200037 	lui	a5,0x4000
 2001b38:	02f6e423 	sb	a9,57(s9)
 2001b3c:	07f6dc23 	sb	a9,55(a13)
 2001b40:	032ad823 	sb	a3,54(s10)
 2001b44:	05ead023 	sb	a3,52(a5)
 2001b48:	0d8000e3 	bnez	a4,2001c48 <t0_taskA1_FH_DU+0x774>
 2001b4c:	c4000013 	move	a6,v0
 2001b50:	d0200037 	lui	a8,0x4000
 2001b54:	be80b203 	lbu	a5,44(a8)
 2001b58:	d8200037 	lui	a9,0x4000
 2001b5c:	aec07c03 	lb	a3,31(a9)
 2001b60:	b0000413 	li	a4,1
 2001b64:	bdc00413 	add	a5,a5,1
 2001b68:	e8200037 	lui	a11,0x4000
 2001b6c:	f0000813 	li	a12,2
 2001b70:	076cb423 	sb	a4,45(a11)
 2001b74:	06aeb023 	sb	a5,44(a8)
 2001b78:	d57c48e3 	bne	a3,a12,200159c <t0_taskA1_FH_DU+0xc8>
 2001b7c:	aac0e403 	lb	a3,57(s9)
 2001b80:	05412063 	beqz	a3,2001c10 <t0_taskA1_FH_DU+0x73c>
 2001b84:	d0200037 	lui	a8,0x4000
 2001b88:	ae80dc03 	lb	a3,55(a8)
 2001b8c:	054108e3 	bnez	a3,2001c10 <t0_taskA1_FH_DU+0x73c>
 2001b90:	d8200037 	lui	a9,0x4000
 2001b94:	a83e7013 	li	a3,-100
 2001b98:	e8200037 	lui	a11,0x4000
 2001b9c:	f0200037 	lui	a12,0x4000
 2001ba0:	06c0b423 	sb	zero,45(a9)
 2001ba4:	0f6a6123 	sw	a3,152(a11)
 2001ba8:	07ac7c23 	sb	a4,31(a12)
 2001bac:	fffe8767 	j	20015c8 <t0_taskA1_FH_DU+0xf4>
 2001bb0:	ab00d803 	lb	a3,54(s10)
 2001bb4:	d54028e3 	bnez	a3,20015c8 <t0_taskA1_FH_DU+0xf4>
 2001bb8:	c8200037 	lui	a7,0x4000
 2001bbc:	ae40d003 	lb	a3,52(a7)
 2001bc0:	d5401063 	beqz	a3,20015c8 <t0_taskA1_FH_DU+0xf4>
 2001bc4:	d0200037 	lui	a8,0x4000
 2001bc8:	d8200037 	lui	a9,0x4000
 2001bcc:	f0000813 	li	a12,2
 2001bd0:	e8200037 	lui	a11,0x4000
 2001bd4:	0680b423 	sb	zero,45(a8)
 2001bd8:	0ec06123 	sw	zero,152(a9)
 2001bdc:	077c7c23 	sb	a12,31(a11)
 2001be0:	fffe7a67 	j	20015c8 <t0_taskA1_FH_DU+0xf4>
 2001be4:	aac0e403 	lb	a3,57(s9)
 2001be8:	cd41c0e3 	bnez	a3,20015c8 <t0_taskA1_FH_DU+0xf4>
 2001bec:	f8200037 	lui	a13,0x4000
 2001bf0:	afc0dc03 	lb	a3,55(a13)
 2001bf4:	cd41a863 	beqz	a3,20015c8 <t0_taskA1_FH_DU+0xf4>
 2001bf8:	b0200037 	lui	a4,0x4000
 2001bfc:	c8000813 	li	a7,2
 2001c00:	0740b423 	sb	zero,45(a11)
 2001c04:	0d806123 	sw	zero,152(a4)
 2001c08:	06f27c23 	sb	a7,31(a9)
 2001c0c:	fffe6f67 	j	20015c8 <t0_taskA1_FH_DU+0xf4>
 2001c10:	ab00d803 	lb	a3,54(s10)
 2001c14:	cd416863 	beqz	a3,20015c8 <t0_taskA1_FH_DU+0xf4>
 2001c18:	f8200037 	lui	a13,0x4000
 2001c1c:	afc0d003 	lb	a3,52(a13)
 2001c20:	cd4150e3 	bnez	a3,20015c8 <t0_taskA1_FH_DU+0xf4>
 2001c24:	a8200037 	lui	a3,0x4000
 2001c28:	0540b423 	sb	zero,45(a3)
 2001c2c:	b0200037 	lui	a4,0x4000
 2001c30:	a8019013 	li	a3,100
 2001c34:	0daa6123 	sw	a3,152(a4)
 2001c38:	b8200037 	lui	a5,0x4000
 2001c3c:	a8000c13 	li	a3,3
 2001c40:	05ea7c23 	sb	a3,31(a5)
 2001c44:	fffe6167 	j	20015c8 <t0_taskA1_FH_DU+0xf4>
 2001c48:	0b81d103 	lw	ra,116(sp)
 2001c4c:	1381c103 	lw	s0,112(sp)
 2001c50:	1b81b103 	lw	s1,108(sp)
 2001c54:	2381a103 	lw	s2,104(sp)
 2001c58:	2b819103 	lw	s3,100(sp)
 2001c5c:	33818103 	lw	s4,96(sp)
 2001c60:	3b817103 	lw	s5,92(sp)
 2001c64:	43816103 	lw	s6,88(sp)
 2001c68:	4b815103 	lw	s7,84(sp)
 2001c6c:	53814103 	lw	s8,80(sp)
 2001c70:	5b813103 	lw	s9,76(sp)
 2001c74:	63812103 	lw	s10,72(sp)
 2001c78:	6b811103 	lw	s11,68(sp)
 2001c7c:	7381e013 	add	sp,sp,120
 2001c80:	004000eb 	ret

02001c84 <t0_taskA1_main>:
 2001c84:	73bfe013 	add	sp,sp,-8
 2001c88:	03840123 	sw	s0,0(sp)
 2001c8c:	03821123 	sw	ra,4(sp)
 2001c90:	1001a813 	li	s0,106
 2001c94:	10bffc13 	add	s0,s0,-1
 2001c98:	fffa636f 	jal	2000624 <t0_taskA1_init>
 2001c9c:	fffa006f 	jal	200049c <t0_taskA1_interface>
 2001ca0:	fffe0d6f 	jal	20014d4 <t0_taskA1_FH_DU>
 2001ca4:	f881e0e3 	bnez	s0,2001c94 <t0_taskA1_main+0x10>
 2001ca8:	0b801103 	lw	ra,4(sp)
 2001cac:	80000013 	li	v0,0
 2001cb0:	13800103 	lw	s0,0(sp)
 2001cb4:	73802013 	add	sp,sp,8
 2001cb8:	004000eb 	ret

02001cbc <t1_exception_proxy>:
 2001cbc:	73bfe013 	add	sp,sp,-8
 2001cc0:	03821123 	sw	ra,4(sp)
 2001cc4:	7840017b 	mfpcr	tp,cr1
 2001cc8:	73bef013 	add	sp,sp,-68
 2001ccc:	039e1123 	sw	tp,4(sp)
 2001cd0:	03a02123 	sw	v0,8(sp)
 2001cd4:	03a23123 	sw	v1,12(sp)
 2001cd8:	03a44123 	sw	a0,16(sp)
 2001cdc:	03a65123 	sw	a1,20(sp)
 2001ce0:	03a86123 	sw	a2,24(sp)
 2001ce4:	03aa7123 	sw	a3,28(sp)
 2001ce8:	03ac8123 	sw	a4,32(sp)
 2001cec:	03ae9123 	sw	a5,36(sp)
 2001cf0:	03b0a123 	sw	a6,40(sp)
 2001cf4:	03b2b123 	sw	a7,44(sp)
 2001cf8:	03b4c123 	sw	a8,48(sp)
 2001cfc:	03b6d123 	sw	a9,52(sp)
 2001d00:	03b8e123 	sw	a10,56(sp)
 2001d04:	03baf123 	sw	a11,60(sp)
 2001d08:	03bd0123 	sw	a12,64(sp)
 2001d0c:	03bf1123 	sw	a13,68(sp)
 2001d10:	80200237 	lui	v0,0x4004
 2001d14:	84002103 	lw	v0,8(v0)
 2001d18:	0c00006b 	jalr	v0
 2001d1c:	7b801103 	lw	tp,4(sp)
 2001d20:	83802103 	lw	v0,8(sp)
 2001d24:	8b803103 	lw	v1,12(sp)
 2001d28:	93804103 	lw	a0,16(sp)
 2001d2c:	9b805103 	lw	a1,20(sp)
 2001d30:	a3806103 	lw	a2,24(sp)
 2001d34:	ab807103 	lw	a3,28(sp)
 2001d38:	b3808103 	lw	a4,32(sp)
 2001d3c:	bb809103 	lw	a5,36(sp)
 2001d40:	c380a103 	lw	a6,40(sp)
 2001d44:	cb80b103 	lw	a7,44(sp)
 2001d48:	d380c103 	lw	a8,48(sp)
 2001d4c:	db80d103 	lw	a9,52(sp)
 2001d50:	e380e103 	lw	a10,56(sp)
 2001d54:	eb80f103 	lw	a11,60(sp)
 2001d58:	f3810103 	lw	a12,64(sp)
 2001d5c:	fb811103 	lw	a13,68(sp)
 2001d60:	73811013 	add	sp,sp,68
 2001d64:	0b801103 	lw	ra,4(sp)
 2001d68:	73802013 	add	sp,sp,8
 2001d6c:	03c0016b 	jr	tp
 2001d70:	0b801103 	lw	ra,4(sp)
 2001d74:	73802013 	add	sp,sp,8
 2001d78:	004000eb 	ret

02001d7c <t1_main>:
 2001d7c:	73bf6013 	add	sp,sp,-40
 2001d80:	03886123 	sw	s2,24(sp)
 2001d84:	20000c37 	lui	s2,0x18
 2001d88:	03829123 	sw	ra,36(sp)
 2001d8c:	03848123 	sw	s0,32(sp)
 2001d90:	03867123 	sw	s1,28(sp)
 2001d94:	038a5123 	sw	s3,20(sp)
 2001d98:	038c4123 	sw	s4,16(sp)
 2001d9c:	038e3123 	sw	s5,12(sp)
 2001da0:	03902123 	sw	s6,8(sp)
 2001da4:	03921123 	sw	s7,4(sp)
 2001da8:	211a8013 	add	s2,s2,1696
 2001dac:	80000013 	li	v0,0
 2001db0:	1c000013 	move	s1,v0
 2001db4:	11000013 	move	s0,s2
 2001db8:	00c4015b 	0xc4015b
 2001dbc:	42400037 	lui	s6,0x48000
 2001dc0:	3017d7b7 	lui	s4,0x2faf
 2001dc4:	4a000813 	add	s7,s6,2
 2001dc8:	28000013 	li	s3,0
 2001dcc:	3c000037 	lui	s5,0x80000
 2001dd0:	42003013 	add	s6,s6,12
 2001dd4:	31820013 	add	s4,s4,128
 2001dd8:	879201fb 	mtpcr	v0,s7,cr30
 2001ddc:	1000005b 	0x1000005b
 2001de0:	80800013 	move	v0,s0
 2001de4:	840e0333 	or	v0,v0,s5
 2001de8:	87a001fb 	mtpcr	v0,v0,cr30
 2001dec:	0006076f 	jal	2003608 <t1_taskA2_main>
 2001df0:	879001fb 	mtpcr	v0,s6,cr30
 2001df4:	1000005b 	0x1000005b
 2001df8:	80800013 	move	v0,s0
 2001dfc:	840e0333 	or	v0,v0,s5
 2001e00:	87a001fb 	mtpcr	v0,v0,cr30
 2001e04:	210c0033 	add	s2,s2,s4
 2001e08:	810c01b3 	sltu	v0,s2,s4
 2001e0c:	29600033 	add	s3,s3,v0
 2001e10:	19400013 	move	s1,s3
 2001e14:	11000013 	move	s0,s2
 2001e18:	00c4015b 	0xc4015b
 2001e1c:	ffffef67 	j	2001dd8 <t1_main+0x5c>

02001e20 <t1_taskA2_interface>:
 2001e20:	80200237 	lui	v0,0x4004
 2001e24:	8c031013 	add	v1,v0,196
 2001e28:	94401003 	lb	a0,4(v1)
 2001e2c:	0c805063 	beqz	a0,2001f54 <t1_taskA2_interface+0x134>
 2001e30:	88200237 	lui	v1,0x4004
 2001e34:	8c408103 	lw	v1,32(v1)
 2001e38:	90200237 	lui	a0,0x4004
 2001e3c:	0ca2e123 	sw	v1,184(a0)
 2001e40:	90200237 	lui	a0,0x4004
 2001e44:	0ca2f123 	sw	v1,188(a0)
 2001e48:	90200237 	lui	a0,0x4004
 2001e4c:	8c82d103 	lw	v1,180(a0)
 2001e50:	04404863 	beqz	v1,2001e74 <t1_taskA2_interface+0x54>
 2001e54:	98200237 	lui	a1,0x4004
 2001e58:	9cc08103 	lw	a1,32(a1)
 2001e5c:	8ce30033 	sub	v1,a1,v1
 2001e60:	8c40f0d3 	fcvt.d.wu	fv1,v1
 2001e64:	88200037 	lui	v1,0x4000
 2001e68:	84400187 	fld	fv0,0(v1)
 2001e6c:	8c2370d3 	fle.d	v1,fv0,fv1
 2001e70:	0c4050e3 	bnez	v1,2001f98 <t1_taskA2_interface+0x178>
 2001e74:	90200237 	lui	a0,0x4004
 2001e78:	8c82c103 	lw	v1,176(a0)
 2001e7c:	04404863 	beqz	v1,2001ea0 <t1_taskA2_interface+0x80>
 2001e80:	98200237 	lui	a1,0x4004
 2001e84:	9cc08103 	lw	a1,32(a1)
 2001e88:	8ce30033 	sub	v1,a1,v1
 2001e8c:	8c40f0d3 	fcvt.d.wu	fv1,v1
 2001e90:	88200037 	lui	v1,0x4000
 2001e94:	84400187 	fld	fv0,0(v1)
 2001e98:	8c2370d3 	fle.d	v1,fv0,fv1
 2001e9c:	0441d8e3 	bnez	v1,2001f88 <t1_taskA2_interface+0x168>
 2001ea0:	90200237 	lui	a0,0x4004
 2001ea4:	8c82b103 	lw	v1,172(a0)
 2001ea8:	04404863 	beqz	v1,2001ecc <t1_taskA2_interface+0xac>
 2001eac:	98200237 	lui	a1,0x4004
 2001eb0:	9cc08103 	lw	a1,32(a1)
 2001eb4:	8ce30033 	sub	v1,a1,v1
 2001eb8:	8c40f0d3 	fcvt.d.wu	fv1,v1
 2001ebc:	88200037 	lui	v1,0x4000
 2001ec0:	84400187 	fld	fv0,0(v1)
 2001ec4:	8c2370d3 	fle.d	v1,fv0,fv1
 2001ec8:	044160e3 	bnez	v1,2001f78 <t1_taskA2_interface+0x158>
 2001ecc:	90200237 	lui	a0,0x4004
 2001ed0:	8c827103 	lw	v1,156(a0)
 2001ed4:	04404863 	beqz	v1,2001ef8 <t1_taskA2_interface+0xd8>
 2001ed8:	98200237 	lui	a1,0x4004
 2001edc:	9cc08103 	lw	a1,32(a1)
 2001ee0:	8ce30033 	sub	v1,a1,v1
 2001ee4:	8c40f0d3 	fcvt.d.wu	fv1,v1
 2001ee8:	88200037 	lui	v1,0x4000
 2001eec:	84400187 	fld	fv0,0(v1)
 2001ef0:	8c2370d3 	fle.d	v1,fv0,fv1
 2001ef4:	0440f8e3 	bnez	v1,2001f70 <t1_taskA2_interface+0x150>
 2001ef8:	90200237 	lui	a0,0x4004
 2001efc:	8c826103 	lw	v1,152(a0)
 2001f00:	04404863 	beqz	v1,2001f24 <t1_taskA2_interface+0x104>
 2001f04:	98200237 	lui	a1,0x4004
 2001f08:	9cc08103 	lw	a1,32(a1)
 2001f0c:	8ce30033 	sub	v1,a1,v1
 2001f10:	8c40f0d3 	fcvt.d.wu	fv1,v1
 2001f14:	88200037 	lui	v1,0x4000
 2001f18:	84400187 	fld	fv0,0(v1)
 2001f1c:	8c2370d3 	fle.d	v1,fv0,fv1
 2001f20:	044090e3 	bnez	v1,2001f68 <t1_taskA2_interface+0x148>
 2001f24:	84031003 	lb	v0,196(v0)
 2001f28:	040030e3 	bnez	v0,2001f40 <t1_taskA2_interface+0x120>
 2001f2c:	80200237 	lui	v0,0x4004
 2001f30:	8c01b103 	lw	v1,108(v0)
 2001f34:	80200237 	lui	v0,0x4004
 2001f38:	84019103 	lw	v0,100(v0)
 2001f3c:	04602863 	beq	v1,v0,2001f50 <t1_taskA2_interface+0x130>
 2001f40:	80200237 	lui	v0,0x4004
 2001f44:	8c008103 	lw	v1,32(v0)
 2001f48:	80200237 	lui	v0,0x4004
 2001f4c:	0c230123 	sw	v1,192(v0)
 2001f50:	004000eb 	ret
 2001f54:	8c401803 	lb	v1,6(v1)
 2001f58:	f441e063 	beqz	v1,2001e48 <t1_taskA2_interface+0x28>
 2001f5c:	88200237 	lui	v1,0x4004
 2001f60:	8c408103 	lw	v1,32(v1)
 2001f64:	ffffb767 	j	2001e40 <t1_taskA2_interface+0x20>
 2001f68:	0c806123 	sw	zero,152(a0)
 2001f6c:	ffffee67 	j	2001f24 <t1_taskA2_interface+0x104>
 2001f70:	0c807123 	sw	zero,156(a0)
 2001f74:	ffffe167 	j	2001ef8 <t1_taskA2_interface+0xd8>
 2001f78:	88200237 	lui	v1,0x4004
 2001f7c:	04412023 	sb	zero,72(v1)
 2001f80:	0c80b123 	sw	zero,172(a0)
 2001f84:	ffffd267 	j	2001ecc <t1_taskA2_interface+0xac>
 2001f88:	88200237 	lui	v1,0x4004
 2001f8c:	04412023 	sb	zero,72(v1)
 2001f90:	0c80c123 	sw	zero,176(a0)
 2001f94:	ffffc367 	j	2001ea0 <t1_taskA2_interface+0x80>
 2001f98:	88200237 	lui	v1,0x4004
 2001f9c:	04411423 	sb	zero,69(v1)
 2001fa0:	0c80d123 	sw	zero,180(a0)
 2001fa4:	ffffb467 	j	2001e74 <t1_taskA2_interface+0x54>

02001fa8 <t1_taskA2_init>:
 2001fa8:	80200237 	lui	v0,0x4004
 2001fac:	0c010123 	sw	zero,192(v0)
 2001fb0:	80200237 	lui	v0,0x4004
 2001fb4:	0c00f123 	sw	zero,188(v0)
 2001fb8:	80200237 	lui	v0,0x4004
 2001fbc:	0c00e123 	sw	zero,184(v0)
 2001fc0:	80200237 	lui	v0,0x4004
 2001fc4:	04006c23 	sb	zero,27(v0)
 2001fc8:	80200237 	lui	v0,0x4004
 2001fcc:	04006823 	sb	zero,26(v0)
 2001fd0:	80200237 	lui	v0,0x4004
 2001fd4:	04006423 	sb	zero,25(v0)
 2001fd8:	80200237 	lui	v0,0x4004
 2001fdc:	04006023 	sb	zero,24(v0)
 2001fe0:	80200237 	lui	v0,0x4004
 2001fe4:	04005c23 	sb	zero,23(v0)
 2001fe8:	80200237 	lui	v0,0x4004
 2001fec:	04005823 	sb	zero,22(v0)
 2001ff0:	80200237 	lui	v0,0x4004
 2001ff4:	04005423 	sb	zero,21(v0)
 2001ff8:	80200237 	lui	v0,0x4004
 2001ffc:	04005023 	sb	zero,20(v0)
 2002000:	80200237 	lui	v0,0x4004
 2002004:	04004c23 	sb	zero,19(v0)
 2002008:	80200237 	lui	v0,0x4004
 200200c:	04004823 	sb	zero,18(v0)
 2002010:	80200237 	lui	v0,0x4004
 2002014:	04004423 	sb	zero,17(v0)
 2002018:	80200237 	lui	v0,0x4004
 200201c:	04004023 	sb	zero,16(v0)
 2002020:	80200237 	lui	v0,0x4004
 2002024:	04003c23 	sb	zero,15(v0)
 2002028:	80200237 	lui	v0,0x4004
 200202c:	04003823 	sb	zero,14(v0)
 2002030:	80200237 	lui	v0,0x4004
 2002034:	04003423 	sb	zero,13(v0)
 2002038:	80200237 	lui	v0,0x4004
 200203c:	04003023 	sb	zero,12(v0)
 2002040:	004000eb 	ret

02002044 <t1_taskA2_generic_KINDERSICHERUNG_CTRL>:
 2002044:	80200237 	lui	v0,0x4004
 2002048:	84033803 	lb	v0,206(v0)
 200204c:	04006063 	beqz	v0,200207c <t1_taskA2_generic_KINDERSICHERUNG_CTRL+0x38>
 2002050:	88200237 	lui	v1,0x4004
 2002054:	84406003 	lb	v0,24(v1)
 2002058:	90000813 	li	a0,2
 200205c:	04244863 	beq	v0,a0,2002080 <t1_taskA2_generic_KINDERSICHERUNG_CTRL+0x3c>
 2002060:	98000c13 	li	a1,3
 2002064:	0427a863 	beq	v0,a1,2002138 <t1_taskA2_generic_KINDERSICHERUNG_CTRL+0xf4>
 2002068:	90000413 	li	a0,1
 200206c:	04249063 	beq	v0,a0,20020b4 <t1_taskA2_generic_KINDERSICHERUNG_CTRL+0x70>
 2002070:	80200237 	lui	v0,0x4004
 2002074:	04007423 	sb	zero,29(v0)
 2002078:	04666023 	sb	a1,24(v1)
 200207c:	004000eb 	ret
 2002080:	80200237 	lui	v0,0x4004
 2002084:	84015803 	lb	v0,86(v0)
 2002088:	040020e3 	bnez	v0,2002098 <t1_taskA2_generic_KINDERSICHERUNG_CTRL+0x54>
 200208c:	90200237 	lui	a0,0x4004
 2002090:	94816803 	lb	a0,90(a0)
 2002094:	1480d863 	beqz	a0,2002300 <t1_taskA2_generic_KINDERSICHERUNG_CTRL+0x2bc>
 2002098:	88200237 	lui	v1,0x4004
 200209c:	94406403 	lb	a0,25(v1)
 20020a0:	98000413 	li	a1,1
 20020a4:	0ca61863 	beq	a0,a1,20021b0 <t1_taskA2_generic_KINDERSICHERUNG_CTRL+0x16c>
 20020a8:	80200237 	lui	v0,0x4004
 20020ac:	04007423 	sb	zero,29(v0)
 20020b0:	004000eb 	ret
 20020b4:	80200237 	lui	v0,0x4004
 20020b8:	84016003 	lb	v0,88(v0)
 20020bc:	040020e3 	bnez	v0,20020cc <t1_taskA2_generic_KINDERSICHERUNG_CTRL+0x88>
 20020c0:	90200237 	lui	a0,0x4004
 20020c4:	94817003 	lb	a0,92(a0)
 20020c8:	14802063 	beqz	a0,20022d8 <t1_taskA2_generic_KINDERSICHERUNG_CTRL+0x294>
 20020cc:	88200237 	lui	v1,0x4004
 20020d0:	94406803 	lb	a0,26(v1)
 20020d4:	98000413 	li	a1,1
 20020d8:	fca7a0e3 	bne	a0,a1,20020a8 <t1_taskA2_generic_KINDERSICHERUNG_CTRL+0x64>
 20020dc:	04005063 	beqz	v0,2002104 <t1_taskA2_generic_KINDERSICHERUNG_CTRL+0xc0>
 20020e0:	98200237 	lui	a1,0x4004
 20020e4:	9cc15c03 	lb	a1,87(a1)
 20020e8:	04c038e3 	bnez	a1,2002104 <t1_taskA2_generic_KINDERSICHERUNG_CTRL+0xc0>
 20020ec:	80200237 	lui	v0,0x4004
 20020f0:	04007423 	sb	zero,29(v0)
 20020f4:	80200237 	lui	v0,0x4004
 20020f8:	04252c23 	sb	a0,75(v0)
 20020fc:	04646823 	sb	a0,26(v1)
 2002100:	004000eb 	ret
 2002104:	90200237 	lui	a0,0x4004
 2002108:	94817003 	lb	a0,92(a0)
 200210c:	0c80a863 	beqz	a0,2002260 <t1_taskA2_generic_KINDERSICHERUNG_CTRL+0x21c>
 2002110:	98200237 	lui	a1,0x4004
 2002114:	9cc16c03 	lb	a1,91(a1)
 2002118:	0cc090e3 	bnez	a1,2002260 <t1_taskA2_generic_KINDERSICHERUNG_CTRL+0x21c>
 200211c:	90200237 	lui	a0,0x4004
 2002120:	80000413 	li	v0,1
 2002124:	04807423 	sb	zero,29(a0)
 2002128:	90200237 	lui	a0,0x4004
 200212c:	04a13823 	sb	v0,78(a0)
 2002130:	04606823 	sb	v0,26(v1)
 2002134:	004000eb 	ret
 2002138:	80200237 	lui	v0,0x4004
 200213c:	84015003 	lb	v0,84(v0)
 2002140:	040070e3 	bnez	v0,2002178 <t1_taskA2_generic_KINDERSICHERUNG_CTRL+0x134>
 2002144:	98200237 	lui	a1,0x4004
 2002148:	9cc16803 	lb	a1,90(a1)
 200214c:	04c1d863 	beqz	a1,2002238 <t1_taskA2_generic_KINDERSICHERUNG_CTRL+0x1f4>
 2002150:	80200237 	lui	v0,0x4004
 2002154:	84015803 	lb	v0,86(v0)
 2002158:	140060e3 	bnez	v0,2002388 <t1_taskA2_generic_KINDERSICHERUNG_CTRL+0x344>
 200215c:	80200237 	lui	v0,0x4004
 2002160:	04007423 	sb	zero,29(v0)
 2002164:	98000413 	li	a1,1
 2002168:	80200237 	lui	v0,0x4004
 200216c:	04273823 	sb	a1,78(v0)
 2002170:	04646023 	sb	a0,24(v1)
 2002174:	004000eb 	ret
 2002178:	90200237 	lui	a0,0x4004
 200217c:	94817003 	lb	a0,92(a0)
 2002180:	048118e3 	bnez	a0,200220c <t1_taskA2_generic_KINDERSICHERUNG_CTRL+0x1c8>
 2002184:	90200237 	lui	a0,0x4004
 2002188:	94816003 	lb	a0,88(a0)
 200218c:	f481e063 	beqz	a0,200207c <t1_taskA2_generic_KINDERSICHERUNG_CTRL+0x38>
 2002190:	f401d8e3 	bnez	v0,200207c <t1_taskA2_generic_KINDERSICHERUNG_CTRL+0x38>
 2002194:	90200237 	lui	a0,0x4004
 2002198:	80000413 	li	v0,1
 200219c:	04807423 	sb	zero,29(a0)
 20021a0:	90200237 	lui	a0,0x4004
 20021a4:	04a12c23 	sb	v0,75(a0)
 20021a8:	04606023 	sb	v0,24(v1)
 20021ac:	004000eb 	ret
 20021b0:	04005063 	beqz	v0,20021d8 <t1_taskA2_generic_KINDERSICHERUNG_CTRL+0x194>
 20021b4:	98200237 	lui	a1,0x4004
 20021b8:	9cc15403 	lb	a1,85(a1)
 20021bc:	04c038e3 	bnez	a1,20021d8 <t1_taskA2_generic_KINDERSICHERUNG_CTRL+0x194>
 20021c0:	80200237 	lui	v0,0x4004
 20021c4:	04007423 	sb	zero,29(v0)
 20021c8:	80200237 	lui	v0,0x4004
 20021cc:	04252c23 	sb	a0,75(v0)
 20021d0:	04646423 	sb	a0,25(v1)
 20021d4:	004000eb 	ret
 20021d8:	90200237 	lui	a0,0x4004
 20021dc:	94816803 	lb	a0,90(a0)
 20021e0:	04817863 	beqz	a0,200229c <t1_taskA2_generic_KINDERSICHERUNG_CTRL+0x258>
 20021e4:	98200237 	lui	a1,0x4004
 20021e8:	9cc16403 	lb	a1,89(a1)
 20021ec:	04c160e3 	bnez	a1,200229c <t1_taskA2_generic_KINDERSICHERUNG_CTRL+0x258>
 20021f0:	90200237 	lui	a0,0x4004
 20021f4:	80000413 	li	v0,1
 20021f8:	04807423 	sb	zero,29(a0)
 20021fc:	90200237 	lui	a0,0x4004
 2002200:	04a13823 	sb	v0,78(a0)
 2002204:	04606423 	sb	v0,25(v1)
 2002208:	004000eb 	ret
 200220c:	90200237 	lui	a0,0x4004
 2002210:	94816003 	lb	a0,88(a0)
 2002214:	0c8030e3 	bnez	a0,200232c <t1_taskA2_generic_KINDERSICHERUNG_CTRL+0x2e8>
 2002218:	f400c8e3 	bnez	v0,200207c <t1_taskA2_generic_KINDERSICHERUNG_CTRL+0x38>
 200221c:	90200237 	lui	a0,0x4004
 2002220:	80000413 	li	v0,1
 2002224:	04807423 	sb	zero,29(a0)
 2002228:	90200237 	lui	a0,0x4004
 200222c:	04a13823 	sb	v0,78(a0)
 2002230:	04606023 	sb	v0,24(v1)
 2002234:	004000eb 	ret
 2002238:	98200237 	lui	a1,0x4004
 200223c:	9cc15803 	lb	a1,86(a1)
 2002240:	fcc07063 	beqz	a1,2002178 <t1_taskA2_generic_KINDERSICHERUNG_CTRL+0x134>
 2002244:	80200237 	lui	v0,0x4004
 2002248:	04007423 	sb	zero,29(v0)
 200224c:	98000413 	li	a1,1
 2002250:	80200237 	lui	v0,0x4004
 2002254:	04272c23 	sb	a1,75(v0)
 2002258:	04646023 	sb	a0,24(v1)
 200225c:	004000eb 	ret
 2002260:	040020e3 	bnez	v0,2002270 <t1_taskA2_generic_KINDERSICHERUNG_CTRL+0x22c>
 2002264:	80200237 	lui	v0,0x4004
 2002268:	84015c03 	lb	v0,87(v0)
 200226c:	0401c8e3 	bnez	v0,2002350 <t1_taskA2_generic_KINDERSICHERUNG_CTRL+0x30c>
 2002270:	f48018e3 	bnez	a0,200207c <t1_taskA2_generic_KINDERSICHERUNG_CTRL+0x38>
 2002274:	80200237 	lui	v0,0x4004
 2002278:	84016c03 	lb	v0,91(v0)
 200227c:	f4000063 	beqz	v0,200207c <t1_taskA2_generic_KINDERSICHERUNG_CTRL+0x38>
 2002280:	80200237 	lui	v0,0x4004
 2002284:	04007423 	sb	zero,29(v0)
 2002288:	80200237 	lui	v0,0x4004
 200228c:	04013823 	sb	zero,78(v0)
 2002290:	80000413 	li	v0,1
 2002294:	04606823 	sb	v0,26(v1)
 2002298:	004000eb 	ret
 200229c:	040020e3 	bnez	v0,20022ac <t1_taskA2_generic_KINDERSICHERUNG_CTRL+0x268>
 20022a0:	80200237 	lui	v0,0x4004
 20022a4:	84015403 	lb	v0,85(v0)
 20022a8:	040188e3 	bnez	v0,200236c <t1_taskA2_generic_KINDERSICHERUNG_CTRL+0x328>
 20022ac:	ec81a0e3 	bnez	a0,200207c <t1_taskA2_generic_KINDERSICHERUNG_CTRL+0x38>
 20022b0:	80200237 	lui	v0,0x4004
 20022b4:	84016403 	lb	v0,89(v0)
 20022b8:	ec018863 	beqz	v0,200207c <t1_taskA2_generic_KINDERSICHERUNG_CTRL+0x38>
 20022bc:	80200237 	lui	v0,0x4004
 20022c0:	04007423 	sb	zero,29(v0)
 20022c4:	80200237 	lui	v0,0x4004
 20022c8:	04013823 	sb	zero,78(v0)
 20022cc:	80000413 	li	v0,1
 20022d0:	04606423 	sb	v0,25(v1)
 20022d4:	004000eb 	ret
 20022d8:	80200237 	lui	v0,0x4004
 20022dc:	04007423 	sb	zero,29(v0)
 20022e0:	80200237 	lui	v0,0x4004
 20022e4:	04013823 	sb	zero,78(v0)
 20022e8:	80200237 	lui	v0,0x4004
 20022ec:	04012c23 	sb	zero,75(v0)
 20022f0:	80200237 	lui	v0,0x4004
 20022f4:	04666023 	sb	a1,24(v1)
 20022f8:	04006823 	sb	zero,26(v0)
 20022fc:	004000eb 	ret
 2002300:	80200237 	lui	v0,0x4004
 2002304:	04007423 	sb	zero,29(v0)
 2002308:	80200237 	lui	v0,0x4004
 200230c:	04013823 	sb	zero,78(v0)
 2002310:	80200237 	lui	v0,0x4004
 2002314:	04012c23 	sb	zero,75(v0)
 2002318:	80000c13 	li	v0,3
 200231c:	04606023 	sb	v0,24(v1)
 2002320:	80200237 	lui	v0,0x4004
 2002324:	04006423 	sb	zero,25(v0)
 2002328:	004000eb 	ret
 200232c:	90200237 	lui	a0,0x4004
 2002330:	80000413 	li	v0,1
 2002334:	04807423 	sb	zero,29(a0)
 2002338:	90200237 	lui	a0,0x4004
 200233c:	04a12c23 	sb	v0,75(a0)
 2002340:	90200237 	lui	a0,0x4004
 2002344:	04a13823 	sb	v0,78(a0)
 2002348:	04606023 	sb	v0,24(v1)
 200234c:	004000eb 	ret
 2002350:	80200237 	lui	v0,0x4004
 2002354:	04007423 	sb	zero,29(v0)
 2002358:	80200237 	lui	v0,0x4004
 200235c:	04012c23 	sb	zero,75(v0)
 2002360:	80000413 	li	v0,1
 2002364:	04606823 	sb	v0,26(v1)
 2002368:	004000eb 	ret
 200236c:	80200237 	lui	v0,0x4004
 2002370:	04007423 	sb	zero,29(v0)
 2002374:	80200237 	lui	v0,0x4004
 2002378:	04012c23 	sb	zero,75(v0)
 200237c:	80000413 	li	v0,1
 2002380:	04606423 	sb	v0,25(v1)
 2002384:	004000eb 	ret
 2002388:	98200237 	lui	a1,0x4004
 200238c:	80000413 	li	v0,1
 2002390:	04c07423 	sb	zero,29(a1)
 2002394:	98200237 	lui	a1,0x4004
 2002398:	04e13823 	sb	v0,78(a1)
 200239c:	98200237 	lui	a1,0x4004
 20023a0:	04e12c23 	sb	v0,75(a1)
 20023a4:	04646023 	sb	a0,24(v1)
 20023a8:	004000eb 	ret

020023ac <t1_taskA2_generic_FH_TUERMODUL_CTRL>:
 20023ac:	80200237 	lui	v0,0x4004
 20023b0:	84031013 	add	v0,v0,196
 20023b4:	8c003403 	lb	v1,13(v0)
 20023b8:	044048e3 	bnez	v1,20023dc <t1_taskA2_generic_FH_TUERMODUL_CTRL+0x30>
 20023bc:	8c003c03 	lb	v1,15(v0)
 20023c0:	04403063 	beqz	v1,20023d8 <t1_taskA2_generic_FH_TUERMODUL_CTRL+0x2c>
 20023c4:	8c003803 	lb	v1,14(v0)
 20023c8:	044020e3 	bnez	v1,20023d8 <t1_taskA2_generic_FH_TUERMODUL_CTRL+0x2c>
 20023cc:	04001023 	sb	zero,4(v0)
 20023d0:	04001823 	sb	zero,6(v0)
 20023d4:	004000eb 	ret
 20023d8:	004000eb 	ret
 20023dc:	8c002803 	lb	v1,10(v0)
 20023e0:	044020e3 	bnez	v1,20023f0 <t1_taskA2_generic_FH_TUERMODUL_CTRL+0x44>
 20023e4:	90000c13 	li	a0,3
 20023e8:	88200237 	lui	v1,0x4004
 20023ec:	04646023 	sb	a0,24(v1)
 20023f0:	8c004c03 	lb	v1,19(v0)
 20023f4:	044030e3 	bnez	v1,200240c <t1_taskA2_generic_FH_TUERMODUL_CTRL+0x60>
 20023f8:	88200237 	lui	v1,0x4004
 20023fc:	0c411023 	sb	zero,196(v1)
 2002400:	90000413 	li	a0,1
 2002404:	88200237 	lui	v1,0x4004
 2002408:	04643023 	sb	a0,12(v1)
 200240c:	98200237 	lui	a1,0x4004
 2002410:	8cc05c03 	lb	v1,23(a1)
 2002414:	90000413 	li	a0,1
 2002418:	a0000813 	li	a2,2
 200241c:	04242c23 	sb	a0,11(v0)
 2002420:	04245023 	sb	a0,20(v0)
 2002424:	04693863 	beq	v1,a2,20024c0 <t1_taskA2_generic_FH_TUERMODUL_CTRL+0x114>
 2002428:	a8000c13 	li	a3,3
 200242c:	0c6a2063 	beq	v1,a3,200253c <t1_taskA2_generic_FH_TUERMODUL_CTRL+0x190>
 2002430:	90000413 	li	a0,1
 2002434:	0465a863 	beq	v1,a0,2002508 <t1_taskA2_generic_FH_TUERMODUL_CTRL+0x15c>
 2002438:	88200237 	lui	v1,0x4004
 200243c:	04407423 	sb	zero,29(v1)
 2002440:	04e85c23 	sb	a2,23(a1)
 2002444:	90200237 	lui	a0,0x4004
 2002448:	9c805803 	lb	a1,22(a0)
 200244c:	88000413 	li	v1,1
 2002450:	04e26863 	beq	a1,v1,2002484 <t1_taskA2_generic_FH_TUERMODUL_CTRL+0xd8>
 2002454:	98200237 	lui	a1,0x4004
 2002458:	04c07423 	sb	zero,29(a1)
 200245c:	04a25823 	sb	v1,22(a0)
 2002460:	98200237 	lui	a1,0x4004
 2002464:	90200237 	lui	a0,0x4004
 2002468:	0cc0a123 	sw	zero,168(a1)
 200246c:	04a25423 	sb	v1,21(a0)
 2002470:	94001203 	lbu	a0,4(v0)
 2002474:	8c001a03 	lbu	v1,6(v0)
 2002478:	04241423 	sb	a0,5(v0)
 200247c:	04221c23 	sb	v1,7(v0)
 2002480:	004000eb 	ret
 2002484:	88200237 	lui	v1,0x4004
 2002488:	8c407003 	lb	v1,28(v1)
 200248c:	0c67e063 	beq	v1,a1,200267c <t1_taskA2_generic_FH_TUERMODUL_CTRL+0x2d0>
 2002490:	90200237 	lui	a0,0x4004
 2002494:	a4805403 	lb	a2,21(a0)
 2002498:	98000413 	li	a1,1
 200249c:	0d270863 	beq	a2,a1,2002620 <t1_taskA2_generic_FH_TUERMODUL_CTRL+0x274>
 20024a0:	88200237 	lui	v1,0x4004
 20024a4:	04407423 	sb	zero,29(v1)
 20024a8:	04a65423 	sb	a1,21(a0)
 20024ac:	8c001a03 	lbu	v1,6(v0)
 20024b0:	94001203 	lbu	a0,4(v0)
 20024b4:	04221c23 	sb	v1,7(v0)
 20024b8:	04241423 	sb	a0,5(v0)
 20024bc:	004000eb 	ret
 20024c0:	88200237 	lui	v1,0x4004
 20024c4:	8c414c03 	lb	v1,83(v1)
 20024c8:	04402063 	beqz	v1,20024d8 <t1_taskA2_generic_FH_TUERMODUL_CTRL+0x12c>
 20024cc:	88200237 	lui	v1,0x4004
 20024d0:	8c414403 	lb	v1,81(v1)
 20024d4:	14401063 	beqz	v1,20026dc <t1_taskA2_generic_FH_TUERMODUL_CTRL+0x330>
 20024d8:	90200237 	lui	a0,0x4004
 20024dc:	8c806c03 	lb	v1,27(a0)
 20024e0:	98000813 	li	a1,2
 20024e4:	14675863 	beq	v1,a1,2002790 <t1_taskA2_generic_FH_TUERMODUL_CTRL+0x3e4>
 20024e8:	a0000c13 	li	a2,3
 20024ec:	1468f863 	beq	v1,a2,2002768 <t1_taskA2_generic_FH_TUERMODUL_CTRL+0x3bc>
 20024f0:	98000413 	li	a1,1
 20024f4:	14665063 	beq	v1,a1,200271c <t1_taskA2_generic_FH_TUERMODUL_CTRL+0x370>
 20024f8:	88200237 	lui	v1,0x4004
 20024fc:	04407423 	sb	zero,29(v1)
 2002500:	04a86c23 	sb	a2,27(a0)
 2002504:	ffffd067 	j	2002444 <t1_taskA2_generic_FH_TUERMODUL_CTRL+0x98>
 2002508:	88200237 	lui	v1,0x4004
 200250c:	8c42a103 	lw	v1,168(v1)
 2002510:	9000ec13 	li	a0,59
 2002514:	fc6460e3 	bne	v1,a0,2002444 <t1_taskA2_generic_FH_TUERMODUL_CTRL+0x98>
 2002518:	90200237 	lui	a0,0x4004
 200251c:	94828103 	lw	a0,160(a0)
 2002520:	fca24863 	beq	a0,v1,2002444 <t1_taskA2_generic_FH_TUERMODUL_CTRL+0x98>
 2002524:	88200237 	lui	v1,0x4004
 2002528:	04407423 	sb	zero,29(v1)
 200252c:	88200237 	lui	v1,0x4004
 2002530:	04ea5c23 	sb	a3,23(a1)
 2002534:	046a5023 	sb	a3,20(v1)
 2002538:	ffffc367 	j	2002444 <t1_taskA2_generic_FH_TUERMODUL_CTRL+0x98>
 200253c:	88200237 	lui	v1,0x4004
 2002540:	8c42a103 	lw	v1,168(v1)
 2002544:	8c40f513 	slt	v1,v1,61
 2002548:	044098e3 	bnez	v1,2002594 <t1_taskA2_generic_FH_TUERMODUL_CTRL+0x1e8>
 200254c:	88200237 	lui	v1,0x4004
 2002550:	8c428103 	lw	v1,160(v1)
 2002554:	8c40f513 	slt	v1,v1,61
 2002558:	04407863 	beqz	v1,2002594 <t1_taskA2_generic_FH_TUERMODUL_CTRL+0x1e8>
 200255c:	88200237 	lui	v1,0x4004
 2002560:	8c417c03 	lb	v1,95(v1)
 2002564:	044060e3 	bnez	v1,2002594 <t1_taskA2_generic_FH_TUERMODUL_CTRL+0x1e8>
 2002568:	88200237 	lui	v1,0x4004
 200256c:	8c418403 	lb	v1,97(v1)
 2002570:	044048e3 	bnez	v1,2002594 <t1_taskA2_generic_FH_TUERMODUL_CTRL+0x1e8>
 2002574:	88200237 	lui	v1,0x4004
 2002578:	04407423 	sb	zero,29(v1)
 200257c:	88200237 	lui	v1,0x4004
 2002580:	04412023 	sb	zero,72(v1)
 2002584:	88200237 	lui	v1,0x4004
 2002588:	04411423 	sb	zero,69(v1)
 200258c:	04e45c23 	sb	a0,23(a1)
 2002590:	ffffad67 	j	2002444 <t1_taskA2_generic_FH_TUERMODUL_CTRL+0x98>
 2002594:	88200237 	lui	v1,0x4004
 2002598:	8c414c03 	lb	v1,83(v1)
 200259c:	0440a863 	beqz	v1,20025f0 <t1_taskA2_generic_FH_TUERMODUL_CTRL+0x244>
 20025a0:	88200237 	lui	v1,0x4004
 20025a4:	8c414403 	lb	v1,81(v1)
 20025a8:	044090e3 	bnez	v1,20025f0 <t1_taskA2_generic_FH_TUERMODUL_CTRL+0x244>
 20025ac:	88200237 	lui	v1,0x4004
 20025b0:	8c411803 	lb	v1,70(v1)
 20025b4:	1441d863 	beqz	v1,20028a0 <t1_taskA2_generic_FH_TUERMODUL_CTRL+0x4f4>
 20025b8:	88200237 	lui	v1,0x4004
 20025bc:	94408103 	lw	a0,32(v1)
 20025c0:	88200237 	lui	v1,0x4004
 20025c4:	04407423 	sb	zero,29(v1)
 20025c8:	88200237 	lui	v1,0x4004
 20025cc:	04411423 	sb	zero,69(v1)
 20025d0:	88200237 	lui	v1,0x4004
 20025d4:	0c64d123 	sw	a0,180(v1)
 20025d8:	88000813 	li	v1,2
 20025dc:	04e25c23 	sb	v1,23(a1)
 20025e0:	90000c13 	li	a0,3
 20025e4:	88200237 	lui	v1,0x4004
 20025e8:	04646c23 	sb	a0,27(v1)
 20025ec:	ffff9667 	j	2002444 <t1_taskA2_generic_FH_TUERMODUL_CTRL+0x98>
 20025f0:	90200237 	lui	a0,0x4004
 20025f4:	8c805003 	lb	v1,20(a0)
 20025f8:	98000813 	li	a1,2
 20025fc:	14662063 	beq	v1,a1,200280c <t1_taskA2_generic_FH_TUERMODUL_CTRL+0x460>
 2002600:	a0000c13 	li	a2,3
 2002604:	0c696863 	beq	v1,a2,20027b8 <t1_taskA2_generic_FH_TUERMODUL_CTRL+0x40c>
 2002608:	a8000413 	li	a3,1
 200260c:	0c6a6863 	beq	v1,a3,2002740 <t1_taskA2_generic_FH_TUERMODUL_CTRL+0x394>
 2002610:	88200237 	lui	v1,0x4004
 2002614:	04407423 	sb	zero,29(v1)
 2002618:	04a85023 	sb	a2,20(a0)
 200261c:	ffff8a67 	j	2002444 <t1_taskA2_generic_FH_TUERMODUL_CTRL+0x98>
 2002620:	f468a0e3 	bne	v1,a2,2002470 <t1_taskA2_generic_FH_TUERMODUL_CTRL+0xc4>
 2002624:	98200237 	lui	a1,0x4004
 2002628:	9cc2e103 	lw	a1,184(a1)
 200262c:	f4c08863 	beqz	a1,2002470 <t1_taskA2_generic_FH_TUERMODUL_CTRL+0xc4>
 2002630:	a0200237 	lui	a2,0x4004
 2002634:	a5008103 	lw	a2,32(a2)
 2002638:	a53ff413 	add	a2,a2,-3
 200263c:	f4e868e3 	bne	a1,a2,2002470 <t1_taskA2_generic_FH_TUERMODUL_CTRL+0xc4>
 2002640:	98200237 	lui	a1,0x4004
 2002644:	9cc12403 	lb	a1,73(a1)
 2002648:	f4c050e3 	bnez	a1,2002470 <t1_taskA2_generic_FH_TUERMODUL_CTRL+0xc4>
 200264c:	98200237 	lui	a1,0x4004
 2002650:	9cc11803 	lb	a1,70(a1)
 2002654:	f4c038e3 	bnez	a1,2002470 <t1_taskA2_generic_FH_TUERMODUL_CTRL+0xc4>
 2002658:	98200237 	lui	a1,0x4004
 200265c:	a4c2a103 	lw	a2,168(a1)
 2002660:	f02822e3 	blez	a2,2002470 <t1_taskA2_generic_FH_TUERMODUL_CTRL+0xc4>
 2002664:	a53ffc13 	add	a2,a2,-1
 2002668:	a8200237 	lui	a3,0x4004
 200266c:	05407423 	sb	zero,29(a3)
 2002670:	0ce8a123 	sw	a2,168(a1)
 2002674:	04a25423 	sb	v1,21(a0)
 2002678:	ffff7e67 	j	2002470 <t1_taskA2_generic_FH_TUERMODUL_CTRL+0xc4>
 200267c:	98200237 	lui	a1,0x4004
 2002680:	9cc2f103 	lw	a1,188(a1)
 2002684:	f4c01863 	beqz	a1,2002490 <t1_taskA2_generic_FH_TUERMODUL_CTRL+0xe4>
 2002688:	a0200237 	lui	a2,0x4004
 200268c:	a5008103 	lw	a2,32(a2)
 2002690:	9d270033 	sub	a1,a2,a1
 2002694:	ece3f8e3 	bne	a1,v1,2002490 <t1_taskA2_generic_FH_TUERMODUL_CTRL+0xe4>
 2002698:	98200237 	lui	a1,0x4004
 200269c:	9cc12403 	lb	a1,73(a1)
 20026a0:	04c020e3 	bnez	a1,20026b0 <t1_taskA2_generic_FH_TUERMODUL_CTRL+0x304>
 20026a4:	98200237 	lui	a1,0x4004
 20026a8:	9cc11803 	lb	a1,70(a1)
 20026ac:	ecc1c863 	beqz	a1,2002490 <t1_taskA2_generic_FH_TUERMODUL_CTRL+0xe4>
 20026b0:	98200237 	lui	a1,0x4004
 20026b4:	a4c2a103 	lw	a2,168(a1)
 20026b8:	88000413 	li	v1,1
 20026bc:	a8200237 	lui	a3,0x4004
 20026c0:	a5000413 	add	a2,a2,1
 20026c4:	04a25823 	sb	v1,22(a0)
 20026c8:	90200237 	lui	a0,0x4004
 20026cc:	05407423 	sb	zero,29(a3)
 20026d0:	0ce8a123 	sw	a2,168(a1)
 20026d4:	04a25423 	sb	v1,21(a0)
 20026d8:	ffff6667 	j	2002470 <t1_taskA2_generic_FH_TUERMODUL_CTRL+0xc4>
 20026dc:	88200237 	lui	v1,0x4004
 20026e0:	8c412403 	lb	v1,73(v1)
 20026e4:	ec41e863 	beqz	v1,20024d8 <t1_taskA2_generic_FH_TUERMODUL_CTRL+0x12c>
 20026e8:	88200237 	lui	v1,0x4004
 20026ec:	a4408103 	lw	a2,32(v1)
 20026f0:	90200237 	lui	a0,0x4004
 20026f4:	04807423 	sb	zero,29(a0)
 20026f8:	90200237 	lui	a0,0x4004
 20026fc:	04812023 	sb	zero,72(a0)
 2002700:	90200237 	lui	a0,0x4004
 2002704:	88000c13 	li	v1,3
 2002708:	0ca8b123 	sw	a2,172(a0)
 200270c:	90200237 	lui	a0,0x4004
 2002710:	04e25c23 	sb	v1,23(a1)
 2002714:	04a25023 	sb	v1,20(a0)
 2002718:	ffff4b67 	j	2002444 <t1_taskA2_generic_FH_TUERMODUL_CTRL+0x98>
 200271c:	88200237 	lui	v1,0x4004
 2002720:	8c413c03 	lb	v1,79(v1)
 2002724:	ec4040e3 	bnez	v1,2002444 <t1_taskA2_generic_FH_TUERMODUL_CTRL+0x98>
 2002728:	88200237 	lui	v1,0x4004
 200272c:	04407423 	sb	zero,29(v1)
 2002730:	88200237 	lui	v1,0x4004
 2002734:	04412023 	sb	zero,72(v1)
 2002738:	04a86c23 	sb	a2,27(a0)
 200273c:	ffff4267 	j	2002444 <t1_taskA2_generic_FH_TUERMODUL_CTRL+0x98>
 2002740:	a8200237 	lui	a3,0x4004
 2002744:	ad425103 	lw	a3,148(a3)
 2002748:	ad465513 	slt	a3,a3,405
 200274c:	0d4158e3 	bnez	a3,20028f8 <t1_taskA2_generic_FH_TUERMODUL_CTRL+0x54c>
 2002750:	88200237 	lui	v1,0x4004
 2002754:	04407423 	sb	zero,29(v1)
 2002758:	88200237 	lui	v1,0x4004
 200275c:	04411423 	sb	zero,69(v1)
 2002760:	04a85023 	sb	a2,20(a0)
 2002764:	ffff3867 	j	2002444 <t1_taskA2_generic_FH_TUERMODUL_CTRL+0x98>
 2002768:	88200237 	lui	v1,0x4004
 200276c:	8c413003 	lb	v1,76(v1)
 2002770:	0c40c063 	beqz	v1,20028d0 <t1_taskA2_generic_FH_TUERMODUL_CTRL+0x524>
 2002774:	88200237 	lui	v1,0x4004
 2002778:	04407423 	sb	zero,29(v1)
 200277c:	a0000413 	li	a2,1
 2002780:	88200237 	lui	v1,0x4004
 2002784:	04691423 	sb	a2,69(v1)
 2002788:	04a66c23 	sb	a1,27(a0)
 200278c:	ffff2e67 	j	2002444 <t1_taskA2_generic_FH_TUERMODUL_CTRL+0x98>
 2002790:	88200237 	lui	v1,0x4004
 2002794:	8c413003 	lb	v1,76(v1)
 2002798:	e44158e3 	bnez	v1,2002444 <t1_taskA2_generic_FH_TUERMODUL_CTRL+0x98>
 200279c:	88200237 	lui	v1,0x4004
 20027a0:	04407423 	sb	zero,29(v1)
 20027a4:	88200237 	lui	v1,0x4004
 20027a8:	04411423 	sb	zero,69(v1)
 20027ac:	88000c13 	li	v1,3
 20027b0:	04a26c23 	sb	v1,27(a0)
 20027b4:	ffff2467 	j	2002444 <t1_taskA2_generic_FH_TUERMODUL_CTRL+0x98>
 20027b8:	88200237 	lui	v1,0x4004
 20027bc:	8c413c03 	lb	v1,79(v1)
 20027c0:	04412063 	beqz	v1,2002850 <t1_taskA2_generic_FH_TUERMODUL_CTRL+0x4a4>
 20027c4:	88200237 	lui	v1,0x4004
 20027c8:	8c413403 	lb	v1,77(v1)
 20027cc:	044108e3 	bnez	v1,2002850 <t1_taskA2_generic_FH_TUERMODUL_CTRL+0x4a4>
 20027d0:	88200237 	lui	v1,0x4004
 20027d4:	8c425103 	lw	v1,148(v1)
 20027d8:	0022f2e3 	blez	v1,2002850 <t1_taskA2_generic_FH_TUERMODUL_CTRL+0x4a4>
 20027dc:	04a65023 	sb	a1,20(a0)
 20027e0:	90200237 	lui	a0,0x4004
 20027e4:	04a64023 	sb	a1,16(a0)
 20027e8:	90200237 	lui	a0,0x4004
 20027ec:	88000413 	li	v1,1
 20027f0:	a0200237 	lui	a2,0x4004
 20027f4:	04a64823 	sb	a1,18(a0)
 20027f8:	90200237 	lui	a0,0x4004
 20027fc:	05007423 	sb	zero,29(a2)
 2002800:	04224423 	sb	v1,17(v0)
 2002804:	04a32023 	sb	v1,72(a0)
 2002808:	ffff0f67 	j	2002444 <t1_taskA2_generic_FH_TUERMODUL_CTRL+0x98>
 200280c:	98200237 	lui	a1,0x4004
 2002810:	9cc25103 	lw	a1,148(a1)
 2002814:	08260ae3 	blez	a1,2002918 <t1_taskA2_generic_FH_TUERMODUL_CTRL+0x56c>
 2002818:	a8200237 	lui	a3,0x4004
 200281c:	9d404003 	lb	a1,16(a3)
 2002820:	a0000413 	li	a2,1
 2002824:	0ce8b863 	beq	a1,a2,2002980 <t1_taskA2_generic_FH_TUERMODUL_CTRL+0x5d4>
 2002828:	0ce21863 	beq	a1,v1,2002934 <t1_taskA2_generic_FH_TUERMODUL_CTRL+0x588>
 200282c:	90200237 	lui	a0,0x4004
 2002830:	04807423 	sb	zero,29(a0)
 2002834:	90200237 	lui	a0,0x4004
 2002838:	05624023 	sb	v1,16(a3)
 200283c:	04a24823 	sb	v1,18(a0)
 2002840:	88200237 	lui	v1,0x4004
 2002844:	04284423 	sb	a2,17(v0)
 2002848:	04692023 	sb	a2,72(v1)
 200284c:	fffefe67 	j	2002444 <t1_taskA2_generic_FH_TUERMODUL_CTRL+0x98>
 2002850:	88200237 	lui	v1,0x4004
 2002854:	8c413003 	lb	v1,76(v1)
 2002858:	dc41d863 	beqz	v1,2002444 <t1_taskA2_generic_FH_TUERMODUL_CTRL+0x98>
 200285c:	88200237 	lui	v1,0x4004
 2002860:	8c412803 	lb	v1,74(v1)
 2002864:	dc41c0e3 	bnez	v1,2002444 <t1_taskA2_generic_FH_TUERMODUL_CTRL+0x98>
 2002868:	88200237 	lui	v1,0x4004
 200286c:	8c425103 	lw	v1,148(v1)
 2002870:	8c465513 	slt	v1,v1,405
 2002874:	dc41a063 	beqz	v1,2002444 <t1_taskA2_generic_FH_TUERMODUL_CTRL+0x98>
 2002878:	98200237 	lui	a1,0x4004
 200287c:	88000413 	li	v1,1
 2002880:	04c07423 	sb	zero,29(a1)
 2002884:	98200237 	lui	a1,0x4004
 2002888:	04a25023 	sb	v1,20(a0)
 200288c:	04e31423 	sb	v1,69(a1)
 2002890:	90000813 	li	a0,2
 2002894:	88200237 	lui	v1,0x4004
 2002898:	04644423 	sb	a0,17(v1)
 200289c:	fffeea67 	j	2002444 <t1_taskA2_generic_FH_TUERMODUL_CTRL+0x98>
 20028a0:	88200237 	lui	v1,0x4004
 20028a4:	8c412403 	lb	v1,73(v1)
 20028a8:	ec409063 	beqz	v1,20025f0 <t1_taskA2_generic_FH_TUERMODUL_CTRL+0x244>
 20028ac:	88200237 	lui	v1,0x4004
 20028b0:	94408103 	lw	a0,32(v1)
 20028b4:	88200237 	lui	v1,0x4004
 20028b8:	04407423 	sb	zero,29(v1)
 20028bc:	88200237 	lui	v1,0x4004
 20028c0:	04412023 	sb	zero,72(v1)
 20028c4:	88200237 	lui	v1,0x4004
 20028c8:	0c64c123 	sw	a0,176(v1)
 20028cc:	ffff4367 	j	20025d8 <t1_taskA2_generic_FH_TUERMODUL_CTRL+0x22c>
 20028d0:	88200237 	lui	v1,0x4004
 20028d4:	8c413c03 	lb	v1,79(v1)
 20028d8:	dc40d863 	beqz	v1,2002444 <t1_taskA2_generic_FH_TUERMODUL_CTRL+0x98>
 20028dc:	98200237 	lui	a1,0x4004
 20028e0:	88000413 	li	v1,1
 20028e4:	04c07423 	sb	zero,29(a1)
 20028e8:	98200237 	lui	a1,0x4004
 20028ec:	04e32023 	sb	v1,72(a1)
 20028f0:	04a26c23 	sb	v1,27(a0)
 20028f4:	fffed467 	j	2002444 <t1_taskA2_generic_FH_TUERMODUL_CTRL+0x98>
 20028f8:	a8200237 	lui	a3,0x4004
 20028fc:	a5404403 	lb	a2,17(a3)
 2002900:	0d220863 	beq	a2,v1,2002a04 <t1_taskA2_generic_FH_TUERMODUL_CTRL+0x658>
 2002904:	0527b063 	beq	a2,a1,20029dc <t1_taskA2_generic_FH_TUERMODUL_CTRL+0x630>
 2002908:	88200237 	lui	v1,0x4004
 200290c:	04407423 	sb	zero,29(v1)
 2002910:	05664423 	sb	a1,17(a3)
 2002914:	fffecc67 	j	2002444 <t1_taskA2_generic_FH_TUERMODUL_CTRL+0x98>
 2002918:	88200237 	lui	v1,0x4004
 200291c:	04407423 	sb	zero,29(v1)
 2002920:	88200237 	lui	v1,0x4004
 2002924:	04412023 	sb	zero,72(v1)
 2002928:	88000c13 	li	v1,3
 200292c:	04a25023 	sb	v1,20(a0)
 2002930:	fffec567 	j	2002444 <t1_taskA2_generic_FH_TUERMODUL_CTRL+0x98>
 2002934:	88200237 	lui	v1,0x4004
 2002938:	8c413c03 	lb	v1,79(v1)
 200293c:	044020e3 	bnez	v1,200294c <t1_taskA2_generic_FH_TUERMODUL_CTRL+0x5a0>
 2002940:	88200237 	lui	v1,0x4004
 2002944:	8c413403 	lb	v1,77(v1)
 2002948:	fc41a0e3 	bnez	v1,2002918 <t1_taskA2_generic_FH_TUERMODUL_CTRL+0x56c>
 200294c:	98200237 	lui	a1,0x4004
 2002950:	94c04803 	lb	a0,18(a1)
 2002954:	88000413 	li	v1,1
 2002958:	0ca2c863 	beq	a0,v1,2002abc <t1_taskA2_generic_FH_TUERMODUL_CTRL+0x710>
 200295c:	a0000813 	li	a2,2
 2002960:	0ca82863 	beq	a0,a2,2002a74 <t1_taskA2_generic_FH_TUERMODUL_CTRL+0x6c8>
 2002964:	90200237 	lui	a0,0x4004
 2002968:	04807423 	sb	zero,29(a0)
 200296c:	90200237 	lui	a0,0x4004
 2002970:	04e84823 	sb	a2,18(a1)
 2002974:	04224423 	sb	v1,17(v0)
 2002978:	04a32023 	sb	v1,72(a0)
 200297c:	fffeb267 	j	2002444 <t1_taskA2_generic_FH_TUERMODUL_CTRL+0x98>
 2002980:	88200237 	lui	v1,0x4004
 2002984:	8c413003 	lb	v1,76(v1)
 2002988:	04402063 	beqz	v1,2002998 <t1_taskA2_generic_FH_TUERMODUL_CTRL+0x5ec>
 200298c:	88200237 	lui	v1,0x4004
 2002990:	8c412803 	lb	v1,74(v1)
 2002994:	fc410863 	beqz	v1,2002918 <t1_taskA2_generic_FH_TUERMODUL_CTRL+0x56c>
 2002998:	88200237 	lui	v1,0x4004
 200299c:	8c413c03 	lb	v1,79(v1)
 20029a0:	04402063 	beqz	v1,20029b0 <t1_taskA2_generic_FH_TUERMODUL_CTRL+0x604>
 20029a4:	88200237 	lui	v1,0x4004
 20029a8:	8c413403 	lb	v1,77(v1)
 20029ac:	fc40d863 	beqz	v1,2002918 <t1_taskA2_generic_FH_TUERMODUL_CTRL+0x56c>
 20029b0:	98200237 	lui	a1,0x4004
 20029b4:	94c04c03 	lb	a0,19(a1)
 20029b8:	88000413 	li	v1,1
 20029bc:	0ca30863 	beq	a0,v1,2002b40 <t1_taskA2_generic_FH_TUERMODUL_CTRL+0x794>
 20029c0:	a0000813 	li	a2,2
 20029c4:	0ca86863 	beq	a0,a2,2002af8 <t1_taskA2_generic_FH_TUERMODUL_CTRL+0x74c>
 20029c8:	90200237 	lui	a0,0x4004
 20029cc:	04807423 	sb	zero,29(a0)
 20029d0:	04e84c23 	sb	a2,19(a1)
 20029d4:	04224423 	sb	v1,17(v0)
 20029d8:	fffe9b67 	j	2002444 <t1_taskA2_generic_FH_TUERMODUL_CTRL+0x98>
 20029dc:	98200237 	lui	a1,0x4004
 20029e0:	9cc13c03 	lb	a1,79(a1)
 20029e4:	04c0b063 	beqz	a1,2002a3c <t1_taskA2_generic_FH_TUERMODUL_CTRL+0x690>
 20029e8:	98200237 	lui	a1,0x4004
 20029ec:	9cc13403 	lb	a1,77(a1)
 20029f0:	04c098e3 	bnez	a1,2002a3c <t1_taskA2_generic_FH_TUERMODUL_CTRL+0x690>
 20029f4:	90200237 	lui	a0,0x4004
 20029f8:	04807423 	sb	zero,29(a0)
 20029fc:	05624423 	sb	v1,17(a3)
 2002a00:	fffe9167 	j	2002444 <t1_taskA2_generic_FH_TUERMODUL_CTRL+0x98>
 2002a04:	88200237 	lui	v1,0x4004
 2002a08:	8c413c03 	lb	v1,79(v1)
 2002a0c:	04409863 	beqz	v1,2002a58 <t1_taskA2_generic_FH_TUERMODUL_CTRL+0x6ac>
 2002a10:	88200237 	lui	v1,0x4004
 2002a14:	8c413403 	lb	v1,77(v1)
 2002a18:	044080e3 	bnez	v1,2002a58 <t1_taskA2_generic_FH_TUERMODUL_CTRL+0x6ac>
 2002a1c:	88200237 	lui	v1,0x4004
 2002a20:	04407423 	sb	zero,29(v1)
 2002a24:	88200237 	lui	v1,0x4004
 2002a28:	04411423 	sb	zero,69(v1)
 2002a2c:	88000c13 	li	v1,3
 2002a30:	04a25023 	sb	v1,20(a0)
 2002a34:	05404423 	sb	zero,17(a3)
 2002a38:	fffe8367 	j	2002444 <t1_taskA2_generic_FH_TUERMODUL_CTRL+0x98>
 2002a3c:	88200237 	lui	v1,0x4004
 2002a40:	8c413003 	lb	v1,76(v1)
 2002a44:	d44000e3 	bnez	v1,2002444 <t1_taskA2_generic_FH_TUERMODUL_CTRL+0x98>
 2002a48:	88200237 	lui	v1,0x4004
 2002a4c:	8c412803 	lb	v1,74(v1)
 2002a50:	cc41e863 	beqz	v1,2002444 <t1_taskA2_generic_FH_TUERMODUL_CTRL+0x98>
 2002a54:	fffff267 	j	2002a1c <t1_taskA2_generic_FH_TUERMODUL_CTRL+0x670>
 2002a58:	88200237 	lui	v1,0x4004
 2002a5c:	8c413003 	lb	v1,76(v1)
 2002a60:	cc41c863 	beqz	v1,2002444 <t1_taskA2_generic_FH_TUERMODUL_CTRL+0x98>
 2002a64:	88200237 	lui	v1,0x4004
 2002a68:	8c412803 	lb	v1,74(v1)
 2002a6c:	cc41b0e3 	bnez	v1,2002444 <t1_taskA2_generic_FH_TUERMODUL_CTRL+0x98>
 2002a70:	ffffeb67 	j	2002a1c <t1_taskA2_generic_FH_TUERMODUL_CTRL+0x670>
 2002a74:	94006003 	lb	a0,24(v0)
 2002a78:	0c800863 	beqz	a0,2002b7c <t1_taskA2_generic_FH_TUERMODUL_CTRL+0x7d0>
 2002a7c:	90200237 	lui	a0,0x4004
 2002a80:	a4808103 	lw	a2,32(a0)
 2002a84:	90200237 	lui	a0,0x4004
 2002a88:	04807423 	sb	zero,29(a0)
 2002a8c:	90200237 	lui	a0,0x4004
 2002a90:	04812023 	sb	zero,72(a0)
 2002a94:	90200237 	lui	a0,0x4004
 2002a98:	04a37823 	sb	v1,94(a0)
 2002a9c:	90200237 	lui	a0,0x4004
 2002aa0:	0ca86123 	sw	a2,152(a0)
 2002aa4:	90200237 	lui	a0,0x4004
 2002aa8:	04225c23 	sb	v1,23(v0)
 2002aac:	04e24823 	sb	v1,18(a1)
 2002ab0:	04004423 	sb	zero,17(v0)
 2002ab4:	04a31423 	sb	v1,69(a0)
 2002ab8:	fffe6367 	j	2002444 <t1_taskA2_generic_FH_TUERMODUL_CTRL+0x98>
 2002abc:	8c005803 	lb	v1,22(v0)
 2002ac0:	04005c23 	sb	zero,23(v0)
 2002ac4:	cc410063 	beqz	v1,2002444 <t1_taskA2_generic_FH_TUERMODUL_CTRL+0x98>
 2002ac8:	88200237 	lui	v1,0x4004
 2002acc:	04407423 	sb	zero,29(v1)
 2002ad0:	88200237 	lui	v1,0x4004
 2002ad4:	04417823 	sb	zero,94(v1)
 2002ad8:	88000813 	li	v1,2
 2002adc:	04e24823 	sb	v1,18(a1)
 2002ae0:	88200237 	lui	v1,0x4004
 2002ae4:	04411423 	sb	zero,69(v1)
 2002ae8:	88200237 	lui	v1,0x4004
 2002aec:	04244423 	sb	a0,17(v0)
 2002af0:	04652023 	sb	a0,72(v1)
 2002af4:	fffe5467 	j	2002444 <t1_taskA2_generic_FH_TUERMODUL_CTRL+0x98>
 2002af8:	94006003 	lb	a0,24(v0)
 2002afc:	cc809063 	beqz	a0,2002444 <t1_taskA2_generic_FH_TUERMODUL_CTRL+0x98>
 2002b00:	90200237 	lui	a0,0x4004
 2002b04:	a4808103 	lw	a2,32(a0)
 2002b08:	90200237 	lui	a0,0x4004
 2002b0c:	04807423 	sb	zero,29(a0)
 2002b10:	90200237 	lui	a0,0x4004
 2002b14:	04a38023 	sb	v1,96(a0)
 2002b18:	90200237 	lui	a0,0x4004
 2002b1c:	04812023 	sb	zero,72(a0)
 2002b20:	90200237 	lui	a0,0x4004
 2002b24:	0ca87123 	sw	a2,156(a0)
 2002b28:	90200237 	lui	a0,0x4004
 2002b2c:	04225c23 	sb	v1,23(v0)
 2002b30:	04e24c23 	sb	v1,19(a1)
 2002b34:	04004423 	sb	zero,17(v0)
 2002b38:	04a31423 	sb	v1,69(a0)
 2002b3c:	fffe4267 	j	2002444 <t1_taskA2_generic_FH_TUERMODUL_CTRL+0x98>
 2002b40:	8c005803 	lb	v1,22(v0)
 2002b44:	04005c23 	sb	zero,23(v0)
 2002b48:	c441f863 	beqz	v1,2002444 <t1_taskA2_generic_FH_TUERMODUL_CTRL+0x98>
 2002b4c:	88200237 	lui	v1,0x4004
 2002b50:	04407423 	sb	zero,29(v1)
 2002b54:	88200237 	lui	v1,0x4004
 2002b58:	04652023 	sb	a0,72(v1)
 2002b5c:	88200237 	lui	v1,0x4004
 2002b60:	04418023 	sb	zero,96(v1)
 2002b64:	88000813 	li	v1,2
 2002b68:	04e24c23 	sb	v1,19(a1)
 2002b6c:	88200237 	lui	v1,0x4004
 2002b70:	04411423 	sb	zero,69(v1)
 2002b74:	04244423 	sb	a0,17(v0)
 2002b78:	fffe3367 	j	2002444 <t1_taskA2_generic_FH_TUERMODUL_CTRL+0x98>
 2002b7c:	90200237 	lui	a0,0x4004
 2002b80:	94813003 	lb	a0,76(a0)
 2002b84:	c4818063 	beqz	a0,2002444 <t1_taskA2_generic_FH_TUERMODUL_CTRL+0x98>
 2002b88:	90200237 	lui	a0,0x4004
 2002b8c:	94812803 	lb	a0,74(a0)
 2002b90:	c48168e3 	bnez	a0,2002444 <t1_taskA2_generic_FH_TUERMODUL_CTRL+0x98>
 2002b94:	90200237 	lui	a0,0x4004
 2002b98:	04807423 	sb	zero,29(a0)
 2002b9c:	05624023 	sb	v1,16(a3)
 2002ba0:	04c04823 	sb	zero,18(a1)
 2002ba4:	fffe2867 	j	2002444 <t1_taskA2_generic_FH_TUERMODUL_CTRL+0x98>

02002ba8 <t1_taskA2_generic_EINKLEMMSCHUTZ_CTRL>:
 2002ba8:	80200237 	lui	v0,0x4004
 2002bac:	84031013 	add	v0,v0,196
 2002bb0:	8c004003 	lb	v1,16(v0)
 2002bb4:	04405063 	beqz	v1,2002bdc <t1_taskA2_generic_EINKLEMMSCHUTZ_CTRL+0x34>
 2002bb8:	90200237 	lui	a0,0x4004
 2002bbc:	8c803803 	lb	v1,14(a0)
 2002bc0:	98000413 	li	a1,1
 2002bc4:	04663863 	beq	v1,a1,2002be0 <t1_taskA2_generic_EINKLEMMSCHUTZ_CTRL+0x38>
 2002bc8:	a0000813 	li	a2,2
 2002bcc:	0468c063 	beq	v1,a2,2002c2c <t1_taskA2_generic_EINKLEMMSCHUTZ_CTRL+0x84>
 2002bd0:	80200237 	lui	v0,0x4004
 2002bd4:	04007423 	sb	zero,29(v0)
 2002bd8:	04a63823 	sb	a1,14(a0)
 2002bdc:	004000eb 	ret
 2002be0:	88200237 	lui	v1,0x4004
 2002be4:	8c410c03 	lb	v1,67(v1)
 2002be8:	fc41e863 	beqz	v1,2002bdc <t1_taskA2_generic_EINKLEMMSCHUTZ_CTRL+0x34>
 2002bec:	88200237 	lui	v1,0x4004
 2002bf0:	8c410803 	lb	v1,66(v1)
 2002bf4:	fc41d0e3 	bnez	v1,2002bdc <t1_taskA2_generic_EINKLEMMSCHUTZ_CTRL+0x34>
 2002bf8:	88200237 	lui	v1,0x4004
 2002bfc:	8c413c03 	lb	v1,79(v1)
 2002c00:	04402063 	beqz	v1,2002c10 <t1_taskA2_generic_EINKLEMMSCHUTZ_CTRL+0x68>
 2002c04:	88200237 	lui	v1,0x4004
 2002c08:	8c413003 	lb	v1,76(v1)
 2002c0c:	fc41a0e3 	bnez	v1,2002bdc <t1_taskA2_generic_EINKLEMMSCHUTZ_CTRL+0x34>
 2002c10:	88200237 	lui	v1,0x4004
 2002c14:	04407423 	sb	zero,29(v1)
 2002c18:	88000413 	li	v1,1
 2002c1c:	04226023 	sb	v1,24(v0)
 2002c20:	80000813 	li	v0,2
 2002c24:	04a03823 	sb	v0,14(a0)
 2002c28:	004000eb 	ret
 2002c2c:	88200237 	lui	v1,0x4004
 2002c30:	8c410c03 	lb	v1,67(v1)
 2002c34:	04006023 	sb	zero,24(v0)
 2002c38:	fc4148e3 	bnez	v1,2002bdc <t1_taskA2_generic_EINKLEMMSCHUTZ_CTRL+0x34>
 2002c3c:	80200237 	lui	v0,0x4004
 2002c40:	84010803 	lb	v0,66(v0)
 2002c44:	fc013063 	beqz	v0,2002bdc <t1_taskA2_generic_EINKLEMMSCHUTZ_CTRL+0x34>
 2002c48:	80200237 	lui	v0,0x4004
 2002c4c:	04007423 	sb	zero,29(v0)
 2002c50:	04a63823 	sb	a1,14(a0)
 2002c54:	004000eb 	ret

02002c58 <t1_taskA2_generic_BLOCK_ERKENNUNG_CTRL>:
 2002c58:	88200237 	lui	v1,0x4004
 2002c5c:	84431013 	add	v0,v1,196
 2002c60:	94004c03 	lb	a0,19(v0)
 2002c64:	048038e3 	bnez	a0,2002c80 <t1_taskA2_generic_BLOCK_ERKENNUNG_CTRL+0x28>
 2002c68:	94005403 	lb	a0,21(v0)
 2002c6c:	04807063 	beqz	a0,2002ca4 <t1_taskA2_generic_BLOCK_ERKENNUNG_CTRL+0x4c>
 2002c70:	84005003 	lb	v0,20(v0)
 2002c74:	040060e3 	bnez	v0,2002ca4 <t1_taskA2_generic_BLOCK_ERKENNUNG_CTRL+0x4c>
 2002c78:	0c411023 	sb	zero,196(v1)
 2002c7c:	004000eb 	ret
 2002c80:	90200237 	lui	a0,0x4004
 2002c84:	84803003 	lb	v0,12(a0)
 2002c88:	98000413 	li	a1,1
 2002c8c:	04263863 	beq	v0,a1,2002ca8 <t1_taskA2_generic_BLOCK_ERKENNUNG_CTRL+0x50>
 2002c90:	a0000813 	li	a2,2
 2002c94:	0428d863 	beq	v0,a2,2002d00 <t1_taskA2_generic_BLOCK_ERKENNUNG_CTRL+0xa8>
 2002c98:	80200237 	lui	v0,0x4004
 2002c9c:	04007423 	sb	zero,29(v0)
 2002ca0:	04a63023 	sb	a1,12(a0)
 2002ca4:	004000eb 	ret
 2002ca8:	98200237 	lui	a1,0x4004
 2002cac:	a0200237 	lui	a2,0x4004
 2002cb0:	9cc24103 	lw	a1,144(a1)
 2002cb4:	a5023103 	lw	a2,140(a2)
 2002cb8:	fce9d863 	beq	a1,a2,2002ca4 <t1_taskA2_generic_BLOCK_ERKENNUNG_CTRL+0x4c>
 2002cbc:	f827d2e3 	blez	a1,2002ca4 <t1_taskA2_generic_BLOCK_ERKENNUNG_CTRL+0x4c>
 2002cc0:	98200237 	lui	a1,0x4004
 2002cc4:	04c07423 	sb	zero,29(a1)
 2002cc8:	98200237 	lui	a1,0x4004
 2002ccc:	04c14823 	sb	zero,82(a1)
 2002cd0:	98000813 	li	a1,2
 2002cd4:	04a63023 	sb	a1,12(a0)
 2002cd8:	90200237 	lui	a0,0x4004
 2002cdc:	98000813 	li	a1,2
 2002ce0:	0481b123 	sw	zero,108(a0)
 2002ce4:	90200237 	lui	a0,0x4004
 2002ce8:	04a7d123 	sw	a1,116(a0)
 2002cec:	98000c13 	li	a1,3
 2002cf0:	90200237 	lui	a0,0x4004
 2002cf4:	04a63423 	sb	a1,13(a0)
 2002cf8:	0c611023 	sb	v0,196(v1)
 2002cfc:	004000eb 	ret
 2002d00:	80200237 	lui	v0,0x4004
 2002d04:	84011803 	lb	v0,70(v0)
 2002d08:	0400c063 	beqz	v0,2002d68 <t1_taskA2_generic_BLOCK_ERKENNUNG_CTRL+0x110>
 2002d0c:	80200237 	lui	v0,0x4004
 2002d10:	84012403 	lb	v0,73(v0)
 2002d14:	040020e3 	bnez	v0,2002d24 <t1_taskA2_generic_BLOCK_ERKENNUNG_CTRL+0xcc>
 2002d18:	80200237 	lui	v0,0x4004
 2002d1c:	84011c03 	lb	v0,71(v0)
 2002d20:	0400a8e3 	bnez	v0,2002d74 <t1_taskA2_generic_BLOCK_ERKENNUNG_CTRL+0x11c>
 2002d24:	90200237 	lui	a0,0x4004
 2002d28:	84803403 	lb	v0,13(a0)
 2002d2c:	98000813 	li	a1,2
 2002d30:	0427b063 	beq	v0,a1,2002e08 <t1_taskA2_generic_BLOCK_ERKENNUNG_CTRL+0x1b0>
 2002d34:	a0000c13 	li	a2,3
 2002d38:	0428b863 	beq	v0,a2,2002d94 <t1_taskA2_generic_BLOCK_ERKENNUNG_CTRL+0x13c>
 2002d3c:	a8000413 	li	a3,1
 2002d40:	042aa063 	beq	v0,a3,2002d90 <t1_taskA2_generic_BLOCK_ERKENNUNG_CTRL+0x138>
 2002d44:	80200237 	lui	v0,0x4004
 2002d48:	04007423 	sb	zero,29(v0)
 2002d4c:	80200237 	lui	v0,0x4004
 2002d50:	0401b123 	sw	zero,108(v0)
 2002d54:	80200237 	lui	v0,0x4004
 2002d58:	0427d123 	sw	a1,116(v0)
 2002d5c:	04a83423 	sb	a2,13(a0)
 2002d60:	0c6b1023 	sb	a3,196(v1)
 2002d64:	004000eb 	ret
 2002d68:	80200237 	lui	v0,0x4004
 2002d6c:	84011003 	lb	v0,68(v0)
 2002d70:	fc013863 	beqz	v0,2002d0c <t1_taskA2_generic_BLOCK_ERKENNUNG_CTRL+0xb4>
 2002d74:	80200237 	lui	v0,0x4004
 2002d78:	04007423 	sb	zero,29(v0)
 2002d7c:	80000413 	li	v0,1
 2002d80:	04a03023 	sb	v0,12(a0)
 2002d84:	80200237 	lui	v0,0x4004
 2002d88:	04003423 	sb	zero,13(v0)
 2002d8c:	004000eb 	ret
 2002d90:	004000eb 	ret
 2002d94:	a0200237 	lui	a2,0x4004
 2002d98:	8501b103 	lw	v0,108(a2)
 2002d9c:	0c411023 	sb	zero,196(v1)
 2002da0:	88002c13 	li	v1,11
 2002da4:	04233063 	beq	v0,v1,2002e3c <t1_taskA2_generic_BLOCK_ERKENNUNG_CTRL+0x1e4>
 2002da8:	88200237 	lui	v1,0x4004
 2002dac:	94407003 	lb	a0,28(v1)
 2002db0:	88000413 	li	v1,1
 2002db4:	f4a3e0e3 	bne	a0,v1,2002ca4 <t1_taskA2_generic_BLOCK_ERKENNUNG_CTRL+0x4c>
 2002db8:	88200237 	lui	v1,0x4004
 2002dbc:	8c430103 	lw	v1,192(v1)
 2002dc0:	f441c863 	beqz	v1,2002ca4 <t1_taskA2_generic_BLOCK_ERKENNUNG_CTRL+0x4c>
 2002dc4:	90200237 	lui	a0,0x4004
 2002dc8:	94808103 	lw	a0,32(a0)
 2002dcc:	8ca30033 	sub	v1,a0,v1
 2002dd0:	8c40f0d3 	fcvt.d.wu	fv1,v1
 2002dd4:	88200037 	lui	v1,0x4000
 2002dd8:	84402187 	fld	fv0,8(v1)
 2002ddc:	8c6150d3 	feq.d	v1,fv1,fv0
 2002de0:	f4418863 	beqz	v1,2002ca4 <t1_taskA2_generic_BLOCK_ERKENNUNG_CTRL+0x4c>
 2002de4:	88200237 	lui	v1,0x4004
 2002de8:	90200237 	lui	a0,0x4004
 2002dec:	94824103 	lw	a0,144(a0)
 2002df0:	9c41d103 	lw	a1,116(v1)
 2002df4:	84000413 	add	v0,v0,1
 2002df8:	0521b123 	sw	v0,108(a2)
 2002dfc:	f4e552e3 	ble	a0,a1,2002ca4 <t1_taskA2_generic_BLOCK_ERKENNUNG_CTRL+0x4c>
 2002e00:	0465d123 	sw	a0,116(v1)
 2002e04:	004000eb 	ret
 2002e08:	80200237 	lui	v0,0x4004
 2002e0c:	8c01d103 	lw	v1,116(v0)
 2002e10:	80200237 	lui	v0,0x4004
 2002e14:	84024103 	lw	v0,144(v0)
 2002e18:	8c7ffc13 	add	v1,v1,-1
 2002e1c:	f4231263 	blt	v0,v1,2002ca4 <t1_taskA2_generic_BLOCK_ERKENNUNG_CTRL+0x4c>
 2002e20:	88200237 	lui	v1,0x4004
 2002e24:	80000413 	li	v0,1
 2002e28:	04407423 	sb	zero,29(v1)
 2002e2c:	88200237 	lui	v1,0x4004
 2002e30:	04614823 	sb	v0,82(v1)
 2002e34:	04a03423 	sb	v0,13(a0)
 2002e38:	004000eb 	ret
 2002e3c:	88200237 	lui	v1,0x4004
 2002e40:	8c419103 	lw	v1,100(v1)
 2002e44:	fc60c863 	beq	v1,v0,2002da8 <t1_taskA2_generic_BLOCK_ERKENNUNG_CTRL+0x150>
 2002e48:	80200237 	lui	v0,0x4004
 2002e4c:	04007423 	sb	zero,29(v0)
 2002e50:	04a63423 	sb	a1,13(a0)
 2002e54:	004000eb 	ret

02002e58 <t1_taskA2_FH_DU>:
 2002e58:	73be2013 	add	sp,sp,-120
 2002e5c:	0385c123 	sw	s0,112(sp)
 2002e60:	10200237 	lui	s0,0x4004
 2002e64:	0387b123 	sw	s1,108(sp)
 2002e68:	0389a123 	sw	s2,104(sp)
 2002e6c:	038b9123 	sw	s3,100(sp)
 2002e70:	038d8123 	sw	s4,96(sp)
 2002e74:	038f7123 	sw	s5,92(sp)
 2002e78:	03916123 	sw	s6,88(sp)
 2002e7c:	03935123 	sw	s7,84(sp)
 2002e80:	03954123 	sw	s8,80(sp)
 2002e84:	03973123 	sw	s9,76(sp)
 2002e88:	03992123 	sw	s10,72(sp)
 2002e8c:	039b1123 	sw	s11,68(sp)
 2002e90:	0383d123 	sw	ra,116(sp)
 2002e94:	10831013 	add	s0,s0,196
 2002e98:	88000413 	li	v1,1
 2002e9c:	80200237 	lui	v0,0x4004
 2002ea0:	04228123 	sw	v1,32(v0)
 2002ea4:	a8804003 	lb	a3,16(s0)
 2002ea8:	88802803 	lb	v1,10(s0)
 2002eac:	b0804c03 	lb	a4,19(s0)
 2002eb0:	b8803403 	lb	a5,13(s0)
 2002eb4:	80200237 	lui	v0,0x4004
 2002eb8:	c0200237 	lui	a6,0x4004
 2002ebc:	c8200237 	lui	a7,0x4004
 2002ec0:	04007023 	sb	zero,28(v0)
 2002ec4:	03a2a123 	sw	v1,40(sp)
 2002ec8:	8600d803 	lb	v0,54(a6)
 2002ecc:	03aac123 	sw	a3,48(sp)
 2002ed0:	03acd123 	sw	a4,52(sp)
 2002ed4:	03aeb123 	sw	a5,44(sp)
 2002ed8:	c640d003 	lb	a6,52(a7)
 2002edc:	58200237 	lui	s9,0x4004
 2002ee0:	60200237 	lui	s10,0x4004
 2002ee4:	20200237 	lui	s2,0x4004
 2002ee8:	e0200237 	lui	a10,0x4004
 2002eec:	18200237 	lui	s1,0x4004
 2002ef0:	50200237 	lui	s8,0x4004
 2002ef4:	48200237 	lui	s7,0x4004
 2002ef8:	40200237 	lui	s6,0x4004
 2002efc:	38200237 	lui	s5,0x4004
 2002f00:	30200237 	lui	s4,0x4004
 2002f04:	28200237 	lui	s3,0x4004
 2002f08:	a0200237 	lui	a2,0x4004
 2002f0c:	98200237 	lui	a1,0x4004
 2002f10:	90200237 	lui	a0,0x4004
 2002f14:	88200237 	lui	v1,0x4004
 2002f18:	68200237 	lui	s11,0x4004
 2002f1c:	00016e67 	j	20034d4 <t1_taskA2_FH_DU+0x67c>
 2002f20:	b0000c13 	li	a4,3
 2002f24:	356c2063 	beq	a3,a4,2003534 <t1_taskA2_FH_DU+0x6dc>
 2002f28:	b0000413 	li	a4,1
 2002f2c:	356c7863 	beq	a3,a4,2003568 <t1_taskA2_FH_DU+0x710>
 2002f30:	f8200237 	lui	a13,0x4004
 2002f34:	a8200237 	lui	a3,0x4004
 2002f38:	b8000813 	li	a5,2
 2002f3c:	b0200237 	lui	a4,0x4004
 2002f40:	07c07423 	sb	zero,29(a13)
 2002f44:	0d402123 	sw	zero,136(a3)
 2002f48:	05ae3c23 	sb	a5,15(a4)
 2002f4c:	cb80a103 	lw	a7,40(sp)
 2002f50:	064020e3 	bnez	a7,2002f60 <t1_taskA2_FH_DU+0x108>
 2002f54:	a8000c13 	li	a3,3
 2002f58:	d0200237 	lui	a8,0x4004
 2002f5c:	06aa6023 	sb	a3,24(a8)
 2002f60:	db80c103 	lw	a9,48(sp)
 2002f64:	06c020e3 	bnez	a9,2002f74 <t1_taskA2_FH_DU+0x11c>
 2002f68:	b0000413 	li	a4,1
 2002f6c:	a8200237 	lui	a3,0x4004
 2002f70:	056c3823 	sb	a4,14(a3)
 2002f74:	eb80d103 	lw	a11,52(sp)
 2002f78:	074030e3 	bnez	a11,2002f90 <t1_taskA2_FH_DU+0x138>
 2002f7c:	a8200237 	lui	a3,0x4004
 2002f80:	0d411023 	sb	zero,196(a3)
 2002f84:	b0000413 	li	a4,1
 2002f88:	a8200237 	lui	a3,0x4004
 2002f8c:	056c3023 	sb	a4,12(a3)
 2002f90:	f380b103 	lw	a12,44(sp)
 2002f94:	078070e3 	bnez	a12,2002fcc <t1_taskA2_FH_DU+0x174>
 2002f98:	b0000813 	li	a4,2
 2002f9c:	f8200237 	lui	a13,0x4004
 2002fa0:	a8000413 	li	a3,1
 2002fa4:	07ec5c23 	sb	a4,23(a13)
 2002fa8:	b0200237 	lui	a4,0x4004
 2002fac:	b8200237 	lui	a5,0x4004
 2002fb0:	05aa5823 	sb	a3,22(a4)
 2002fb4:	b0200237 	lui	a4,0x4004
 2002fb8:	00801023 	sb	zero,4(s0)
 2002fbc:	00801823 	sb	zero,6(s0)
 2002fc0:	0dc0a123 	sw	zero,168(a5)
 2002fc4:	00aa1423 	sb	a3,5(s0)
 2002fc8:	05aa5423 	sb	a3,21(a4)
 2002fcc:	a8000413 	li	a3,1
 2002fd0:	00aa2c23 	sb	a3,11(s0)
 2002fd4:	00aa4423 	sb	a3,17(s0)
 2002fd8:	00aa5023 	sb	a3,20(s0)
 2002fdc:	00aa3823 	sb	a3,14(s0)
 2002fe0:	04302863 	beq	v0,a6,2002ff4 <t1_taskA2_FH_DU+0x19c>
 2002fe4:	a8200237 	lui	a3,0x4004
 2002fe8:	ad40b403 	lb	a3,45(a3)
 2002fec:	054010e3 	bnez	a3,2002ff4 <t1_taskA2_FH_DU+0x19c>
 2002ff0:	0120f823 	sb	v0,62(s2)
 2002ff4:	c0200237 	lui	a6,0x4004
 2002ff8:	c8200237 	lui	a7,0x4004
 2002ffc:	8600cc03 	lb	v0,51(a6)
 2003000:	ae40c803 	lb	a3,50(a7)
 2003004:	05603063 	beq	a3,v0,200301c <t1_taskA2_FH_DU+0x1c4>
 2003008:	a8200237 	lui	a3,0x4004
 200300c:	ad40b403 	lb	a3,45(a3)
 2003010:	05401863 	beqz	a3,200301c <t1_taskA2_FH_DU+0x1c4>
 2003014:	d0200237 	lui	a8,0x4004
 2003018:	06a0d823 	sb	v0,54(a8)
 200301c:	d8200237 	lui	a9,0x4004
 2003020:	8700e403 	lb	v0,57(a10)
 2003024:	aec0dc03 	lb	a3,55(a9)
 2003028:	05602863 	beq	a3,v0,200303c <t1_taskA2_FH_DU+0x1e4>
 200302c:	a8200237 	lui	a3,0x4004
 2003030:	ad40b403 	lb	a3,45(a3)
 2003034:	054010e3 	bnez	a3,200303c <t1_taskA2_FH_DU+0x1e4>
 2003038:	00e0f423 	sb	v0,61(s1)
 200303c:	e8200237 	lui	a11,0x4004
 2003040:	f0200237 	lui	a12,0x4004
 2003044:	8740c403 	lb	v0,49(a11)
 2003048:	af80c003 	lb	a3,48(a12)
 200304c:	05602863 	beq	a3,v0,2003060 <t1_taskA2_FH_DU+0x208>
 2003050:	a8200237 	lui	a3,0x4004
 2003054:	ad40b403 	lb	a3,45(a3)
 2003058:	05401063 	beqz	a3,2003060 <t1_taskA2_FH_DU+0x208>
 200305c:	0720e423 	sb	v0,57(a10)
 2003060:	d8803203 	lbu	a9,12(s0)
 2003064:	d0803e03 	lbu	a8,15(s0)
 2003068:	c8804a03 	lbu	a7,18(s0)
 200306c:	c0805603 	lbu	a6,21(s0)
 2003070:	ba40ba03 	lbu	a5,46(s7)
 2003074:	b0c0f603 	lbu	a4,61(s1)
 2003078:	a980be03 	lbu	a3,47(s4)
 200307c:	8100fa03 	lbu	v0,62(s2)
 2003080:	00b62823 	sb	a9,10(s0)
 2003084:	00b43423 	sb	a8,13(s0)
 2003088:	00b24023 	sb	a7,16(s0)
 200308c:	00b04c23 	sb	a6,19(s0)
 2003090:	02af5823 	sb	a5,86(s8)
 2003094:	03b86123 	sw	a10,24(sp)
 2003098:	022d6023 	sb	a4,88(s6)
 200309c:	01eb6823 	sb	a3,90(s5)
 20030a0:	01617023 	sb	v0,92(s3)
 20030a4:	03a25123 	sw	v1,20(sp)
 20030a8:	03a48123 	sw	a0,32(sp)
 20030ac:	03a64123 	sw	a1,16(sp)
 20030b0:	03a87123 	sw	a2,28(sp)
 20030b4:	fffbe46f 	jal	2002044 <t1_taskA2_generic_KINDERSICHERUNG_CTRL>
 20030b8:	a3807103 	lw	a2,28(sp)
 20030bc:	9b804103 	lw	a1,16(sp)
 20030c0:	f8200237 	lui	a13,0x4004
 20030c4:	80200237 	lui	v0,0x4004
 20030c8:	0fc11a03 	lbu	ra,70(a13)
 20030cc:	93808103 	lw	a0,32(sp)
 20030d0:	fc012603 	lbu	a13,73(v0)
 20030d4:	8b805103 	lw	v1,20(sp)
 20030d8:	f5024103 	lw	a12,144(a2)
 20030dc:	a8200237 	lui	a3,0x4004
 20030e0:	ed410e03 	lbu	a11,67(a3)
 20030e4:	dcc25103 	lw	a9,148(a1)
 20030e8:	d4814203 	lbu	a8,80(a0)
 20030ec:	ac415203 	lbu	a3,84(v1)
 20030f0:	ca815a03 	lbu	a7,86(s8)
 20030f4:	c2016203 	lbu	a6,88(s6)
 20030f8:	b9c16a03 	lbu	a5,90(s5)
 20030fc:	b1417203 	lbu	a4,92(s3)
 2003100:	83414e03 	lbu	v0,83(s11)
 2003104:	02fea423 	sb	a13,41(s9)
 2003108:	f8200237 	lui	a13,0x4004
 200310c:	07fdf123 	sw	a12,124(a13)
 2003110:	f8200237 	lui	a13,0x4004
 2003114:	f0200237 	lui	a12,0x4004
 2003118:	07baec23 	sb	a11,59(a12)
 200311c:	0ff60123 	sw	a9,128(a13)
 2003120:	e8200237 	lui	a11,0x4004
 2003124:	d8200237 	lui	a9,0x4004
 2003128:	f0200237 	lui	a12,0x4004
 200312c:	06f4f023 	sb	a8,60(a9)
 2003130:	076afc23 	sb	a3,63(a11)
 2003134:	07a0b023 	sb	v0,44(a12)
 2003138:	03029823 	sb	ra,38(s10)
 200313c:	0272b823 	sb	a7,46(s7)
 2003140:	00f0f423 	sb	a6,61(s1)
 2003144:	01aebc23 	sb	a5,47(s4)
 2003148:	012cf823 	sb	a4,62(s2)
 200314c:	fffc986f 	jal	20023ac <t1_taskA2_generic_FH_TUERMODUL_CTRL>
 2003150:	a3807103 	lw	a2,28(sp)
 2003154:	9b804103 	lw	a1,16(sp)
 2003158:	f8200237 	lui	a13,0x4004
 200315c:	80200237 	lui	v0,0x4004
 2003160:	0fc11a03 	lbu	ra,70(a13)
 2003164:	93808103 	lw	a0,32(sp)
 2003168:	fc012603 	lbu	a13,73(v0)
 200316c:	8b805103 	lw	v1,20(sp)
 2003170:	f5024103 	lw	a12,144(a2)
 2003174:	a8200237 	lui	a3,0x4004
 2003178:	ed410e03 	lbu	a11,67(a3)
 200317c:	dcc25103 	lw	a9,148(a1)
 2003180:	d4814203 	lbu	a8,80(a0)
 2003184:	ac415203 	lbu	a3,84(v1)
 2003188:	ca815a03 	lbu	a7,86(s8)
 200318c:	c2016203 	lbu	a6,88(s6)
 2003190:	b9c16a03 	lbu	a5,90(s5)
 2003194:	b1417203 	lbu	a4,92(s3)
 2003198:	83414e03 	lbu	v0,83(s11)
 200319c:	02fea423 	sb	a13,41(s9)
 20031a0:	f8200237 	lui	a13,0x4004
 20031a4:	07fdf123 	sw	a12,124(a13)
 20031a8:	f8200237 	lui	a13,0x4004
 20031ac:	f0200237 	lui	a12,0x4004
 20031b0:	07baec23 	sb	a11,59(a12)
 20031b4:	0ff60123 	sw	a9,128(a13)
 20031b8:	e8200237 	lui	a11,0x4004
 20031bc:	d8200237 	lui	a9,0x4004
 20031c0:	f0200237 	lui	a12,0x4004
 20031c4:	06f4f023 	sb	a8,60(a9)
 20031c8:	076afc23 	sb	a3,63(a11)
 20031cc:	07a0b023 	sb	v0,44(a12)
 20031d0:	03029823 	sb	ra,38(s10)
 20031d4:	0272b823 	sb	a7,46(s7)
 20031d8:	00f0f423 	sb	a6,61(s1)
 20031dc:	01aebc23 	sb	a5,47(s4)
 20031e0:	012cf823 	sb	a4,62(s2)
 20031e4:	fffe716f 	jal	2002ba8 <t1_taskA2_generic_EINKLEMMSCHUTZ_CTRL>
 20031e8:	a3807103 	lw	a2,28(sp)
 20031ec:	9b804103 	lw	a1,16(sp)
 20031f0:	f8200237 	lui	a13,0x4004
 20031f4:	80200237 	lui	v0,0x4004
 20031f8:	0fc11a03 	lbu	ra,70(a13)
 20031fc:	93808103 	lw	a0,32(sp)
 2003200:	fc012603 	lbu	a13,73(v0)
 2003204:	8b805103 	lw	v1,20(sp)
 2003208:	f5024103 	lw	a12,144(a2)
 200320c:	a8200237 	lui	a3,0x4004
 2003210:	ed410e03 	lbu	a11,67(a3)
 2003214:	dcc25103 	lw	a9,148(a1)
 2003218:	d4814203 	lbu	a8,80(a0)
 200321c:	ac415203 	lbu	a3,84(v1)
 2003220:	ca815a03 	lbu	a7,86(s8)
 2003224:	c2016203 	lbu	a6,88(s6)
 2003228:	b9c16a03 	lbu	a5,90(s5)
 200322c:	b1417203 	lbu	a4,92(s3)
 2003230:	83414e03 	lbu	v0,83(s11)
 2003234:	02fea423 	sb	a13,41(s9)
 2003238:	f8200237 	lui	a13,0x4004
 200323c:	07fdf123 	sw	a12,124(a13)
 2003240:	f8200237 	lui	a13,0x4004
 2003244:	f0200237 	lui	a12,0x4004
 2003248:	07baec23 	sb	a11,59(a12)
 200324c:	0ff60123 	sw	a9,128(a13)
 2003250:	e8200237 	lui	a11,0x4004
 2003254:	d8200237 	lui	a9,0x4004
 2003258:	f0200237 	lui	a12,0x4004
 200325c:	06f4f023 	sb	a8,60(a9)
 2003260:	076afc23 	sb	a3,63(a11)
 2003264:	07a0b023 	sb	v0,44(a12)
 2003268:	0272b823 	sb	a7,46(s7)
 200326c:	00f0f423 	sb	a6,61(s1)
 2003270:	01aebc23 	sb	a5,47(s4)
 2003274:	012cf823 	sb	a4,62(s2)
 2003278:	03029823 	sb	ra,38(s10)
 200327c:	fffe776f 	jal	2002c58 <t1_taskA2_generic_BLOCK_ERKENNUNG_CTRL>
 2003280:	d0803403 	lb	a8,13(s0)
 2003284:	d8804003 	lb	a9,16(s0)
 2003288:	a3807103 	lw	a2,28(sp)
 200328c:	c8802803 	lb	a7,10(s0)
 2003290:	f8200237 	lui	a13,0x4004
 2003294:	afc10c03 	lb	a3,67(a13)
 2003298:	b2815803 	lb	a4,86(s8)
 200329c:	f8804c03 	lb	a13,19(s0)
 20032a0:	9b804103 	lw	a1,16(sp)
 20032a4:	85024103 	lw	v0,144(a2)
 20032a8:	ba016003 	lb	a5,88(s6)
 20032ac:	93808103 	lw	a0,32(sp)
 20032b0:	03b4b123 	sw	a8,44(sp)
 20032b4:	03b6c123 	sw	a9,48(sp)
 20032b8:	d0200237 	lui	a8,0x4004
 20032bc:	d8200237 	lui	a9,0x4004
 20032c0:	03b2a123 	sw	a7,40(sp)
 20032c4:	ce82a103 	lw	a7,168(a8)
 20032c8:	d6c21103 	lw	a8,132(a9)
 20032cc:	d8200237 	lui	a9,0x4004
 20032d0:	03ace123 	sw	a4,56(sp)
 20032d4:	03bed123 	sw	a13,52(sp)
 20032d8:	b4c25103 	lw	a4,148(a1)
 20032dc:	fec1b103 	lw	a13,108(a9)
 20032e0:	d8200237 	lui	a9,0x4004
 20032e4:	03ae3123 	sw	a5,12(sp)
 20032e8:	06e1f123 	sw	v0,124(a9)
 20032ec:	bc814203 	lbu	a5,80(a0)
 20032f0:	d8200237 	lui	a9,0x4004
 20032f4:	06eaec23 	sb	a3,59(a9)
 20032f8:	d8200237 	lui	a9,0x4004
 20032fc:	0eec0123 	sw	a4,128(a9)
 2003300:	8b805103 	lw	v1,20(sp)
 2003304:	b0200237 	lui	a4,0x4004
 2003308:	05aef023 	sb	a5,60(a4)
 200330c:	db803103 	lw	a9,12(sp)
 2003310:	bb80e103 	lw	a5,56(sp)
 2003314:	c4415203 	lbu	a6,84(v1)
 2003318:	e9c16803 	lb	a11,90(s5)
 200331c:	f1417003 	lb	a12,92(s3)
 2003320:	026eb823 	sb	a5,46(s7)
 2003324:	00f6f423 	sb	a9,61(s1)
 2003328:	bb80a103 	lw	a5,40(sp)
 200332c:	db80c103 	lw	a9,48(sp)
 2003330:	b0200237 	lui	a4,0x4004
 2003334:	05b0fc23 	sb	a6,63(a4)
 2003338:	c380b103 	lw	a6,44(sp)
 200333c:	00ae2c23 	sb	a5,11(s0)
 2003340:	b8200237 	lui	a5,0x4004
 2003344:	00b64423 	sb	a9,17(s0)
 2003348:	b380d103 	lw	a4,52(sp)
 200334c:	0df28123 	sw	a7,160(a5)
 2003350:	d8200237 	lui	a9,0x4004
 2003354:	c8200237 	lui	a7,0x4004
 2003358:	00b03823 	sb	a6,14(s0)
 200335c:	0e742123 	sw	a8,136(a7)
 2003360:	06ff9123 	sw	a13,100(a9)
 2003364:	c0200237 	lui	a6,0x4004
 2003368:	d0200237 	lui	a8,0x4004
 200336c:	f8200237 	lui	a13,0x4004
 2003370:	dfc14803 	lb	a9,82(a13)
 2003374:	0e203123 	sw	v0,140(a6)
 2003378:	06a1e123 	sw	v0,120(a8)
 200337c:	b8200237 	lui	a5,0x4004
 2003380:	80200237 	lui	v0,0x4004
 2003384:	f8200237 	lui	a13,0x4004
 2003388:	d4013803 	lb	a8,78(v0)
 200338c:	c5c12003 	lb	a6,72(a5)
 2003390:	00ac5023 	sb	a4,20(s0)
 2003394:	bfc11403 	lb	a5,69(a13)
 2003398:	b0200237 	lui	a4,0x4004
 200339c:	80200237 	lui	v0,0x4004
 20033a0:	f8200237 	lui	a13,0x4004
 20033a4:	cd812c03 	lb	a7,75(a4)
 20033a8:	b400ac03 	lb	a4,43(v0)
 20033ac:	87c0d803 	lb	v0,54(a13)
 20033b0:	f8200237 	lui	a13,0x4004
 20033b4:	ffc0ce03 	lbu	a13,51(a13)
 20033b8:	013cf823 	sb	a12,62(s2)
 20033bc:	01babc23 	sb	a11,47(s4)
 20033c0:	03be9c23 	sb	a13,39(sp)
 20033c4:	f8200237 	lui	a13,0x4004
 20033c8:	ffc0c603 	lbu	a13,49(a13)
 20033cc:	e3806103 	lw	a10,24(sp)
 20033d0:	03be9823 	sb	a13,38(sp)
 20033d4:	f8200237 	lui	a13,0x4004
 20033d8:	ffc0a003 	lb	a13,40(a13)
 20033dc:	03bef123 	sw	a13,60(sp)
 20033e0:	f8200237 	lui	a13,0x4004
 20033e4:	07fd6c23 	sb	a12,91(a13)
 20033e8:	f0200237 	lui	a12,0x4004
 20033ec:	07bb6423 	sb	a11,89(a12)
 20033f0:	eb803103 	lw	a11,12(sp)
 20033f4:	f8200237 	lui	a13,0x4004
 20033f8:	f0200237 	lui	a12,0x4004
 20033fc:	07fb5c23 	sb	a11,87(a13)
 2003400:	fb80e103 	lw	a13,56(sp)
 2003404:	e8200237 	lui	a11,0x4004
 2003408:	07774423 	sb	a9,81(a11)
 200340c:	07bf5423 	sb	a13,85(a12)
 2003410:	f0200237 	lui	a12,0x4004
 2003414:	f8200237 	lui	a13,0x4004
 2003418:	07b53c23 	sb	a8,79(a12)
 200341c:	07f53423 	sb	a8,77(a13)
 2003420:	e8200237 	lui	a11,0x4004
 2003424:	d0200237 	lui	a8,0x4004
 2003428:	03774c23 	sb	a9,83(s11)
 200342c:	d8200237 	lui	a9,0x4004
 2003430:	06b33023 	sb	a7,76(a8)
 2003434:	06f32823 	sb	a7,74(a9)
 2003438:	07712423 	sb	a6,73(a11)
 200343c:	c8200237 	lui	a7,0x4004
 2003440:	d0200237 	lui	a8,0x4004
 2003444:	ef00e603 	lbu	a11,57(a10)
 2003448:	f0200237 	lui	a12,0x4004
 200344c:	066b0823 	sb	a3,66(a7)
 2003450:	06aae823 	sb	a3,58(a8)
 2003454:	ab809e03 	lbu	a3,39(sp)
 2003458:	07b11c23 	sb	a6,71(a12)
 200345c:	f8200237 	lui	a13,0x4004
 2003460:	c0200237 	lui	a6,0x4004
 2003464:	d8200237 	lui	a9,0x4004
 2003468:	f0200237 	lui	a12,0x4004
 200346c:	07ef1823 	sb	a5,70(a13)
 2003470:	062f1023 	sb	a5,68(a6)
 2003474:	06fadc23 	sb	a11,55(a9)
 2003478:	f8200237 	lui	a13,0x4004
 200347c:	07a0d023 	sb	v0,52(a12)
 2003480:	c3809a03 	lbu	a6,38(sp)
 2003484:	c8200237 	lui	a7,0x4004
 2003488:	d0200237 	lui	a8,0x4004
 200348c:	e8200237 	lui	a11,0x4004
 2003490:	f0200237 	lui	a12,0x4004
 2003494:	07eac823 	sb	a3,50(a13)
 2003498:	db80f103 	lw	a9,60(sp)
 200349c:	af409403 	lb	a3,37(a11)
 20034a0:	066cb023 	sb	a4,44(a7)
 20034a4:	06aca823 	sb	a4,42(a8)
 20034a8:	b7807403 	lb	a4,29(a12)
 20034ac:	b8200237 	lui	a5,0x4004
 20034b0:	05f0c023 	sb	a6,48(a5)
 20034b4:	f8200237 	lui	a13,0x4004
 20034b8:	b8200237 	lui	a5,0x4004
 20034bc:	02f6a423 	sb	a9,41(s9)
 20034c0:	07f69c23 	sb	a9,39(a13)
 20034c4:	032a9823 	sb	a3,38(s10)
 20034c8:	05ea9023 	sb	a3,36(a5)
 20034cc:	0d8000e3 	bnez	a4,20035cc <t1_taskA2_FH_DU+0x774>
 20034d0:	c4000013 	move	a6,v0
 20034d4:	d0200237 	lui	a8,0x4004
 20034d8:	be807203 	lbu	a5,28(a8)
 20034dc:	d8200237 	lui	a9,0x4004
 20034e0:	aec03c03 	lb	a3,15(a9)
 20034e4:	b0000413 	li	a4,1
 20034e8:	bdc00413 	add	a5,a5,1
 20034ec:	e8200237 	lui	a11,0x4004
 20034f0:	f0000813 	li	a12,2
 20034f4:	076c7423 	sb	a4,29(a11)
 20034f8:	06ae7023 	sb	a5,28(a8)
 20034fc:	d57c48e3 	bne	a3,a12,2002f20 <t1_taskA2_FH_DU+0xc8>
 2003500:	aac0a403 	lb	a3,41(s9)
 2003504:	05412063 	beqz	a3,2003594 <t1_taskA2_FH_DU+0x73c>
 2003508:	d0200237 	lui	a8,0x4004
 200350c:	ae809c03 	lb	a3,39(a8)
 2003510:	054108e3 	bnez	a3,2003594 <t1_taskA2_FH_DU+0x73c>
 2003514:	d8200237 	lui	a9,0x4004
 2003518:	a83e7013 	li	a3,-100
 200351c:	e8200237 	lui	a11,0x4004
 2003520:	f0200237 	lui	a12,0x4004
 2003524:	06c07423 	sb	zero,29(a9)
 2003528:	0f6a2123 	sw	a3,136(a11)
 200352c:	07ac3c23 	sb	a4,15(a12)
 2003530:	fffe8767 	j	2002f4c <t1_taskA2_FH_DU+0xf4>
 2003534:	ab009803 	lb	a3,38(s10)
 2003538:	d54028e3 	bnez	a3,2002f4c <t1_taskA2_FH_DU+0xf4>
 200353c:	c8200237 	lui	a7,0x4004
 2003540:	ae409003 	lb	a3,36(a7)
 2003544:	d5401063 	beqz	a3,2002f4c <t1_taskA2_FH_DU+0xf4>
 2003548:	d0200237 	lui	a8,0x4004
 200354c:	d8200237 	lui	a9,0x4004
 2003550:	f0000813 	li	a12,2
 2003554:	e8200237 	lui	a11,0x4004
 2003558:	06807423 	sb	zero,29(a8)
 200355c:	0ec02123 	sw	zero,136(a9)
 2003560:	077c3c23 	sb	a12,15(a11)
 2003564:	fffe7a67 	j	2002f4c <t1_taskA2_FH_DU+0xf4>
 2003568:	aac0a403 	lb	a3,41(s9)
 200356c:	cd41c0e3 	bnez	a3,2002f4c <t1_taskA2_FH_DU+0xf4>
 2003570:	f8200237 	lui	a13,0x4004
 2003574:	afc09c03 	lb	a3,39(a13)
 2003578:	cd41a863 	beqz	a3,2002f4c <t1_taskA2_FH_DU+0xf4>
 200357c:	b0200237 	lui	a4,0x4004
 2003580:	c8000813 	li	a7,2
 2003584:	07407423 	sb	zero,29(a11)
 2003588:	0d802123 	sw	zero,136(a4)
 200358c:	06f23c23 	sb	a7,15(a9)
 2003590:	fffe6f67 	j	2002f4c <t1_taskA2_FH_DU+0xf4>
 2003594:	ab009803 	lb	a3,38(s10)
 2003598:	cd416863 	beqz	a3,2002f4c <t1_taskA2_FH_DU+0xf4>
 200359c:	f8200237 	lui	a13,0x4004
 20035a0:	afc09003 	lb	a3,36(a13)
 20035a4:	cd4150e3 	bnez	a3,2002f4c <t1_taskA2_FH_DU+0xf4>
 20035a8:	a8200237 	lui	a3,0x4004
 20035ac:	05407423 	sb	zero,29(a3)
 20035b0:	b0200237 	lui	a4,0x4004
 20035b4:	a8019013 	li	a3,100
 20035b8:	0daa2123 	sw	a3,136(a4)
 20035bc:	b8200237 	lui	a5,0x4004
 20035c0:	a8000c13 	li	a3,3
 20035c4:	05ea3c23 	sb	a3,15(a5)
 20035c8:	fffe6167 	j	2002f4c <t1_taskA2_FH_DU+0xf4>
 20035cc:	0b81d103 	lw	ra,116(sp)
 20035d0:	1381c103 	lw	s0,112(sp)
 20035d4:	1b81b103 	lw	s1,108(sp)
 20035d8:	2381a103 	lw	s2,104(sp)
 20035dc:	2b819103 	lw	s3,100(sp)
 20035e0:	33818103 	lw	s4,96(sp)
 20035e4:	3b817103 	lw	s5,92(sp)
 20035e8:	43816103 	lw	s6,88(sp)
 20035ec:	4b815103 	lw	s7,84(sp)
 20035f0:	53814103 	lw	s8,80(sp)
 20035f4:	5b813103 	lw	s9,76(sp)
 20035f8:	63812103 	lw	s10,72(sp)
 20035fc:	6b811103 	lw	s11,68(sp)
 2003600:	7381e013 	add	sp,sp,120
 2003604:	004000eb 	ret

02003608 <t1_taskA2_main>:
 2003608:	73bfe013 	add	sp,sp,-8
 200360c:	03840123 	sw	s0,0(sp)
 2003610:	03821123 	sw	ra,4(sp)
 2003614:	1002b413 	li	s0,173
 2003618:	10bffc13 	add	s0,s0,-1
 200361c:	fffa636f 	jal	2001fa8 <t1_taskA2_init>
 2003620:	fffa006f 	jal	2001e20 <t1_taskA2_interface>
 2003624:	fffe0d6f 	jal	2002e58 <t1_taskA2_FH_DU>
 2003628:	f881e0e3 	bnez	s0,2003618 <t1_taskA2_main+0x10>
 200362c:	0b801103 	lw	ra,4(sp)
 2003630:	80000013 	li	v0,0
 2003634:	13800103 	lw	s0,0(sp)
 2003638:	73802013 	add	sp,sp,8
 200363c:	004000eb 	ret

02003640 <t2_exception_proxy>:
 2003640:	73bfe013 	add	sp,sp,-8
 2003644:	03821123 	sw	ra,4(sp)
 2003648:	7840017b 	mfpcr	tp,cr1
 200364c:	73bef013 	add	sp,sp,-68
 2003650:	039e1123 	sw	tp,4(sp)
 2003654:	03a02123 	sw	v0,8(sp)
 2003658:	03a23123 	sw	v1,12(sp)
 200365c:	03a44123 	sw	a0,16(sp)
 2003660:	03a65123 	sw	a1,20(sp)
 2003664:	03a86123 	sw	a2,24(sp)
 2003668:	03aa7123 	sw	a3,28(sp)
 200366c:	03ac8123 	sw	a4,32(sp)
 2003670:	03ae9123 	sw	a5,36(sp)
 2003674:	03b0a123 	sw	a6,40(sp)
 2003678:	03b2b123 	sw	a7,44(sp)
 200367c:	03b4c123 	sw	a8,48(sp)
 2003680:	03b6d123 	sw	a9,52(sp)
 2003684:	03b8e123 	sw	a10,56(sp)
 2003688:	03baf123 	sw	a11,60(sp)
 200368c:	03bd0123 	sw	a12,64(sp)
 2003690:	03bf1123 	sw	a13,68(sp)
 2003694:	80200437 	lui	v0,0x4008
 2003698:	84002103 	lw	v0,8(v0)
 200369c:	0c00006b 	jalr	v0
 20036a0:	7b801103 	lw	tp,4(sp)
 20036a4:	83802103 	lw	v0,8(sp)
 20036a8:	8b803103 	lw	v1,12(sp)
 20036ac:	93804103 	lw	a0,16(sp)
 20036b0:	9b805103 	lw	a1,20(sp)
 20036b4:	a3806103 	lw	a2,24(sp)
 20036b8:	ab807103 	lw	a3,28(sp)
 20036bc:	b3808103 	lw	a4,32(sp)
 20036c0:	bb809103 	lw	a5,36(sp)
 20036c4:	c380a103 	lw	a6,40(sp)
 20036c8:	cb80b103 	lw	a7,44(sp)
 20036cc:	d380c103 	lw	a8,48(sp)
 20036d0:	db80d103 	lw	a9,52(sp)
 20036d4:	e380e103 	lw	a10,56(sp)
 20036d8:	eb80f103 	lw	a11,60(sp)
 20036dc:	f3810103 	lw	a12,64(sp)
 20036e0:	fb811103 	lw	a13,68(sp)
 20036e4:	73811013 	add	sp,sp,68
 20036e8:	0b801103 	lw	ra,4(sp)
 20036ec:	73802013 	add	sp,sp,8
 20036f0:	03c0016b 	jr	tp
 20036f4:	0b801103 	lw	ra,4(sp)
 20036f8:	73802013 	add	sp,sp,8
 20036fc:	004000eb 	ret

02003700 <t2_main>:
 2003700:	73bf6013 	add	sp,sp,-40
 2003704:	03886123 	sw	s2,24(sp)
 2003708:	20000c37 	lui	s2,0x18
 200370c:	03829123 	sw	ra,36(sp)
 2003710:	03848123 	sw	s0,32(sp)
 2003714:	03867123 	sw	s1,28(sp)
 2003718:	038a5123 	sw	s3,20(sp)
 200371c:	038c4123 	sw	s4,16(sp)
 2003720:	038e3123 	sw	s5,12(sp)
 2003724:	03902123 	sw	s6,8(sp)
 2003728:	03921123 	sw	s7,4(sp)
 200372c:	211a8013 	add	s2,s2,1696
 2003730:	80000013 	li	v0,0
 2003734:	1c000013 	move	s1,v0
 2003738:	11000013 	move	s0,s2
 200373c:	00c4015b 	0xc4015b
 2003740:	42800037 	lui	s6,0x50000
 2003744:	302faf37 	lui	s4,0x5f5e
 2003748:	4a000c13 	add	s7,s6,3
 200374c:	28000013 	li	s3,0
 2003750:	3c000037 	lui	s5,0x80000
 2003754:	42003413 	add	s6,s6,13
 2003758:	31840013 	add	s4,s4,256
 200375c:	879201fb 	mtpcr	v0,s7,cr30
 2003760:	1000005b 	0x1000005b
 2003764:	80800013 	move	v0,s0
 2003768:	840e0333 	or	v0,v0,s5
 200376c:	87a001fb 	mtpcr	v0,v0,cr30
 2003770:	0006076f 	jal	2004f8c <t2_taskA3_main>
 2003774:	879001fb 	mtpcr	v0,s6,cr30
 2003778:	1000005b 	0x1000005b
 200377c:	80800013 	move	v0,s0
 2003780:	840e0333 	or	v0,v0,s5
 2003784:	87a001fb 	mtpcr	v0,v0,cr30
 2003788:	210c0033 	add	s2,s2,s4
 200378c:	810c01b3 	sltu	v0,s2,s4
 2003790:	29600033 	add	s3,s3,v0
 2003794:	19400013 	move	s1,s3
 2003798:	11000013 	move	s0,s2
 200379c:	00c4015b 	0xc4015b
 20037a0:	ffffef67 	j	200375c <t2_main+0x5c>

020037a4 <t2_taskA3_interface>:
 20037a4:	80200437 	lui	v0,0x4008
 20037a8:	8c031013 	add	v1,v0,196
 20037ac:	94401003 	lb	a0,4(v1)
 20037b0:	0c805063 	beqz	a0,20038d8 <t2_taskA3_interface+0x134>
 20037b4:	88200437 	lui	v1,0x4008
 20037b8:	8c408103 	lw	v1,32(v1)
 20037bc:	90200437 	lui	a0,0x4008
 20037c0:	0ca2e123 	sw	v1,184(a0)
 20037c4:	90200437 	lui	a0,0x4008
 20037c8:	0ca2f123 	sw	v1,188(a0)
 20037cc:	90200437 	lui	a0,0x4008
 20037d0:	8c82d103 	lw	v1,180(a0)
 20037d4:	04404863 	beqz	v1,20037f8 <t2_taskA3_interface+0x54>
 20037d8:	98200437 	lui	a1,0x4008
 20037dc:	9cc08103 	lw	a1,32(a1)
 20037e0:	8ce30033 	sub	v1,a1,v1
 20037e4:	8c40f0d3 	fcvt.d.wu	fv1,v1
 20037e8:	88200037 	lui	v1,0x4000
 20037ec:	84400187 	fld	fv0,0(v1)
 20037f0:	8c2370d3 	fle.d	v1,fv0,fv1
 20037f4:	0c4050e3 	bnez	v1,200391c <t2_taskA3_interface+0x178>
 20037f8:	90200437 	lui	a0,0x4008
 20037fc:	8c82c103 	lw	v1,176(a0)
 2003800:	04404863 	beqz	v1,2003824 <t2_taskA3_interface+0x80>
 2003804:	98200437 	lui	a1,0x4008
 2003808:	9cc08103 	lw	a1,32(a1)
 200380c:	8ce30033 	sub	v1,a1,v1
 2003810:	8c40f0d3 	fcvt.d.wu	fv1,v1
 2003814:	88200037 	lui	v1,0x4000
 2003818:	84400187 	fld	fv0,0(v1)
 200381c:	8c2370d3 	fle.d	v1,fv0,fv1
 2003820:	0441d8e3 	bnez	v1,200390c <t2_taskA3_interface+0x168>
 2003824:	90200437 	lui	a0,0x4008
 2003828:	8c82b103 	lw	v1,172(a0)
 200382c:	04404863 	beqz	v1,2003850 <t2_taskA3_interface+0xac>
 2003830:	98200437 	lui	a1,0x4008
 2003834:	9cc08103 	lw	a1,32(a1)
 2003838:	8ce30033 	sub	v1,a1,v1
 200383c:	8c40f0d3 	fcvt.d.wu	fv1,v1
 2003840:	88200037 	lui	v1,0x4000
 2003844:	84400187 	fld	fv0,0(v1)
 2003848:	8c2370d3 	fle.d	v1,fv0,fv1
 200384c:	044160e3 	bnez	v1,20038fc <t2_taskA3_interface+0x158>
 2003850:	90200437 	lui	a0,0x4008
 2003854:	8c827103 	lw	v1,156(a0)
 2003858:	04404863 	beqz	v1,200387c <t2_taskA3_interface+0xd8>
 200385c:	98200437 	lui	a1,0x4008
 2003860:	9cc08103 	lw	a1,32(a1)
 2003864:	8ce30033 	sub	v1,a1,v1
 2003868:	8c40f0d3 	fcvt.d.wu	fv1,v1
 200386c:	88200037 	lui	v1,0x4000
 2003870:	84400187 	fld	fv0,0(v1)
 2003874:	8c2370d3 	fle.d	v1,fv0,fv1
 2003878:	0440f8e3 	bnez	v1,20038f4 <t2_taskA3_interface+0x150>
 200387c:	90200437 	lui	a0,0x4008
 2003880:	8c826103 	lw	v1,152(a0)
 2003884:	04404863 	beqz	v1,20038a8 <t2_taskA3_interface+0x104>
 2003888:	98200437 	lui	a1,0x4008
 200388c:	9cc08103 	lw	a1,32(a1)
 2003890:	8ce30033 	sub	v1,a1,v1
 2003894:	8c40f0d3 	fcvt.d.wu	fv1,v1
 2003898:	88200037 	lui	v1,0x4000
 200389c:	84400187 	fld	fv0,0(v1)
 20038a0:	8c2370d3 	fle.d	v1,fv0,fv1
 20038a4:	044090e3 	bnez	v1,20038ec <t2_taskA3_interface+0x148>
 20038a8:	84031003 	lb	v0,196(v0)
 20038ac:	040030e3 	bnez	v0,20038c4 <t2_taskA3_interface+0x120>
 20038b0:	80200437 	lui	v0,0x4008
 20038b4:	8c01b103 	lw	v1,108(v0)
 20038b8:	80200437 	lui	v0,0x4008
 20038bc:	84019103 	lw	v0,100(v0)
 20038c0:	04602863 	beq	v1,v0,20038d4 <t2_taskA3_interface+0x130>
 20038c4:	80200437 	lui	v0,0x4008
 20038c8:	8c008103 	lw	v1,32(v0)
 20038cc:	80200437 	lui	v0,0x4008
 20038d0:	0c230123 	sw	v1,192(v0)
 20038d4:	004000eb 	ret
 20038d8:	8c401803 	lb	v1,6(v1)
 20038dc:	f441e063 	beqz	v1,20037cc <t2_taskA3_interface+0x28>
 20038e0:	88200437 	lui	v1,0x4008
 20038e4:	8c408103 	lw	v1,32(v1)
 20038e8:	ffffb767 	j	20037c4 <t2_taskA3_interface+0x20>
 20038ec:	0c806123 	sw	zero,152(a0)
 20038f0:	ffffee67 	j	20038a8 <t2_taskA3_interface+0x104>
 20038f4:	0c807123 	sw	zero,156(a0)
 20038f8:	ffffe167 	j	200387c <t2_taskA3_interface+0xd8>
 20038fc:	88200437 	lui	v1,0x4008
 2003900:	04412023 	sb	zero,72(v1)
 2003904:	0c80b123 	sw	zero,172(a0)
 2003908:	ffffd267 	j	2003850 <t2_taskA3_interface+0xac>
 200390c:	88200437 	lui	v1,0x4008
 2003910:	04412023 	sb	zero,72(v1)
 2003914:	0c80c123 	sw	zero,176(a0)
 2003918:	ffffc367 	j	2003824 <t2_taskA3_interface+0x80>
 200391c:	88200437 	lui	v1,0x4008
 2003920:	04411423 	sb	zero,69(v1)
 2003924:	0c80d123 	sw	zero,180(a0)
 2003928:	ffffb467 	j	20037f8 <t2_taskA3_interface+0x54>

0200392c <t2_taskA3_init>:
 200392c:	80200437 	lui	v0,0x4008
 2003930:	0c010123 	sw	zero,192(v0)
 2003934:	80200437 	lui	v0,0x4008
 2003938:	0c00f123 	sw	zero,188(v0)
 200393c:	80200437 	lui	v0,0x4008
 2003940:	0c00e123 	sw	zero,184(v0)
 2003944:	80200437 	lui	v0,0x4008
 2003948:	04006c23 	sb	zero,27(v0)
 200394c:	80200437 	lui	v0,0x4008
 2003950:	04006823 	sb	zero,26(v0)
 2003954:	80200437 	lui	v0,0x4008
 2003958:	04006423 	sb	zero,25(v0)
 200395c:	80200437 	lui	v0,0x4008
 2003960:	04006023 	sb	zero,24(v0)
 2003964:	80200437 	lui	v0,0x4008
 2003968:	04005c23 	sb	zero,23(v0)
 200396c:	80200437 	lui	v0,0x4008
 2003970:	04005823 	sb	zero,22(v0)
 2003974:	80200437 	lui	v0,0x4008
 2003978:	04005423 	sb	zero,21(v0)
 200397c:	80200437 	lui	v0,0x4008
 2003980:	04005023 	sb	zero,20(v0)
 2003984:	80200437 	lui	v0,0x4008
 2003988:	04004c23 	sb	zero,19(v0)
 200398c:	80200437 	lui	v0,0x4008
 2003990:	04004823 	sb	zero,18(v0)
 2003994:	80200437 	lui	v0,0x4008
 2003998:	04004423 	sb	zero,17(v0)
 200399c:	80200437 	lui	v0,0x4008
 20039a0:	04004023 	sb	zero,16(v0)
 20039a4:	80200437 	lui	v0,0x4008
 20039a8:	04003c23 	sb	zero,15(v0)
 20039ac:	80200437 	lui	v0,0x4008
 20039b0:	04003823 	sb	zero,14(v0)
 20039b4:	80200437 	lui	v0,0x4008
 20039b8:	04003423 	sb	zero,13(v0)
 20039bc:	80200437 	lui	v0,0x4008
 20039c0:	04003023 	sb	zero,12(v0)
 20039c4:	004000eb 	ret

020039c8 <t2_taskA3_generic_KINDERSICHERUNG_CTRL>:
 20039c8:	80200437 	lui	v0,0x4008
 20039cc:	84033803 	lb	v0,206(v0)
 20039d0:	04006063 	beqz	v0,2003a00 <t2_taskA3_generic_KINDERSICHERUNG_CTRL+0x38>
 20039d4:	88200437 	lui	v1,0x4008
 20039d8:	84406003 	lb	v0,24(v1)
 20039dc:	90000813 	li	a0,2
 20039e0:	04244863 	beq	v0,a0,2003a04 <t2_taskA3_generic_KINDERSICHERUNG_CTRL+0x3c>
 20039e4:	98000c13 	li	a1,3
 20039e8:	0427a863 	beq	v0,a1,2003abc <t2_taskA3_generic_KINDERSICHERUNG_CTRL+0xf4>
 20039ec:	90000413 	li	a0,1
 20039f0:	04249063 	beq	v0,a0,2003a38 <t2_taskA3_generic_KINDERSICHERUNG_CTRL+0x70>
 20039f4:	80200437 	lui	v0,0x4008
 20039f8:	04007423 	sb	zero,29(v0)
 20039fc:	04666023 	sb	a1,24(v1)
 2003a00:	004000eb 	ret
 2003a04:	80200437 	lui	v0,0x4008
 2003a08:	84015803 	lb	v0,86(v0)
 2003a0c:	040020e3 	bnez	v0,2003a1c <t2_taskA3_generic_KINDERSICHERUNG_CTRL+0x54>
 2003a10:	90200437 	lui	a0,0x4008
 2003a14:	94816803 	lb	a0,90(a0)
 2003a18:	1480d863 	beqz	a0,2003c84 <t2_taskA3_generic_KINDERSICHERUNG_CTRL+0x2bc>
 2003a1c:	88200437 	lui	v1,0x4008
 2003a20:	94406403 	lb	a0,25(v1)
 2003a24:	98000413 	li	a1,1
 2003a28:	0ca61863 	beq	a0,a1,2003b34 <t2_taskA3_generic_KINDERSICHERUNG_CTRL+0x16c>
 2003a2c:	80200437 	lui	v0,0x4008
 2003a30:	04007423 	sb	zero,29(v0)
 2003a34:	004000eb 	ret
 2003a38:	80200437 	lui	v0,0x4008
 2003a3c:	84016003 	lb	v0,88(v0)
 2003a40:	040020e3 	bnez	v0,2003a50 <t2_taskA3_generic_KINDERSICHERUNG_CTRL+0x88>
 2003a44:	90200437 	lui	a0,0x4008
 2003a48:	94817003 	lb	a0,92(a0)
 2003a4c:	14802063 	beqz	a0,2003c5c <t2_taskA3_generic_KINDERSICHERUNG_CTRL+0x294>
 2003a50:	88200437 	lui	v1,0x4008
 2003a54:	94406803 	lb	a0,26(v1)
 2003a58:	98000413 	li	a1,1
 2003a5c:	fca7a0e3 	bne	a0,a1,2003a2c <t2_taskA3_generic_KINDERSICHERUNG_CTRL+0x64>
 2003a60:	04005063 	beqz	v0,2003a88 <t2_taskA3_generic_KINDERSICHERUNG_CTRL+0xc0>
 2003a64:	98200437 	lui	a1,0x4008
 2003a68:	9cc15c03 	lb	a1,87(a1)
 2003a6c:	04c038e3 	bnez	a1,2003a88 <t2_taskA3_generic_KINDERSICHERUNG_CTRL+0xc0>
 2003a70:	80200437 	lui	v0,0x4008
 2003a74:	04007423 	sb	zero,29(v0)
 2003a78:	80200437 	lui	v0,0x4008
 2003a7c:	04252c23 	sb	a0,75(v0)
 2003a80:	04646823 	sb	a0,26(v1)
 2003a84:	004000eb 	ret
 2003a88:	90200437 	lui	a0,0x4008
 2003a8c:	94817003 	lb	a0,92(a0)
 2003a90:	0c80a863 	beqz	a0,2003be4 <t2_taskA3_generic_KINDERSICHERUNG_CTRL+0x21c>
 2003a94:	98200437 	lui	a1,0x4008
 2003a98:	9cc16c03 	lb	a1,91(a1)
 2003a9c:	0cc090e3 	bnez	a1,2003be4 <t2_taskA3_generic_KINDERSICHERUNG_CTRL+0x21c>
 2003aa0:	90200437 	lui	a0,0x4008
 2003aa4:	80000413 	li	v0,1
 2003aa8:	04807423 	sb	zero,29(a0)
 2003aac:	90200437 	lui	a0,0x4008
 2003ab0:	04a13823 	sb	v0,78(a0)
 2003ab4:	04606823 	sb	v0,26(v1)
 2003ab8:	004000eb 	ret
 2003abc:	80200437 	lui	v0,0x4008
 2003ac0:	84015003 	lb	v0,84(v0)
 2003ac4:	040070e3 	bnez	v0,2003afc <t2_taskA3_generic_KINDERSICHERUNG_CTRL+0x134>
 2003ac8:	98200437 	lui	a1,0x4008
 2003acc:	9cc16803 	lb	a1,90(a1)
 2003ad0:	04c1d863 	beqz	a1,2003bbc <t2_taskA3_generic_KINDERSICHERUNG_CTRL+0x1f4>
 2003ad4:	80200437 	lui	v0,0x4008
 2003ad8:	84015803 	lb	v0,86(v0)
 2003adc:	140060e3 	bnez	v0,2003d0c <t2_taskA3_generic_KINDERSICHERUNG_CTRL+0x344>
 2003ae0:	80200437 	lui	v0,0x4008
 2003ae4:	04007423 	sb	zero,29(v0)
 2003ae8:	98000413 	li	a1,1
 2003aec:	80200437 	lui	v0,0x4008
 2003af0:	04273823 	sb	a1,78(v0)
 2003af4:	04646023 	sb	a0,24(v1)
 2003af8:	004000eb 	ret
 2003afc:	90200437 	lui	a0,0x4008
 2003b00:	94817003 	lb	a0,92(a0)
 2003b04:	048118e3 	bnez	a0,2003b90 <t2_taskA3_generic_KINDERSICHERUNG_CTRL+0x1c8>
 2003b08:	90200437 	lui	a0,0x4008
 2003b0c:	94816003 	lb	a0,88(a0)
 2003b10:	f481e063 	beqz	a0,2003a00 <t2_taskA3_generic_KINDERSICHERUNG_CTRL+0x38>
 2003b14:	f401d8e3 	bnez	v0,2003a00 <t2_taskA3_generic_KINDERSICHERUNG_CTRL+0x38>
 2003b18:	90200437 	lui	a0,0x4008
 2003b1c:	80000413 	li	v0,1
 2003b20:	04807423 	sb	zero,29(a0)
 2003b24:	90200437 	lui	a0,0x4008
 2003b28:	04a12c23 	sb	v0,75(a0)
 2003b2c:	04606023 	sb	v0,24(v1)
 2003b30:	004000eb 	ret
 2003b34:	04005063 	beqz	v0,2003b5c <t2_taskA3_generic_KINDERSICHERUNG_CTRL+0x194>
 2003b38:	98200437 	lui	a1,0x4008
 2003b3c:	9cc15403 	lb	a1,85(a1)
 2003b40:	04c038e3 	bnez	a1,2003b5c <t2_taskA3_generic_KINDERSICHERUNG_CTRL+0x194>
 2003b44:	80200437 	lui	v0,0x4008
 2003b48:	04007423 	sb	zero,29(v0)
 2003b4c:	80200437 	lui	v0,0x4008
 2003b50:	04252c23 	sb	a0,75(v0)
 2003b54:	04646423 	sb	a0,25(v1)
 2003b58:	004000eb 	ret
 2003b5c:	90200437 	lui	a0,0x4008
 2003b60:	94816803 	lb	a0,90(a0)
 2003b64:	04817863 	beqz	a0,2003c20 <t2_taskA3_generic_KINDERSICHERUNG_CTRL+0x258>
 2003b68:	98200437 	lui	a1,0x4008
 2003b6c:	9cc16403 	lb	a1,89(a1)
 2003b70:	04c160e3 	bnez	a1,2003c20 <t2_taskA3_generic_KINDERSICHERUNG_CTRL+0x258>
 2003b74:	90200437 	lui	a0,0x4008
 2003b78:	80000413 	li	v0,1
 2003b7c:	04807423 	sb	zero,29(a0)
 2003b80:	90200437 	lui	a0,0x4008
 2003b84:	04a13823 	sb	v0,78(a0)
 2003b88:	04606423 	sb	v0,25(v1)
 2003b8c:	004000eb 	ret
 2003b90:	90200437 	lui	a0,0x4008
 2003b94:	94816003 	lb	a0,88(a0)
 2003b98:	0c8030e3 	bnez	a0,2003cb0 <t2_taskA3_generic_KINDERSICHERUNG_CTRL+0x2e8>
 2003b9c:	f400c8e3 	bnez	v0,2003a00 <t2_taskA3_generic_KINDERSICHERUNG_CTRL+0x38>
 2003ba0:	90200437 	lui	a0,0x4008
 2003ba4:	80000413 	li	v0,1
 2003ba8:	04807423 	sb	zero,29(a0)
 2003bac:	90200437 	lui	a0,0x4008
 2003bb0:	04a13823 	sb	v0,78(a0)
 2003bb4:	04606023 	sb	v0,24(v1)
 2003bb8:	004000eb 	ret
 2003bbc:	98200437 	lui	a1,0x4008
 2003bc0:	9cc15803 	lb	a1,86(a1)
 2003bc4:	fcc07063 	beqz	a1,2003afc <t2_taskA3_generic_KINDERSICHERUNG_CTRL+0x134>
 2003bc8:	80200437 	lui	v0,0x4008
 2003bcc:	04007423 	sb	zero,29(v0)
 2003bd0:	98000413 	li	a1,1
 2003bd4:	80200437 	lui	v0,0x4008
 2003bd8:	04272c23 	sb	a1,75(v0)
 2003bdc:	04646023 	sb	a0,24(v1)
 2003be0:	004000eb 	ret
 2003be4:	040020e3 	bnez	v0,2003bf4 <t2_taskA3_generic_KINDERSICHERUNG_CTRL+0x22c>
 2003be8:	80200437 	lui	v0,0x4008
 2003bec:	84015c03 	lb	v0,87(v0)
 2003bf0:	0401c8e3 	bnez	v0,2003cd4 <t2_taskA3_generic_KINDERSICHERUNG_CTRL+0x30c>
 2003bf4:	f48018e3 	bnez	a0,2003a00 <t2_taskA3_generic_KINDERSICHERUNG_CTRL+0x38>
 2003bf8:	80200437 	lui	v0,0x4008
 2003bfc:	84016c03 	lb	v0,91(v0)
 2003c00:	f4000063 	beqz	v0,2003a00 <t2_taskA3_generic_KINDERSICHERUNG_CTRL+0x38>
 2003c04:	80200437 	lui	v0,0x4008
 2003c08:	04007423 	sb	zero,29(v0)
 2003c0c:	80200437 	lui	v0,0x4008
 2003c10:	04013823 	sb	zero,78(v0)
 2003c14:	80000413 	li	v0,1
 2003c18:	04606823 	sb	v0,26(v1)
 2003c1c:	004000eb 	ret
 2003c20:	040020e3 	bnez	v0,2003c30 <t2_taskA3_generic_KINDERSICHERUNG_CTRL+0x268>
 2003c24:	80200437 	lui	v0,0x4008
 2003c28:	84015403 	lb	v0,85(v0)
 2003c2c:	040188e3 	bnez	v0,2003cf0 <t2_taskA3_generic_KINDERSICHERUNG_CTRL+0x328>
 2003c30:	ec81a0e3 	bnez	a0,2003a00 <t2_taskA3_generic_KINDERSICHERUNG_CTRL+0x38>
 2003c34:	80200437 	lui	v0,0x4008
 2003c38:	84016403 	lb	v0,89(v0)
 2003c3c:	ec018863 	beqz	v0,2003a00 <t2_taskA3_generic_KINDERSICHERUNG_CTRL+0x38>
 2003c40:	80200437 	lui	v0,0x4008
 2003c44:	04007423 	sb	zero,29(v0)
 2003c48:	80200437 	lui	v0,0x4008
 2003c4c:	04013823 	sb	zero,78(v0)
 2003c50:	80000413 	li	v0,1
 2003c54:	04606423 	sb	v0,25(v1)
 2003c58:	004000eb 	ret
 2003c5c:	80200437 	lui	v0,0x4008
 2003c60:	04007423 	sb	zero,29(v0)
 2003c64:	80200437 	lui	v0,0x4008
 2003c68:	04013823 	sb	zero,78(v0)
 2003c6c:	80200437 	lui	v0,0x4008
 2003c70:	04012c23 	sb	zero,75(v0)
 2003c74:	80200437 	lui	v0,0x4008
 2003c78:	04666023 	sb	a1,24(v1)
 2003c7c:	04006823 	sb	zero,26(v0)
 2003c80:	004000eb 	ret
 2003c84:	80200437 	lui	v0,0x4008
 2003c88:	04007423 	sb	zero,29(v0)
 2003c8c:	80200437 	lui	v0,0x4008
 2003c90:	04013823 	sb	zero,78(v0)
 2003c94:	80200437 	lui	v0,0x4008
 2003c98:	04012c23 	sb	zero,75(v0)
 2003c9c:	80000c13 	li	v0,3
 2003ca0:	04606023 	sb	v0,24(v1)
 2003ca4:	80200437 	lui	v0,0x4008
 2003ca8:	04006423 	sb	zero,25(v0)
 2003cac:	004000eb 	ret
 2003cb0:	90200437 	lui	a0,0x4008
 2003cb4:	80000413 	li	v0,1
 2003cb8:	04807423 	sb	zero,29(a0)
 2003cbc:	90200437 	lui	a0,0x4008
 2003cc0:	04a12c23 	sb	v0,75(a0)
 2003cc4:	90200437 	lui	a0,0x4008
 2003cc8:	04a13823 	sb	v0,78(a0)
 2003ccc:	04606023 	sb	v0,24(v1)
 2003cd0:	004000eb 	ret
 2003cd4:	80200437 	lui	v0,0x4008
 2003cd8:	04007423 	sb	zero,29(v0)
 2003cdc:	80200437 	lui	v0,0x4008
 2003ce0:	04012c23 	sb	zero,75(v0)
 2003ce4:	80000413 	li	v0,1
 2003ce8:	04606823 	sb	v0,26(v1)
 2003cec:	004000eb 	ret
 2003cf0:	80200437 	lui	v0,0x4008
 2003cf4:	04007423 	sb	zero,29(v0)
 2003cf8:	80200437 	lui	v0,0x4008
 2003cfc:	04012c23 	sb	zero,75(v0)
 2003d00:	80000413 	li	v0,1
 2003d04:	04606423 	sb	v0,25(v1)
 2003d08:	004000eb 	ret
 2003d0c:	98200437 	lui	a1,0x4008
 2003d10:	80000413 	li	v0,1
 2003d14:	04c07423 	sb	zero,29(a1)
 2003d18:	98200437 	lui	a1,0x4008
 2003d1c:	04e13823 	sb	v0,78(a1)
 2003d20:	98200437 	lui	a1,0x4008
 2003d24:	04e12c23 	sb	v0,75(a1)
 2003d28:	04646023 	sb	a0,24(v1)
 2003d2c:	004000eb 	ret

02003d30 <t2_taskA3_generic_FH_TUERMODUL_CTRL>:
 2003d30:	80200437 	lui	v0,0x4008
 2003d34:	84031013 	add	v0,v0,196
 2003d38:	8c003403 	lb	v1,13(v0)
 2003d3c:	044048e3 	bnez	v1,2003d60 <t2_taskA3_generic_FH_TUERMODUL_CTRL+0x30>
 2003d40:	8c003c03 	lb	v1,15(v0)
 2003d44:	04403063 	beqz	v1,2003d5c <t2_taskA3_generic_FH_TUERMODUL_CTRL+0x2c>
 2003d48:	8c003803 	lb	v1,14(v0)
 2003d4c:	044020e3 	bnez	v1,2003d5c <t2_taskA3_generic_FH_TUERMODUL_CTRL+0x2c>
 2003d50:	04001023 	sb	zero,4(v0)
 2003d54:	04001823 	sb	zero,6(v0)
 2003d58:	004000eb 	ret
 2003d5c:	004000eb 	ret
 2003d60:	8c002803 	lb	v1,10(v0)
 2003d64:	044020e3 	bnez	v1,2003d74 <t2_taskA3_generic_FH_TUERMODUL_CTRL+0x44>
 2003d68:	90000c13 	li	a0,3
 2003d6c:	88200437 	lui	v1,0x4008
 2003d70:	04646023 	sb	a0,24(v1)
 2003d74:	8c004c03 	lb	v1,19(v0)
 2003d78:	044030e3 	bnez	v1,2003d90 <t2_taskA3_generic_FH_TUERMODUL_CTRL+0x60>
 2003d7c:	88200437 	lui	v1,0x4008
 2003d80:	0c411023 	sb	zero,196(v1)
 2003d84:	90000413 	li	a0,1
 2003d88:	88200437 	lui	v1,0x4008
 2003d8c:	04643023 	sb	a0,12(v1)
 2003d90:	98200437 	lui	a1,0x4008
 2003d94:	8cc05c03 	lb	v1,23(a1)
 2003d98:	90000413 	li	a0,1
 2003d9c:	a0000813 	li	a2,2
 2003da0:	04242c23 	sb	a0,11(v0)
 2003da4:	04245023 	sb	a0,20(v0)
 2003da8:	04693863 	beq	v1,a2,2003e44 <t2_taskA3_generic_FH_TUERMODUL_CTRL+0x114>
 2003dac:	a8000c13 	li	a3,3
 2003db0:	0c6a2063 	beq	v1,a3,2003ec0 <t2_taskA3_generic_FH_TUERMODUL_CTRL+0x190>
 2003db4:	90000413 	li	a0,1
 2003db8:	0465a863 	beq	v1,a0,2003e8c <t2_taskA3_generic_FH_TUERMODUL_CTRL+0x15c>
 2003dbc:	88200437 	lui	v1,0x4008
 2003dc0:	04407423 	sb	zero,29(v1)
 2003dc4:	04e85c23 	sb	a2,23(a1)
 2003dc8:	90200437 	lui	a0,0x4008
 2003dcc:	9c805803 	lb	a1,22(a0)
 2003dd0:	88000413 	li	v1,1
 2003dd4:	04e26863 	beq	a1,v1,2003e08 <t2_taskA3_generic_FH_TUERMODUL_CTRL+0xd8>
 2003dd8:	98200437 	lui	a1,0x4008
 2003ddc:	04c07423 	sb	zero,29(a1)
 2003de0:	04a25823 	sb	v1,22(a0)
 2003de4:	98200437 	lui	a1,0x4008
 2003de8:	90200437 	lui	a0,0x4008
 2003dec:	0cc0a123 	sw	zero,168(a1)
 2003df0:	04a25423 	sb	v1,21(a0)
 2003df4:	94001203 	lbu	a0,4(v0)
 2003df8:	8c001a03 	lbu	v1,6(v0)
 2003dfc:	04241423 	sb	a0,5(v0)
 2003e00:	04221c23 	sb	v1,7(v0)
 2003e04:	004000eb 	ret
 2003e08:	88200437 	lui	v1,0x4008
 2003e0c:	8c407003 	lb	v1,28(v1)
 2003e10:	0c67e063 	beq	v1,a1,2004000 <t2_taskA3_generic_FH_TUERMODUL_CTRL+0x2d0>
 2003e14:	90200437 	lui	a0,0x4008
 2003e18:	a4805403 	lb	a2,21(a0)
 2003e1c:	98000413 	li	a1,1
 2003e20:	0d270863 	beq	a2,a1,2003fa4 <t2_taskA3_generic_FH_TUERMODUL_CTRL+0x274>
 2003e24:	88200437 	lui	v1,0x4008
 2003e28:	04407423 	sb	zero,29(v1)
 2003e2c:	04a65423 	sb	a1,21(a0)
 2003e30:	8c001a03 	lbu	v1,6(v0)
 2003e34:	94001203 	lbu	a0,4(v0)
 2003e38:	04221c23 	sb	v1,7(v0)
 2003e3c:	04241423 	sb	a0,5(v0)
 2003e40:	004000eb 	ret
 2003e44:	88200437 	lui	v1,0x4008
 2003e48:	8c414c03 	lb	v1,83(v1)
 2003e4c:	04402063 	beqz	v1,2003e5c <t2_taskA3_generic_FH_TUERMODUL_CTRL+0x12c>
 2003e50:	88200437 	lui	v1,0x4008
 2003e54:	8c414403 	lb	v1,81(v1)
 2003e58:	14401063 	beqz	v1,2004060 <t2_taskA3_generic_FH_TUERMODUL_CTRL+0x330>
 2003e5c:	90200437 	lui	a0,0x4008
 2003e60:	8c806c03 	lb	v1,27(a0)
 2003e64:	98000813 	li	a1,2
 2003e68:	14675863 	beq	v1,a1,2004114 <t2_taskA3_generic_FH_TUERMODUL_CTRL+0x3e4>
 2003e6c:	a0000c13 	li	a2,3
 2003e70:	1468f863 	beq	v1,a2,20040ec <t2_taskA3_generic_FH_TUERMODUL_CTRL+0x3bc>
 2003e74:	98000413 	li	a1,1
 2003e78:	14665063 	beq	v1,a1,20040a0 <t2_taskA3_generic_FH_TUERMODUL_CTRL+0x370>
 2003e7c:	88200437 	lui	v1,0x4008
 2003e80:	04407423 	sb	zero,29(v1)
 2003e84:	04a86c23 	sb	a2,27(a0)
 2003e88:	ffffd067 	j	2003dc8 <t2_taskA3_generic_FH_TUERMODUL_CTRL+0x98>
 2003e8c:	88200437 	lui	v1,0x4008
 2003e90:	8c42a103 	lw	v1,168(v1)
 2003e94:	9000ec13 	li	a0,59
 2003e98:	fc6460e3 	bne	v1,a0,2003dc8 <t2_taskA3_generic_FH_TUERMODUL_CTRL+0x98>
 2003e9c:	90200437 	lui	a0,0x4008
 2003ea0:	94828103 	lw	a0,160(a0)
 2003ea4:	fca24863 	beq	a0,v1,2003dc8 <t2_taskA3_generic_FH_TUERMODUL_CTRL+0x98>
 2003ea8:	88200437 	lui	v1,0x4008
 2003eac:	04407423 	sb	zero,29(v1)
 2003eb0:	88200437 	lui	v1,0x4008
 2003eb4:	04ea5c23 	sb	a3,23(a1)
 2003eb8:	046a5023 	sb	a3,20(v1)
 2003ebc:	ffffc367 	j	2003dc8 <t2_taskA3_generic_FH_TUERMODUL_CTRL+0x98>
 2003ec0:	88200437 	lui	v1,0x4008
 2003ec4:	8c42a103 	lw	v1,168(v1)
 2003ec8:	8c40f513 	slt	v1,v1,61
 2003ecc:	044098e3 	bnez	v1,2003f18 <t2_taskA3_generic_FH_TUERMODUL_CTRL+0x1e8>
 2003ed0:	88200437 	lui	v1,0x4008
 2003ed4:	8c428103 	lw	v1,160(v1)
 2003ed8:	8c40f513 	slt	v1,v1,61
 2003edc:	04407863 	beqz	v1,2003f18 <t2_taskA3_generic_FH_TUERMODUL_CTRL+0x1e8>
 2003ee0:	88200437 	lui	v1,0x4008
 2003ee4:	8c417c03 	lb	v1,95(v1)
 2003ee8:	044060e3 	bnez	v1,2003f18 <t2_taskA3_generic_FH_TUERMODUL_CTRL+0x1e8>
 2003eec:	88200437 	lui	v1,0x4008
 2003ef0:	8c418403 	lb	v1,97(v1)
 2003ef4:	044048e3 	bnez	v1,2003f18 <t2_taskA3_generic_FH_TUERMODUL_CTRL+0x1e8>
 2003ef8:	88200437 	lui	v1,0x4008
 2003efc:	04407423 	sb	zero,29(v1)
 2003f00:	88200437 	lui	v1,0x4008
 2003f04:	04412023 	sb	zero,72(v1)
 2003f08:	88200437 	lui	v1,0x4008
 2003f0c:	04411423 	sb	zero,69(v1)
 2003f10:	04e45c23 	sb	a0,23(a1)
 2003f14:	ffffad67 	j	2003dc8 <t2_taskA3_generic_FH_TUERMODUL_CTRL+0x98>
 2003f18:	88200437 	lui	v1,0x4008
 2003f1c:	8c414c03 	lb	v1,83(v1)
 2003f20:	0440a863 	beqz	v1,2003f74 <t2_taskA3_generic_FH_TUERMODUL_CTRL+0x244>
 2003f24:	88200437 	lui	v1,0x4008
 2003f28:	8c414403 	lb	v1,81(v1)
 2003f2c:	044090e3 	bnez	v1,2003f74 <t2_taskA3_generic_FH_TUERMODUL_CTRL+0x244>
 2003f30:	88200437 	lui	v1,0x4008
 2003f34:	8c411803 	lb	v1,70(v1)
 2003f38:	1441d863 	beqz	v1,2004224 <t2_taskA3_generic_FH_TUERMODUL_CTRL+0x4f4>
 2003f3c:	88200437 	lui	v1,0x4008
 2003f40:	94408103 	lw	a0,32(v1)
 2003f44:	88200437 	lui	v1,0x4008
 2003f48:	04407423 	sb	zero,29(v1)
 2003f4c:	88200437 	lui	v1,0x4008
 2003f50:	04411423 	sb	zero,69(v1)
 2003f54:	88200437 	lui	v1,0x4008
 2003f58:	0c64d123 	sw	a0,180(v1)
 2003f5c:	88000813 	li	v1,2
 2003f60:	04e25c23 	sb	v1,23(a1)
 2003f64:	90000c13 	li	a0,3
 2003f68:	88200437 	lui	v1,0x4008
 2003f6c:	04646c23 	sb	a0,27(v1)
 2003f70:	ffff9667 	j	2003dc8 <t2_taskA3_generic_FH_TUERMODUL_CTRL+0x98>
 2003f74:	90200437 	lui	a0,0x4008
 2003f78:	8c805003 	lb	v1,20(a0)
 2003f7c:	98000813 	li	a1,2
 2003f80:	14662063 	beq	v1,a1,2004190 <t2_taskA3_generic_FH_TUERMODUL_CTRL+0x460>
 2003f84:	a0000c13 	li	a2,3
 2003f88:	0c696863 	beq	v1,a2,200413c <t2_taskA3_generic_FH_TUERMODUL_CTRL+0x40c>
 2003f8c:	a8000413 	li	a3,1
 2003f90:	0c6a6863 	beq	v1,a3,20040c4 <t2_taskA3_generic_FH_TUERMODUL_CTRL+0x394>
 2003f94:	88200437 	lui	v1,0x4008
 2003f98:	04407423 	sb	zero,29(v1)
 2003f9c:	04a85023 	sb	a2,20(a0)
 2003fa0:	ffff8a67 	j	2003dc8 <t2_taskA3_generic_FH_TUERMODUL_CTRL+0x98>
 2003fa4:	f468a0e3 	bne	v1,a2,2003df4 <t2_taskA3_generic_FH_TUERMODUL_CTRL+0xc4>
 2003fa8:	98200437 	lui	a1,0x4008
 2003fac:	9cc2e103 	lw	a1,184(a1)
 2003fb0:	f4c08863 	beqz	a1,2003df4 <t2_taskA3_generic_FH_TUERMODUL_CTRL+0xc4>
 2003fb4:	a0200437 	lui	a2,0x4008
 2003fb8:	a5008103 	lw	a2,32(a2)
 2003fbc:	a53ff413 	add	a2,a2,-3
 2003fc0:	f4e868e3 	bne	a1,a2,2003df4 <t2_taskA3_generic_FH_TUERMODUL_CTRL+0xc4>
 2003fc4:	98200437 	lui	a1,0x4008
 2003fc8:	9cc12403 	lb	a1,73(a1)
 2003fcc:	f4c050e3 	bnez	a1,2003df4 <t2_taskA3_generic_FH_TUERMODUL_CTRL+0xc4>
 2003fd0:	98200437 	lui	a1,0x4008
 2003fd4:	9cc11803 	lb	a1,70(a1)
 2003fd8:	f4c038e3 	bnez	a1,2003df4 <t2_taskA3_generic_FH_TUERMODUL_CTRL+0xc4>
 2003fdc:	98200437 	lui	a1,0x4008
 2003fe0:	a4c2a103 	lw	a2,168(a1)
 2003fe4:	f02822e3 	blez	a2,2003df4 <t2_taskA3_generic_FH_TUERMODUL_CTRL+0xc4>
 2003fe8:	a53ffc13 	add	a2,a2,-1
 2003fec:	a8200437 	lui	a3,0x4008
 2003ff0:	05407423 	sb	zero,29(a3)
 2003ff4:	0ce8a123 	sw	a2,168(a1)
 2003ff8:	04a25423 	sb	v1,21(a0)
 2003ffc:	ffff7e67 	j	2003df4 <t2_taskA3_generic_FH_TUERMODUL_CTRL+0xc4>
 2004000:	98200437 	lui	a1,0x4008
 2004004:	9cc2f103 	lw	a1,188(a1)
 2004008:	f4c01863 	beqz	a1,2003e14 <t2_taskA3_generic_FH_TUERMODUL_CTRL+0xe4>
 200400c:	a0200437 	lui	a2,0x4008
 2004010:	a5008103 	lw	a2,32(a2)
 2004014:	9d270033 	sub	a1,a2,a1
 2004018:	ece3f8e3 	bne	a1,v1,2003e14 <t2_taskA3_generic_FH_TUERMODUL_CTRL+0xe4>
 200401c:	98200437 	lui	a1,0x4008
 2004020:	9cc12403 	lb	a1,73(a1)
 2004024:	04c020e3 	bnez	a1,2004034 <t2_taskA3_generic_FH_TUERMODUL_CTRL+0x304>
 2004028:	98200437 	lui	a1,0x4008
 200402c:	9cc11803 	lb	a1,70(a1)
 2004030:	ecc1c863 	beqz	a1,2003e14 <t2_taskA3_generic_FH_TUERMODUL_CTRL+0xe4>
 2004034:	98200437 	lui	a1,0x4008
 2004038:	a4c2a103 	lw	a2,168(a1)
 200403c:	88000413 	li	v1,1
 2004040:	a8200437 	lui	a3,0x4008
 2004044:	a5000413 	add	a2,a2,1
 2004048:	04a25823 	sb	v1,22(a0)
 200404c:	90200437 	lui	a0,0x4008
 2004050:	05407423 	sb	zero,29(a3)
 2004054:	0ce8a123 	sw	a2,168(a1)
 2004058:	04a25423 	sb	v1,21(a0)
 200405c:	ffff6667 	j	2003df4 <t2_taskA3_generic_FH_TUERMODUL_CTRL+0xc4>
 2004060:	88200437 	lui	v1,0x4008
 2004064:	8c412403 	lb	v1,73(v1)
 2004068:	ec41e863 	beqz	v1,2003e5c <t2_taskA3_generic_FH_TUERMODUL_CTRL+0x12c>
 200406c:	88200437 	lui	v1,0x4008
 2004070:	a4408103 	lw	a2,32(v1)
 2004074:	90200437 	lui	a0,0x4008
 2004078:	04807423 	sb	zero,29(a0)
 200407c:	90200437 	lui	a0,0x4008
 2004080:	04812023 	sb	zero,72(a0)
 2004084:	90200437 	lui	a0,0x4008
 2004088:	88000c13 	li	v1,3
 200408c:	0ca8b123 	sw	a2,172(a0)
 2004090:	90200437 	lui	a0,0x4008
 2004094:	04e25c23 	sb	v1,23(a1)
 2004098:	04a25023 	sb	v1,20(a0)
 200409c:	ffff4b67 	j	2003dc8 <t2_taskA3_generic_FH_TUERMODUL_CTRL+0x98>
 20040a0:	88200437 	lui	v1,0x4008
 20040a4:	8c413c03 	lb	v1,79(v1)
 20040a8:	ec4040e3 	bnez	v1,2003dc8 <t2_taskA3_generic_FH_TUERMODUL_CTRL+0x98>
 20040ac:	88200437 	lui	v1,0x4008
 20040b0:	04407423 	sb	zero,29(v1)
 20040b4:	88200437 	lui	v1,0x4008
 20040b8:	04412023 	sb	zero,72(v1)
 20040bc:	04a86c23 	sb	a2,27(a0)
 20040c0:	ffff4267 	j	2003dc8 <t2_taskA3_generic_FH_TUERMODUL_CTRL+0x98>
 20040c4:	a8200437 	lui	a3,0x4008
 20040c8:	ad425103 	lw	a3,148(a3)
 20040cc:	ad465513 	slt	a3,a3,405
 20040d0:	0d4158e3 	bnez	a3,200427c <t2_taskA3_generic_FH_TUERMODUL_CTRL+0x54c>
 20040d4:	88200437 	lui	v1,0x4008
 20040d8:	04407423 	sb	zero,29(v1)
 20040dc:	88200437 	lui	v1,0x4008
 20040e0:	04411423 	sb	zero,69(v1)
 20040e4:	04a85023 	sb	a2,20(a0)
 20040e8:	ffff3867 	j	2003dc8 <t2_taskA3_generic_FH_TUERMODUL_CTRL+0x98>
 20040ec:	88200437 	lui	v1,0x4008
 20040f0:	8c413003 	lb	v1,76(v1)
 20040f4:	0c40c063 	beqz	v1,2004254 <t2_taskA3_generic_FH_TUERMODUL_CTRL+0x524>
 20040f8:	88200437 	lui	v1,0x4008
 20040fc:	04407423 	sb	zero,29(v1)
 2004100:	a0000413 	li	a2,1
 2004104:	88200437 	lui	v1,0x4008
 2004108:	04691423 	sb	a2,69(v1)
 200410c:	04a66c23 	sb	a1,27(a0)
 2004110:	ffff2e67 	j	2003dc8 <t2_taskA3_generic_FH_TUERMODUL_CTRL+0x98>
 2004114:	88200437 	lui	v1,0x4008
 2004118:	8c413003 	lb	v1,76(v1)
 200411c:	e44158e3 	bnez	v1,2003dc8 <t2_taskA3_generic_FH_TUERMODUL_CTRL+0x98>
 2004120:	88200437 	lui	v1,0x4008
 2004124:	04407423 	sb	zero,29(v1)
 2004128:	88200437 	lui	v1,0x4008
 200412c:	04411423 	sb	zero,69(v1)
 2004130:	88000c13 	li	v1,3
 2004134:	04a26c23 	sb	v1,27(a0)
 2004138:	ffff2467 	j	2003dc8 <t2_taskA3_generic_FH_TUERMODUL_CTRL+0x98>
 200413c:	88200437 	lui	v1,0x4008
 2004140:	8c413c03 	lb	v1,79(v1)
 2004144:	04412063 	beqz	v1,20041d4 <t2_taskA3_generic_FH_TUERMODUL_CTRL+0x4a4>
 2004148:	88200437 	lui	v1,0x4008
 200414c:	8c413403 	lb	v1,77(v1)
 2004150:	044108e3 	bnez	v1,20041d4 <t2_taskA3_generic_FH_TUERMODUL_CTRL+0x4a4>
 2004154:	88200437 	lui	v1,0x4008
 2004158:	8c425103 	lw	v1,148(v1)
 200415c:	0022f2e3 	blez	v1,20041d4 <t2_taskA3_generic_FH_TUERMODUL_CTRL+0x4a4>
 2004160:	04a65023 	sb	a1,20(a0)
 2004164:	90200437 	lui	a0,0x4008
 2004168:	04a64023 	sb	a1,16(a0)
 200416c:	90200437 	lui	a0,0x4008
 2004170:	88000413 	li	v1,1
 2004174:	a0200437 	lui	a2,0x4008
 2004178:	04a64823 	sb	a1,18(a0)
 200417c:	90200437 	lui	a0,0x4008
 2004180:	05007423 	sb	zero,29(a2)
 2004184:	04224423 	sb	v1,17(v0)
 2004188:	04a32023 	sb	v1,72(a0)
 200418c:	ffff0f67 	j	2003dc8 <t2_taskA3_generic_FH_TUERMODUL_CTRL+0x98>
 2004190:	98200437 	lui	a1,0x4008
 2004194:	9cc25103 	lw	a1,148(a1)
 2004198:	08260ae3 	blez	a1,200429c <t2_taskA3_generic_FH_TUERMODUL_CTRL+0x56c>
 200419c:	a8200437 	lui	a3,0x4008
 20041a0:	9d404003 	lb	a1,16(a3)
 20041a4:	a0000413 	li	a2,1
 20041a8:	0ce8b863 	beq	a1,a2,2004304 <t2_taskA3_generic_FH_TUERMODUL_CTRL+0x5d4>
 20041ac:	0ce21863 	beq	a1,v1,20042b8 <t2_taskA3_generic_FH_TUERMODUL_CTRL+0x588>
 20041b0:	90200437 	lui	a0,0x4008
 20041b4:	04807423 	sb	zero,29(a0)
 20041b8:	90200437 	lui	a0,0x4008
 20041bc:	05624023 	sb	v1,16(a3)
 20041c0:	04a24823 	sb	v1,18(a0)
 20041c4:	88200437 	lui	v1,0x4008
 20041c8:	04284423 	sb	a2,17(v0)
 20041cc:	04692023 	sb	a2,72(v1)
 20041d0:	fffefe67 	j	2003dc8 <t2_taskA3_generic_FH_TUERMODUL_CTRL+0x98>
 20041d4:	88200437 	lui	v1,0x4008
 20041d8:	8c413003 	lb	v1,76(v1)
 20041dc:	dc41d863 	beqz	v1,2003dc8 <t2_taskA3_generic_FH_TUERMODUL_CTRL+0x98>
 20041e0:	88200437 	lui	v1,0x4008
 20041e4:	8c412803 	lb	v1,74(v1)
 20041e8:	dc41c0e3 	bnez	v1,2003dc8 <t2_taskA3_generic_FH_TUERMODUL_CTRL+0x98>
 20041ec:	88200437 	lui	v1,0x4008
 20041f0:	8c425103 	lw	v1,148(v1)
 20041f4:	8c465513 	slt	v1,v1,405
 20041f8:	dc41a063 	beqz	v1,2003dc8 <t2_taskA3_generic_FH_TUERMODUL_CTRL+0x98>
 20041fc:	98200437 	lui	a1,0x4008
 2004200:	88000413 	li	v1,1
 2004204:	04c07423 	sb	zero,29(a1)
 2004208:	98200437 	lui	a1,0x4008
 200420c:	04a25023 	sb	v1,20(a0)
 2004210:	04e31423 	sb	v1,69(a1)
 2004214:	90000813 	li	a0,2
 2004218:	88200437 	lui	v1,0x4008
 200421c:	04644423 	sb	a0,17(v1)
 2004220:	fffeea67 	j	2003dc8 <t2_taskA3_generic_FH_TUERMODUL_CTRL+0x98>
 2004224:	88200437 	lui	v1,0x4008
 2004228:	8c412403 	lb	v1,73(v1)
 200422c:	ec409063 	beqz	v1,2003f74 <t2_taskA3_generic_FH_TUERMODUL_CTRL+0x244>
 2004230:	88200437 	lui	v1,0x4008
 2004234:	94408103 	lw	a0,32(v1)
 2004238:	88200437 	lui	v1,0x4008
 200423c:	04407423 	sb	zero,29(v1)
 2004240:	88200437 	lui	v1,0x4008
 2004244:	04412023 	sb	zero,72(v1)
 2004248:	88200437 	lui	v1,0x4008
 200424c:	0c64c123 	sw	a0,176(v1)
 2004250:	ffff4367 	j	2003f5c <t2_taskA3_generic_FH_TUERMODUL_CTRL+0x22c>
 2004254:	88200437 	lui	v1,0x4008
 2004258:	8c413c03 	lb	v1,79(v1)
 200425c:	dc40d863 	beqz	v1,2003dc8 <t2_taskA3_generic_FH_TUERMODUL_CTRL+0x98>
 2004260:	98200437 	lui	a1,0x4008
 2004264:	88000413 	li	v1,1
 2004268:	04c07423 	sb	zero,29(a1)
 200426c:	98200437 	lui	a1,0x4008
 2004270:	04e32023 	sb	v1,72(a1)
 2004274:	04a26c23 	sb	v1,27(a0)
 2004278:	fffed467 	j	2003dc8 <t2_taskA3_generic_FH_TUERMODUL_CTRL+0x98>
 200427c:	a8200437 	lui	a3,0x4008
 2004280:	a5404403 	lb	a2,17(a3)
 2004284:	0d220863 	beq	a2,v1,2004388 <t2_taskA3_generic_FH_TUERMODUL_CTRL+0x658>
 2004288:	0527b063 	beq	a2,a1,2004360 <t2_taskA3_generic_FH_TUERMODUL_CTRL+0x630>
 200428c:	88200437 	lui	v1,0x4008
 2004290:	04407423 	sb	zero,29(v1)
 2004294:	05664423 	sb	a1,17(a3)
 2004298:	fffecc67 	j	2003dc8 <t2_taskA3_generic_FH_TUERMODUL_CTRL+0x98>
 200429c:	88200437 	lui	v1,0x4008
 20042a0:	04407423 	sb	zero,29(v1)
 20042a4:	88200437 	lui	v1,0x4008
 20042a8:	04412023 	sb	zero,72(v1)
 20042ac:	88000c13 	li	v1,3
 20042b0:	04a25023 	sb	v1,20(a0)
 20042b4:	fffec567 	j	2003dc8 <t2_taskA3_generic_FH_TUERMODUL_CTRL+0x98>
 20042b8:	88200437 	lui	v1,0x4008
 20042bc:	8c413c03 	lb	v1,79(v1)
 20042c0:	044020e3 	bnez	v1,20042d0 <t2_taskA3_generic_FH_TUERMODUL_CTRL+0x5a0>
 20042c4:	88200437 	lui	v1,0x4008
 20042c8:	8c413403 	lb	v1,77(v1)
 20042cc:	fc41a0e3 	bnez	v1,200429c <t2_taskA3_generic_FH_TUERMODUL_CTRL+0x56c>
 20042d0:	98200437 	lui	a1,0x4008
 20042d4:	94c04803 	lb	a0,18(a1)
 20042d8:	88000413 	li	v1,1
 20042dc:	0ca2c863 	beq	a0,v1,2004440 <t2_taskA3_generic_FH_TUERMODUL_CTRL+0x710>
 20042e0:	a0000813 	li	a2,2
 20042e4:	0ca82863 	beq	a0,a2,20043f8 <t2_taskA3_generic_FH_TUERMODUL_CTRL+0x6c8>
 20042e8:	90200437 	lui	a0,0x4008
 20042ec:	04807423 	sb	zero,29(a0)
 20042f0:	90200437 	lui	a0,0x4008
 20042f4:	04e84823 	sb	a2,18(a1)
 20042f8:	04224423 	sb	v1,17(v0)
 20042fc:	04a32023 	sb	v1,72(a0)
 2004300:	fffeb267 	j	2003dc8 <t2_taskA3_generic_FH_TUERMODUL_CTRL+0x98>
 2004304:	88200437 	lui	v1,0x4008
 2004308:	8c413003 	lb	v1,76(v1)
 200430c:	04402063 	beqz	v1,200431c <t2_taskA3_generic_FH_TUERMODUL_CTRL+0x5ec>
 2004310:	88200437 	lui	v1,0x4008
 2004314:	8c412803 	lb	v1,74(v1)
 2004318:	fc410863 	beqz	v1,200429c <t2_taskA3_generic_FH_TUERMODUL_CTRL+0x56c>
 200431c:	88200437 	lui	v1,0x4008
 2004320:	8c413c03 	lb	v1,79(v1)
 2004324:	04402063 	beqz	v1,2004334 <t2_taskA3_generic_FH_TUERMODUL_CTRL+0x604>
 2004328:	88200437 	lui	v1,0x4008
 200432c:	8c413403 	lb	v1,77(v1)
 2004330:	fc40d863 	beqz	v1,200429c <t2_taskA3_generic_FH_TUERMODUL_CTRL+0x56c>
 2004334:	98200437 	lui	a1,0x4008
 2004338:	94c04c03 	lb	a0,19(a1)
 200433c:	88000413 	li	v1,1
 2004340:	0ca30863 	beq	a0,v1,20044c4 <t2_taskA3_generic_FH_TUERMODUL_CTRL+0x794>
 2004344:	a0000813 	li	a2,2
 2004348:	0ca86863 	beq	a0,a2,200447c <t2_taskA3_generic_FH_TUERMODUL_CTRL+0x74c>
 200434c:	90200437 	lui	a0,0x4008
 2004350:	04807423 	sb	zero,29(a0)
 2004354:	04e84c23 	sb	a2,19(a1)
 2004358:	04224423 	sb	v1,17(v0)
 200435c:	fffe9b67 	j	2003dc8 <t2_taskA3_generic_FH_TUERMODUL_CTRL+0x98>
 2004360:	98200437 	lui	a1,0x4008
 2004364:	9cc13c03 	lb	a1,79(a1)
 2004368:	04c0b063 	beqz	a1,20043c0 <t2_taskA3_generic_FH_TUERMODUL_CTRL+0x690>
 200436c:	98200437 	lui	a1,0x4008
 2004370:	9cc13403 	lb	a1,77(a1)
 2004374:	04c098e3 	bnez	a1,20043c0 <t2_taskA3_generic_FH_TUERMODUL_CTRL+0x690>
 2004378:	90200437 	lui	a0,0x4008
 200437c:	04807423 	sb	zero,29(a0)
 2004380:	05624423 	sb	v1,17(a3)
 2004384:	fffe9167 	j	2003dc8 <t2_taskA3_generic_FH_TUERMODUL_CTRL+0x98>
 2004388:	88200437 	lui	v1,0x4008
 200438c:	8c413c03 	lb	v1,79(v1)
 2004390:	04409863 	beqz	v1,20043dc <t2_taskA3_generic_FH_TUERMODUL_CTRL+0x6ac>
 2004394:	88200437 	lui	v1,0x4008
 2004398:	8c413403 	lb	v1,77(v1)
 200439c:	044080e3 	bnez	v1,20043dc <t2_taskA3_generic_FH_TUERMODUL_CTRL+0x6ac>
 20043a0:	88200437 	lui	v1,0x4008
 20043a4:	04407423 	sb	zero,29(v1)
 20043a8:	88200437 	lui	v1,0x4008
 20043ac:	04411423 	sb	zero,69(v1)
 20043b0:	88000c13 	li	v1,3
 20043b4:	04a25023 	sb	v1,20(a0)
 20043b8:	05404423 	sb	zero,17(a3)
 20043bc:	fffe8367 	j	2003dc8 <t2_taskA3_generic_FH_TUERMODUL_CTRL+0x98>
 20043c0:	88200437 	lui	v1,0x4008
 20043c4:	8c413003 	lb	v1,76(v1)
 20043c8:	d44000e3 	bnez	v1,2003dc8 <t2_taskA3_generic_FH_TUERMODUL_CTRL+0x98>
 20043cc:	88200437 	lui	v1,0x4008
 20043d0:	8c412803 	lb	v1,74(v1)
 20043d4:	cc41e863 	beqz	v1,2003dc8 <t2_taskA3_generic_FH_TUERMODUL_CTRL+0x98>
 20043d8:	fffff267 	j	20043a0 <t2_taskA3_generic_FH_TUERMODUL_CTRL+0x670>
 20043dc:	88200437 	lui	v1,0x4008
 20043e0:	8c413003 	lb	v1,76(v1)
 20043e4:	cc41c863 	beqz	v1,2003dc8 <t2_taskA3_generic_FH_TUERMODUL_CTRL+0x98>
 20043e8:	88200437 	lui	v1,0x4008
 20043ec:	8c412803 	lb	v1,74(v1)
 20043f0:	cc41b0e3 	bnez	v1,2003dc8 <t2_taskA3_generic_FH_TUERMODUL_CTRL+0x98>
 20043f4:	ffffeb67 	j	20043a0 <t2_taskA3_generic_FH_TUERMODUL_CTRL+0x670>
 20043f8:	94006003 	lb	a0,24(v0)
 20043fc:	0c800863 	beqz	a0,2004500 <t2_taskA3_generic_FH_TUERMODUL_CTRL+0x7d0>
 2004400:	90200437 	lui	a0,0x4008
 2004404:	a4808103 	lw	a2,32(a0)
 2004408:	90200437 	lui	a0,0x4008
 200440c:	04807423 	sb	zero,29(a0)
 2004410:	90200437 	lui	a0,0x4008
 2004414:	04812023 	sb	zero,72(a0)
 2004418:	90200437 	lui	a0,0x4008
 200441c:	04a37823 	sb	v1,94(a0)
 2004420:	90200437 	lui	a0,0x4008
 2004424:	0ca86123 	sw	a2,152(a0)
 2004428:	90200437 	lui	a0,0x4008
 200442c:	04225c23 	sb	v1,23(v0)
 2004430:	04e24823 	sb	v1,18(a1)
 2004434:	04004423 	sb	zero,17(v0)
 2004438:	04a31423 	sb	v1,69(a0)
 200443c:	fffe6367 	j	2003dc8 <t2_taskA3_generic_FH_TUERMODUL_CTRL+0x98>
 2004440:	8c005803 	lb	v1,22(v0)
 2004444:	04005c23 	sb	zero,23(v0)
 2004448:	cc410063 	beqz	v1,2003dc8 <t2_taskA3_generic_FH_TUERMODUL_CTRL+0x98>
 200444c:	88200437 	lui	v1,0x4008
 2004450:	04407423 	sb	zero,29(v1)
 2004454:	88200437 	lui	v1,0x4008
 2004458:	04417823 	sb	zero,94(v1)
 200445c:	88000813 	li	v1,2
 2004460:	04e24823 	sb	v1,18(a1)
 2004464:	88200437 	lui	v1,0x4008
 2004468:	04411423 	sb	zero,69(v1)
 200446c:	88200437 	lui	v1,0x4008
 2004470:	04244423 	sb	a0,17(v0)
 2004474:	04652023 	sb	a0,72(v1)
 2004478:	fffe5467 	j	2003dc8 <t2_taskA3_generic_FH_TUERMODUL_CTRL+0x98>
 200447c:	94006003 	lb	a0,24(v0)
 2004480:	cc809063 	beqz	a0,2003dc8 <t2_taskA3_generic_FH_TUERMODUL_CTRL+0x98>
 2004484:	90200437 	lui	a0,0x4008
 2004488:	a4808103 	lw	a2,32(a0)
 200448c:	90200437 	lui	a0,0x4008
 2004490:	04807423 	sb	zero,29(a0)
 2004494:	90200437 	lui	a0,0x4008
 2004498:	04a38023 	sb	v1,96(a0)
 200449c:	90200437 	lui	a0,0x4008
 20044a0:	04812023 	sb	zero,72(a0)
 20044a4:	90200437 	lui	a0,0x4008
 20044a8:	0ca87123 	sw	a2,156(a0)
 20044ac:	90200437 	lui	a0,0x4008
 20044b0:	04225c23 	sb	v1,23(v0)
 20044b4:	04e24c23 	sb	v1,19(a1)
 20044b8:	04004423 	sb	zero,17(v0)
 20044bc:	04a31423 	sb	v1,69(a0)
 20044c0:	fffe4267 	j	2003dc8 <t2_taskA3_generic_FH_TUERMODUL_CTRL+0x98>
 20044c4:	8c005803 	lb	v1,22(v0)
 20044c8:	04005c23 	sb	zero,23(v0)
 20044cc:	c441f863 	beqz	v1,2003dc8 <t2_taskA3_generic_FH_TUERMODUL_CTRL+0x98>
 20044d0:	88200437 	lui	v1,0x4008
 20044d4:	04407423 	sb	zero,29(v1)
 20044d8:	88200437 	lui	v1,0x4008
 20044dc:	04652023 	sb	a0,72(v1)
 20044e0:	88200437 	lui	v1,0x4008
 20044e4:	04418023 	sb	zero,96(v1)
 20044e8:	88000813 	li	v1,2
 20044ec:	04e24c23 	sb	v1,19(a1)
 20044f0:	88200437 	lui	v1,0x4008
 20044f4:	04411423 	sb	zero,69(v1)
 20044f8:	04244423 	sb	a0,17(v0)
 20044fc:	fffe3367 	j	2003dc8 <t2_taskA3_generic_FH_TUERMODUL_CTRL+0x98>
 2004500:	90200437 	lui	a0,0x4008
 2004504:	94813003 	lb	a0,76(a0)
 2004508:	c4818063 	beqz	a0,2003dc8 <t2_taskA3_generic_FH_TUERMODUL_CTRL+0x98>
 200450c:	90200437 	lui	a0,0x4008
 2004510:	94812803 	lb	a0,74(a0)
 2004514:	c48168e3 	bnez	a0,2003dc8 <t2_taskA3_generic_FH_TUERMODUL_CTRL+0x98>
 2004518:	90200437 	lui	a0,0x4008
 200451c:	04807423 	sb	zero,29(a0)
 2004520:	05624023 	sb	v1,16(a3)
 2004524:	04c04823 	sb	zero,18(a1)
 2004528:	fffe2867 	j	2003dc8 <t2_taskA3_generic_FH_TUERMODUL_CTRL+0x98>

0200452c <t2_taskA3_generic_EINKLEMMSCHUTZ_CTRL>:
 200452c:	80200437 	lui	v0,0x4008
 2004530:	84031013 	add	v0,v0,196
 2004534:	8c004003 	lb	v1,16(v0)
 2004538:	04405063 	beqz	v1,2004560 <t2_taskA3_generic_EINKLEMMSCHUTZ_CTRL+0x34>
 200453c:	90200437 	lui	a0,0x4008
 2004540:	8c803803 	lb	v1,14(a0)
 2004544:	98000413 	li	a1,1
 2004548:	04663863 	beq	v1,a1,2004564 <t2_taskA3_generic_EINKLEMMSCHUTZ_CTRL+0x38>
 200454c:	a0000813 	li	a2,2
 2004550:	0468c063 	beq	v1,a2,20045b0 <t2_taskA3_generic_EINKLEMMSCHUTZ_CTRL+0x84>
 2004554:	80200437 	lui	v0,0x4008
 2004558:	04007423 	sb	zero,29(v0)
 200455c:	04a63823 	sb	a1,14(a0)
 2004560:	004000eb 	ret
 2004564:	88200437 	lui	v1,0x4008
 2004568:	8c410c03 	lb	v1,67(v1)
 200456c:	fc41e863 	beqz	v1,2004560 <t2_taskA3_generic_EINKLEMMSCHUTZ_CTRL+0x34>
 2004570:	88200437 	lui	v1,0x4008
 2004574:	8c410803 	lb	v1,66(v1)
 2004578:	fc41d0e3 	bnez	v1,2004560 <t2_taskA3_generic_EINKLEMMSCHUTZ_CTRL+0x34>
 200457c:	88200437 	lui	v1,0x4008
 2004580:	8c413c03 	lb	v1,79(v1)
 2004584:	04402063 	beqz	v1,2004594 <t2_taskA3_generic_EINKLEMMSCHUTZ_CTRL+0x68>
 2004588:	88200437 	lui	v1,0x4008
 200458c:	8c413003 	lb	v1,76(v1)
 2004590:	fc41a0e3 	bnez	v1,2004560 <t2_taskA3_generic_EINKLEMMSCHUTZ_CTRL+0x34>
 2004594:	88200437 	lui	v1,0x4008
 2004598:	04407423 	sb	zero,29(v1)
 200459c:	88000413 	li	v1,1
 20045a0:	04226023 	sb	v1,24(v0)
 20045a4:	80000813 	li	v0,2
 20045a8:	04a03823 	sb	v0,14(a0)
 20045ac:	004000eb 	ret
 20045b0:	88200437 	lui	v1,0x4008
 20045b4:	8c410c03 	lb	v1,67(v1)
 20045b8:	04006023 	sb	zero,24(v0)
 20045bc:	fc4148e3 	bnez	v1,2004560 <t2_taskA3_generic_EINKLEMMSCHUTZ_CTRL+0x34>
 20045c0:	80200437 	lui	v0,0x4008
 20045c4:	84010803 	lb	v0,66(v0)
 20045c8:	fc013063 	beqz	v0,2004560 <t2_taskA3_generic_EINKLEMMSCHUTZ_CTRL+0x34>
 20045cc:	80200437 	lui	v0,0x4008
 20045d0:	04007423 	sb	zero,29(v0)
 20045d4:	04a63823 	sb	a1,14(a0)
 20045d8:	004000eb 	ret

020045dc <t2_taskA3_generic_BLOCK_ERKENNUNG_CTRL>:
 20045dc:	88200437 	lui	v1,0x4008
 20045e0:	84431013 	add	v0,v1,196
 20045e4:	94004c03 	lb	a0,19(v0)
 20045e8:	048038e3 	bnez	a0,2004604 <t2_taskA3_generic_BLOCK_ERKENNUNG_CTRL+0x28>
 20045ec:	94005403 	lb	a0,21(v0)
 20045f0:	04807063 	beqz	a0,2004628 <t2_taskA3_generic_BLOCK_ERKENNUNG_CTRL+0x4c>
 20045f4:	84005003 	lb	v0,20(v0)
 20045f8:	040060e3 	bnez	v0,2004628 <t2_taskA3_generic_BLOCK_ERKENNUNG_CTRL+0x4c>
 20045fc:	0c411023 	sb	zero,196(v1)
 2004600:	004000eb 	ret
 2004604:	90200437 	lui	a0,0x4008
 2004608:	84803003 	lb	v0,12(a0)
 200460c:	98000413 	li	a1,1
 2004610:	04263863 	beq	v0,a1,200462c <t2_taskA3_generic_BLOCK_ERKENNUNG_CTRL+0x50>
 2004614:	a0000813 	li	a2,2
 2004618:	0428d863 	beq	v0,a2,2004684 <t2_taskA3_generic_BLOCK_ERKENNUNG_CTRL+0xa8>
 200461c:	80200437 	lui	v0,0x4008
 2004620:	04007423 	sb	zero,29(v0)
 2004624:	04a63023 	sb	a1,12(a0)
 2004628:	004000eb 	ret
 200462c:	98200437 	lui	a1,0x4008
 2004630:	a0200437 	lui	a2,0x4008
 2004634:	9cc24103 	lw	a1,144(a1)
 2004638:	a5023103 	lw	a2,140(a2)
 200463c:	fce9d863 	beq	a1,a2,2004628 <t2_taskA3_generic_BLOCK_ERKENNUNG_CTRL+0x4c>
 2004640:	f827d2e3 	blez	a1,2004628 <t2_taskA3_generic_BLOCK_ERKENNUNG_CTRL+0x4c>
 2004644:	98200437 	lui	a1,0x4008
 2004648:	04c07423 	sb	zero,29(a1)
 200464c:	98200437 	lui	a1,0x4008
 2004650:	04c14823 	sb	zero,82(a1)
 2004654:	98000813 	li	a1,2
 2004658:	04a63023 	sb	a1,12(a0)
 200465c:	90200437 	lui	a0,0x4008
 2004660:	98000813 	li	a1,2
 2004664:	0481b123 	sw	zero,108(a0)
 2004668:	90200437 	lui	a0,0x4008
 200466c:	04a7d123 	sw	a1,116(a0)
 2004670:	98000c13 	li	a1,3
 2004674:	90200437 	lui	a0,0x4008
 2004678:	04a63423 	sb	a1,13(a0)
 200467c:	0c611023 	sb	v0,196(v1)
 2004680:	004000eb 	ret
 2004684:	80200437 	lui	v0,0x4008
 2004688:	84011803 	lb	v0,70(v0)
 200468c:	0400c063 	beqz	v0,20046ec <t2_taskA3_generic_BLOCK_ERKENNUNG_CTRL+0x110>
 2004690:	80200437 	lui	v0,0x4008
 2004694:	84012403 	lb	v0,73(v0)
 2004698:	040020e3 	bnez	v0,20046a8 <t2_taskA3_generic_BLOCK_ERKENNUNG_CTRL+0xcc>
 200469c:	80200437 	lui	v0,0x4008
 20046a0:	84011c03 	lb	v0,71(v0)
 20046a4:	0400a8e3 	bnez	v0,20046f8 <t2_taskA3_generic_BLOCK_ERKENNUNG_CTRL+0x11c>
 20046a8:	90200437 	lui	a0,0x4008
 20046ac:	84803403 	lb	v0,13(a0)
 20046b0:	98000813 	li	a1,2
 20046b4:	0427b063 	beq	v0,a1,200478c <t2_taskA3_generic_BLOCK_ERKENNUNG_CTRL+0x1b0>
 20046b8:	a0000c13 	li	a2,3
 20046bc:	0428b863 	beq	v0,a2,2004718 <t2_taskA3_generic_BLOCK_ERKENNUNG_CTRL+0x13c>
 20046c0:	a8000413 	li	a3,1
 20046c4:	042aa063 	beq	v0,a3,2004714 <t2_taskA3_generic_BLOCK_ERKENNUNG_CTRL+0x138>
 20046c8:	80200437 	lui	v0,0x4008
 20046cc:	04007423 	sb	zero,29(v0)
 20046d0:	80200437 	lui	v0,0x4008
 20046d4:	0401b123 	sw	zero,108(v0)
 20046d8:	80200437 	lui	v0,0x4008
 20046dc:	0427d123 	sw	a1,116(v0)
 20046e0:	04a83423 	sb	a2,13(a0)
 20046e4:	0c6b1023 	sb	a3,196(v1)
 20046e8:	004000eb 	ret
 20046ec:	80200437 	lui	v0,0x4008
 20046f0:	84011003 	lb	v0,68(v0)
 20046f4:	fc013863 	beqz	v0,2004690 <t2_taskA3_generic_BLOCK_ERKENNUNG_CTRL+0xb4>
 20046f8:	80200437 	lui	v0,0x4008
 20046fc:	04007423 	sb	zero,29(v0)
 2004700:	80000413 	li	v0,1
 2004704:	04a03023 	sb	v0,12(a0)
 2004708:	80200437 	lui	v0,0x4008
 200470c:	04003423 	sb	zero,13(v0)
 2004710:	004000eb 	ret
 2004714:	004000eb 	ret
 2004718:	a0200437 	lui	a2,0x4008
 200471c:	8501b103 	lw	v0,108(a2)
 2004720:	0c411023 	sb	zero,196(v1)
 2004724:	88002c13 	li	v1,11
 2004728:	04233063 	beq	v0,v1,20047c0 <t2_taskA3_generic_BLOCK_ERKENNUNG_CTRL+0x1e4>
 200472c:	88200437 	lui	v1,0x4008
 2004730:	94407003 	lb	a0,28(v1)
 2004734:	88000413 	li	v1,1
 2004738:	f4a3e0e3 	bne	a0,v1,2004628 <t2_taskA3_generic_BLOCK_ERKENNUNG_CTRL+0x4c>
 200473c:	88200437 	lui	v1,0x4008
 2004740:	8c430103 	lw	v1,192(v1)
 2004744:	f441c863 	beqz	v1,2004628 <t2_taskA3_generic_BLOCK_ERKENNUNG_CTRL+0x4c>
 2004748:	90200437 	lui	a0,0x4008
 200474c:	94808103 	lw	a0,32(a0)
 2004750:	8ca30033 	sub	v1,a0,v1
 2004754:	8c40f0d3 	fcvt.d.wu	fv1,v1
 2004758:	88200037 	lui	v1,0x4000
 200475c:	84402187 	fld	fv0,8(v1)
 2004760:	8c6150d3 	feq.d	v1,fv1,fv0
 2004764:	f4418863 	beqz	v1,2004628 <t2_taskA3_generic_BLOCK_ERKENNUNG_CTRL+0x4c>
 2004768:	88200437 	lui	v1,0x4008
 200476c:	90200437 	lui	a0,0x4008
 2004770:	94824103 	lw	a0,144(a0)
 2004774:	9c41d103 	lw	a1,116(v1)
 2004778:	84000413 	add	v0,v0,1
 200477c:	0521b123 	sw	v0,108(a2)
 2004780:	f4e552e3 	ble	a0,a1,2004628 <t2_taskA3_generic_BLOCK_ERKENNUNG_CTRL+0x4c>
 2004784:	0465d123 	sw	a0,116(v1)
 2004788:	004000eb 	ret
 200478c:	80200437 	lui	v0,0x4008
 2004790:	8c01d103 	lw	v1,116(v0)
 2004794:	80200437 	lui	v0,0x4008
 2004798:	84024103 	lw	v0,144(v0)
 200479c:	8c7ffc13 	add	v1,v1,-1
 20047a0:	f4231263 	blt	v0,v1,2004628 <t2_taskA3_generic_BLOCK_ERKENNUNG_CTRL+0x4c>
 20047a4:	88200437 	lui	v1,0x4008
 20047a8:	80000413 	li	v0,1
 20047ac:	04407423 	sb	zero,29(v1)
 20047b0:	88200437 	lui	v1,0x4008
 20047b4:	04614823 	sb	v0,82(v1)
 20047b8:	04a03423 	sb	v0,13(a0)
 20047bc:	004000eb 	ret
 20047c0:	88200437 	lui	v1,0x4008
 20047c4:	8c419103 	lw	v1,100(v1)
 20047c8:	fc60c863 	beq	v1,v0,200472c <t2_taskA3_generic_BLOCK_ERKENNUNG_CTRL+0x150>
 20047cc:	80200437 	lui	v0,0x4008
 20047d0:	04007423 	sb	zero,29(v0)
 20047d4:	04a63423 	sb	a1,13(a0)
 20047d8:	004000eb 	ret

020047dc <t2_taskA3_FH_DU>:
 20047dc:	73be2013 	add	sp,sp,-120
 20047e0:	0385c123 	sw	s0,112(sp)
 20047e4:	10200437 	lui	s0,0x4008
 20047e8:	0387b123 	sw	s1,108(sp)
 20047ec:	0389a123 	sw	s2,104(sp)
 20047f0:	038b9123 	sw	s3,100(sp)
 20047f4:	038d8123 	sw	s4,96(sp)
 20047f8:	038f7123 	sw	s5,92(sp)
 20047fc:	03916123 	sw	s6,88(sp)
 2004800:	03935123 	sw	s7,84(sp)
 2004804:	03954123 	sw	s8,80(sp)
 2004808:	03973123 	sw	s9,76(sp)
 200480c:	03992123 	sw	s10,72(sp)
 2004810:	039b1123 	sw	s11,68(sp)
 2004814:	0383d123 	sw	ra,116(sp)
 2004818:	10831013 	add	s0,s0,196
 200481c:	88000413 	li	v1,1
 2004820:	80200437 	lui	v0,0x4008
 2004824:	04228123 	sw	v1,32(v0)
 2004828:	a8804003 	lb	a3,16(s0)
 200482c:	88802803 	lb	v1,10(s0)
 2004830:	b0804c03 	lb	a4,19(s0)
 2004834:	b8803403 	lb	a5,13(s0)
 2004838:	80200437 	lui	v0,0x4008
 200483c:	c0200437 	lui	a6,0x4008
 2004840:	c8200437 	lui	a7,0x4008
 2004844:	04007023 	sb	zero,28(v0)
 2004848:	03a2a123 	sw	v1,40(sp)
 200484c:	8600d803 	lb	v0,54(a6)
 2004850:	03aac123 	sw	a3,48(sp)
 2004854:	03acd123 	sw	a4,52(sp)
 2004858:	03aeb123 	sw	a5,44(sp)
 200485c:	c640d003 	lb	a6,52(a7)
 2004860:	58200437 	lui	s9,0x4008
 2004864:	60200437 	lui	s10,0x4008
 2004868:	20200437 	lui	s2,0x4008
 200486c:	e0200437 	lui	a10,0x4008
 2004870:	18200437 	lui	s1,0x4008
 2004874:	50200437 	lui	s8,0x4008
 2004878:	48200437 	lui	s7,0x4008
 200487c:	40200437 	lui	s6,0x4008
 2004880:	38200437 	lui	s5,0x4008
 2004884:	30200437 	lui	s4,0x4008
 2004888:	28200437 	lui	s3,0x4008
 200488c:	a0200437 	lui	a2,0x4008
 2004890:	98200437 	lui	a1,0x4008
 2004894:	90200437 	lui	a0,0x4008
 2004898:	88200437 	lui	v1,0x4008
 200489c:	68200437 	lui	s11,0x4008
 20048a0:	00016e67 	j	2004e58 <t2_taskA3_FH_DU+0x67c>
 20048a4:	b0000c13 	li	a4,3
 20048a8:	356c2063 	beq	a3,a4,2004eb8 <t2_taskA3_FH_DU+0x6dc>
 20048ac:	b0000413 	li	a4,1
 20048b0:	356c7863 	beq	a3,a4,2004eec <t2_taskA3_FH_DU+0x710>
 20048b4:	f8200437 	lui	a13,0x4008
 20048b8:	a8200437 	lui	a3,0x4008
 20048bc:	b8000813 	li	a5,2
 20048c0:	b0200437 	lui	a4,0x4008
 20048c4:	07c07423 	sb	zero,29(a13)
 20048c8:	0d402123 	sw	zero,136(a3)
 20048cc:	05ae3c23 	sb	a5,15(a4)
 20048d0:	cb80a103 	lw	a7,40(sp)
 20048d4:	064020e3 	bnez	a7,20048e4 <t2_taskA3_FH_DU+0x108>
 20048d8:	a8000c13 	li	a3,3
 20048dc:	d0200437 	lui	a8,0x4008
 20048e0:	06aa6023 	sb	a3,24(a8)
 20048e4:	db80c103 	lw	a9,48(sp)
 20048e8:	06c020e3 	bnez	a9,20048f8 <t2_taskA3_FH_DU+0x11c>
 20048ec:	b0000413 	li	a4,1
 20048f0:	a8200437 	lui	a3,0x4008
 20048f4:	056c3823 	sb	a4,14(a3)
 20048f8:	eb80d103 	lw	a11,52(sp)
 20048fc:	074030e3 	bnez	a11,2004914 <t2_taskA3_FH_DU+0x138>
 2004900:	a8200437 	lui	a3,0x4008
 2004904:	0d411023 	sb	zero,196(a3)
 2004908:	b0000413 	li	a4,1
 200490c:	a8200437 	lui	a3,0x4008
 2004910:	056c3023 	sb	a4,12(a3)
 2004914:	f380b103 	lw	a12,44(sp)
 2004918:	078070e3 	bnez	a12,2004950 <t2_taskA3_FH_DU+0x174>
 200491c:	b0000813 	li	a4,2
 2004920:	f8200437 	lui	a13,0x4008
 2004924:	a8000413 	li	a3,1
 2004928:	07ec5c23 	sb	a4,23(a13)
 200492c:	b0200437 	lui	a4,0x4008
 2004930:	b8200437 	lui	a5,0x4008
 2004934:	05aa5823 	sb	a3,22(a4)
 2004938:	b0200437 	lui	a4,0x4008
 200493c:	00801023 	sb	zero,4(s0)
 2004940:	00801823 	sb	zero,6(s0)
 2004944:	0dc0a123 	sw	zero,168(a5)
 2004948:	00aa1423 	sb	a3,5(s0)
 200494c:	05aa5423 	sb	a3,21(a4)
 2004950:	a8000413 	li	a3,1
 2004954:	00aa2c23 	sb	a3,11(s0)
 2004958:	00aa4423 	sb	a3,17(s0)
 200495c:	00aa5023 	sb	a3,20(s0)
 2004960:	00aa3823 	sb	a3,14(s0)
 2004964:	04302863 	beq	v0,a6,2004978 <t2_taskA3_FH_DU+0x19c>
 2004968:	a8200437 	lui	a3,0x4008
 200496c:	ad40b403 	lb	a3,45(a3)
 2004970:	054010e3 	bnez	a3,2004978 <t2_taskA3_FH_DU+0x19c>
 2004974:	0120f823 	sb	v0,62(s2)
 2004978:	c0200437 	lui	a6,0x4008
 200497c:	c8200437 	lui	a7,0x4008
 2004980:	8600cc03 	lb	v0,51(a6)
 2004984:	ae40c803 	lb	a3,50(a7)
 2004988:	05603063 	beq	a3,v0,20049a0 <t2_taskA3_FH_DU+0x1c4>
 200498c:	a8200437 	lui	a3,0x4008
 2004990:	ad40b403 	lb	a3,45(a3)
 2004994:	05401863 	beqz	a3,20049a0 <t2_taskA3_FH_DU+0x1c4>
 2004998:	d0200437 	lui	a8,0x4008
 200499c:	06a0d823 	sb	v0,54(a8)
 20049a0:	d8200437 	lui	a9,0x4008
 20049a4:	8700e403 	lb	v0,57(a10)
 20049a8:	aec0dc03 	lb	a3,55(a9)
 20049ac:	05602863 	beq	a3,v0,20049c0 <t2_taskA3_FH_DU+0x1e4>
 20049b0:	a8200437 	lui	a3,0x4008
 20049b4:	ad40b403 	lb	a3,45(a3)
 20049b8:	054010e3 	bnez	a3,20049c0 <t2_taskA3_FH_DU+0x1e4>
 20049bc:	00e0f423 	sb	v0,61(s1)
 20049c0:	e8200437 	lui	a11,0x4008
 20049c4:	f0200437 	lui	a12,0x4008
 20049c8:	8740c403 	lb	v0,49(a11)
 20049cc:	af80c003 	lb	a3,48(a12)
 20049d0:	05602863 	beq	a3,v0,20049e4 <t2_taskA3_FH_DU+0x208>
 20049d4:	a8200437 	lui	a3,0x4008
 20049d8:	ad40b403 	lb	a3,45(a3)
 20049dc:	05401063 	beqz	a3,20049e4 <t2_taskA3_FH_DU+0x208>
 20049e0:	0720e423 	sb	v0,57(a10)
 20049e4:	d8803203 	lbu	a9,12(s0)
 20049e8:	d0803e03 	lbu	a8,15(s0)
 20049ec:	c8804a03 	lbu	a7,18(s0)
 20049f0:	c0805603 	lbu	a6,21(s0)
 20049f4:	ba40ba03 	lbu	a5,46(s7)
 20049f8:	b0c0f603 	lbu	a4,61(s1)
 20049fc:	a980be03 	lbu	a3,47(s4)
 2004a00:	8100fa03 	lbu	v0,62(s2)
 2004a04:	00b62823 	sb	a9,10(s0)
 2004a08:	00b43423 	sb	a8,13(s0)
 2004a0c:	00b24023 	sb	a7,16(s0)
 2004a10:	00b04c23 	sb	a6,19(s0)
 2004a14:	02af5823 	sb	a5,86(s8)
 2004a18:	03b86123 	sw	a10,24(sp)
 2004a1c:	022d6023 	sb	a4,88(s6)
 2004a20:	01eb6823 	sb	a3,90(s5)
 2004a24:	01617023 	sb	v0,92(s3)
 2004a28:	03a25123 	sw	v1,20(sp)
 2004a2c:	03a48123 	sw	a0,32(sp)
 2004a30:	03a64123 	sw	a1,16(sp)
 2004a34:	03a87123 	sw	a2,28(sp)
 2004a38:	fffbe46f 	jal	20039c8 <t2_taskA3_generic_KINDERSICHERUNG_CTRL>
 2004a3c:	a3807103 	lw	a2,28(sp)
 2004a40:	9b804103 	lw	a1,16(sp)
 2004a44:	f8200437 	lui	a13,0x4008
 2004a48:	80200437 	lui	v0,0x4008
 2004a4c:	0fc11a03 	lbu	ra,70(a13)
 2004a50:	93808103 	lw	a0,32(sp)
 2004a54:	fc012603 	lbu	a13,73(v0)
 2004a58:	8b805103 	lw	v1,20(sp)
 2004a5c:	f5024103 	lw	a12,144(a2)
 2004a60:	a8200437 	lui	a3,0x4008
 2004a64:	ed410e03 	lbu	a11,67(a3)
 2004a68:	dcc25103 	lw	a9,148(a1)
 2004a6c:	d4814203 	lbu	a8,80(a0)
 2004a70:	ac415203 	lbu	a3,84(v1)
 2004a74:	ca815a03 	lbu	a7,86(s8)
 2004a78:	c2016203 	lbu	a6,88(s6)
 2004a7c:	b9c16a03 	lbu	a5,90(s5)
 2004a80:	b1417203 	lbu	a4,92(s3)
 2004a84:	83414e03 	lbu	v0,83(s11)
 2004a88:	02fea423 	sb	a13,41(s9)
 2004a8c:	f8200437 	lui	a13,0x4008
 2004a90:	07fdf123 	sw	a12,124(a13)
 2004a94:	f8200437 	lui	a13,0x4008
 2004a98:	f0200437 	lui	a12,0x4008
 2004a9c:	07baec23 	sb	a11,59(a12)
 2004aa0:	0ff60123 	sw	a9,128(a13)
 2004aa4:	e8200437 	lui	a11,0x4008
 2004aa8:	d8200437 	lui	a9,0x4008
 2004aac:	f0200437 	lui	a12,0x4008
 2004ab0:	06f4f023 	sb	a8,60(a9)
 2004ab4:	076afc23 	sb	a3,63(a11)
 2004ab8:	07a0b023 	sb	v0,44(a12)
 2004abc:	03029823 	sb	ra,38(s10)
 2004ac0:	0272b823 	sb	a7,46(s7)
 2004ac4:	00f0f423 	sb	a6,61(s1)
 2004ac8:	01aebc23 	sb	a5,47(s4)
 2004acc:	012cf823 	sb	a4,62(s2)
 2004ad0:	fffc986f 	jal	2003d30 <t2_taskA3_generic_FH_TUERMODUL_CTRL>
 2004ad4:	a3807103 	lw	a2,28(sp)
 2004ad8:	9b804103 	lw	a1,16(sp)
 2004adc:	f8200437 	lui	a13,0x4008
 2004ae0:	80200437 	lui	v0,0x4008
 2004ae4:	0fc11a03 	lbu	ra,70(a13)
 2004ae8:	93808103 	lw	a0,32(sp)
 2004aec:	fc012603 	lbu	a13,73(v0)
 2004af0:	8b805103 	lw	v1,20(sp)
 2004af4:	f5024103 	lw	a12,144(a2)
 2004af8:	a8200437 	lui	a3,0x4008
 2004afc:	ed410e03 	lbu	a11,67(a3)
 2004b00:	dcc25103 	lw	a9,148(a1)
 2004b04:	d4814203 	lbu	a8,80(a0)
 2004b08:	ac415203 	lbu	a3,84(v1)
 2004b0c:	ca815a03 	lbu	a7,86(s8)
 2004b10:	c2016203 	lbu	a6,88(s6)
 2004b14:	b9c16a03 	lbu	a5,90(s5)
 2004b18:	b1417203 	lbu	a4,92(s3)
 2004b1c:	83414e03 	lbu	v0,83(s11)
 2004b20:	02fea423 	sb	a13,41(s9)
 2004b24:	f8200437 	lui	a13,0x4008
 2004b28:	07fdf123 	sw	a12,124(a13)
 2004b2c:	f8200437 	lui	a13,0x4008
 2004b30:	f0200437 	lui	a12,0x4008
 2004b34:	07baec23 	sb	a11,59(a12)
 2004b38:	0ff60123 	sw	a9,128(a13)
 2004b3c:	e8200437 	lui	a11,0x4008
 2004b40:	d8200437 	lui	a9,0x4008
 2004b44:	f0200437 	lui	a12,0x4008
 2004b48:	06f4f023 	sb	a8,60(a9)
 2004b4c:	076afc23 	sb	a3,63(a11)
 2004b50:	07a0b023 	sb	v0,44(a12)
 2004b54:	03029823 	sb	ra,38(s10)
 2004b58:	0272b823 	sb	a7,46(s7)
 2004b5c:	00f0f423 	sb	a6,61(s1)
 2004b60:	01aebc23 	sb	a5,47(s4)
 2004b64:	012cf823 	sb	a4,62(s2)
 2004b68:	fffe716f 	jal	200452c <t2_taskA3_generic_EINKLEMMSCHUTZ_CTRL>
 2004b6c:	a3807103 	lw	a2,28(sp)
 2004b70:	9b804103 	lw	a1,16(sp)
 2004b74:	f8200437 	lui	a13,0x4008
 2004b78:	80200437 	lui	v0,0x4008
 2004b7c:	0fc11a03 	lbu	ra,70(a13)
 2004b80:	93808103 	lw	a0,32(sp)
 2004b84:	fc012603 	lbu	a13,73(v0)
 2004b88:	8b805103 	lw	v1,20(sp)
 2004b8c:	f5024103 	lw	a12,144(a2)
 2004b90:	a8200437 	lui	a3,0x4008
 2004b94:	ed410e03 	lbu	a11,67(a3)
 2004b98:	dcc25103 	lw	a9,148(a1)
 2004b9c:	d4814203 	lbu	a8,80(a0)
 2004ba0:	ac415203 	lbu	a3,84(v1)
 2004ba4:	ca815a03 	lbu	a7,86(s8)
 2004ba8:	c2016203 	lbu	a6,88(s6)
 2004bac:	b9c16a03 	lbu	a5,90(s5)
 2004bb0:	b1417203 	lbu	a4,92(s3)
 2004bb4:	83414e03 	lbu	v0,83(s11)
 2004bb8:	02fea423 	sb	a13,41(s9)
 2004bbc:	f8200437 	lui	a13,0x4008
 2004bc0:	07fdf123 	sw	a12,124(a13)
 2004bc4:	f8200437 	lui	a13,0x4008
 2004bc8:	f0200437 	lui	a12,0x4008
 2004bcc:	07baec23 	sb	a11,59(a12)
 2004bd0:	0ff60123 	sw	a9,128(a13)
 2004bd4:	e8200437 	lui	a11,0x4008
 2004bd8:	d8200437 	lui	a9,0x4008
 2004bdc:	f0200437 	lui	a12,0x4008
 2004be0:	06f4f023 	sb	a8,60(a9)
 2004be4:	076afc23 	sb	a3,63(a11)
 2004be8:	07a0b023 	sb	v0,44(a12)
 2004bec:	0272b823 	sb	a7,46(s7)
 2004bf0:	00f0f423 	sb	a6,61(s1)
 2004bf4:	01aebc23 	sb	a5,47(s4)
 2004bf8:	012cf823 	sb	a4,62(s2)
 2004bfc:	03029823 	sb	ra,38(s10)
 2004c00:	fffe776f 	jal	20045dc <t2_taskA3_generic_BLOCK_ERKENNUNG_CTRL>
 2004c04:	d0803403 	lb	a8,13(s0)
 2004c08:	d8804003 	lb	a9,16(s0)
 2004c0c:	a3807103 	lw	a2,28(sp)
 2004c10:	c8802803 	lb	a7,10(s0)
 2004c14:	f8200437 	lui	a13,0x4008
 2004c18:	afc10c03 	lb	a3,67(a13)
 2004c1c:	b2815803 	lb	a4,86(s8)
 2004c20:	f8804c03 	lb	a13,19(s0)
 2004c24:	9b804103 	lw	a1,16(sp)
 2004c28:	85024103 	lw	v0,144(a2)
 2004c2c:	ba016003 	lb	a5,88(s6)
 2004c30:	93808103 	lw	a0,32(sp)
 2004c34:	03b4b123 	sw	a8,44(sp)
 2004c38:	03b6c123 	sw	a9,48(sp)
 2004c3c:	d0200437 	lui	a8,0x4008
 2004c40:	d8200437 	lui	a9,0x4008
 2004c44:	03b2a123 	sw	a7,40(sp)
 2004c48:	ce82a103 	lw	a7,168(a8)
 2004c4c:	d6c21103 	lw	a8,132(a9)
 2004c50:	d8200437 	lui	a9,0x4008
 2004c54:	03ace123 	sw	a4,56(sp)
 2004c58:	03bed123 	sw	a13,52(sp)
 2004c5c:	b4c25103 	lw	a4,148(a1)
 2004c60:	fec1b103 	lw	a13,108(a9)
 2004c64:	d8200437 	lui	a9,0x4008
 2004c68:	03ae3123 	sw	a5,12(sp)
 2004c6c:	06e1f123 	sw	v0,124(a9)
 2004c70:	bc814203 	lbu	a5,80(a0)
 2004c74:	d8200437 	lui	a9,0x4008
 2004c78:	06eaec23 	sb	a3,59(a9)
 2004c7c:	d8200437 	lui	a9,0x4008
 2004c80:	0eec0123 	sw	a4,128(a9)
 2004c84:	8b805103 	lw	v1,20(sp)
 2004c88:	b0200437 	lui	a4,0x4008
 2004c8c:	05aef023 	sb	a5,60(a4)
 2004c90:	db803103 	lw	a9,12(sp)
 2004c94:	bb80e103 	lw	a5,56(sp)
 2004c98:	c4415203 	lbu	a6,84(v1)
 2004c9c:	e9c16803 	lb	a11,90(s5)
 2004ca0:	f1417003 	lb	a12,92(s3)
 2004ca4:	026eb823 	sb	a5,46(s7)
 2004ca8:	00f6f423 	sb	a9,61(s1)
 2004cac:	bb80a103 	lw	a5,40(sp)
 2004cb0:	db80c103 	lw	a9,48(sp)
 2004cb4:	b0200437 	lui	a4,0x4008
 2004cb8:	05b0fc23 	sb	a6,63(a4)
 2004cbc:	c380b103 	lw	a6,44(sp)
 2004cc0:	00ae2c23 	sb	a5,11(s0)
 2004cc4:	b8200437 	lui	a5,0x4008
 2004cc8:	00b64423 	sb	a9,17(s0)
 2004ccc:	b380d103 	lw	a4,52(sp)
 2004cd0:	0df28123 	sw	a7,160(a5)
 2004cd4:	d8200437 	lui	a9,0x4008
 2004cd8:	c8200437 	lui	a7,0x4008
 2004cdc:	00b03823 	sb	a6,14(s0)
 2004ce0:	0e742123 	sw	a8,136(a7)
 2004ce4:	06ff9123 	sw	a13,100(a9)
 2004ce8:	c0200437 	lui	a6,0x4008
 2004cec:	d0200437 	lui	a8,0x4008
 2004cf0:	f8200437 	lui	a13,0x4008
 2004cf4:	dfc14803 	lb	a9,82(a13)
 2004cf8:	0e203123 	sw	v0,140(a6)
 2004cfc:	06a1e123 	sw	v0,120(a8)
 2004d00:	b8200437 	lui	a5,0x4008
 2004d04:	80200437 	lui	v0,0x4008
 2004d08:	f8200437 	lui	a13,0x4008
 2004d0c:	d4013803 	lb	a8,78(v0)
 2004d10:	c5c12003 	lb	a6,72(a5)
 2004d14:	00ac5023 	sb	a4,20(s0)
 2004d18:	bfc11403 	lb	a5,69(a13)
 2004d1c:	b0200437 	lui	a4,0x4008
 2004d20:	80200437 	lui	v0,0x4008
 2004d24:	f8200437 	lui	a13,0x4008
 2004d28:	cd812c03 	lb	a7,75(a4)
 2004d2c:	b400ac03 	lb	a4,43(v0)
 2004d30:	87c0d803 	lb	v0,54(a13)
 2004d34:	f8200437 	lui	a13,0x4008
 2004d38:	ffc0ce03 	lbu	a13,51(a13)
 2004d3c:	013cf823 	sb	a12,62(s2)
 2004d40:	01babc23 	sb	a11,47(s4)
 2004d44:	03be9c23 	sb	a13,39(sp)
 2004d48:	f8200437 	lui	a13,0x4008
 2004d4c:	ffc0c603 	lbu	a13,49(a13)
 2004d50:	e3806103 	lw	a10,24(sp)
 2004d54:	03be9823 	sb	a13,38(sp)
 2004d58:	f8200437 	lui	a13,0x4008
 2004d5c:	ffc0a003 	lb	a13,40(a13)
 2004d60:	03bef123 	sw	a13,60(sp)
 2004d64:	f8200437 	lui	a13,0x4008
 2004d68:	07fd6c23 	sb	a12,91(a13)
 2004d6c:	f0200437 	lui	a12,0x4008
 2004d70:	07bb6423 	sb	a11,89(a12)
 2004d74:	eb803103 	lw	a11,12(sp)
 2004d78:	f8200437 	lui	a13,0x4008
 2004d7c:	f0200437 	lui	a12,0x4008
 2004d80:	07fb5c23 	sb	a11,87(a13)
 2004d84:	fb80e103 	lw	a13,56(sp)
 2004d88:	e8200437 	lui	a11,0x4008
 2004d8c:	07774423 	sb	a9,81(a11)
 2004d90:	07bf5423 	sb	a13,85(a12)
 2004d94:	f0200437 	lui	a12,0x4008
 2004d98:	f8200437 	lui	a13,0x4008
 2004d9c:	07b53c23 	sb	a8,79(a12)
 2004da0:	07f53423 	sb	a8,77(a13)
 2004da4:	e8200437 	lui	a11,0x4008
 2004da8:	d0200437 	lui	a8,0x4008
 2004dac:	03774c23 	sb	a9,83(s11)
 2004db0:	d8200437 	lui	a9,0x4008
 2004db4:	06b33023 	sb	a7,76(a8)
 2004db8:	06f32823 	sb	a7,74(a9)
 2004dbc:	07712423 	sb	a6,73(a11)
 2004dc0:	c8200437 	lui	a7,0x4008
 2004dc4:	d0200437 	lui	a8,0x4008
 2004dc8:	ef00e603 	lbu	a11,57(a10)
 2004dcc:	f0200437 	lui	a12,0x4008
 2004dd0:	066b0823 	sb	a3,66(a7)
 2004dd4:	06aae823 	sb	a3,58(a8)
 2004dd8:	ab809e03 	lbu	a3,39(sp)
 2004ddc:	07b11c23 	sb	a6,71(a12)
 2004de0:	f8200437 	lui	a13,0x4008
 2004de4:	c0200437 	lui	a6,0x4008
 2004de8:	d8200437 	lui	a9,0x4008
 2004dec:	f0200437 	lui	a12,0x4008
 2004df0:	07ef1823 	sb	a5,70(a13)
 2004df4:	062f1023 	sb	a5,68(a6)
 2004df8:	06fadc23 	sb	a11,55(a9)
 2004dfc:	f8200437 	lui	a13,0x4008
 2004e00:	07a0d023 	sb	v0,52(a12)
 2004e04:	c3809a03 	lbu	a6,38(sp)
 2004e08:	c8200437 	lui	a7,0x4008
 2004e0c:	d0200437 	lui	a8,0x4008
 2004e10:	e8200437 	lui	a11,0x4008
 2004e14:	f0200437 	lui	a12,0x4008
 2004e18:	07eac823 	sb	a3,50(a13)
 2004e1c:	db80f103 	lw	a9,60(sp)
 2004e20:	af409403 	lb	a3,37(a11)
 2004e24:	066cb023 	sb	a4,44(a7)
 2004e28:	06aca823 	sb	a4,42(a8)
 2004e2c:	b7807403 	lb	a4,29(a12)
 2004e30:	b8200437 	lui	a5,0x4008
 2004e34:	05f0c023 	sb	a6,48(a5)
 2004e38:	f8200437 	lui	a13,0x4008
 2004e3c:	b8200437 	lui	a5,0x4008
 2004e40:	02f6a423 	sb	a9,41(s9)
 2004e44:	07f69c23 	sb	a9,39(a13)
 2004e48:	032a9823 	sb	a3,38(s10)
 2004e4c:	05ea9023 	sb	a3,36(a5)
 2004e50:	0d8000e3 	bnez	a4,2004f50 <t2_taskA3_FH_DU+0x774>
 2004e54:	c4000013 	move	a6,v0
 2004e58:	d0200437 	lui	a8,0x4008
 2004e5c:	be807203 	lbu	a5,28(a8)
 2004e60:	d8200437 	lui	a9,0x4008
 2004e64:	aec03c03 	lb	a3,15(a9)
 2004e68:	b0000413 	li	a4,1
 2004e6c:	bdc00413 	add	a5,a5,1
 2004e70:	e8200437 	lui	a11,0x4008
 2004e74:	f0000813 	li	a12,2
 2004e78:	076c7423 	sb	a4,29(a11)
 2004e7c:	06ae7023 	sb	a5,28(a8)
 2004e80:	d57c48e3 	bne	a3,a12,20048a4 <t2_taskA3_FH_DU+0xc8>
 2004e84:	aac0a403 	lb	a3,41(s9)
 2004e88:	05412063 	beqz	a3,2004f18 <t2_taskA3_FH_DU+0x73c>
 2004e8c:	d0200437 	lui	a8,0x4008
 2004e90:	ae809c03 	lb	a3,39(a8)
 2004e94:	054108e3 	bnez	a3,2004f18 <t2_taskA3_FH_DU+0x73c>
 2004e98:	d8200437 	lui	a9,0x4008
 2004e9c:	a83e7013 	li	a3,-100
 2004ea0:	e8200437 	lui	a11,0x4008
 2004ea4:	f0200437 	lui	a12,0x4008
 2004ea8:	06c07423 	sb	zero,29(a9)
 2004eac:	0f6a2123 	sw	a3,136(a11)
 2004eb0:	07ac3c23 	sb	a4,15(a12)
 2004eb4:	fffe8767 	j	20048d0 <t2_taskA3_FH_DU+0xf4>
 2004eb8:	ab009803 	lb	a3,38(s10)
 2004ebc:	d54028e3 	bnez	a3,20048d0 <t2_taskA3_FH_DU+0xf4>
 2004ec0:	c8200437 	lui	a7,0x4008
 2004ec4:	ae409003 	lb	a3,36(a7)
 2004ec8:	d5401063 	beqz	a3,20048d0 <t2_taskA3_FH_DU+0xf4>
 2004ecc:	d0200437 	lui	a8,0x4008
 2004ed0:	d8200437 	lui	a9,0x4008
 2004ed4:	f0000813 	li	a12,2
 2004ed8:	e8200437 	lui	a11,0x4008
 2004edc:	06807423 	sb	zero,29(a8)
 2004ee0:	0ec02123 	sw	zero,136(a9)
 2004ee4:	077c3c23 	sb	a12,15(a11)
 2004ee8:	fffe7a67 	j	20048d0 <t2_taskA3_FH_DU+0xf4>
 2004eec:	aac0a403 	lb	a3,41(s9)
 2004ef0:	cd41c0e3 	bnez	a3,20048d0 <t2_taskA3_FH_DU+0xf4>
 2004ef4:	f8200437 	lui	a13,0x4008
 2004ef8:	afc09c03 	lb	a3,39(a13)
 2004efc:	cd41a863 	beqz	a3,20048d0 <t2_taskA3_FH_DU+0xf4>
 2004f00:	b0200437 	lui	a4,0x4008
 2004f04:	c8000813 	li	a7,2
 2004f08:	07407423 	sb	zero,29(a11)
 2004f0c:	0d802123 	sw	zero,136(a4)
 2004f10:	06f23c23 	sb	a7,15(a9)
 2004f14:	fffe6f67 	j	20048d0 <t2_taskA3_FH_DU+0xf4>
 2004f18:	ab009803 	lb	a3,38(s10)
 2004f1c:	cd416863 	beqz	a3,20048d0 <t2_taskA3_FH_DU+0xf4>
 2004f20:	f8200437 	lui	a13,0x4008
 2004f24:	afc09003 	lb	a3,36(a13)
 2004f28:	cd4150e3 	bnez	a3,20048d0 <t2_taskA3_FH_DU+0xf4>
 2004f2c:	a8200437 	lui	a3,0x4008
 2004f30:	05407423 	sb	zero,29(a3)
 2004f34:	b0200437 	lui	a4,0x4008
 2004f38:	a8019013 	li	a3,100
 2004f3c:	0daa2123 	sw	a3,136(a4)
 2004f40:	b8200437 	lui	a5,0x4008
 2004f44:	a8000c13 	li	a3,3
 2004f48:	05ea3c23 	sb	a3,15(a5)
 2004f4c:	fffe6167 	j	20048d0 <t2_taskA3_FH_DU+0xf4>
 2004f50:	0b81d103 	lw	ra,116(sp)
 2004f54:	1381c103 	lw	s0,112(sp)
 2004f58:	1b81b103 	lw	s1,108(sp)
 2004f5c:	2381a103 	lw	s2,104(sp)
 2004f60:	2b819103 	lw	s3,100(sp)
 2004f64:	33818103 	lw	s4,96(sp)
 2004f68:	3b817103 	lw	s5,92(sp)
 2004f6c:	43816103 	lw	s6,88(sp)
 2004f70:	4b815103 	lw	s7,84(sp)
 2004f74:	53814103 	lw	s8,80(sp)
 2004f78:	5b813103 	lw	s9,76(sp)
 2004f7c:	63812103 	lw	s10,72(sp)
 2004f80:	6b811103 	lw	s11,68(sp)
 2004f84:	7381e013 	add	sp,sp,120
 2004f88:	004000eb 	ret

02004f8c <t2_taskA3_main>:
 2004f8c:	73bfe013 	add	sp,sp,-8
 2004f90:	03840123 	sw	s0,0(sp)
 2004f94:	03821123 	sw	ra,4(sp)
 2004f98:	10030013 	li	s0,192
 2004f9c:	10bffc13 	add	s0,s0,-1
 2004fa0:	fffa636f 	jal	200392c <t2_taskA3_init>
 2004fa4:	fffa006f 	jal	20037a4 <t2_taskA3_interface>
 2004fa8:	fffe0d6f 	jal	20047dc <t2_taskA3_FH_DU>
 2004fac:	f881e0e3 	bnez	s0,2004f9c <t2_taskA3_main+0x10>
 2004fb0:	0b801103 	lw	ra,4(sp)
 2004fb4:	80000013 	li	v0,0
 2004fb8:	13800103 	lw	s0,0(sp)
 2004fbc:	73802013 	add	sp,sp,8
 2004fc0:	004000eb 	ret

02004fc4 <t3_exception_proxy>:
 2004fc4:	73bfe013 	add	sp,sp,-8
 2004fc8:	03821123 	sw	ra,4(sp)
 2004fcc:	7840017b 	mfpcr	tp,cr1
 2004fd0:	73bef013 	add	sp,sp,-68
 2004fd4:	039e1123 	sw	tp,4(sp)
 2004fd8:	03a02123 	sw	v0,8(sp)
 2004fdc:	03a23123 	sw	v1,12(sp)
 2004fe0:	03a44123 	sw	a0,16(sp)
 2004fe4:	03a65123 	sw	a1,20(sp)
 2004fe8:	03a86123 	sw	a2,24(sp)
 2004fec:	03aa7123 	sw	a3,28(sp)
 2004ff0:	03ac8123 	sw	a4,32(sp)
 2004ff4:	03ae9123 	sw	a5,36(sp)
 2004ff8:	03b0a123 	sw	a6,40(sp)
 2004ffc:	03b2b123 	sw	a7,44(sp)
 2005000:	03b4c123 	sw	a8,48(sp)
 2005004:	03b6d123 	sw	a9,52(sp)
 2005008:	03b8e123 	sw	a10,56(sp)
 200500c:	03baf123 	sw	a11,60(sp)
 2005010:	03bd0123 	sw	a12,64(sp)
 2005014:	03bf1123 	sw	a13,68(sp)
 2005018:	80200637 	lui	v0,0x400c
 200501c:	84002103 	lw	v0,8(v0)
 2005020:	0c00006b 	jalr	v0
 2005024:	7b801103 	lw	tp,4(sp)
 2005028:	83802103 	lw	v0,8(sp)
 200502c:	8b803103 	lw	v1,12(sp)
 2005030:	93804103 	lw	a0,16(sp)
 2005034:	9b805103 	lw	a1,20(sp)
 2005038:	a3806103 	lw	a2,24(sp)
 200503c:	ab807103 	lw	a3,28(sp)
 2005040:	b3808103 	lw	a4,32(sp)
 2005044:	bb809103 	lw	a5,36(sp)
 2005048:	c380a103 	lw	a6,40(sp)
 200504c:	cb80b103 	lw	a7,44(sp)
 2005050:	d380c103 	lw	a8,48(sp)
 2005054:	db80d103 	lw	a9,52(sp)
 2005058:	e380e103 	lw	a10,56(sp)
 200505c:	eb80f103 	lw	a11,60(sp)
 2005060:	f3810103 	lw	a12,64(sp)
 2005064:	fb811103 	lw	a13,68(sp)
 2005068:	73811013 	add	sp,sp,68
 200506c:	0b801103 	lw	ra,4(sp)
 2005070:	73802013 	add	sp,sp,8
 2005074:	03c0016b 	jr	tp
 2005078:	0b801103 	lw	ra,4(sp)
 200507c:	73802013 	add	sp,sp,8
 2005080:	004000eb 	ret

02005084 <t3_main>:
 2005084:	73bf6013 	add	sp,sp,-40
 2005088:	03886123 	sw	s2,24(sp)
 200508c:	20000c37 	lui	s2,0x18
 2005090:	03829123 	sw	ra,36(sp)
 2005094:	03848123 	sw	s0,32(sp)
 2005098:	03867123 	sw	s1,28(sp)
 200509c:	038a5123 	sw	s3,20(sp)
 20050a0:	038c4123 	sw	s4,16(sp)
 20050a4:	038e3123 	sw	s5,12(sp)
 20050a8:	03902123 	sw	s6,8(sp)
 20050ac:	03921123 	sw	s7,4(sp)
 20050b0:	211a8013 	add	s2,s2,1696
 20050b4:	80000013 	li	v0,0
 20050b8:	1c000013 	move	s1,v0
 20050bc:	11000013 	move	s0,s2
 20050c0:	00c4015b 	0xc4015b
 20050c4:	42c00037 	lui	s6,0x58000
 20050c8:	305f5e37 	lui	s4,0xbebc
 20050cc:	4a001013 	add	s7,s6,4
 20050d0:	28000013 	li	s3,0
 20050d4:	3c000037 	lui	s5,0x80000
 20050d8:	42003813 	add	s6,s6,14
 20050dc:	31880013 	add	s4,s4,512
 20050e0:	879201fb 	mtpcr	v0,s7,cr30
 20050e4:	1000005b 	0x1000005b
 20050e8:	80800013 	move	v0,s0
 20050ec:	840e0333 	or	v0,v0,s5
 20050f0:	87a001fb 	mtpcr	v0,v0,cr30
 20050f4:	0006076f 	jal	2006910 <t3_taskA4_main>
 20050f8:	879001fb 	mtpcr	v0,s6,cr30
 20050fc:	1000005b 	0x1000005b
 2005100:	80800013 	move	v0,s0
 2005104:	840e0333 	or	v0,v0,s5
 2005108:	87a001fb 	mtpcr	v0,v0,cr30
 200510c:	210c0033 	add	s2,s2,s4
 2005110:	810c01b3 	sltu	v0,s2,s4
 2005114:	29600033 	add	s3,s3,v0
 2005118:	19400013 	move	s1,s3
 200511c:	11000013 	move	s0,s2
 2005120:	00c4015b 	0xc4015b
 2005124:	ffffef67 	j	20050e0 <t3_main+0x5c>

02005128 <t3_taskA4_interface>:
 2005128:	80200637 	lui	v0,0x400c
 200512c:	8c031013 	add	v1,v0,196
 2005130:	94401003 	lb	a0,4(v1)
 2005134:	0c805063 	beqz	a0,200525c <t3_taskA4_interface+0x134>
 2005138:	88200637 	lui	v1,0x400c
 200513c:	8c408103 	lw	v1,32(v1)
 2005140:	90200637 	lui	a0,0x400c
 2005144:	0ca2e123 	sw	v1,184(a0)
 2005148:	90200637 	lui	a0,0x400c
 200514c:	0ca2f123 	sw	v1,188(a0)
 2005150:	90200637 	lui	a0,0x400c
 2005154:	8c82d103 	lw	v1,180(a0)
 2005158:	04404863 	beqz	v1,200517c <t3_taskA4_interface+0x54>
 200515c:	98200637 	lui	a1,0x400c
 2005160:	9cc08103 	lw	a1,32(a1)
 2005164:	8ce30033 	sub	v1,a1,v1
 2005168:	8c40f0d3 	fcvt.d.wu	fv1,v1
 200516c:	88200037 	lui	v1,0x4000
 2005170:	84400187 	fld	fv0,0(v1)
 2005174:	8c2370d3 	fle.d	v1,fv0,fv1
 2005178:	0c4050e3 	bnez	v1,20052a0 <t3_taskA4_interface+0x178>
 200517c:	90200637 	lui	a0,0x400c
 2005180:	8c82c103 	lw	v1,176(a0)
 2005184:	04404863 	beqz	v1,20051a8 <t3_taskA4_interface+0x80>
 2005188:	98200637 	lui	a1,0x400c
 200518c:	9cc08103 	lw	a1,32(a1)
 2005190:	8ce30033 	sub	v1,a1,v1
 2005194:	8c40f0d3 	fcvt.d.wu	fv1,v1
 2005198:	88200037 	lui	v1,0x4000
 200519c:	84400187 	fld	fv0,0(v1)
 20051a0:	8c2370d3 	fle.d	v1,fv0,fv1
 20051a4:	0441d8e3 	bnez	v1,2005290 <t3_taskA4_interface+0x168>
 20051a8:	90200637 	lui	a0,0x400c
 20051ac:	8c82b103 	lw	v1,172(a0)
 20051b0:	04404863 	beqz	v1,20051d4 <t3_taskA4_interface+0xac>
 20051b4:	98200637 	lui	a1,0x400c
 20051b8:	9cc08103 	lw	a1,32(a1)
 20051bc:	8ce30033 	sub	v1,a1,v1
 20051c0:	8c40f0d3 	fcvt.d.wu	fv1,v1
 20051c4:	88200037 	lui	v1,0x4000
 20051c8:	84400187 	fld	fv0,0(v1)
 20051cc:	8c2370d3 	fle.d	v1,fv0,fv1
 20051d0:	044160e3 	bnez	v1,2005280 <t3_taskA4_interface+0x158>
 20051d4:	90200637 	lui	a0,0x400c
 20051d8:	8c827103 	lw	v1,156(a0)
 20051dc:	04404863 	beqz	v1,2005200 <t3_taskA4_interface+0xd8>
 20051e0:	98200637 	lui	a1,0x400c
 20051e4:	9cc08103 	lw	a1,32(a1)
 20051e8:	8ce30033 	sub	v1,a1,v1
 20051ec:	8c40f0d3 	fcvt.d.wu	fv1,v1
 20051f0:	88200037 	lui	v1,0x4000
 20051f4:	84400187 	fld	fv0,0(v1)
 20051f8:	8c2370d3 	fle.d	v1,fv0,fv1
 20051fc:	0440f8e3 	bnez	v1,2005278 <t3_taskA4_interface+0x150>
 2005200:	90200637 	lui	a0,0x400c
 2005204:	8c826103 	lw	v1,152(a0)
 2005208:	04404863 	beqz	v1,200522c <t3_taskA4_interface+0x104>
 200520c:	98200637 	lui	a1,0x400c
 2005210:	9cc08103 	lw	a1,32(a1)
 2005214:	8ce30033 	sub	v1,a1,v1
 2005218:	8c40f0d3 	fcvt.d.wu	fv1,v1
 200521c:	88200037 	lui	v1,0x4000
 2005220:	84400187 	fld	fv0,0(v1)
 2005224:	8c2370d3 	fle.d	v1,fv0,fv1
 2005228:	044090e3 	bnez	v1,2005270 <t3_taskA4_interface+0x148>
 200522c:	84031003 	lb	v0,196(v0)
 2005230:	040030e3 	bnez	v0,2005248 <t3_taskA4_interface+0x120>
 2005234:	80200637 	lui	v0,0x400c
 2005238:	8c01b103 	lw	v1,108(v0)
 200523c:	80200637 	lui	v0,0x400c
 2005240:	84019103 	lw	v0,100(v0)
 2005244:	04602863 	beq	v1,v0,2005258 <t3_taskA4_interface+0x130>
 2005248:	80200637 	lui	v0,0x400c
 200524c:	8c008103 	lw	v1,32(v0)
 2005250:	80200637 	lui	v0,0x400c
 2005254:	0c230123 	sw	v1,192(v0)
 2005258:	004000eb 	ret
 200525c:	8c401803 	lb	v1,6(v1)
 2005260:	f441e063 	beqz	v1,2005150 <t3_taskA4_interface+0x28>
 2005264:	88200637 	lui	v1,0x400c
 2005268:	8c408103 	lw	v1,32(v1)
 200526c:	ffffb767 	j	2005148 <t3_taskA4_interface+0x20>
 2005270:	0c806123 	sw	zero,152(a0)
 2005274:	ffffee67 	j	200522c <t3_taskA4_interface+0x104>
 2005278:	0c807123 	sw	zero,156(a0)
 200527c:	ffffe167 	j	2005200 <t3_taskA4_interface+0xd8>
 2005280:	88200637 	lui	v1,0x400c
 2005284:	04412023 	sb	zero,72(v1)
 2005288:	0c80b123 	sw	zero,172(a0)
 200528c:	ffffd267 	j	20051d4 <t3_taskA4_interface+0xac>
 2005290:	88200637 	lui	v1,0x400c
 2005294:	04412023 	sb	zero,72(v1)
 2005298:	0c80c123 	sw	zero,176(a0)
 200529c:	ffffc367 	j	20051a8 <t3_taskA4_interface+0x80>
 20052a0:	88200637 	lui	v1,0x400c
 20052a4:	04411423 	sb	zero,69(v1)
 20052a8:	0c80d123 	sw	zero,180(a0)
 20052ac:	ffffb467 	j	200517c <t3_taskA4_interface+0x54>

020052b0 <t3_taskA4_init>:
 20052b0:	80200637 	lui	v0,0x400c
 20052b4:	0c010123 	sw	zero,192(v0)
 20052b8:	80200637 	lui	v0,0x400c
 20052bc:	0c00f123 	sw	zero,188(v0)
 20052c0:	80200637 	lui	v0,0x400c
 20052c4:	0c00e123 	sw	zero,184(v0)
 20052c8:	80200637 	lui	v0,0x400c
 20052cc:	04006c23 	sb	zero,27(v0)
 20052d0:	80200637 	lui	v0,0x400c
 20052d4:	04006823 	sb	zero,26(v0)
 20052d8:	80200637 	lui	v0,0x400c
 20052dc:	04006423 	sb	zero,25(v0)
 20052e0:	80200637 	lui	v0,0x400c
 20052e4:	04006023 	sb	zero,24(v0)
 20052e8:	80200637 	lui	v0,0x400c
 20052ec:	04005c23 	sb	zero,23(v0)
 20052f0:	80200637 	lui	v0,0x400c
 20052f4:	04005823 	sb	zero,22(v0)
 20052f8:	80200637 	lui	v0,0x400c
 20052fc:	04005423 	sb	zero,21(v0)
 2005300:	80200637 	lui	v0,0x400c
 2005304:	04005023 	sb	zero,20(v0)
 2005308:	80200637 	lui	v0,0x400c
 200530c:	04004c23 	sb	zero,19(v0)
 2005310:	80200637 	lui	v0,0x400c
 2005314:	04004823 	sb	zero,18(v0)
 2005318:	80200637 	lui	v0,0x400c
 200531c:	04004423 	sb	zero,17(v0)
 2005320:	80200637 	lui	v0,0x400c
 2005324:	04004023 	sb	zero,16(v0)
 2005328:	80200637 	lui	v0,0x400c
 200532c:	04003c23 	sb	zero,15(v0)
 2005330:	80200637 	lui	v0,0x400c
 2005334:	04003823 	sb	zero,14(v0)
 2005338:	80200637 	lui	v0,0x400c
 200533c:	04003423 	sb	zero,13(v0)
 2005340:	80200637 	lui	v0,0x400c
 2005344:	04003023 	sb	zero,12(v0)
 2005348:	004000eb 	ret

0200534c <t3_taskA4_generic_KINDERSICHERUNG_CTRL>:
 200534c:	80200637 	lui	v0,0x400c
 2005350:	84033803 	lb	v0,206(v0)
 2005354:	04006063 	beqz	v0,2005384 <t3_taskA4_generic_KINDERSICHERUNG_CTRL+0x38>
 2005358:	88200637 	lui	v1,0x400c
 200535c:	84406003 	lb	v0,24(v1)
 2005360:	90000813 	li	a0,2
 2005364:	04244863 	beq	v0,a0,2005388 <t3_taskA4_generic_KINDERSICHERUNG_CTRL+0x3c>
 2005368:	98000c13 	li	a1,3
 200536c:	0427a863 	beq	v0,a1,2005440 <t3_taskA4_generic_KINDERSICHERUNG_CTRL+0xf4>
 2005370:	90000413 	li	a0,1
 2005374:	04249063 	beq	v0,a0,20053bc <t3_taskA4_generic_KINDERSICHERUNG_CTRL+0x70>
 2005378:	80200637 	lui	v0,0x400c
 200537c:	04007423 	sb	zero,29(v0)
 2005380:	04666023 	sb	a1,24(v1)
 2005384:	004000eb 	ret
 2005388:	80200637 	lui	v0,0x400c
 200538c:	84015803 	lb	v0,86(v0)
 2005390:	040020e3 	bnez	v0,20053a0 <t3_taskA4_generic_KINDERSICHERUNG_CTRL+0x54>
 2005394:	90200637 	lui	a0,0x400c
 2005398:	94816803 	lb	a0,90(a0)
 200539c:	1480d863 	beqz	a0,2005608 <t3_taskA4_generic_KINDERSICHERUNG_CTRL+0x2bc>
 20053a0:	88200637 	lui	v1,0x400c
 20053a4:	94406403 	lb	a0,25(v1)
 20053a8:	98000413 	li	a1,1
 20053ac:	0ca61863 	beq	a0,a1,20054b8 <t3_taskA4_generic_KINDERSICHERUNG_CTRL+0x16c>
 20053b0:	80200637 	lui	v0,0x400c
 20053b4:	04007423 	sb	zero,29(v0)
 20053b8:	004000eb 	ret
 20053bc:	80200637 	lui	v0,0x400c
 20053c0:	84016003 	lb	v0,88(v0)
 20053c4:	040020e3 	bnez	v0,20053d4 <t3_taskA4_generic_KINDERSICHERUNG_CTRL+0x88>
 20053c8:	90200637 	lui	a0,0x400c
 20053cc:	94817003 	lb	a0,92(a0)
 20053d0:	14802063 	beqz	a0,20055e0 <t3_taskA4_generic_KINDERSICHERUNG_CTRL+0x294>
 20053d4:	88200637 	lui	v1,0x400c
 20053d8:	94406803 	lb	a0,26(v1)
 20053dc:	98000413 	li	a1,1
 20053e0:	fca7a0e3 	bne	a0,a1,20053b0 <t3_taskA4_generic_KINDERSICHERUNG_CTRL+0x64>
 20053e4:	04005063 	beqz	v0,200540c <t3_taskA4_generic_KINDERSICHERUNG_CTRL+0xc0>
 20053e8:	98200637 	lui	a1,0x400c
 20053ec:	9cc15c03 	lb	a1,87(a1)
 20053f0:	04c038e3 	bnez	a1,200540c <t3_taskA4_generic_KINDERSICHERUNG_CTRL+0xc0>
 20053f4:	80200637 	lui	v0,0x400c
 20053f8:	04007423 	sb	zero,29(v0)
 20053fc:	80200637 	lui	v0,0x400c
 2005400:	04252c23 	sb	a0,75(v0)
 2005404:	04646823 	sb	a0,26(v1)
 2005408:	004000eb 	ret
 200540c:	90200637 	lui	a0,0x400c
 2005410:	94817003 	lb	a0,92(a0)
 2005414:	0c80a863 	beqz	a0,2005568 <t3_taskA4_generic_KINDERSICHERUNG_CTRL+0x21c>
 2005418:	98200637 	lui	a1,0x400c
 200541c:	9cc16c03 	lb	a1,91(a1)
 2005420:	0cc090e3 	bnez	a1,2005568 <t3_taskA4_generic_KINDERSICHERUNG_CTRL+0x21c>
 2005424:	90200637 	lui	a0,0x400c
 2005428:	80000413 	li	v0,1
 200542c:	04807423 	sb	zero,29(a0)
 2005430:	90200637 	lui	a0,0x400c
 2005434:	04a13823 	sb	v0,78(a0)
 2005438:	04606823 	sb	v0,26(v1)
 200543c:	004000eb 	ret
 2005440:	80200637 	lui	v0,0x400c
 2005444:	84015003 	lb	v0,84(v0)
 2005448:	040070e3 	bnez	v0,2005480 <t3_taskA4_generic_KINDERSICHERUNG_CTRL+0x134>
 200544c:	98200637 	lui	a1,0x400c
 2005450:	9cc16803 	lb	a1,90(a1)
 2005454:	04c1d863 	beqz	a1,2005540 <t3_taskA4_generic_KINDERSICHERUNG_CTRL+0x1f4>
 2005458:	80200637 	lui	v0,0x400c
 200545c:	84015803 	lb	v0,86(v0)
 2005460:	140060e3 	bnez	v0,2005690 <t3_taskA4_generic_KINDERSICHERUNG_CTRL+0x344>
 2005464:	80200637 	lui	v0,0x400c
 2005468:	04007423 	sb	zero,29(v0)
 200546c:	98000413 	li	a1,1
 2005470:	80200637 	lui	v0,0x400c
 2005474:	04273823 	sb	a1,78(v0)
 2005478:	04646023 	sb	a0,24(v1)
 200547c:	004000eb 	ret
 2005480:	90200637 	lui	a0,0x400c
 2005484:	94817003 	lb	a0,92(a0)
 2005488:	048118e3 	bnez	a0,2005514 <t3_taskA4_generic_KINDERSICHERUNG_CTRL+0x1c8>
 200548c:	90200637 	lui	a0,0x400c
 2005490:	94816003 	lb	a0,88(a0)
 2005494:	f481e063 	beqz	a0,2005384 <t3_taskA4_generic_KINDERSICHERUNG_CTRL+0x38>
 2005498:	f401d8e3 	bnez	v0,2005384 <t3_taskA4_generic_KINDERSICHERUNG_CTRL+0x38>
 200549c:	90200637 	lui	a0,0x400c
 20054a0:	80000413 	li	v0,1
 20054a4:	04807423 	sb	zero,29(a0)
 20054a8:	90200637 	lui	a0,0x400c
 20054ac:	04a12c23 	sb	v0,75(a0)
 20054b0:	04606023 	sb	v0,24(v1)
 20054b4:	004000eb 	ret
 20054b8:	04005063 	beqz	v0,20054e0 <t3_taskA4_generic_KINDERSICHERUNG_CTRL+0x194>
 20054bc:	98200637 	lui	a1,0x400c
 20054c0:	9cc15403 	lb	a1,85(a1)
 20054c4:	04c038e3 	bnez	a1,20054e0 <t3_taskA4_generic_KINDERSICHERUNG_CTRL+0x194>
 20054c8:	80200637 	lui	v0,0x400c
 20054cc:	04007423 	sb	zero,29(v0)
 20054d0:	80200637 	lui	v0,0x400c
 20054d4:	04252c23 	sb	a0,75(v0)
 20054d8:	04646423 	sb	a0,25(v1)
 20054dc:	004000eb 	ret
 20054e0:	90200637 	lui	a0,0x400c
 20054e4:	94816803 	lb	a0,90(a0)
 20054e8:	04817863 	beqz	a0,20055a4 <t3_taskA4_generic_KINDERSICHERUNG_CTRL+0x258>
 20054ec:	98200637 	lui	a1,0x400c
 20054f0:	9cc16403 	lb	a1,89(a1)
 20054f4:	04c160e3 	bnez	a1,20055a4 <t3_taskA4_generic_KINDERSICHERUNG_CTRL+0x258>
 20054f8:	90200637 	lui	a0,0x400c
 20054fc:	80000413 	li	v0,1
 2005500:	04807423 	sb	zero,29(a0)
 2005504:	90200637 	lui	a0,0x400c
 2005508:	04a13823 	sb	v0,78(a0)
 200550c:	04606423 	sb	v0,25(v1)
 2005510:	004000eb 	ret
 2005514:	90200637 	lui	a0,0x400c
 2005518:	94816003 	lb	a0,88(a0)
 200551c:	0c8030e3 	bnez	a0,2005634 <t3_taskA4_generic_KINDERSICHERUNG_CTRL+0x2e8>
 2005520:	f400c8e3 	bnez	v0,2005384 <t3_taskA4_generic_KINDERSICHERUNG_CTRL+0x38>
 2005524:	90200637 	lui	a0,0x400c
 2005528:	80000413 	li	v0,1
 200552c:	04807423 	sb	zero,29(a0)
 2005530:	90200637 	lui	a0,0x400c
 2005534:	04a13823 	sb	v0,78(a0)
 2005538:	04606023 	sb	v0,24(v1)
 200553c:	004000eb 	ret
 2005540:	98200637 	lui	a1,0x400c
 2005544:	9cc15803 	lb	a1,86(a1)
 2005548:	fcc07063 	beqz	a1,2005480 <t3_taskA4_generic_KINDERSICHERUNG_CTRL+0x134>
 200554c:	80200637 	lui	v0,0x400c
 2005550:	04007423 	sb	zero,29(v0)
 2005554:	98000413 	li	a1,1
 2005558:	80200637 	lui	v0,0x400c
 200555c:	04272c23 	sb	a1,75(v0)
 2005560:	04646023 	sb	a0,24(v1)
 2005564:	004000eb 	ret
 2005568:	040020e3 	bnez	v0,2005578 <t3_taskA4_generic_KINDERSICHERUNG_CTRL+0x22c>
 200556c:	80200637 	lui	v0,0x400c
 2005570:	84015c03 	lb	v0,87(v0)
 2005574:	0401c8e3 	bnez	v0,2005658 <t3_taskA4_generic_KINDERSICHERUNG_CTRL+0x30c>
 2005578:	f48018e3 	bnez	a0,2005384 <t3_taskA4_generic_KINDERSICHERUNG_CTRL+0x38>
 200557c:	80200637 	lui	v0,0x400c
 2005580:	84016c03 	lb	v0,91(v0)
 2005584:	f4000063 	beqz	v0,2005384 <t3_taskA4_generic_KINDERSICHERUNG_CTRL+0x38>
 2005588:	80200637 	lui	v0,0x400c
 200558c:	04007423 	sb	zero,29(v0)
 2005590:	80200637 	lui	v0,0x400c
 2005594:	04013823 	sb	zero,78(v0)
 2005598:	80000413 	li	v0,1
 200559c:	04606823 	sb	v0,26(v1)
 20055a0:	004000eb 	ret
 20055a4:	040020e3 	bnez	v0,20055b4 <t3_taskA4_generic_KINDERSICHERUNG_CTRL+0x268>
 20055a8:	80200637 	lui	v0,0x400c
 20055ac:	84015403 	lb	v0,85(v0)
 20055b0:	040188e3 	bnez	v0,2005674 <t3_taskA4_generic_KINDERSICHERUNG_CTRL+0x328>
 20055b4:	ec81a0e3 	bnez	a0,2005384 <t3_taskA4_generic_KINDERSICHERUNG_CTRL+0x38>
 20055b8:	80200637 	lui	v0,0x400c
 20055bc:	84016403 	lb	v0,89(v0)
 20055c0:	ec018863 	beqz	v0,2005384 <t3_taskA4_generic_KINDERSICHERUNG_CTRL+0x38>
 20055c4:	80200637 	lui	v0,0x400c
 20055c8:	04007423 	sb	zero,29(v0)
 20055cc:	80200637 	lui	v0,0x400c
 20055d0:	04013823 	sb	zero,78(v0)
 20055d4:	80000413 	li	v0,1
 20055d8:	04606423 	sb	v0,25(v1)
 20055dc:	004000eb 	ret
 20055e0:	80200637 	lui	v0,0x400c
 20055e4:	04007423 	sb	zero,29(v0)
 20055e8:	80200637 	lui	v0,0x400c
 20055ec:	04013823 	sb	zero,78(v0)
 20055f0:	80200637 	lui	v0,0x400c
 20055f4:	04012c23 	sb	zero,75(v0)
 20055f8:	80200637 	lui	v0,0x400c
 20055fc:	04666023 	sb	a1,24(v1)
 2005600:	04006823 	sb	zero,26(v0)
 2005604:	004000eb 	ret
 2005608:	80200637 	lui	v0,0x400c
 200560c:	04007423 	sb	zero,29(v0)
 2005610:	80200637 	lui	v0,0x400c
 2005614:	04013823 	sb	zero,78(v0)
 2005618:	80200637 	lui	v0,0x400c
 200561c:	04012c23 	sb	zero,75(v0)
 2005620:	80000c13 	li	v0,3
 2005624:	04606023 	sb	v0,24(v1)
 2005628:	80200637 	lui	v0,0x400c
 200562c:	04006423 	sb	zero,25(v0)
 2005630:	004000eb 	ret
 2005634:	90200637 	lui	a0,0x400c
 2005638:	80000413 	li	v0,1
 200563c:	04807423 	sb	zero,29(a0)
 2005640:	90200637 	lui	a0,0x400c
 2005644:	04a12c23 	sb	v0,75(a0)
 2005648:	90200637 	lui	a0,0x400c
 200564c:	04a13823 	sb	v0,78(a0)
 2005650:	04606023 	sb	v0,24(v1)
 2005654:	004000eb 	ret
 2005658:	80200637 	lui	v0,0x400c
 200565c:	04007423 	sb	zero,29(v0)
 2005660:	80200637 	lui	v0,0x400c
 2005664:	04012c23 	sb	zero,75(v0)
 2005668:	80000413 	li	v0,1
 200566c:	04606823 	sb	v0,26(v1)
 2005670:	004000eb 	ret
 2005674:	80200637 	lui	v0,0x400c
 2005678:	04007423 	sb	zero,29(v0)
 200567c:	80200637 	lui	v0,0x400c
 2005680:	04012c23 	sb	zero,75(v0)
 2005684:	80000413 	li	v0,1
 2005688:	04606423 	sb	v0,25(v1)
 200568c:	004000eb 	ret
 2005690:	98200637 	lui	a1,0x400c
 2005694:	80000413 	li	v0,1
 2005698:	04c07423 	sb	zero,29(a1)
 200569c:	98200637 	lui	a1,0x400c
 20056a0:	04e13823 	sb	v0,78(a1)
 20056a4:	98200637 	lui	a1,0x400c
 20056a8:	04e12c23 	sb	v0,75(a1)
 20056ac:	04646023 	sb	a0,24(v1)
 20056b0:	004000eb 	ret

020056b4 <t3_taskA4_generic_FH_TUERMODUL_CTRL>:
 20056b4:	80200637 	lui	v0,0x400c
 20056b8:	84031013 	add	v0,v0,196
 20056bc:	8c003403 	lb	v1,13(v0)
 20056c0:	044048e3 	bnez	v1,20056e4 <t3_taskA4_generic_FH_TUERMODUL_CTRL+0x30>
 20056c4:	8c003c03 	lb	v1,15(v0)
 20056c8:	04403063 	beqz	v1,20056e0 <t3_taskA4_generic_FH_TUERMODUL_CTRL+0x2c>
 20056cc:	8c003803 	lb	v1,14(v0)
 20056d0:	044020e3 	bnez	v1,20056e0 <t3_taskA4_generic_FH_TUERMODUL_CTRL+0x2c>
 20056d4:	04001023 	sb	zero,4(v0)
 20056d8:	04001823 	sb	zero,6(v0)
 20056dc:	004000eb 	ret
 20056e0:	004000eb 	ret
 20056e4:	8c002803 	lb	v1,10(v0)
 20056e8:	044020e3 	bnez	v1,20056f8 <t3_taskA4_generic_FH_TUERMODUL_CTRL+0x44>
 20056ec:	90000c13 	li	a0,3
 20056f0:	88200637 	lui	v1,0x400c
 20056f4:	04646023 	sb	a0,24(v1)
 20056f8:	8c004c03 	lb	v1,19(v0)
 20056fc:	044030e3 	bnez	v1,2005714 <t3_taskA4_generic_FH_TUERMODUL_CTRL+0x60>
 2005700:	88200637 	lui	v1,0x400c
 2005704:	0c411023 	sb	zero,196(v1)
 2005708:	90000413 	li	a0,1
 200570c:	88200637 	lui	v1,0x400c
 2005710:	04643023 	sb	a0,12(v1)
 2005714:	98200637 	lui	a1,0x400c
 2005718:	8cc05c03 	lb	v1,23(a1)
 200571c:	90000413 	li	a0,1
 2005720:	a0000813 	li	a2,2
 2005724:	04242c23 	sb	a0,11(v0)
 2005728:	04245023 	sb	a0,20(v0)
 200572c:	04693863 	beq	v1,a2,20057c8 <t3_taskA4_generic_FH_TUERMODUL_CTRL+0x114>
 2005730:	a8000c13 	li	a3,3
 2005734:	0c6a2063 	beq	v1,a3,2005844 <t3_taskA4_generic_FH_TUERMODUL_CTRL+0x190>
 2005738:	90000413 	li	a0,1
 200573c:	0465a863 	beq	v1,a0,2005810 <t3_taskA4_generic_FH_TUERMODUL_CTRL+0x15c>
 2005740:	88200637 	lui	v1,0x400c
 2005744:	04407423 	sb	zero,29(v1)
 2005748:	04e85c23 	sb	a2,23(a1)
 200574c:	90200637 	lui	a0,0x400c
 2005750:	9c805803 	lb	a1,22(a0)
 2005754:	88000413 	li	v1,1
 2005758:	04e26863 	beq	a1,v1,200578c <t3_taskA4_generic_FH_TUERMODUL_CTRL+0xd8>
 200575c:	98200637 	lui	a1,0x400c
 2005760:	04c07423 	sb	zero,29(a1)
 2005764:	04a25823 	sb	v1,22(a0)
 2005768:	98200637 	lui	a1,0x400c
 200576c:	90200637 	lui	a0,0x400c
 2005770:	0cc0a123 	sw	zero,168(a1)
 2005774:	04a25423 	sb	v1,21(a0)
 2005778:	94001203 	lbu	a0,4(v0)
 200577c:	8c001a03 	lbu	v1,6(v0)
 2005780:	04241423 	sb	a0,5(v0)
 2005784:	04221c23 	sb	v1,7(v0)
 2005788:	004000eb 	ret
 200578c:	88200637 	lui	v1,0x400c
 2005790:	8c407003 	lb	v1,28(v1)
 2005794:	0c67e063 	beq	v1,a1,2005984 <t3_taskA4_generic_FH_TUERMODUL_CTRL+0x2d0>
 2005798:	90200637 	lui	a0,0x400c
 200579c:	a4805403 	lb	a2,21(a0)
 20057a0:	98000413 	li	a1,1
 20057a4:	0d270863 	beq	a2,a1,2005928 <t3_taskA4_generic_FH_TUERMODUL_CTRL+0x274>
 20057a8:	88200637 	lui	v1,0x400c
 20057ac:	04407423 	sb	zero,29(v1)
 20057b0:	04a65423 	sb	a1,21(a0)
 20057b4:	8c001a03 	lbu	v1,6(v0)
 20057b8:	94001203 	lbu	a0,4(v0)
 20057bc:	04221c23 	sb	v1,7(v0)
 20057c0:	04241423 	sb	a0,5(v0)
 20057c4:	004000eb 	ret
 20057c8:	88200637 	lui	v1,0x400c
 20057cc:	8c414c03 	lb	v1,83(v1)
 20057d0:	04402063 	beqz	v1,20057e0 <t3_taskA4_generic_FH_TUERMODUL_CTRL+0x12c>
 20057d4:	88200637 	lui	v1,0x400c
 20057d8:	8c414403 	lb	v1,81(v1)
 20057dc:	14401063 	beqz	v1,20059e4 <t3_taskA4_generic_FH_TUERMODUL_CTRL+0x330>
 20057e0:	90200637 	lui	a0,0x400c
 20057e4:	8c806c03 	lb	v1,27(a0)
 20057e8:	98000813 	li	a1,2
 20057ec:	14675863 	beq	v1,a1,2005a98 <t3_taskA4_generic_FH_TUERMODUL_CTRL+0x3e4>
 20057f0:	a0000c13 	li	a2,3
 20057f4:	1468f863 	beq	v1,a2,2005a70 <t3_taskA4_generic_FH_TUERMODUL_CTRL+0x3bc>
 20057f8:	98000413 	li	a1,1
 20057fc:	14665063 	beq	v1,a1,2005a24 <t3_taskA4_generic_FH_TUERMODUL_CTRL+0x370>
 2005800:	88200637 	lui	v1,0x400c
 2005804:	04407423 	sb	zero,29(v1)
 2005808:	04a86c23 	sb	a2,27(a0)
 200580c:	ffffd067 	j	200574c <t3_taskA4_generic_FH_TUERMODUL_CTRL+0x98>
 2005810:	88200637 	lui	v1,0x400c
 2005814:	8c42a103 	lw	v1,168(v1)
 2005818:	9000ec13 	li	a0,59
 200581c:	fc6460e3 	bne	v1,a0,200574c <t3_taskA4_generic_FH_TUERMODUL_CTRL+0x98>
 2005820:	90200637 	lui	a0,0x400c
 2005824:	94828103 	lw	a0,160(a0)
 2005828:	fca24863 	beq	a0,v1,200574c <t3_taskA4_generic_FH_TUERMODUL_CTRL+0x98>
 200582c:	88200637 	lui	v1,0x400c
 2005830:	04407423 	sb	zero,29(v1)
 2005834:	88200637 	lui	v1,0x400c
 2005838:	04ea5c23 	sb	a3,23(a1)
 200583c:	046a5023 	sb	a3,20(v1)
 2005840:	ffffc367 	j	200574c <t3_taskA4_generic_FH_TUERMODUL_CTRL+0x98>
 2005844:	88200637 	lui	v1,0x400c
 2005848:	8c42a103 	lw	v1,168(v1)
 200584c:	8c40f513 	slt	v1,v1,61
 2005850:	044098e3 	bnez	v1,200589c <t3_taskA4_generic_FH_TUERMODUL_CTRL+0x1e8>
 2005854:	88200637 	lui	v1,0x400c
 2005858:	8c428103 	lw	v1,160(v1)
 200585c:	8c40f513 	slt	v1,v1,61
 2005860:	04407863 	beqz	v1,200589c <t3_taskA4_generic_FH_TUERMODUL_CTRL+0x1e8>
 2005864:	88200637 	lui	v1,0x400c
 2005868:	8c417c03 	lb	v1,95(v1)
 200586c:	044060e3 	bnez	v1,200589c <t3_taskA4_generic_FH_TUERMODUL_CTRL+0x1e8>
 2005870:	88200637 	lui	v1,0x400c
 2005874:	8c418403 	lb	v1,97(v1)
 2005878:	044048e3 	bnez	v1,200589c <t3_taskA4_generic_FH_TUERMODUL_CTRL+0x1e8>
 200587c:	88200637 	lui	v1,0x400c
 2005880:	04407423 	sb	zero,29(v1)
 2005884:	88200637 	lui	v1,0x400c
 2005888:	04412023 	sb	zero,72(v1)
 200588c:	88200637 	lui	v1,0x400c
 2005890:	04411423 	sb	zero,69(v1)
 2005894:	04e45c23 	sb	a0,23(a1)
 2005898:	ffffad67 	j	200574c <t3_taskA4_generic_FH_TUERMODUL_CTRL+0x98>
 200589c:	88200637 	lui	v1,0x400c
 20058a0:	8c414c03 	lb	v1,83(v1)
 20058a4:	0440a863 	beqz	v1,20058f8 <t3_taskA4_generic_FH_TUERMODUL_CTRL+0x244>
 20058a8:	88200637 	lui	v1,0x400c
 20058ac:	8c414403 	lb	v1,81(v1)
 20058b0:	044090e3 	bnez	v1,20058f8 <t3_taskA4_generic_FH_TUERMODUL_CTRL+0x244>
 20058b4:	88200637 	lui	v1,0x400c
 20058b8:	8c411803 	lb	v1,70(v1)
 20058bc:	1441d863 	beqz	v1,2005ba8 <t3_taskA4_generic_FH_TUERMODUL_CTRL+0x4f4>
 20058c0:	88200637 	lui	v1,0x400c
 20058c4:	94408103 	lw	a0,32(v1)
 20058c8:	88200637 	lui	v1,0x400c
 20058cc:	04407423 	sb	zero,29(v1)
 20058d0:	88200637 	lui	v1,0x400c
 20058d4:	04411423 	sb	zero,69(v1)
 20058d8:	88200637 	lui	v1,0x400c
 20058dc:	0c64d123 	sw	a0,180(v1)
 20058e0:	88000813 	li	v1,2
 20058e4:	04e25c23 	sb	v1,23(a1)
 20058e8:	90000c13 	li	a0,3
 20058ec:	88200637 	lui	v1,0x400c
 20058f0:	04646c23 	sb	a0,27(v1)
 20058f4:	ffff9667 	j	200574c <t3_taskA4_generic_FH_TUERMODUL_CTRL+0x98>
 20058f8:	90200637 	lui	a0,0x400c
 20058fc:	8c805003 	lb	v1,20(a0)
 2005900:	98000813 	li	a1,2
 2005904:	14662063 	beq	v1,a1,2005b14 <t3_taskA4_generic_FH_TUERMODUL_CTRL+0x460>
 2005908:	a0000c13 	li	a2,3
 200590c:	0c696863 	beq	v1,a2,2005ac0 <t3_taskA4_generic_FH_TUERMODUL_CTRL+0x40c>
 2005910:	a8000413 	li	a3,1
 2005914:	0c6a6863 	beq	v1,a3,2005a48 <t3_taskA4_generic_FH_TUERMODUL_CTRL+0x394>
 2005918:	88200637 	lui	v1,0x400c
 200591c:	04407423 	sb	zero,29(v1)
 2005920:	04a85023 	sb	a2,20(a0)
 2005924:	ffff8a67 	j	200574c <t3_taskA4_generic_FH_TUERMODUL_CTRL+0x98>
 2005928:	f468a0e3 	bne	v1,a2,2005778 <t3_taskA4_generic_FH_TUERMODUL_CTRL+0xc4>
 200592c:	98200637 	lui	a1,0x400c
 2005930:	9cc2e103 	lw	a1,184(a1)
 2005934:	f4c08863 	beqz	a1,2005778 <t3_taskA4_generic_FH_TUERMODUL_CTRL+0xc4>
 2005938:	a0200637 	lui	a2,0x400c
 200593c:	a5008103 	lw	a2,32(a2)
 2005940:	a53ff413 	add	a2,a2,-3
 2005944:	f4e868e3 	bne	a1,a2,2005778 <t3_taskA4_generic_FH_TUERMODUL_CTRL+0xc4>
 2005948:	98200637 	lui	a1,0x400c
 200594c:	9cc12403 	lb	a1,73(a1)
 2005950:	f4c050e3 	bnez	a1,2005778 <t3_taskA4_generic_FH_TUERMODUL_CTRL+0xc4>
 2005954:	98200637 	lui	a1,0x400c
 2005958:	9cc11803 	lb	a1,70(a1)
 200595c:	f4c038e3 	bnez	a1,2005778 <t3_taskA4_generic_FH_TUERMODUL_CTRL+0xc4>
 2005960:	98200637 	lui	a1,0x400c
 2005964:	a4c2a103 	lw	a2,168(a1)
 2005968:	f02822e3 	blez	a2,2005778 <t3_taskA4_generic_FH_TUERMODUL_CTRL+0xc4>
 200596c:	a53ffc13 	add	a2,a2,-1
 2005970:	a8200637 	lui	a3,0x400c
 2005974:	05407423 	sb	zero,29(a3)
 2005978:	0ce8a123 	sw	a2,168(a1)
 200597c:	04a25423 	sb	v1,21(a0)
 2005980:	ffff7e67 	j	2005778 <t3_taskA4_generic_FH_TUERMODUL_CTRL+0xc4>
 2005984:	98200637 	lui	a1,0x400c
 2005988:	9cc2f103 	lw	a1,188(a1)
 200598c:	f4c01863 	beqz	a1,2005798 <t3_taskA4_generic_FH_TUERMODUL_CTRL+0xe4>
 2005990:	a0200637 	lui	a2,0x400c
 2005994:	a5008103 	lw	a2,32(a2)
 2005998:	9d270033 	sub	a1,a2,a1
 200599c:	ece3f8e3 	bne	a1,v1,2005798 <t3_taskA4_generic_FH_TUERMODUL_CTRL+0xe4>
 20059a0:	98200637 	lui	a1,0x400c
 20059a4:	9cc12403 	lb	a1,73(a1)
 20059a8:	04c020e3 	bnez	a1,20059b8 <t3_taskA4_generic_FH_TUERMODUL_CTRL+0x304>
 20059ac:	98200637 	lui	a1,0x400c
 20059b0:	9cc11803 	lb	a1,70(a1)
 20059b4:	ecc1c863 	beqz	a1,2005798 <t3_taskA4_generic_FH_TUERMODUL_CTRL+0xe4>
 20059b8:	98200637 	lui	a1,0x400c
 20059bc:	a4c2a103 	lw	a2,168(a1)
 20059c0:	88000413 	li	v1,1
 20059c4:	a8200637 	lui	a3,0x400c
 20059c8:	a5000413 	add	a2,a2,1
 20059cc:	04a25823 	sb	v1,22(a0)
 20059d0:	90200637 	lui	a0,0x400c
 20059d4:	05407423 	sb	zero,29(a3)
 20059d8:	0ce8a123 	sw	a2,168(a1)
 20059dc:	04a25423 	sb	v1,21(a0)
 20059e0:	ffff6667 	j	2005778 <t3_taskA4_generic_FH_TUERMODUL_CTRL+0xc4>
 20059e4:	88200637 	lui	v1,0x400c
 20059e8:	8c412403 	lb	v1,73(v1)
 20059ec:	ec41e863 	beqz	v1,20057e0 <t3_taskA4_generic_FH_TUERMODUL_CTRL+0x12c>
 20059f0:	88200637 	lui	v1,0x400c
 20059f4:	a4408103 	lw	a2,32(v1)
 20059f8:	90200637 	lui	a0,0x400c
 20059fc:	04807423 	sb	zero,29(a0)
 2005a00:	90200637 	lui	a0,0x400c
 2005a04:	04812023 	sb	zero,72(a0)
 2005a08:	90200637 	lui	a0,0x400c
 2005a0c:	88000c13 	li	v1,3
 2005a10:	0ca8b123 	sw	a2,172(a0)
 2005a14:	90200637 	lui	a0,0x400c
 2005a18:	04e25c23 	sb	v1,23(a1)
 2005a1c:	04a25023 	sb	v1,20(a0)
 2005a20:	ffff4b67 	j	200574c <t3_taskA4_generic_FH_TUERMODUL_CTRL+0x98>
 2005a24:	88200637 	lui	v1,0x400c
 2005a28:	8c413c03 	lb	v1,79(v1)
 2005a2c:	ec4040e3 	bnez	v1,200574c <t3_taskA4_generic_FH_TUERMODUL_CTRL+0x98>
 2005a30:	88200637 	lui	v1,0x400c
 2005a34:	04407423 	sb	zero,29(v1)
 2005a38:	88200637 	lui	v1,0x400c
 2005a3c:	04412023 	sb	zero,72(v1)
 2005a40:	04a86c23 	sb	a2,27(a0)
 2005a44:	ffff4267 	j	200574c <t3_taskA4_generic_FH_TUERMODUL_CTRL+0x98>
 2005a48:	a8200637 	lui	a3,0x400c
 2005a4c:	ad425103 	lw	a3,148(a3)
 2005a50:	ad465513 	slt	a3,a3,405
 2005a54:	0d4158e3 	bnez	a3,2005c00 <t3_taskA4_generic_FH_TUERMODUL_CTRL+0x54c>
 2005a58:	88200637 	lui	v1,0x400c
 2005a5c:	04407423 	sb	zero,29(v1)
 2005a60:	88200637 	lui	v1,0x400c
 2005a64:	04411423 	sb	zero,69(v1)
 2005a68:	04a85023 	sb	a2,20(a0)
 2005a6c:	ffff3867 	j	200574c <t3_taskA4_generic_FH_TUERMODUL_CTRL+0x98>
 2005a70:	88200637 	lui	v1,0x400c
 2005a74:	8c413003 	lb	v1,76(v1)
 2005a78:	0c40c063 	beqz	v1,2005bd8 <t3_taskA4_generic_FH_TUERMODUL_CTRL+0x524>
 2005a7c:	88200637 	lui	v1,0x400c
 2005a80:	04407423 	sb	zero,29(v1)
 2005a84:	a0000413 	li	a2,1
 2005a88:	88200637 	lui	v1,0x400c
 2005a8c:	04691423 	sb	a2,69(v1)
 2005a90:	04a66c23 	sb	a1,27(a0)
 2005a94:	ffff2e67 	j	200574c <t3_taskA4_generic_FH_TUERMODUL_CTRL+0x98>
 2005a98:	88200637 	lui	v1,0x400c
 2005a9c:	8c413003 	lb	v1,76(v1)
 2005aa0:	e44158e3 	bnez	v1,200574c <t3_taskA4_generic_FH_TUERMODUL_CTRL+0x98>
 2005aa4:	88200637 	lui	v1,0x400c
 2005aa8:	04407423 	sb	zero,29(v1)
 2005aac:	88200637 	lui	v1,0x400c
 2005ab0:	04411423 	sb	zero,69(v1)
 2005ab4:	88000c13 	li	v1,3
 2005ab8:	04a26c23 	sb	v1,27(a0)
 2005abc:	ffff2467 	j	200574c <t3_taskA4_generic_FH_TUERMODUL_CTRL+0x98>
 2005ac0:	88200637 	lui	v1,0x400c
 2005ac4:	8c413c03 	lb	v1,79(v1)
 2005ac8:	04412063 	beqz	v1,2005b58 <t3_taskA4_generic_FH_TUERMODUL_CTRL+0x4a4>
 2005acc:	88200637 	lui	v1,0x400c
 2005ad0:	8c413403 	lb	v1,77(v1)
 2005ad4:	044108e3 	bnez	v1,2005b58 <t3_taskA4_generic_FH_TUERMODUL_CTRL+0x4a4>
 2005ad8:	88200637 	lui	v1,0x400c
 2005adc:	8c425103 	lw	v1,148(v1)
 2005ae0:	0022f2e3 	blez	v1,2005b58 <t3_taskA4_generic_FH_TUERMODUL_CTRL+0x4a4>
 2005ae4:	04a65023 	sb	a1,20(a0)
 2005ae8:	90200637 	lui	a0,0x400c
 2005aec:	04a64023 	sb	a1,16(a0)
 2005af0:	90200637 	lui	a0,0x400c
 2005af4:	88000413 	li	v1,1
 2005af8:	a0200637 	lui	a2,0x400c
 2005afc:	04a64823 	sb	a1,18(a0)
 2005b00:	90200637 	lui	a0,0x400c
 2005b04:	05007423 	sb	zero,29(a2)
 2005b08:	04224423 	sb	v1,17(v0)
 2005b0c:	04a32023 	sb	v1,72(a0)
 2005b10:	ffff0f67 	j	200574c <t3_taskA4_generic_FH_TUERMODUL_CTRL+0x98>
 2005b14:	98200637 	lui	a1,0x400c
 2005b18:	9cc25103 	lw	a1,148(a1)
 2005b1c:	08260ae3 	blez	a1,2005c20 <t3_taskA4_generic_FH_TUERMODUL_CTRL+0x56c>
 2005b20:	a8200637 	lui	a3,0x400c
 2005b24:	9d404003 	lb	a1,16(a3)
 2005b28:	a0000413 	li	a2,1
 2005b2c:	0ce8b863 	beq	a1,a2,2005c88 <t3_taskA4_generic_FH_TUERMODUL_CTRL+0x5d4>
 2005b30:	0ce21863 	beq	a1,v1,2005c3c <t3_taskA4_generic_FH_TUERMODUL_CTRL+0x588>
 2005b34:	90200637 	lui	a0,0x400c
 2005b38:	04807423 	sb	zero,29(a0)
 2005b3c:	90200637 	lui	a0,0x400c
 2005b40:	05624023 	sb	v1,16(a3)
 2005b44:	04a24823 	sb	v1,18(a0)
 2005b48:	88200637 	lui	v1,0x400c
 2005b4c:	04284423 	sb	a2,17(v0)
 2005b50:	04692023 	sb	a2,72(v1)
 2005b54:	fffefe67 	j	200574c <t3_taskA4_generic_FH_TUERMODUL_CTRL+0x98>
 2005b58:	88200637 	lui	v1,0x400c
 2005b5c:	8c413003 	lb	v1,76(v1)
 2005b60:	dc41d863 	beqz	v1,200574c <t3_taskA4_generic_FH_TUERMODUL_CTRL+0x98>
 2005b64:	88200637 	lui	v1,0x400c
 2005b68:	8c412803 	lb	v1,74(v1)
 2005b6c:	dc41c0e3 	bnez	v1,200574c <t3_taskA4_generic_FH_TUERMODUL_CTRL+0x98>
 2005b70:	88200637 	lui	v1,0x400c
 2005b74:	8c425103 	lw	v1,148(v1)
 2005b78:	8c465513 	slt	v1,v1,405
 2005b7c:	dc41a063 	beqz	v1,200574c <t3_taskA4_generic_FH_TUERMODUL_CTRL+0x98>
 2005b80:	98200637 	lui	a1,0x400c
 2005b84:	88000413 	li	v1,1
 2005b88:	04c07423 	sb	zero,29(a1)
 2005b8c:	98200637 	lui	a1,0x400c
 2005b90:	04a25023 	sb	v1,20(a0)
 2005b94:	04e31423 	sb	v1,69(a1)
 2005b98:	90000813 	li	a0,2
 2005b9c:	88200637 	lui	v1,0x400c
 2005ba0:	04644423 	sb	a0,17(v1)
 2005ba4:	fffeea67 	j	200574c <t3_taskA4_generic_FH_TUERMODUL_CTRL+0x98>
 2005ba8:	88200637 	lui	v1,0x400c
 2005bac:	8c412403 	lb	v1,73(v1)
 2005bb0:	ec409063 	beqz	v1,20058f8 <t3_taskA4_generic_FH_TUERMODUL_CTRL+0x244>
 2005bb4:	88200637 	lui	v1,0x400c
 2005bb8:	94408103 	lw	a0,32(v1)
 2005bbc:	88200637 	lui	v1,0x400c
 2005bc0:	04407423 	sb	zero,29(v1)
 2005bc4:	88200637 	lui	v1,0x400c
 2005bc8:	04412023 	sb	zero,72(v1)
 2005bcc:	88200637 	lui	v1,0x400c
 2005bd0:	0c64c123 	sw	a0,176(v1)
 2005bd4:	ffff4367 	j	20058e0 <t3_taskA4_generic_FH_TUERMODUL_CTRL+0x22c>
 2005bd8:	88200637 	lui	v1,0x400c
 2005bdc:	8c413c03 	lb	v1,79(v1)
 2005be0:	dc40d863 	beqz	v1,200574c <t3_taskA4_generic_FH_TUERMODUL_CTRL+0x98>
 2005be4:	98200637 	lui	a1,0x400c
 2005be8:	88000413 	li	v1,1
 2005bec:	04c07423 	sb	zero,29(a1)
 2005bf0:	98200637 	lui	a1,0x400c
 2005bf4:	04e32023 	sb	v1,72(a1)
 2005bf8:	04a26c23 	sb	v1,27(a0)
 2005bfc:	fffed467 	j	200574c <t3_taskA4_generic_FH_TUERMODUL_CTRL+0x98>
 2005c00:	a8200637 	lui	a3,0x400c
 2005c04:	a5404403 	lb	a2,17(a3)
 2005c08:	0d220863 	beq	a2,v1,2005d0c <t3_taskA4_generic_FH_TUERMODUL_CTRL+0x658>
 2005c0c:	0527b063 	beq	a2,a1,2005ce4 <t3_taskA4_generic_FH_TUERMODUL_CTRL+0x630>
 2005c10:	88200637 	lui	v1,0x400c
 2005c14:	04407423 	sb	zero,29(v1)
 2005c18:	05664423 	sb	a1,17(a3)
 2005c1c:	fffecc67 	j	200574c <t3_taskA4_generic_FH_TUERMODUL_CTRL+0x98>
 2005c20:	88200637 	lui	v1,0x400c
 2005c24:	04407423 	sb	zero,29(v1)
 2005c28:	88200637 	lui	v1,0x400c
 2005c2c:	04412023 	sb	zero,72(v1)
 2005c30:	88000c13 	li	v1,3
 2005c34:	04a25023 	sb	v1,20(a0)
 2005c38:	fffec567 	j	200574c <t3_taskA4_generic_FH_TUERMODUL_CTRL+0x98>
 2005c3c:	88200637 	lui	v1,0x400c
 2005c40:	8c413c03 	lb	v1,79(v1)
 2005c44:	044020e3 	bnez	v1,2005c54 <t3_taskA4_generic_FH_TUERMODUL_CTRL+0x5a0>
 2005c48:	88200637 	lui	v1,0x400c
 2005c4c:	8c413403 	lb	v1,77(v1)
 2005c50:	fc41a0e3 	bnez	v1,2005c20 <t3_taskA4_generic_FH_TUERMODUL_CTRL+0x56c>
 2005c54:	98200637 	lui	a1,0x400c
 2005c58:	94c04803 	lb	a0,18(a1)
 2005c5c:	88000413 	li	v1,1
 2005c60:	0ca2c863 	beq	a0,v1,2005dc4 <t3_taskA4_generic_FH_TUERMODUL_CTRL+0x710>
 2005c64:	a0000813 	li	a2,2
 2005c68:	0ca82863 	beq	a0,a2,2005d7c <t3_taskA4_generic_FH_TUERMODUL_CTRL+0x6c8>
 2005c6c:	90200637 	lui	a0,0x400c
 2005c70:	04807423 	sb	zero,29(a0)
 2005c74:	90200637 	lui	a0,0x400c
 2005c78:	04e84823 	sb	a2,18(a1)
 2005c7c:	04224423 	sb	v1,17(v0)
 2005c80:	04a32023 	sb	v1,72(a0)
 2005c84:	fffeb267 	j	200574c <t3_taskA4_generic_FH_TUERMODUL_CTRL+0x98>
 2005c88:	88200637 	lui	v1,0x400c
 2005c8c:	8c413003 	lb	v1,76(v1)
 2005c90:	04402063 	beqz	v1,2005ca0 <t3_taskA4_generic_FH_TUERMODUL_CTRL+0x5ec>
 2005c94:	88200637 	lui	v1,0x400c
 2005c98:	8c412803 	lb	v1,74(v1)
 2005c9c:	fc410863 	beqz	v1,2005c20 <t3_taskA4_generic_FH_TUERMODUL_CTRL+0x56c>
 2005ca0:	88200637 	lui	v1,0x400c
 2005ca4:	8c413c03 	lb	v1,79(v1)
 2005ca8:	04402063 	beqz	v1,2005cb8 <t3_taskA4_generic_FH_TUERMODUL_CTRL+0x604>
 2005cac:	88200637 	lui	v1,0x400c
 2005cb0:	8c413403 	lb	v1,77(v1)
 2005cb4:	fc40d863 	beqz	v1,2005c20 <t3_taskA4_generic_FH_TUERMODUL_CTRL+0x56c>
 2005cb8:	98200637 	lui	a1,0x400c
 2005cbc:	94c04c03 	lb	a0,19(a1)
 2005cc0:	88000413 	li	v1,1
 2005cc4:	0ca30863 	beq	a0,v1,2005e48 <t3_taskA4_generic_FH_TUERMODUL_CTRL+0x794>
 2005cc8:	a0000813 	li	a2,2
 2005ccc:	0ca86863 	beq	a0,a2,2005e00 <t3_taskA4_generic_FH_TUERMODUL_CTRL+0x74c>
 2005cd0:	90200637 	lui	a0,0x400c
 2005cd4:	04807423 	sb	zero,29(a0)
 2005cd8:	04e84c23 	sb	a2,19(a1)
 2005cdc:	04224423 	sb	v1,17(v0)
 2005ce0:	fffe9b67 	j	200574c <t3_taskA4_generic_FH_TUERMODUL_CTRL+0x98>
 2005ce4:	98200637 	lui	a1,0x400c
 2005ce8:	9cc13c03 	lb	a1,79(a1)
 2005cec:	04c0b063 	beqz	a1,2005d44 <t3_taskA4_generic_FH_TUERMODUL_CTRL+0x690>
 2005cf0:	98200637 	lui	a1,0x400c
 2005cf4:	9cc13403 	lb	a1,77(a1)
 2005cf8:	04c098e3 	bnez	a1,2005d44 <t3_taskA4_generic_FH_TUERMODUL_CTRL+0x690>
 2005cfc:	90200637 	lui	a0,0x400c
 2005d00:	04807423 	sb	zero,29(a0)
 2005d04:	05624423 	sb	v1,17(a3)
 2005d08:	fffe9167 	j	200574c <t3_taskA4_generic_FH_TUERMODUL_CTRL+0x98>
 2005d0c:	88200637 	lui	v1,0x400c
 2005d10:	8c413c03 	lb	v1,79(v1)
 2005d14:	04409863 	beqz	v1,2005d60 <t3_taskA4_generic_FH_TUERMODUL_CTRL+0x6ac>
 2005d18:	88200637 	lui	v1,0x400c
 2005d1c:	8c413403 	lb	v1,77(v1)
 2005d20:	044080e3 	bnez	v1,2005d60 <t3_taskA4_generic_FH_TUERMODUL_CTRL+0x6ac>
 2005d24:	88200637 	lui	v1,0x400c
 2005d28:	04407423 	sb	zero,29(v1)
 2005d2c:	88200637 	lui	v1,0x400c
 2005d30:	04411423 	sb	zero,69(v1)
 2005d34:	88000c13 	li	v1,3
 2005d38:	04a25023 	sb	v1,20(a0)
 2005d3c:	05404423 	sb	zero,17(a3)
 2005d40:	fffe8367 	j	200574c <t3_taskA4_generic_FH_TUERMODUL_CTRL+0x98>
 2005d44:	88200637 	lui	v1,0x400c
 2005d48:	8c413003 	lb	v1,76(v1)
 2005d4c:	d44000e3 	bnez	v1,200574c <t3_taskA4_generic_FH_TUERMODUL_CTRL+0x98>
 2005d50:	88200637 	lui	v1,0x400c
 2005d54:	8c412803 	lb	v1,74(v1)
 2005d58:	cc41e863 	beqz	v1,200574c <t3_taskA4_generic_FH_TUERMODUL_CTRL+0x98>
 2005d5c:	fffff267 	j	2005d24 <t3_taskA4_generic_FH_TUERMODUL_CTRL+0x670>
 2005d60:	88200637 	lui	v1,0x400c
 2005d64:	8c413003 	lb	v1,76(v1)
 2005d68:	cc41c863 	beqz	v1,200574c <t3_taskA4_generic_FH_TUERMODUL_CTRL+0x98>
 2005d6c:	88200637 	lui	v1,0x400c
 2005d70:	8c412803 	lb	v1,74(v1)
 2005d74:	cc41b0e3 	bnez	v1,200574c <t3_taskA4_generic_FH_TUERMODUL_CTRL+0x98>
 2005d78:	ffffeb67 	j	2005d24 <t3_taskA4_generic_FH_TUERMODUL_CTRL+0x670>
 2005d7c:	94006003 	lb	a0,24(v0)
 2005d80:	0c800863 	beqz	a0,2005e84 <t3_taskA4_generic_FH_TUERMODUL_CTRL+0x7d0>
 2005d84:	90200637 	lui	a0,0x400c
 2005d88:	a4808103 	lw	a2,32(a0)
 2005d8c:	90200637 	lui	a0,0x400c
 2005d90:	04807423 	sb	zero,29(a0)
 2005d94:	90200637 	lui	a0,0x400c
 2005d98:	04812023 	sb	zero,72(a0)
 2005d9c:	90200637 	lui	a0,0x400c
 2005da0:	04a37823 	sb	v1,94(a0)
 2005da4:	90200637 	lui	a0,0x400c
 2005da8:	0ca86123 	sw	a2,152(a0)
 2005dac:	90200637 	lui	a0,0x400c
 2005db0:	04225c23 	sb	v1,23(v0)
 2005db4:	04e24823 	sb	v1,18(a1)
 2005db8:	04004423 	sb	zero,17(v0)
 2005dbc:	04a31423 	sb	v1,69(a0)
 2005dc0:	fffe6367 	j	200574c <t3_taskA4_generic_FH_TUERMODUL_CTRL+0x98>
 2005dc4:	8c005803 	lb	v1,22(v0)
 2005dc8:	04005c23 	sb	zero,23(v0)
 2005dcc:	cc410063 	beqz	v1,200574c <t3_taskA4_generic_FH_TUERMODUL_CTRL+0x98>
 2005dd0:	88200637 	lui	v1,0x400c
 2005dd4:	04407423 	sb	zero,29(v1)
 2005dd8:	88200637 	lui	v1,0x400c
 2005ddc:	04417823 	sb	zero,94(v1)
 2005de0:	88000813 	li	v1,2
 2005de4:	04e24823 	sb	v1,18(a1)
 2005de8:	88200637 	lui	v1,0x400c
 2005dec:	04411423 	sb	zero,69(v1)
 2005df0:	88200637 	lui	v1,0x400c
 2005df4:	04244423 	sb	a0,17(v0)
 2005df8:	04652023 	sb	a0,72(v1)
 2005dfc:	fffe5467 	j	200574c <t3_taskA4_generic_FH_TUERMODUL_CTRL+0x98>
 2005e00:	94006003 	lb	a0,24(v0)
 2005e04:	cc809063 	beqz	a0,200574c <t3_taskA4_generic_FH_TUERMODUL_CTRL+0x98>
 2005e08:	90200637 	lui	a0,0x400c
 2005e0c:	a4808103 	lw	a2,32(a0)
 2005e10:	90200637 	lui	a0,0x400c
 2005e14:	04807423 	sb	zero,29(a0)
 2005e18:	90200637 	lui	a0,0x400c
 2005e1c:	04a38023 	sb	v1,96(a0)
 2005e20:	90200637 	lui	a0,0x400c
 2005e24:	04812023 	sb	zero,72(a0)
 2005e28:	90200637 	lui	a0,0x400c
 2005e2c:	0ca87123 	sw	a2,156(a0)
 2005e30:	90200637 	lui	a0,0x400c
 2005e34:	04225c23 	sb	v1,23(v0)
 2005e38:	04e24c23 	sb	v1,19(a1)
 2005e3c:	04004423 	sb	zero,17(v0)
 2005e40:	04a31423 	sb	v1,69(a0)
 2005e44:	fffe4267 	j	200574c <t3_taskA4_generic_FH_TUERMODUL_CTRL+0x98>
 2005e48:	8c005803 	lb	v1,22(v0)
 2005e4c:	04005c23 	sb	zero,23(v0)
 2005e50:	c441f863 	beqz	v1,200574c <t3_taskA4_generic_FH_TUERMODUL_CTRL+0x98>
 2005e54:	88200637 	lui	v1,0x400c
 2005e58:	04407423 	sb	zero,29(v1)
 2005e5c:	88200637 	lui	v1,0x400c
 2005e60:	04652023 	sb	a0,72(v1)
 2005e64:	88200637 	lui	v1,0x400c
 2005e68:	04418023 	sb	zero,96(v1)
 2005e6c:	88000813 	li	v1,2
 2005e70:	04e24c23 	sb	v1,19(a1)
 2005e74:	88200637 	lui	v1,0x400c
 2005e78:	04411423 	sb	zero,69(v1)
 2005e7c:	04244423 	sb	a0,17(v0)
 2005e80:	fffe3367 	j	200574c <t3_taskA4_generic_FH_TUERMODUL_CTRL+0x98>
 2005e84:	90200637 	lui	a0,0x400c
 2005e88:	94813003 	lb	a0,76(a0)
 2005e8c:	c4818063 	beqz	a0,200574c <t3_taskA4_generic_FH_TUERMODUL_CTRL+0x98>
 2005e90:	90200637 	lui	a0,0x400c
 2005e94:	94812803 	lb	a0,74(a0)
 2005e98:	c48168e3 	bnez	a0,200574c <t3_taskA4_generic_FH_TUERMODUL_CTRL+0x98>
 2005e9c:	90200637 	lui	a0,0x400c
 2005ea0:	04807423 	sb	zero,29(a0)
 2005ea4:	05624023 	sb	v1,16(a3)
 2005ea8:	04c04823 	sb	zero,18(a1)
 2005eac:	fffe2867 	j	200574c <t3_taskA4_generic_FH_TUERMODUL_CTRL+0x98>

02005eb0 <t3_taskA4_generic_EINKLEMMSCHUTZ_CTRL>:
 2005eb0:	80200637 	lui	v0,0x400c
 2005eb4:	84031013 	add	v0,v0,196
 2005eb8:	8c004003 	lb	v1,16(v0)
 2005ebc:	04405063 	beqz	v1,2005ee4 <t3_taskA4_generic_EINKLEMMSCHUTZ_CTRL+0x34>
 2005ec0:	90200637 	lui	a0,0x400c
 2005ec4:	8c803803 	lb	v1,14(a0)
 2005ec8:	98000413 	li	a1,1
 2005ecc:	04663863 	beq	v1,a1,2005ee8 <t3_taskA4_generic_EINKLEMMSCHUTZ_CTRL+0x38>
 2005ed0:	a0000813 	li	a2,2
 2005ed4:	0468c063 	beq	v1,a2,2005f34 <t3_taskA4_generic_EINKLEMMSCHUTZ_CTRL+0x84>
 2005ed8:	80200637 	lui	v0,0x400c
 2005edc:	04007423 	sb	zero,29(v0)
 2005ee0:	04a63823 	sb	a1,14(a0)
 2005ee4:	004000eb 	ret
 2005ee8:	88200637 	lui	v1,0x400c
 2005eec:	8c410c03 	lb	v1,67(v1)
 2005ef0:	fc41e863 	beqz	v1,2005ee4 <t3_taskA4_generic_EINKLEMMSCHUTZ_CTRL+0x34>
 2005ef4:	88200637 	lui	v1,0x400c
 2005ef8:	8c410803 	lb	v1,66(v1)
 2005efc:	fc41d0e3 	bnez	v1,2005ee4 <t3_taskA4_generic_EINKLEMMSCHUTZ_CTRL+0x34>
 2005f00:	88200637 	lui	v1,0x400c
 2005f04:	8c413c03 	lb	v1,79(v1)
 2005f08:	04402063 	beqz	v1,2005f18 <t3_taskA4_generic_EINKLEMMSCHUTZ_CTRL+0x68>
 2005f0c:	88200637 	lui	v1,0x400c
 2005f10:	8c413003 	lb	v1,76(v1)
 2005f14:	fc41a0e3 	bnez	v1,2005ee4 <t3_taskA4_generic_EINKLEMMSCHUTZ_CTRL+0x34>
 2005f18:	88200637 	lui	v1,0x400c
 2005f1c:	04407423 	sb	zero,29(v1)
 2005f20:	88000413 	li	v1,1
 2005f24:	04226023 	sb	v1,24(v0)
 2005f28:	80000813 	li	v0,2
 2005f2c:	04a03823 	sb	v0,14(a0)
 2005f30:	004000eb 	ret
 2005f34:	88200637 	lui	v1,0x400c
 2005f38:	8c410c03 	lb	v1,67(v1)
 2005f3c:	04006023 	sb	zero,24(v0)
 2005f40:	fc4148e3 	bnez	v1,2005ee4 <t3_taskA4_generic_EINKLEMMSCHUTZ_CTRL+0x34>
 2005f44:	80200637 	lui	v0,0x400c
 2005f48:	84010803 	lb	v0,66(v0)
 2005f4c:	fc013063 	beqz	v0,2005ee4 <t3_taskA4_generic_EINKLEMMSCHUTZ_CTRL+0x34>
 2005f50:	80200637 	lui	v0,0x400c
 2005f54:	04007423 	sb	zero,29(v0)
 2005f58:	04a63823 	sb	a1,14(a0)
 2005f5c:	004000eb 	ret

02005f60 <t3_taskA4_generic_BLOCK_ERKENNUNG_CTRL>:
 2005f60:	88200637 	lui	v1,0x400c
 2005f64:	84431013 	add	v0,v1,196
 2005f68:	94004c03 	lb	a0,19(v0)
 2005f6c:	048038e3 	bnez	a0,2005f88 <t3_taskA4_generic_BLOCK_ERKENNUNG_CTRL+0x28>
 2005f70:	94005403 	lb	a0,21(v0)
 2005f74:	04807063 	beqz	a0,2005fac <t3_taskA4_generic_BLOCK_ERKENNUNG_CTRL+0x4c>
 2005f78:	84005003 	lb	v0,20(v0)
 2005f7c:	040060e3 	bnez	v0,2005fac <t3_taskA4_generic_BLOCK_ERKENNUNG_CTRL+0x4c>
 2005f80:	0c411023 	sb	zero,196(v1)
 2005f84:	004000eb 	ret
 2005f88:	90200637 	lui	a0,0x400c
 2005f8c:	84803003 	lb	v0,12(a0)
 2005f90:	98000413 	li	a1,1
 2005f94:	04263863 	beq	v0,a1,2005fb0 <t3_taskA4_generic_BLOCK_ERKENNUNG_CTRL+0x50>
 2005f98:	a0000813 	li	a2,2
 2005f9c:	0428d863 	beq	v0,a2,2006008 <t3_taskA4_generic_BLOCK_ERKENNUNG_CTRL+0xa8>
 2005fa0:	80200637 	lui	v0,0x400c
 2005fa4:	04007423 	sb	zero,29(v0)
 2005fa8:	04a63023 	sb	a1,12(a0)
 2005fac:	004000eb 	ret
 2005fb0:	98200637 	lui	a1,0x400c
 2005fb4:	a0200637 	lui	a2,0x400c
 2005fb8:	9cc24103 	lw	a1,144(a1)
 2005fbc:	a5023103 	lw	a2,140(a2)
 2005fc0:	fce9d863 	beq	a1,a2,2005fac <t3_taskA4_generic_BLOCK_ERKENNUNG_CTRL+0x4c>
 2005fc4:	f827d2e3 	blez	a1,2005fac <t3_taskA4_generic_BLOCK_ERKENNUNG_CTRL+0x4c>
 2005fc8:	98200637 	lui	a1,0x400c
 2005fcc:	04c07423 	sb	zero,29(a1)
 2005fd0:	98200637 	lui	a1,0x400c
 2005fd4:	04c14823 	sb	zero,82(a1)
 2005fd8:	98000813 	li	a1,2
 2005fdc:	04a63023 	sb	a1,12(a0)
 2005fe0:	90200637 	lui	a0,0x400c
 2005fe4:	98000813 	li	a1,2
 2005fe8:	0481b123 	sw	zero,108(a0)
 2005fec:	90200637 	lui	a0,0x400c
 2005ff0:	04a7d123 	sw	a1,116(a0)
 2005ff4:	98000c13 	li	a1,3
 2005ff8:	90200637 	lui	a0,0x400c
 2005ffc:	04a63423 	sb	a1,13(a0)
 2006000:	0c611023 	sb	v0,196(v1)
 2006004:	004000eb 	ret
 2006008:	80200637 	lui	v0,0x400c
 200600c:	84011803 	lb	v0,70(v0)
 2006010:	0400c063 	beqz	v0,2006070 <t3_taskA4_generic_BLOCK_ERKENNUNG_CTRL+0x110>
 2006014:	80200637 	lui	v0,0x400c
 2006018:	84012403 	lb	v0,73(v0)
 200601c:	040020e3 	bnez	v0,200602c <t3_taskA4_generic_BLOCK_ERKENNUNG_CTRL+0xcc>
 2006020:	80200637 	lui	v0,0x400c
 2006024:	84011c03 	lb	v0,71(v0)
 2006028:	0400a8e3 	bnez	v0,200607c <t3_taskA4_generic_BLOCK_ERKENNUNG_CTRL+0x11c>
 200602c:	90200637 	lui	a0,0x400c
 2006030:	84803403 	lb	v0,13(a0)
 2006034:	98000813 	li	a1,2
 2006038:	0427b063 	beq	v0,a1,2006110 <t3_taskA4_generic_BLOCK_ERKENNUNG_CTRL+0x1b0>
 200603c:	a0000c13 	li	a2,3
 2006040:	0428b863 	beq	v0,a2,200609c <t3_taskA4_generic_BLOCK_ERKENNUNG_CTRL+0x13c>
 2006044:	a8000413 	li	a3,1
 2006048:	042aa063 	beq	v0,a3,2006098 <t3_taskA4_generic_BLOCK_ERKENNUNG_CTRL+0x138>
 200604c:	80200637 	lui	v0,0x400c
 2006050:	04007423 	sb	zero,29(v0)
 2006054:	80200637 	lui	v0,0x400c
 2006058:	0401b123 	sw	zero,108(v0)
 200605c:	80200637 	lui	v0,0x400c
 2006060:	0427d123 	sw	a1,116(v0)
 2006064:	04a83423 	sb	a2,13(a0)
 2006068:	0c6b1023 	sb	a3,196(v1)
 200606c:	004000eb 	ret
 2006070:	80200637 	lui	v0,0x400c
 2006074:	84011003 	lb	v0,68(v0)
 2006078:	fc013863 	beqz	v0,2006014 <t3_taskA4_generic_BLOCK_ERKENNUNG_CTRL+0xb4>
 200607c:	80200637 	lui	v0,0x400c
 2006080:	04007423 	sb	zero,29(v0)
 2006084:	80000413 	li	v0,1
 2006088:	04a03023 	sb	v0,12(a0)
 200608c:	80200637 	lui	v0,0x400c
 2006090:	04003423 	sb	zero,13(v0)
 2006094:	004000eb 	ret
 2006098:	004000eb 	ret
 200609c:	a0200637 	lui	a2,0x400c
 20060a0:	8501b103 	lw	v0,108(a2)
 20060a4:	0c411023 	sb	zero,196(v1)
 20060a8:	88002c13 	li	v1,11
 20060ac:	04233063 	beq	v0,v1,2006144 <t3_taskA4_generic_BLOCK_ERKENNUNG_CTRL+0x1e4>
 20060b0:	88200637 	lui	v1,0x400c
 20060b4:	94407003 	lb	a0,28(v1)
 20060b8:	88000413 	li	v1,1
 20060bc:	f4a3e0e3 	bne	a0,v1,2005fac <t3_taskA4_generic_BLOCK_ERKENNUNG_CTRL+0x4c>
 20060c0:	88200637 	lui	v1,0x400c
 20060c4:	8c430103 	lw	v1,192(v1)
 20060c8:	f441c863 	beqz	v1,2005fac <t3_taskA4_generic_BLOCK_ERKENNUNG_CTRL+0x4c>
 20060cc:	90200637 	lui	a0,0x400c
 20060d0:	94808103 	lw	a0,32(a0)
 20060d4:	8ca30033 	sub	v1,a0,v1
 20060d8:	8c40f0d3 	fcvt.d.wu	fv1,v1
 20060dc:	88200037 	lui	v1,0x4000
 20060e0:	84402187 	fld	fv0,8(v1)
 20060e4:	8c6150d3 	feq.d	v1,fv1,fv0
 20060e8:	f4418863 	beqz	v1,2005fac <t3_taskA4_generic_BLOCK_ERKENNUNG_CTRL+0x4c>
 20060ec:	88200637 	lui	v1,0x400c
 20060f0:	90200637 	lui	a0,0x400c
 20060f4:	94824103 	lw	a0,144(a0)
 20060f8:	9c41d103 	lw	a1,116(v1)
 20060fc:	84000413 	add	v0,v0,1
 2006100:	0521b123 	sw	v0,108(a2)
 2006104:	f4e552e3 	ble	a0,a1,2005fac <t3_taskA4_generic_BLOCK_ERKENNUNG_CTRL+0x4c>
 2006108:	0465d123 	sw	a0,116(v1)
 200610c:	004000eb 	ret
 2006110:	80200637 	lui	v0,0x400c
 2006114:	8c01d103 	lw	v1,116(v0)
 2006118:	80200637 	lui	v0,0x400c
 200611c:	84024103 	lw	v0,144(v0)
 2006120:	8c7ffc13 	add	v1,v1,-1
 2006124:	f4231263 	blt	v0,v1,2005fac <t3_taskA4_generic_BLOCK_ERKENNUNG_CTRL+0x4c>
 2006128:	88200637 	lui	v1,0x400c
 200612c:	80000413 	li	v0,1
 2006130:	04407423 	sb	zero,29(v1)
 2006134:	88200637 	lui	v1,0x400c
 2006138:	04614823 	sb	v0,82(v1)
 200613c:	04a03423 	sb	v0,13(a0)
 2006140:	004000eb 	ret
 2006144:	88200637 	lui	v1,0x400c
 2006148:	8c419103 	lw	v1,100(v1)
 200614c:	fc60c863 	beq	v1,v0,20060b0 <t3_taskA4_generic_BLOCK_ERKENNUNG_CTRL+0x150>
 2006150:	80200637 	lui	v0,0x400c
 2006154:	04007423 	sb	zero,29(v0)
 2006158:	04a63423 	sb	a1,13(a0)
 200615c:	004000eb 	ret

02006160 <t3_taskA4_FH_DU>:
 2006160:	73be2013 	add	sp,sp,-120
 2006164:	0385c123 	sw	s0,112(sp)
 2006168:	10200637 	lui	s0,0x400c
 200616c:	0387b123 	sw	s1,108(sp)
 2006170:	0389a123 	sw	s2,104(sp)
 2006174:	038b9123 	sw	s3,100(sp)
 2006178:	038d8123 	sw	s4,96(sp)
 200617c:	038f7123 	sw	s5,92(sp)
 2006180:	03916123 	sw	s6,88(sp)
 2006184:	03935123 	sw	s7,84(sp)
 2006188:	03954123 	sw	s8,80(sp)
 200618c:	03973123 	sw	s9,76(sp)
 2006190:	03992123 	sw	s10,72(sp)
 2006194:	039b1123 	sw	s11,68(sp)
 2006198:	0383d123 	sw	ra,116(sp)
 200619c:	10831013 	add	s0,s0,196
 20061a0:	88000413 	li	v1,1
 20061a4:	80200637 	lui	v0,0x400c
 20061a8:	04228123 	sw	v1,32(v0)
 20061ac:	a8804003 	lb	a3,16(s0)
 20061b0:	88802803 	lb	v1,10(s0)
 20061b4:	b0804c03 	lb	a4,19(s0)
 20061b8:	b8803403 	lb	a5,13(s0)
 20061bc:	80200637 	lui	v0,0x400c
 20061c0:	c0200637 	lui	a6,0x400c
 20061c4:	c8200637 	lui	a7,0x400c
 20061c8:	04007023 	sb	zero,28(v0)
 20061cc:	03a2a123 	sw	v1,40(sp)
 20061d0:	8600d803 	lb	v0,54(a6)
 20061d4:	03aac123 	sw	a3,48(sp)
 20061d8:	03acd123 	sw	a4,52(sp)
 20061dc:	03aeb123 	sw	a5,44(sp)
 20061e0:	c640d003 	lb	a6,52(a7)
 20061e4:	58200637 	lui	s9,0x400c
 20061e8:	60200637 	lui	s10,0x400c
 20061ec:	20200637 	lui	s2,0x400c
 20061f0:	e0200637 	lui	a10,0x400c
 20061f4:	18200637 	lui	s1,0x400c
 20061f8:	50200637 	lui	s8,0x400c
 20061fc:	48200637 	lui	s7,0x400c
 2006200:	40200637 	lui	s6,0x400c
 2006204:	38200637 	lui	s5,0x400c
 2006208:	30200637 	lui	s4,0x400c
 200620c:	28200637 	lui	s3,0x400c
 2006210:	a0200637 	lui	a2,0x400c
 2006214:	98200637 	lui	a1,0x400c
 2006218:	90200637 	lui	a0,0x400c
 200621c:	88200637 	lui	v1,0x400c
 2006220:	68200637 	lui	s11,0x400c
 2006224:	00016e67 	j	20067dc <t3_taskA4_FH_DU+0x67c>
 2006228:	b0000c13 	li	a4,3
 200622c:	356c2063 	beq	a3,a4,200683c <t3_taskA4_FH_DU+0x6dc>
 2006230:	b0000413 	li	a4,1
 2006234:	356c7863 	beq	a3,a4,2006870 <t3_taskA4_FH_DU+0x710>
 2006238:	f8200637 	lui	a13,0x400c
 200623c:	a8200637 	lui	a3,0x400c
 2006240:	b8000813 	li	a5,2
 2006244:	b0200637 	lui	a4,0x400c
 2006248:	07c07423 	sb	zero,29(a13)
 200624c:	0d402123 	sw	zero,136(a3)
 2006250:	05ae3c23 	sb	a5,15(a4)
 2006254:	cb80a103 	lw	a7,40(sp)
 2006258:	064020e3 	bnez	a7,2006268 <t3_taskA4_FH_DU+0x108>
 200625c:	a8000c13 	li	a3,3
 2006260:	d0200637 	lui	a8,0x400c
 2006264:	06aa6023 	sb	a3,24(a8)
 2006268:	db80c103 	lw	a9,48(sp)
 200626c:	06c020e3 	bnez	a9,200627c <t3_taskA4_FH_DU+0x11c>
 2006270:	b0000413 	li	a4,1
 2006274:	a8200637 	lui	a3,0x400c
 2006278:	056c3823 	sb	a4,14(a3)
 200627c:	eb80d103 	lw	a11,52(sp)
 2006280:	074030e3 	bnez	a11,2006298 <t3_taskA4_FH_DU+0x138>
 2006284:	a8200637 	lui	a3,0x400c
